ARM GAS  C:\Users\Prashant\AppData\Local\Temp\cc6tjptP.s 			page 1


   1              		.cpu cortex-m4
   2              		.eabi_attribute 27, 1
   3              		.eabi_attribute 28, 1
   4              		.eabi_attribute 20, 1
   5              		.eabi_attribute 21, 1
   6              		.eabi_attribute 23, 3
   7              		.eabi_attribute 24, 1
   8              		.eabi_attribute 25, 1
   9              		.eabi_attribute 26, 1
  10              		.eabi_attribute 30, 1
  11              		.eabi_attribute 34, 1
  12              		.eabi_attribute 18, 4
  13              		.file	"robot.cpp"
  14              		.text
  15              	.Ltext0:
  16              		.cfi_sections	.debug_frame
  17              		.global	__aeabi_f2d
  18              		.global	__aeabi_dmul
  19              		.global	__aeabi_d2f
  20              		.global	__aeabi_dcmpgt
  21              		.global	__aeabi_dcmplt
  22              		.global	__aeabi_dadd
  23              		.global	__aeabi_dsub
  24              		.global	__aeabi_dcmple
  25              		.section	.text._Z2goif,"ax",%progbits
  26              		.align	1
  27              		.global	_Z2goif
  28              		.syntax unified
  29              		.thumb
  30              		.thumb_func
  31              		.fpu fpv4-sp-d16
  33              	_Z2goif:
  34              	.LFB393:
  35              		.file 1 "Core/Src/robot/robot.cpp"
   1:Core/Src/robot/robot.cpp **** #include "robot.h"
   2:Core/Src/robot/robot.cpp **** 
   3:Core/Src/robot/robot.cpp **** static const float robot_speed = 5;
   4:Core/Src/robot/robot.cpp **** static float leg_speed = robot_speed;	 //38 is the 100%
   5:Core/Src/robot/robot.cpp **** static const float steering_speed = 0.35; // 1.35 is the 100%
   6:Core/Src/robot/robot.cpp **** static const float steering_angle_limit = 0.2;
   7:Core/Src/robot/robot.cpp **** extern leg leg[1];
   8:Core/Src/robot/robot.cpp **** extern steering steering;
   9:Core/Src/robot/robot.cpp **** float robot_angle = 0, temp_robot_angle = 0;
  10:Core/Src/robot/robot.cpp **** bool robo_angle_flag = true;
  11:Core/Src/robot/robot.cpp **** 
  12:Core/Src/robot/robot.cpp **** //float steps[6] = {15, 28, 33, 38, 48, 78};
  13:Core/Src/robot/robot.cpp **** //float angles[6] = {0, 45, 75, 35, -20, -20};
  14:Core/Src/robot/robot.cpp **** 
  15:Core/Src/robot/robot.cpp **** // float steps[6] = {15, 20, 30, 33, 55, 80};
  16:Core/Src/robot/robot.cpp **** // float angles[6] = {0, 45, 45, 60, 0, 0};
  17:Core/Src/robot/robot.cpp **** 
  18:Core/Src/robot/robot.cpp **** float steps[6] = {10, 15, 24, 28, 55, 80};
  19:Core/Src/robot/robot.cpp **** float angles[6] = {0, 45, 45, 60, 0, 0};
  20:Core/Src/robot/robot.cpp **** 
  21:Core/Src/robot/robot.cpp **** bool go(int steps, float angle)
  22:Core/Src/robot/robot.cpp **** {
  36              		.loc 1 22 0
ARM GAS  C:\Users\Prashant\AppData\Local\Temp\cc6tjptP.s 			page 2


  37              		.cfi_startproc
  38              		@ args = 0, pretend = 0, frame = 0
  39              		@ frame_needed = 0, uses_anonymous_args = 0
  40              	.LVL0:
  41 0000 2DE9D043 		push	{r4, r6, r7, r8, r9, lr}
  42              	.LCFI0:
  43              		.cfi_def_cfa_offset 24
  44              		.cfi_offset 4, -24
  45              		.cfi_offset 6, -20
  46              		.cfi_offset 7, -16
  47              		.cfi_offset 8, -12
  48              		.cfi_offset 9, -8
  49              		.cfi_offset 14, -4
  50 0004 2DED028B 		vpush.64	{d8}
  51              	.LCFI1:
  52              		.cfi_def_cfa_offset 32
  53              		.cfi_offset 80, -32
  54              		.cfi_offset 81, -28
  55 0008 0446     		mov	r4, r0
  23:Core/Src/robot/robot.cpp **** 	angle *= PI / 180;
  56              		.loc 1 23 0
  57 000a 10EE100A 		vmov	r0, s0
  58              	.LVL1:
  59 000e FFF7FEFF 		bl	__aeabi_f2d
  60              	.LVL2:
  61 0012 BCA3     		adr	r3, .L54+116
  62 0014 D3E90023 		ldrd	r2, [r3]
  63 0018 FFF7FEFF 		bl	__aeabi_dmul
  64              	.LVL3:
  65 001c FFF7FEFF 		bl	__aeabi_d2f
  66              	.LVL4:
  67 0020 08EE100A 		vmov	s16, r0
  68              	.LVL5:
  24:Core/Src/robot/robot.cpp **** 	if(steps == 38 || steps == 80) {
  69              		.loc 1 24 0
  70 0024 262C     		cmp	r4, #38
  71 0026 05D0     		beq	.L2
  72              		.loc 1 24 0 is_stmt 0 discriminator 1
  73 0028 502C     		cmp	r4, #80
  74 002a 03D0     		beq	.L2
  25:Core/Src/robot/robot.cpp **** 		leg_speed = robot_speed/1.5;
  26:Core/Src/robot/robot.cpp **** 	}
  27:Core/Src/robot/robot.cpp **** 	else
  28:Core/Src/robot/robot.cpp **** 	{
  29:Core/Src/robot/robot.cpp **** 		leg_speed = robot_speed;
  75              		.loc 1 29 0 is_stmt 1
  76 002c A64B     		ldr	r3, .L54+56
  77 002e A74A     		ldr	r2, .L54+60
  78 0030 1A60     		str	r2, [r3]	@ float
  79 0032 02E0     		b	.L4
  80              	.L2:
  25:Core/Src/robot/robot.cpp **** 		leg_speed = robot_speed/1.5;
  81              		.loc 1 25 0
  82 0034 A44B     		ldr	r3, .L54+56
  83 0036 A64A     		ldr	r2, .L54+64
  84 0038 1A60     		str	r2, [r3]	@ float
  85              	.L4:
ARM GAS  C:\Users\Prashant\AppData\Local\Temp\cc6tjptP.s 			page 3


  30:Core/Src/robot/robot.cpp **** 	}
  31:Core/Src/robot/robot.cpp **** 	
  32:Core/Src/robot/robot.cpp **** 	if((leg[0].get_angle()>((3*PI)/4))&&(leg[0].get_angle()<PI)){
  86              		.loc 1 32 0
  87 003a A648     		ldr	r0, .L54+68
  88              	.LVL6:
  89 003c FFF7FEFF 		bl	_ZN3leg9get_angleEv
  90              	.LVL7:
  91 0040 10EE100A 		vmov	r0, s0
  92 0044 FFF7FEFF 		bl	__aeabi_f2d
  93              	.LVL8:
  94 0048 91A3     		adr	r3, .L54
  95 004a D3E90023 		ldrd	r2, [r3]
  96 004e FFF7FEFF 		bl	__aeabi_dcmpgt
  97              	.LVL9:
  98 0052 80B1     		cbz	r0, .L5
  99              		.loc 1 32 0 is_stmt 0 discriminator 1
 100 0054 9F48     		ldr	r0, .L54+68
 101 0056 FFF7FEFF 		bl	_ZN3leg9get_angleEv
 102              	.LVL10:
 103 005a 10EE100A 		vmov	r0, s0
 104 005e FFF7FEFF 		bl	__aeabi_f2d
 105              	.LVL11:
 106 0062 8DA3     		adr	r3, .L54+8
 107 0064 D3E90023 		ldrd	r2, [r3]
 108 0068 FFF7FEFF 		bl	__aeabi_dcmplt
 109              	.LVL12:
 110 006c 18B1     		cbz	r0, .L5
  33:Core/Src/robot/robot.cpp **** 		leg_speed = robot_speed/2;
 111              		.loc 1 33 0 is_stmt 1
 112 006e 964B     		ldr	r3, .L54+56
 113 0070 994A     		ldr	r2, .L54+72
 114 0072 1A60     		str	r2, [r3]	@ float
 115 0074 0CE0     		b	.L8
 116              	.L5:
  34:Core/Src/robot/robot.cpp **** 	}
  35:Core/Src/robot/robot.cpp **** 	else if((leg[0].get_angle()>((6*PI)/4))&&(leg[0].get_angle()<(2*PI-(PI/6)))){
 117              		.loc 1 35 0 discriminator 4
 118 0076 9748     		ldr	r0, .L54+68
 119 0078 FFF7FEFF 		bl	_ZN3leg9get_angleEv
 120              	.LVL13:
 121 007c 10EE100A 		vmov	r0, s0
 122 0080 FFF7FEFF 		bl	__aeabi_f2d
 123              	.LVL14:
 124 0084 86A3     		adr	r3, .L54+16
 125 0086 D3E90023 		ldrd	r2, [r3]
 126 008a FFF7FEFF 		bl	__aeabi_dcmpgt
 127              	.LVL15:
 128 008e 80BB     		cbnz	r0, .L50
 129              	.L8:
  36:Core/Src/robot/robot.cpp **** 		//leg_speed = -robot_speed/3;
  37:Core/Src/robot/robot.cpp **** 		leg_speed = 1;
  38:Core/Src/robot/robot.cpp **** 	}
  39:Core/Src/robot/robot.cpp **** 	if (leg[0].get_steps() < steps)
 130              		.loc 1 39 0
 131 0090 9048     		ldr	r0, .L54+68
 132 0092 FFF7FEFF 		bl	_ZN3leg9get_stepsEv
ARM GAS  C:\Users\Prashant\AppData\Local\Temp\cc6tjptP.s 			page 4


 133              	.LVL16:
 134 0096 A042     		cmp	r0, r4
 135 0098 3EDB     		blt	.L51
 136              	.L11:
 137              	.LVL17:
 138              	.LBB8:
 139              	.LBB9:
 140              		.file 2 "c:\\program files (x86)\\gnu tools arm embedded\\7 2017-q4-major\\arm-none-eabi\\include\
   1:c:\program files (x86)\gnu tools arm embedded\7 2017-q4-major\arm-none-eabi\include\c++\7.2.1\cmath **** // -*- C++ -*- C forwarding header.
   2:c:\program files (x86)\gnu tools arm embedded\7 2017-q4-major\arm-none-eabi\include\c++\7.2.1\cmath **** 
   3:c:\program files (x86)\gnu tools arm embedded\7 2017-q4-major\arm-none-eabi\include\c++\7.2.1\cmath **** // Copyright (C) 1997-2017 Free Software Foundation, Inc.
   4:c:\program files (x86)\gnu tools arm embedded\7 2017-q4-major\arm-none-eabi\include\c++\7.2.1\cmath **** //
   5:c:\program files (x86)\gnu tools arm embedded\7 2017-q4-major\arm-none-eabi\include\c++\7.2.1\cmath **** // This file is part of the GNU ISO C++ Library.  This library is free
   6:c:\program files (x86)\gnu tools arm embedded\7 2017-q4-major\arm-none-eabi\include\c++\7.2.1\cmath **** // software; you can redistribute it and/or modify it under the
   7:c:\program files (x86)\gnu tools arm embedded\7 2017-q4-major\arm-none-eabi\include\c++\7.2.1\cmath **** // terms of the GNU General Public License as published by the
   8:c:\program files (x86)\gnu tools arm embedded\7 2017-q4-major\arm-none-eabi\include\c++\7.2.1\cmath **** // Free Software Foundation; either version 3, or (at your option)
   9:c:\program files (x86)\gnu tools arm embedded\7 2017-q4-major\arm-none-eabi\include\c++\7.2.1\cmath **** // any later version.
  10:c:\program files (x86)\gnu tools arm embedded\7 2017-q4-major\arm-none-eabi\include\c++\7.2.1\cmath **** 
  11:c:\program files (x86)\gnu tools arm embedded\7 2017-q4-major\arm-none-eabi\include\c++\7.2.1\cmath **** // This library is distributed in the hope that it will be useful,
  12:c:\program files (x86)\gnu tools arm embedded\7 2017-q4-major\arm-none-eabi\include\c++\7.2.1\cmath **** // but WITHOUT ANY WARRANTY; without even the implied warranty of
  13:c:\program files (x86)\gnu tools arm embedded\7 2017-q4-major\arm-none-eabi\include\c++\7.2.1\cmath **** // MERCHANTABILITY or FITNESS FOR A PARTICULAR PURPOSE.  See the
  14:c:\program files (x86)\gnu tools arm embedded\7 2017-q4-major\arm-none-eabi\include\c++\7.2.1\cmath **** // GNU General Public License for more details.
  15:c:\program files (x86)\gnu tools arm embedded\7 2017-q4-major\arm-none-eabi\include\c++\7.2.1\cmath **** 
  16:c:\program files (x86)\gnu tools arm embedded\7 2017-q4-major\arm-none-eabi\include\c++\7.2.1\cmath **** // Under Section 7 of GPL version 3, you are granted additional
  17:c:\program files (x86)\gnu tools arm embedded\7 2017-q4-major\arm-none-eabi\include\c++\7.2.1\cmath **** // permissions described in the GCC Runtime Library Exception, version
  18:c:\program files (x86)\gnu tools arm embedded\7 2017-q4-major\arm-none-eabi\include\c++\7.2.1\cmath **** // 3.1, as published by the Free Software Foundation.
  19:c:\program files (x86)\gnu tools arm embedded\7 2017-q4-major\arm-none-eabi\include\c++\7.2.1\cmath **** 
  20:c:\program files (x86)\gnu tools arm embedded\7 2017-q4-major\arm-none-eabi\include\c++\7.2.1\cmath **** // You should have received a copy of the GNU General Public License and
  21:c:\program files (x86)\gnu tools arm embedded\7 2017-q4-major\arm-none-eabi\include\c++\7.2.1\cmath **** // a copy of the GCC Runtime Library Exception along with this program;
  22:c:\program files (x86)\gnu tools arm embedded\7 2017-q4-major\arm-none-eabi\include\c++\7.2.1\cmath **** // see the files COPYING3 and COPYING.RUNTIME respectively.  If not, see
  23:c:\program files (x86)\gnu tools arm embedded\7 2017-q4-major\arm-none-eabi\include\c++\7.2.1\cmath **** // <http://www.gnu.org/licenses/>.
  24:c:\program files (x86)\gnu tools arm embedded\7 2017-q4-major\arm-none-eabi\include\c++\7.2.1\cmath **** 
  25:c:\program files (x86)\gnu tools arm embedded\7 2017-q4-major\arm-none-eabi\include\c++\7.2.1\cmath **** /** @file include/cmath
  26:c:\program files (x86)\gnu tools arm embedded\7 2017-q4-major\arm-none-eabi\include\c++\7.2.1\cmath ****  *  This is a Standard C++ Library file.  You should @c \#include this file
  27:c:\program files (x86)\gnu tools arm embedded\7 2017-q4-major\arm-none-eabi\include\c++\7.2.1\cmath ****  *  in your programs, rather than any of the @a *.h implementation files.
  28:c:\program files (x86)\gnu tools arm embedded\7 2017-q4-major\arm-none-eabi\include\c++\7.2.1\cmath ****  *
  29:c:\program files (x86)\gnu tools arm embedded\7 2017-q4-major\arm-none-eabi\include\c++\7.2.1\cmath ****  *  This is the C++ version of the Standard C Library header @c math.h,
  30:c:\program files (x86)\gnu tools arm embedded\7 2017-q4-major\arm-none-eabi\include\c++\7.2.1\cmath ****  *  and its contents are (mostly) the same as that header, but are all
  31:c:\program files (x86)\gnu tools arm embedded\7 2017-q4-major\arm-none-eabi\include\c++\7.2.1\cmath ****  *  contained in the namespace @c std (except for names which are defined
  32:c:\program files (x86)\gnu tools arm embedded\7 2017-q4-major\arm-none-eabi\include\c++\7.2.1\cmath ****  *  as macros in C).
  33:c:\program files (x86)\gnu tools arm embedded\7 2017-q4-major\arm-none-eabi\include\c++\7.2.1\cmath ****  */
  34:c:\program files (x86)\gnu tools arm embedded\7 2017-q4-major\arm-none-eabi\include\c++\7.2.1\cmath **** 
  35:c:\program files (x86)\gnu tools arm embedded\7 2017-q4-major\arm-none-eabi\include\c++\7.2.1\cmath **** //
  36:c:\program files (x86)\gnu tools arm embedded\7 2017-q4-major\arm-none-eabi\include\c++\7.2.1\cmath **** // ISO C++ 14882: 26.5  C library
  37:c:\program files (x86)\gnu tools arm embedded\7 2017-q4-major\arm-none-eabi\include\c++\7.2.1\cmath **** //
  38:c:\program files (x86)\gnu tools arm embedded\7 2017-q4-major\arm-none-eabi\include\c++\7.2.1\cmath **** 
  39:c:\program files (x86)\gnu tools arm embedded\7 2017-q4-major\arm-none-eabi\include\c++\7.2.1\cmath **** #pragma GCC system_header
  40:c:\program files (x86)\gnu tools arm embedded\7 2017-q4-major\arm-none-eabi\include\c++\7.2.1\cmath **** 
  41:c:\program files (x86)\gnu tools arm embedded\7 2017-q4-major\arm-none-eabi\include\c++\7.2.1\cmath **** #include <bits/c++config.h>
  42:c:\program files (x86)\gnu tools arm embedded\7 2017-q4-major\arm-none-eabi\include\c++\7.2.1\cmath **** #include <bits/cpp_type_traits.h>
  43:c:\program files (x86)\gnu tools arm embedded\7 2017-q4-major\arm-none-eabi\include\c++\7.2.1\cmath **** #include <ext/type_traits.h>
  44:c:\program files (x86)\gnu tools arm embedded\7 2017-q4-major\arm-none-eabi\include\c++\7.2.1\cmath **** #define _GLIBCXX_INCLUDE_NEXT_C_HEADERS
  45:c:\program files (x86)\gnu tools arm embedded\7 2017-q4-major\arm-none-eabi\include\c++\7.2.1\cmath **** #include_next <math.h>
  46:c:\program files (x86)\gnu tools arm embedded\7 2017-q4-major\arm-none-eabi\include\c++\7.2.1\cmath **** #undef _GLIBCXX_INCLUDE_NEXT_C_HEADERS
  47:c:\program files (x86)\gnu tools arm embedded\7 2017-q4-major\arm-none-eabi\include\c++\7.2.1\cmath **** #include <bits/std_abs.h>
  48:c:\program files (x86)\gnu tools arm embedded\7 2017-q4-major\arm-none-eabi\include\c++\7.2.1\cmath **** 
  49:c:\program files (x86)\gnu tools arm embedded\7 2017-q4-major\arm-none-eabi\include\c++\7.2.1\cmath **** #ifndef _GLIBCXX_CMATH
ARM GAS  C:\Users\Prashant\AppData\Local\Temp\cc6tjptP.s 			page 5


  50:c:\program files (x86)\gnu tools arm embedded\7 2017-q4-major\arm-none-eabi\include\c++\7.2.1\cmath **** #define _GLIBCXX_CMATH 1
  51:c:\program files (x86)\gnu tools arm embedded\7 2017-q4-major\arm-none-eabi\include\c++\7.2.1\cmath **** 
  52:c:\program files (x86)\gnu tools arm embedded\7 2017-q4-major\arm-none-eabi\include\c++\7.2.1\cmath **** // Get rid of those macros defined in <math.h> in lieu of real functions.
  53:c:\program files (x86)\gnu tools arm embedded\7 2017-q4-major\arm-none-eabi\include\c++\7.2.1\cmath **** #undef div
  54:c:\program files (x86)\gnu tools arm embedded\7 2017-q4-major\arm-none-eabi\include\c++\7.2.1\cmath **** #undef acos
  55:c:\program files (x86)\gnu tools arm embedded\7 2017-q4-major\arm-none-eabi\include\c++\7.2.1\cmath **** #undef asin
  56:c:\program files (x86)\gnu tools arm embedded\7 2017-q4-major\arm-none-eabi\include\c++\7.2.1\cmath **** #undef atan
  57:c:\program files (x86)\gnu tools arm embedded\7 2017-q4-major\arm-none-eabi\include\c++\7.2.1\cmath **** #undef atan2
  58:c:\program files (x86)\gnu tools arm embedded\7 2017-q4-major\arm-none-eabi\include\c++\7.2.1\cmath **** #undef ceil
  59:c:\program files (x86)\gnu tools arm embedded\7 2017-q4-major\arm-none-eabi\include\c++\7.2.1\cmath **** #undef cos
  60:c:\program files (x86)\gnu tools arm embedded\7 2017-q4-major\arm-none-eabi\include\c++\7.2.1\cmath **** #undef cosh
  61:c:\program files (x86)\gnu tools arm embedded\7 2017-q4-major\arm-none-eabi\include\c++\7.2.1\cmath **** #undef exp
  62:c:\program files (x86)\gnu tools arm embedded\7 2017-q4-major\arm-none-eabi\include\c++\7.2.1\cmath **** #undef fabs
  63:c:\program files (x86)\gnu tools arm embedded\7 2017-q4-major\arm-none-eabi\include\c++\7.2.1\cmath **** #undef floor
  64:c:\program files (x86)\gnu tools arm embedded\7 2017-q4-major\arm-none-eabi\include\c++\7.2.1\cmath **** #undef fmod
  65:c:\program files (x86)\gnu tools arm embedded\7 2017-q4-major\arm-none-eabi\include\c++\7.2.1\cmath **** #undef frexp
  66:c:\program files (x86)\gnu tools arm embedded\7 2017-q4-major\arm-none-eabi\include\c++\7.2.1\cmath **** #undef ldexp
  67:c:\program files (x86)\gnu tools arm embedded\7 2017-q4-major\arm-none-eabi\include\c++\7.2.1\cmath **** #undef log
  68:c:\program files (x86)\gnu tools arm embedded\7 2017-q4-major\arm-none-eabi\include\c++\7.2.1\cmath **** #undef log10
  69:c:\program files (x86)\gnu tools arm embedded\7 2017-q4-major\arm-none-eabi\include\c++\7.2.1\cmath **** #undef modf
  70:c:\program files (x86)\gnu tools arm embedded\7 2017-q4-major\arm-none-eabi\include\c++\7.2.1\cmath **** #undef pow
  71:c:\program files (x86)\gnu tools arm embedded\7 2017-q4-major\arm-none-eabi\include\c++\7.2.1\cmath **** #undef sin
  72:c:\program files (x86)\gnu tools arm embedded\7 2017-q4-major\arm-none-eabi\include\c++\7.2.1\cmath **** #undef sinh
  73:c:\program files (x86)\gnu tools arm embedded\7 2017-q4-major\arm-none-eabi\include\c++\7.2.1\cmath **** #undef sqrt
  74:c:\program files (x86)\gnu tools arm embedded\7 2017-q4-major\arm-none-eabi\include\c++\7.2.1\cmath **** #undef tan
  75:c:\program files (x86)\gnu tools arm embedded\7 2017-q4-major\arm-none-eabi\include\c++\7.2.1\cmath **** #undef tanh
  76:c:\program files (x86)\gnu tools arm embedded\7 2017-q4-major\arm-none-eabi\include\c++\7.2.1\cmath **** 
  77:c:\program files (x86)\gnu tools arm embedded\7 2017-q4-major\arm-none-eabi\include\c++\7.2.1\cmath **** extern "C++"
  78:c:\program files (x86)\gnu tools arm embedded\7 2017-q4-major\arm-none-eabi\include\c++\7.2.1\cmath **** {
  79:c:\program files (x86)\gnu tools arm embedded\7 2017-q4-major\arm-none-eabi\include\c++\7.2.1\cmath **** namespace std _GLIBCXX_VISIBILITY(default)
  80:c:\program files (x86)\gnu tools arm embedded\7 2017-q4-major\arm-none-eabi\include\c++\7.2.1\cmath **** {
  81:c:\program files (x86)\gnu tools arm embedded\7 2017-q4-major\arm-none-eabi\include\c++\7.2.1\cmath **** _GLIBCXX_BEGIN_NAMESPACE_VERSION
  82:c:\program files (x86)\gnu tools arm embedded\7 2017-q4-major\arm-none-eabi\include\c++\7.2.1\cmath **** 
  83:c:\program files (x86)\gnu tools arm embedded\7 2017-q4-major\arm-none-eabi\include\c++\7.2.1\cmath ****   using ::acos;
  84:c:\program files (x86)\gnu tools arm embedded\7 2017-q4-major\arm-none-eabi\include\c++\7.2.1\cmath **** 
  85:c:\program files (x86)\gnu tools arm embedded\7 2017-q4-major\arm-none-eabi\include\c++\7.2.1\cmath **** #ifndef __CORRECT_ISO_CPP_MATH_H_PROTO
  86:c:\program files (x86)\gnu tools arm embedded\7 2017-q4-major\arm-none-eabi\include\c++\7.2.1\cmath ****   inline _GLIBCXX_CONSTEXPR float
  87:c:\program files (x86)\gnu tools arm embedded\7 2017-q4-major\arm-none-eabi\include\c++\7.2.1\cmath ****   acos(float __x)
  88:c:\program files (x86)\gnu tools arm embedded\7 2017-q4-major\arm-none-eabi\include\c++\7.2.1\cmath ****   { return __builtin_acosf(__x); }
  89:c:\program files (x86)\gnu tools arm embedded\7 2017-q4-major\arm-none-eabi\include\c++\7.2.1\cmath **** 
  90:c:\program files (x86)\gnu tools arm embedded\7 2017-q4-major\arm-none-eabi\include\c++\7.2.1\cmath ****   inline _GLIBCXX_CONSTEXPR long double
  91:c:\program files (x86)\gnu tools arm embedded\7 2017-q4-major\arm-none-eabi\include\c++\7.2.1\cmath ****   acos(long double __x)
  92:c:\program files (x86)\gnu tools arm embedded\7 2017-q4-major\arm-none-eabi\include\c++\7.2.1\cmath ****   { return __builtin_acosl(__x); }
  93:c:\program files (x86)\gnu tools arm embedded\7 2017-q4-major\arm-none-eabi\include\c++\7.2.1\cmath **** #endif
  94:c:\program files (x86)\gnu tools arm embedded\7 2017-q4-major\arm-none-eabi\include\c++\7.2.1\cmath **** 
  95:c:\program files (x86)\gnu tools arm embedded\7 2017-q4-major\arm-none-eabi\include\c++\7.2.1\cmath ****   template<typename _Tp>
  96:c:\program files (x86)\gnu tools arm embedded\7 2017-q4-major\arm-none-eabi\include\c++\7.2.1\cmath ****     inline _GLIBCXX_CONSTEXPR
  97:c:\program files (x86)\gnu tools arm embedded\7 2017-q4-major\arm-none-eabi\include\c++\7.2.1\cmath ****     typename __gnu_cxx::__enable_if<__is_integer<_Tp>::__value, 
  98:c:\program files (x86)\gnu tools arm embedded\7 2017-q4-major\arm-none-eabi\include\c++\7.2.1\cmath ****                                     double>::__type
  99:c:\program files (x86)\gnu tools arm embedded\7 2017-q4-major\arm-none-eabi\include\c++\7.2.1\cmath ****     acos(_Tp __x)
 100:c:\program files (x86)\gnu tools arm embedded\7 2017-q4-major\arm-none-eabi\include\c++\7.2.1\cmath ****     { return __builtin_acos(__x); }
 101:c:\program files (x86)\gnu tools arm embedded\7 2017-q4-major\arm-none-eabi\include\c++\7.2.1\cmath **** 
 102:c:\program files (x86)\gnu tools arm embedded\7 2017-q4-major\arm-none-eabi\include\c++\7.2.1\cmath ****   using ::asin;
 103:c:\program files (x86)\gnu tools arm embedded\7 2017-q4-major\arm-none-eabi\include\c++\7.2.1\cmath **** 
 104:c:\program files (x86)\gnu tools arm embedded\7 2017-q4-major\arm-none-eabi\include\c++\7.2.1\cmath **** #ifndef __CORRECT_ISO_CPP_MATH_H_PROTO
 105:c:\program files (x86)\gnu tools arm embedded\7 2017-q4-major\arm-none-eabi\include\c++\7.2.1\cmath ****   inline _GLIBCXX_CONSTEXPR float
 106:c:\program files (x86)\gnu tools arm embedded\7 2017-q4-major\arm-none-eabi\include\c++\7.2.1\cmath ****   asin(float __x)
ARM GAS  C:\Users\Prashant\AppData\Local\Temp\cc6tjptP.s 			page 6


 107:c:\program files (x86)\gnu tools arm embedded\7 2017-q4-major\arm-none-eabi\include\c++\7.2.1\cmath ****   { return __builtin_asinf(__x); }
 108:c:\program files (x86)\gnu tools arm embedded\7 2017-q4-major\arm-none-eabi\include\c++\7.2.1\cmath **** 
 109:c:\program files (x86)\gnu tools arm embedded\7 2017-q4-major\arm-none-eabi\include\c++\7.2.1\cmath ****   inline _GLIBCXX_CONSTEXPR long double
 110:c:\program files (x86)\gnu tools arm embedded\7 2017-q4-major\arm-none-eabi\include\c++\7.2.1\cmath ****   asin(long double __x)
 111:c:\program files (x86)\gnu tools arm embedded\7 2017-q4-major\arm-none-eabi\include\c++\7.2.1\cmath ****   { return __builtin_asinl(__x); }
 112:c:\program files (x86)\gnu tools arm embedded\7 2017-q4-major\arm-none-eabi\include\c++\7.2.1\cmath **** #endif
 113:c:\program files (x86)\gnu tools arm embedded\7 2017-q4-major\arm-none-eabi\include\c++\7.2.1\cmath **** 
 114:c:\program files (x86)\gnu tools arm embedded\7 2017-q4-major\arm-none-eabi\include\c++\7.2.1\cmath ****   template<typename _Tp>
 115:c:\program files (x86)\gnu tools arm embedded\7 2017-q4-major\arm-none-eabi\include\c++\7.2.1\cmath ****     inline _GLIBCXX_CONSTEXPR
 116:c:\program files (x86)\gnu tools arm embedded\7 2017-q4-major\arm-none-eabi\include\c++\7.2.1\cmath ****     typename __gnu_cxx::__enable_if<__is_integer<_Tp>::__value,
 117:c:\program files (x86)\gnu tools arm embedded\7 2017-q4-major\arm-none-eabi\include\c++\7.2.1\cmath ****                                     double>::__type
 118:c:\program files (x86)\gnu tools arm embedded\7 2017-q4-major\arm-none-eabi\include\c++\7.2.1\cmath ****     asin(_Tp __x)
 119:c:\program files (x86)\gnu tools arm embedded\7 2017-q4-major\arm-none-eabi\include\c++\7.2.1\cmath ****     { return __builtin_asin(__x); }
 120:c:\program files (x86)\gnu tools arm embedded\7 2017-q4-major\arm-none-eabi\include\c++\7.2.1\cmath **** 
 121:c:\program files (x86)\gnu tools arm embedded\7 2017-q4-major\arm-none-eabi\include\c++\7.2.1\cmath ****   using ::atan;
 122:c:\program files (x86)\gnu tools arm embedded\7 2017-q4-major\arm-none-eabi\include\c++\7.2.1\cmath **** 
 123:c:\program files (x86)\gnu tools arm embedded\7 2017-q4-major\arm-none-eabi\include\c++\7.2.1\cmath **** #ifndef __CORRECT_ISO_CPP_MATH_H_PROTO
 124:c:\program files (x86)\gnu tools arm embedded\7 2017-q4-major\arm-none-eabi\include\c++\7.2.1\cmath ****   inline _GLIBCXX_CONSTEXPR float
 125:c:\program files (x86)\gnu tools arm embedded\7 2017-q4-major\arm-none-eabi\include\c++\7.2.1\cmath ****   atan(float __x)
 126:c:\program files (x86)\gnu tools arm embedded\7 2017-q4-major\arm-none-eabi\include\c++\7.2.1\cmath ****   { return __builtin_atanf(__x); }
 127:c:\program files (x86)\gnu tools arm embedded\7 2017-q4-major\arm-none-eabi\include\c++\7.2.1\cmath **** 
 128:c:\program files (x86)\gnu tools arm embedded\7 2017-q4-major\arm-none-eabi\include\c++\7.2.1\cmath ****   inline _GLIBCXX_CONSTEXPR long double
 129:c:\program files (x86)\gnu tools arm embedded\7 2017-q4-major\arm-none-eabi\include\c++\7.2.1\cmath ****   atan(long double __x)
 130:c:\program files (x86)\gnu tools arm embedded\7 2017-q4-major\arm-none-eabi\include\c++\7.2.1\cmath ****   { return __builtin_atanl(__x); }
 131:c:\program files (x86)\gnu tools arm embedded\7 2017-q4-major\arm-none-eabi\include\c++\7.2.1\cmath **** #endif
 132:c:\program files (x86)\gnu tools arm embedded\7 2017-q4-major\arm-none-eabi\include\c++\7.2.1\cmath **** 
 133:c:\program files (x86)\gnu tools arm embedded\7 2017-q4-major\arm-none-eabi\include\c++\7.2.1\cmath ****   template<typename _Tp>
 134:c:\program files (x86)\gnu tools arm embedded\7 2017-q4-major\arm-none-eabi\include\c++\7.2.1\cmath ****     inline _GLIBCXX_CONSTEXPR
 135:c:\program files (x86)\gnu tools arm embedded\7 2017-q4-major\arm-none-eabi\include\c++\7.2.1\cmath ****     typename __gnu_cxx::__enable_if<__is_integer<_Tp>::__value,
 136:c:\program files (x86)\gnu tools arm embedded\7 2017-q4-major\arm-none-eabi\include\c++\7.2.1\cmath ****                                     double>::__type
 137:c:\program files (x86)\gnu tools arm embedded\7 2017-q4-major\arm-none-eabi\include\c++\7.2.1\cmath ****     atan(_Tp __x)
 138:c:\program files (x86)\gnu tools arm embedded\7 2017-q4-major\arm-none-eabi\include\c++\7.2.1\cmath ****     { return __builtin_atan(__x); }
 139:c:\program files (x86)\gnu tools arm embedded\7 2017-q4-major\arm-none-eabi\include\c++\7.2.1\cmath **** 
 140:c:\program files (x86)\gnu tools arm embedded\7 2017-q4-major\arm-none-eabi\include\c++\7.2.1\cmath ****   using ::atan2;
 141:c:\program files (x86)\gnu tools arm embedded\7 2017-q4-major\arm-none-eabi\include\c++\7.2.1\cmath **** 
 142:c:\program files (x86)\gnu tools arm embedded\7 2017-q4-major\arm-none-eabi\include\c++\7.2.1\cmath **** #ifndef __CORRECT_ISO_CPP_MATH_H_PROTO
 143:c:\program files (x86)\gnu tools arm embedded\7 2017-q4-major\arm-none-eabi\include\c++\7.2.1\cmath ****   inline _GLIBCXX_CONSTEXPR float
 144:c:\program files (x86)\gnu tools arm embedded\7 2017-q4-major\arm-none-eabi\include\c++\7.2.1\cmath ****   atan2(float __y, float __x)
 145:c:\program files (x86)\gnu tools arm embedded\7 2017-q4-major\arm-none-eabi\include\c++\7.2.1\cmath ****   { return __builtin_atan2f(__y, __x); }
 146:c:\program files (x86)\gnu tools arm embedded\7 2017-q4-major\arm-none-eabi\include\c++\7.2.1\cmath **** 
 147:c:\program files (x86)\gnu tools arm embedded\7 2017-q4-major\arm-none-eabi\include\c++\7.2.1\cmath ****   inline _GLIBCXX_CONSTEXPR long double
 148:c:\program files (x86)\gnu tools arm embedded\7 2017-q4-major\arm-none-eabi\include\c++\7.2.1\cmath ****   atan2(long double __y, long double __x)
 149:c:\program files (x86)\gnu tools arm embedded\7 2017-q4-major\arm-none-eabi\include\c++\7.2.1\cmath ****   { return __builtin_atan2l(__y, __x); }
 150:c:\program files (x86)\gnu tools arm embedded\7 2017-q4-major\arm-none-eabi\include\c++\7.2.1\cmath **** #endif
 151:c:\program files (x86)\gnu tools arm embedded\7 2017-q4-major\arm-none-eabi\include\c++\7.2.1\cmath **** 
 152:c:\program files (x86)\gnu tools arm embedded\7 2017-q4-major\arm-none-eabi\include\c++\7.2.1\cmath ****   template<typename _Tp, typename _Up>
 153:c:\program files (x86)\gnu tools arm embedded\7 2017-q4-major\arm-none-eabi\include\c++\7.2.1\cmath ****     inline _GLIBCXX_CONSTEXPR
 154:c:\program files (x86)\gnu tools arm embedded\7 2017-q4-major\arm-none-eabi\include\c++\7.2.1\cmath ****     typename __gnu_cxx::__promote_2<_Tp, _Up>::__type
 155:c:\program files (x86)\gnu tools arm embedded\7 2017-q4-major\arm-none-eabi\include\c++\7.2.1\cmath ****     atan2(_Tp __y, _Up __x)
 156:c:\program files (x86)\gnu tools arm embedded\7 2017-q4-major\arm-none-eabi\include\c++\7.2.1\cmath ****     {
 157:c:\program files (x86)\gnu tools arm embedded\7 2017-q4-major\arm-none-eabi\include\c++\7.2.1\cmath ****       typedef typename __gnu_cxx::__promote_2<_Tp, _Up>::__type __type;
 158:c:\program files (x86)\gnu tools arm embedded\7 2017-q4-major\arm-none-eabi\include\c++\7.2.1\cmath ****       return atan2(__type(__y), __type(__x));
 159:c:\program files (x86)\gnu tools arm embedded\7 2017-q4-major\arm-none-eabi\include\c++\7.2.1\cmath ****     }
 160:c:\program files (x86)\gnu tools arm embedded\7 2017-q4-major\arm-none-eabi\include\c++\7.2.1\cmath **** 
 161:c:\program files (x86)\gnu tools arm embedded\7 2017-q4-major\arm-none-eabi\include\c++\7.2.1\cmath ****   using ::ceil;
 162:c:\program files (x86)\gnu tools arm embedded\7 2017-q4-major\arm-none-eabi\include\c++\7.2.1\cmath **** 
 163:c:\program files (x86)\gnu tools arm embedded\7 2017-q4-major\arm-none-eabi\include\c++\7.2.1\cmath **** #ifndef __CORRECT_ISO_CPP_MATH_H_PROTO
ARM GAS  C:\Users\Prashant\AppData\Local\Temp\cc6tjptP.s 			page 7


 164:c:\program files (x86)\gnu tools arm embedded\7 2017-q4-major\arm-none-eabi\include\c++\7.2.1\cmath ****   inline _GLIBCXX_CONSTEXPR float
 165:c:\program files (x86)\gnu tools arm embedded\7 2017-q4-major\arm-none-eabi\include\c++\7.2.1\cmath ****   ceil(float __x)
 166:c:\program files (x86)\gnu tools arm embedded\7 2017-q4-major\arm-none-eabi\include\c++\7.2.1\cmath ****   { return __builtin_ceilf(__x); }
 167:c:\program files (x86)\gnu tools arm embedded\7 2017-q4-major\arm-none-eabi\include\c++\7.2.1\cmath **** 
 168:c:\program files (x86)\gnu tools arm embedded\7 2017-q4-major\arm-none-eabi\include\c++\7.2.1\cmath ****   inline _GLIBCXX_CONSTEXPR long double
 169:c:\program files (x86)\gnu tools arm embedded\7 2017-q4-major\arm-none-eabi\include\c++\7.2.1\cmath ****   ceil(long double __x)
 170:c:\program files (x86)\gnu tools arm embedded\7 2017-q4-major\arm-none-eabi\include\c++\7.2.1\cmath ****   { return __builtin_ceill(__x); }
 171:c:\program files (x86)\gnu tools arm embedded\7 2017-q4-major\arm-none-eabi\include\c++\7.2.1\cmath **** #endif
 172:c:\program files (x86)\gnu tools arm embedded\7 2017-q4-major\arm-none-eabi\include\c++\7.2.1\cmath **** 
 173:c:\program files (x86)\gnu tools arm embedded\7 2017-q4-major\arm-none-eabi\include\c++\7.2.1\cmath ****   template<typename _Tp>
 174:c:\program files (x86)\gnu tools arm embedded\7 2017-q4-major\arm-none-eabi\include\c++\7.2.1\cmath ****     inline _GLIBCXX_CONSTEXPR
 175:c:\program files (x86)\gnu tools arm embedded\7 2017-q4-major\arm-none-eabi\include\c++\7.2.1\cmath ****     typename __gnu_cxx::__enable_if<__is_integer<_Tp>::__value, 
 176:c:\program files (x86)\gnu tools arm embedded\7 2017-q4-major\arm-none-eabi\include\c++\7.2.1\cmath ****                                     double>::__type
 177:c:\program files (x86)\gnu tools arm embedded\7 2017-q4-major\arm-none-eabi\include\c++\7.2.1\cmath ****     ceil(_Tp __x)
 178:c:\program files (x86)\gnu tools arm embedded\7 2017-q4-major\arm-none-eabi\include\c++\7.2.1\cmath ****     { return __builtin_ceil(__x); }
 179:c:\program files (x86)\gnu tools arm embedded\7 2017-q4-major\arm-none-eabi\include\c++\7.2.1\cmath **** 
 180:c:\program files (x86)\gnu tools arm embedded\7 2017-q4-major\arm-none-eabi\include\c++\7.2.1\cmath ****   using ::cos;
 181:c:\program files (x86)\gnu tools arm embedded\7 2017-q4-major\arm-none-eabi\include\c++\7.2.1\cmath **** 
 182:c:\program files (x86)\gnu tools arm embedded\7 2017-q4-major\arm-none-eabi\include\c++\7.2.1\cmath **** #ifndef __CORRECT_ISO_CPP_MATH_H_PROTO
 183:c:\program files (x86)\gnu tools arm embedded\7 2017-q4-major\arm-none-eabi\include\c++\7.2.1\cmath ****   inline _GLIBCXX_CONSTEXPR float
 184:c:\program files (x86)\gnu tools arm embedded\7 2017-q4-major\arm-none-eabi\include\c++\7.2.1\cmath ****   cos(float __x)
 185:c:\program files (x86)\gnu tools arm embedded\7 2017-q4-major\arm-none-eabi\include\c++\7.2.1\cmath ****   { return __builtin_cosf(__x); }
 186:c:\program files (x86)\gnu tools arm embedded\7 2017-q4-major\arm-none-eabi\include\c++\7.2.1\cmath **** 
 187:c:\program files (x86)\gnu tools arm embedded\7 2017-q4-major\arm-none-eabi\include\c++\7.2.1\cmath ****   inline _GLIBCXX_CONSTEXPR long double
 188:c:\program files (x86)\gnu tools arm embedded\7 2017-q4-major\arm-none-eabi\include\c++\7.2.1\cmath ****   cos(long double __x)
 189:c:\program files (x86)\gnu tools arm embedded\7 2017-q4-major\arm-none-eabi\include\c++\7.2.1\cmath ****   { return __builtin_cosl(__x); }
 190:c:\program files (x86)\gnu tools arm embedded\7 2017-q4-major\arm-none-eabi\include\c++\7.2.1\cmath **** #endif
 191:c:\program files (x86)\gnu tools arm embedded\7 2017-q4-major\arm-none-eabi\include\c++\7.2.1\cmath **** 
 192:c:\program files (x86)\gnu tools arm embedded\7 2017-q4-major\arm-none-eabi\include\c++\7.2.1\cmath ****   template<typename _Tp>
 193:c:\program files (x86)\gnu tools arm embedded\7 2017-q4-major\arm-none-eabi\include\c++\7.2.1\cmath ****     inline _GLIBCXX_CONSTEXPR
 194:c:\program files (x86)\gnu tools arm embedded\7 2017-q4-major\arm-none-eabi\include\c++\7.2.1\cmath ****     typename __gnu_cxx::__enable_if<__is_integer<_Tp>::__value,
 195:c:\program files (x86)\gnu tools arm embedded\7 2017-q4-major\arm-none-eabi\include\c++\7.2.1\cmath ****                                     double>::__type
 196:c:\program files (x86)\gnu tools arm embedded\7 2017-q4-major\arm-none-eabi\include\c++\7.2.1\cmath ****     cos(_Tp __x)
 197:c:\program files (x86)\gnu tools arm embedded\7 2017-q4-major\arm-none-eabi\include\c++\7.2.1\cmath ****     { return __builtin_cos(__x); }
 198:c:\program files (x86)\gnu tools arm embedded\7 2017-q4-major\arm-none-eabi\include\c++\7.2.1\cmath **** 
 199:c:\program files (x86)\gnu tools arm embedded\7 2017-q4-major\arm-none-eabi\include\c++\7.2.1\cmath ****   using ::cosh;
 200:c:\program files (x86)\gnu tools arm embedded\7 2017-q4-major\arm-none-eabi\include\c++\7.2.1\cmath **** 
 201:c:\program files (x86)\gnu tools arm embedded\7 2017-q4-major\arm-none-eabi\include\c++\7.2.1\cmath **** #ifndef __CORRECT_ISO_CPP_MATH_H_PROTO
 202:c:\program files (x86)\gnu tools arm embedded\7 2017-q4-major\arm-none-eabi\include\c++\7.2.1\cmath ****   inline _GLIBCXX_CONSTEXPR float
 203:c:\program files (x86)\gnu tools arm embedded\7 2017-q4-major\arm-none-eabi\include\c++\7.2.1\cmath ****   cosh(float __x)
 204:c:\program files (x86)\gnu tools arm embedded\7 2017-q4-major\arm-none-eabi\include\c++\7.2.1\cmath ****   { return __builtin_coshf(__x); }
 205:c:\program files (x86)\gnu tools arm embedded\7 2017-q4-major\arm-none-eabi\include\c++\7.2.1\cmath **** 
 206:c:\program files (x86)\gnu tools arm embedded\7 2017-q4-major\arm-none-eabi\include\c++\7.2.1\cmath ****   inline _GLIBCXX_CONSTEXPR long double
 207:c:\program files (x86)\gnu tools arm embedded\7 2017-q4-major\arm-none-eabi\include\c++\7.2.1\cmath ****   cosh(long double __x)
 208:c:\program files (x86)\gnu tools arm embedded\7 2017-q4-major\arm-none-eabi\include\c++\7.2.1\cmath ****   { return __builtin_coshl(__x); }
 209:c:\program files (x86)\gnu tools arm embedded\7 2017-q4-major\arm-none-eabi\include\c++\7.2.1\cmath **** #endif
 210:c:\program files (x86)\gnu tools arm embedded\7 2017-q4-major\arm-none-eabi\include\c++\7.2.1\cmath **** 
 211:c:\program files (x86)\gnu tools arm embedded\7 2017-q4-major\arm-none-eabi\include\c++\7.2.1\cmath ****   template<typename _Tp>
 212:c:\program files (x86)\gnu tools arm embedded\7 2017-q4-major\arm-none-eabi\include\c++\7.2.1\cmath ****     inline _GLIBCXX_CONSTEXPR
 213:c:\program files (x86)\gnu tools arm embedded\7 2017-q4-major\arm-none-eabi\include\c++\7.2.1\cmath ****     typename __gnu_cxx::__enable_if<__is_integer<_Tp>::__value,
 214:c:\program files (x86)\gnu tools arm embedded\7 2017-q4-major\arm-none-eabi\include\c++\7.2.1\cmath ****                                     double>::__type
 215:c:\program files (x86)\gnu tools arm embedded\7 2017-q4-major\arm-none-eabi\include\c++\7.2.1\cmath ****     cosh(_Tp __x)
 216:c:\program files (x86)\gnu tools arm embedded\7 2017-q4-major\arm-none-eabi\include\c++\7.2.1\cmath ****     { return __builtin_cosh(__x); }
 217:c:\program files (x86)\gnu tools arm embedded\7 2017-q4-major\arm-none-eabi\include\c++\7.2.1\cmath **** 
 218:c:\program files (x86)\gnu tools arm embedded\7 2017-q4-major\arm-none-eabi\include\c++\7.2.1\cmath ****   using ::exp;
 219:c:\program files (x86)\gnu tools arm embedded\7 2017-q4-major\arm-none-eabi\include\c++\7.2.1\cmath **** 
 220:c:\program files (x86)\gnu tools arm embedded\7 2017-q4-major\arm-none-eabi\include\c++\7.2.1\cmath **** #ifndef __CORRECT_ISO_CPP_MATH_H_PROTO
ARM GAS  C:\Users\Prashant\AppData\Local\Temp\cc6tjptP.s 			page 8


 221:c:\program files (x86)\gnu tools arm embedded\7 2017-q4-major\arm-none-eabi\include\c++\7.2.1\cmath ****   inline _GLIBCXX_CONSTEXPR float
 222:c:\program files (x86)\gnu tools arm embedded\7 2017-q4-major\arm-none-eabi\include\c++\7.2.1\cmath ****   exp(float __x)
 223:c:\program files (x86)\gnu tools arm embedded\7 2017-q4-major\arm-none-eabi\include\c++\7.2.1\cmath ****   { return __builtin_expf(__x); }
 224:c:\program files (x86)\gnu tools arm embedded\7 2017-q4-major\arm-none-eabi\include\c++\7.2.1\cmath **** 
 225:c:\program files (x86)\gnu tools arm embedded\7 2017-q4-major\arm-none-eabi\include\c++\7.2.1\cmath ****   inline _GLIBCXX_CONSTEXPR long double
 226:c:\program files (x86)\gnu tools arm embedded\7 2017-q4-major\arm-none-eabi\include\c++\7.2.1\cmath ****   exp(long double __x)
 227:c:\program files (x86)\gnu tools arm embedded\7 2017-q4-major\arm-none-eabi\include\c++\7.2.1\cmath ****   { return __builtin_expl(__x); }
 228:c:\program files (x86)\gnu tools arm embedded\7 2017-q4-major\arm-none-eabi\include\c++\7.2.1\cmath **** #endif
 229:c:\program files (x86)\gnu tools arm embedded\7 2017-q4-major\arm-none-eabi\include\c++\7.2.1\cmath **** 
 230:c:\program files (x86)\gnu tools arm embedded\7 2017-q4-major\arm-none-eabi\include\c++\7.2.1\cmath ****   template<typename _Tp>
 231:c:\program files (x86)\gnu tools arm embedded\7 2017-q4-major\arm-none-eabi\include\c++\7.2.1\cmath ****     inline _GLIBCXX_CONSTEXPR
 232:c:\program files (x86)\gnu tools arm embedded\7 2017-q4-major\arm-none-eabi\include\c++\7.2.1\cmath ****     typename __gnu_cxx::__enable_if<__is_integer<_Tp>::__value,
 233:c:\program files (x86)\gnu tools arm embedded\7 2017-q4-major\arm-none-eabi\include\c++\7.2.1\cmath ****                                     double>::__type
 234:c:\program files (x86)\gnu tools arm embedded\7 2017-q4-major\arm-none-eabi\include\c++\7.2.1\cmath ****     exp(_Tp __x)
 235:c:\program files (x86)\gnu tools arm embedded\7 2017-q4-major\arm-none-eabi\include\c++\7.2.1\cmath ****     { return __builtin_exp(__x); }
 236:c:\program files (x86)\gnu tools arm embedded\7 2017-q4-major\arm-none-eabi\include\c++\7.2.1\cmath **** 
 237:c:\program files (x86)\gnu tools arm embedded\7 2017-q4-major\arm-none-eabi\include\c++\7.2.1\cmath ****   using ::fabs;
 238:c:\program files (x86)\gnu tools arm embedded\7 2017-q4-major\arm-none-eabi\include\c++\7.2.1\cmath **** 
 239:c:\program files (x86)\gnu tools arm embedded\7 2017-q4-major\arm-none-eabi\include\c++\7.2.1\cmath **** #ifndef __CORRECT_ISO_CPP_MATH_H_PROTO
 240:c:\program files (x86)\gnu tools arm embedded\7 2017-q4-major\arm-none-eabi\include\c++\7.2.1\cmath ****   inline _GLIBCXX_CONSTEXPR float
 241:c:\program files (x86)\gnu tools arm embedded\7 2017-q4-major\arm-none-eabi\include\c++\7.2.1\cmath ****   fabs(float __x)
 242:c:\program files (x86)\gnu tools arm embedded\7 2017-q4-major\arm-none-eabi\include\c++\7.2.1\cmath ****   { return __builtin_fabsf(__x); }
 141              		.loc 2 242 0
 142 009a B0EEC87A 		vabs.f32	s14, s16
 143              	.LVL18:
 144              	.LBE9:
 145              	.LBE8:
  40:Core/Src/robot/robot.cpp **** 	{
  41:Core/Src/robot/robot.cpp **** 		leg[0].set_omega(leg_speed);
  42:Core/Src/robot/robot.cpp **** 	}
  43:Core/Src/robot/robot.cpp **** 
  44:Core/Src/robot/robot.cpp **** 	//printf("%d \t %d \t", (int)(100 * angle), (int)(100 * robot_angle));
  45:Core/Src/robot/robot.cpp **** 	//printf("%d \t ", (int)(100 * leg[0].get_angle()));
  46:Core/Src/robot/robot.cpp **** 	if (fabs(angle) != fabs(robot_angle))
 146              		.loc 1 46 0
 147 009e 8F4B     		ldr	r3, .L54+76
 148 00a0 D3ED007A 		vldr.32	s15, [r3]
 149              	.LVL19:
 150              	.LBB10:
 151              	.LBB11:
 152              		.loc 2 242 0
 153 00a4 F0EEE77A 		vabs.f32	s15, s15
 154              	.LVL20:
 155              	.LBE11:
 156              	.LBE10:
 157              		.loc 1 46 0
 158 00a8 B4EE677A 		vcmp.f32	s14, s15
 159 00ac F1EE10FA 		vmrs	APSR_nzcv, FPSCR
 160 00b0 00F0A380 		beq	.L12
  47:Core/Src/robot/robot.cpp **** 	{
  48:Core/Src/robot/robot.cpp **** 		if (leg[0].is_raised())
 161              		.loc 1 48 0
 162 00b4 8748     		ldr	r0, .L54+68
 163 00b6 FFF7FEFF 		bl	_ZN3leg9is_raisedEv
 164              	.LVL21:
 165 00ba 0028     		cmp	r0, #0
 166 00bc 6ED0     		beq	.L13
ARM GAS  C:\Users\Prashant\AppData\Local\Temp\cc6tjptP.s 			page 9


  49:Core/Src/robot/robot.cpp **** 		{
  50:Core/Src/robot/robot.cpp **** 			if ((steering.get_angle() > -steering_angle_limit) && (steering.get_angle() < steering_angle_lim
 167              		.loc 1 50 0
 168 00be 8848     		ldr	r0, .L54+80
 169 00c0 FFF7FEFF 		bl	_ZN8steering9get_angleEv
 170              	.LVL22:
 171 00c4 DFED877A 		vldr.32	s15, .L54+84
 172 00c8 B4EEE70A 		vcmpe.f32	s0, s15
 173 00cc F1EE10FA 		vmrs	APSR_nzcv, FPSCR
 174 00d0 09DD     		ble	.L14
 175              		.loc 1 50 0 is_stmt 0 discriminator 1
 176 00d2 8348     		ldr	r0, .L54+80
 177 00d4 FFF7FEFF 		bl	_ZN8steering9get_angleEv
 178              	.LVL23:
 179 00d8 DFED837A 		vldr.32	s15, .L54+88
 180 00dc B4EEE70A 		vcmpe.f32	s0, s15
 181 00e0 F1EE10FA 		vmrs	APSR_nzcv, FPSCR
 182 00e4 1FD4     		bmi	.L16
 183              	.L14:
  51:Core/Src/robot/robot.cpp **** 			{
  52:Core/Src/robot/robot.cpp **** 				if (angle > (robot_angle + 2 * PI / 180))
  53:Core/Src/robot/robot.cpp **** 				{
  54:Core/Src/robot/robot.cpp **** 					steering.set_omega(steering_speed);
  55:Core/Src/robot/robot.cpp **** 				}
  56:Core/Src/robot/robot.cpp **** 				else if (angle < (robot_angle - 2 * PI / 180))
  57:Core/Src/robot/robot.cpp **** 				{
  58:Core/Src/robot/robot.cpp **** 					steering.set_omega(-steering_speed);
  59:Core/Src/robot/robot.cpp **** 				}
  60:Core/Src/robot/robot.cpp **** 				else
  61:Core/Src/robot/robot.cpp **** 				{
  62:Core/Src/robot/robot.cpp **** 					steering.set_omega(0);
  63:Core/Src/robot/robot.cpp **** 				}
  64:Core/Src/robot/robot.cpp **** 				// steering.set_omega(angle>robot_angle?steering_speed:-steering_speed);
  65:Core/Src/robot/robot.cpp **** 				printf("setting steering\t");
  66:Core/Src/robot/robot.cpp **** 			}
  67:Core/Src/robot/robot.cpp **** 			else
  68:Core/Src/robot/robot.cpp **** 			{
  69:Core/Src/robot/robot.cpp **** 				steering.set_omega(0);
 184              		.loc 1 69 0 is_stmt 1 discriminator 4
 185 00e6 9FED810A 		vldr.32	s0, .L54+92
 186 00ea 7D48     		ldr	r0, .L54+80
 187 00ec FFF7FEFF 		bl	_ZN8steering9set_omegaEf
 188              	.LVL24:
 189 00f0 88E0     		b	.L17
 190              	.L50:
  35:Core/Src/robot/robot.cpp **** 		//leg_speed = -robot_speed/3;
 191              		.loc 1 35 0 discriminator 1
 192 00f2 7848     		ldr	r0, .L54+68
 193 00f4 FFF7FEFF 		bl	_ZN3leg9get_angleEv
 194              	.LVL25:
 195 00f8 10EE100A 		vmov	r0, s0
 196 00fc FFF7FEFF 		bl	__aeabi_f2d
 197              	.LVL26:
 198 0100 69A3     		adr	r3, .L54+24
 199 0102 D3E90023 		ldrd	r2, [r3]
 200 0106 FFF7FEFF 		bl	__aeabi_dcmplt
 201              	.LVL27:
ARM GAS  C:\Users\Prashant\AppData\Local\Temp\cc6tjptP.s 			page 10


 202 010a 0028     		cmp	r0, #0
 203 010c C0D0     		beq	.L8
  37:Core/Src/robot/robot.cpp **** 	}
 204              		.loc 1 37 0
 205 010e 6E4B     		ldr	r3, .L54+56
 206 0110 4FF07E52 		mov	r2, #1065353216
 207 0114 1A60     		str	r2, [r3]	@ float
 208 0116 BBE7     		b	.L8
 209              	.L51:
  41:Core/Src/robot/robot.cpp **** 	}
 210              		.loc 1 41 0
 211 0118 6B4B     		ldr	r3, .L54+56
 212 011a 93ED000A 		vldr.32	s0, [r3]
 213 011e 6D48     		ldr	r0, .L54+68
 214 0120 FFF7FEFF 		bl	_ZN3leg9set_omegaEf
 215              	.LVL28:
 216 0124 B9E7     		b	.L11
 217              	.L16:
  52:Core/Src/robot/robot.cpp **** 				{
 218              		.loc 1 52 0
 219 0126 18EE100A 		vmov	r0, s16
 220 012a FFF7FEFF 		bl	__aeabi_f2d
 221              	.LVL29:
 222 012e 0646     		mov	r6, r0
 223 0130 0F46     		mov	r7, r1
 224 0132 6A4B     		ldr	r3, .L54+76
 225 0134 1868     		ldr	r0, [r3]	@ float
 226 0136 FFF7FEFF 		bl	__aeabi_f2d
 227              	.LVL30:
 228 013a 8046     		mov	r8, r0
 229 013c 8946     		mov	r9, r1
 230 013e 5CA3     		adr	r3, .L54+32
 231 0140 D3E90023 		ldrd	r2, [r3]
 232 0144 FFF7FEFF 		bl	__aeabi_dadd
 233              	.LVL31:
 234 0148 0246     		mov	r2, r0
 235 014a 0B46     		mov	r3, r1
 236 014c 3046     		mov	r0, r6
 237 014e 3946     		mov	r1, r7
 238 0150 FFF7FEFF 		bl	__aeabi_dcmpgt
 239              	.LVL32:
 240 0154 B0B9     		cbnz	r0, .L52
  56:Core/Src/robot/robot.cpp **** 				{
 241              		.loc 1 56 0
 242 0156 56A3     		adr	r3, .L54+32
 243 0158 D3E90023 		ldrd	r2, [r3]
 244 015c 4046     		mov	r0, r8
 245 015e 4946     		mov	r1, r9
 246 0160 FFF7FEFF 		bl	__aeabi_dsub
 247              	.LVL33:
 248 0164 0246     		mov	r2, r0
 249 0166 0B46     		mov	r3, r1
 250 0168 3046     		mov	r0, r6
 251 016a 3946     		mov	r1, r7
 252 016c FFF7FEFF 		bl	__aeabi_dcmplt
 253              	.LVL34:
 254 0170 70B1     		cbz	r0, .L45
ARM GAS  C:\Users\Prashant\AppData\Local\Temp\cc6tjptP.s 			page 11


  58:Core/Src/robot/robot.cpp **** 				}
 255              		.loc 1 58 0
 256 0172 9FED5F0A 		vldr.32	s0, .L54+96
 257 0176 5A48     		ldr	r0, .L54+80
 258 0178 FFF7FEFF 		bl	_ZN8steering9set_omegaEf
 259              	.LVL35:
 260              	.L20:
  65:Core/Src/robot/robot.cpp **** 			}
 261              		.loc 1 65 0
 262 017c 5D48     		ldr	r0, .L54+100
 263 017e FFF7FEFF 		bl	printf
 264              	.LVL36:
 265 0182 3FE0     		b	.L17
 266              	.L52:
  54:Core/Src/robot/robot.cpp **** 				}
 267              		.loc 1 54 0
 268 0184 9FED5C0A 		vldr.32	s0, .L54+104
 269 0188 5548     		ldr	r0, .L54+80
 270 018a FFF7FEFF 		bl	_ZN8steering9set_omegaEf
 271              	.LVL37:
 272 018e F5E7     		b	.L20
 273              	.L45:
  62:Core/Src/robot/robot.cpp **** 				}
 274              		.loc 1 62 0
 275 0190 9FED560A 		vldr.32	s0, .L54+92
 276 0194 5248     		ldr	r0, .L54+80
 277 0196 FFF7FEFF 		bl	_ZN8steering9set_omegaEf
 278              	.LVL38:
 279 019a EFE7     		b	.L20
 280              	.L13:
  70:Core/Src/robot/robot.cpp **** 			}
  71:Core/Src/robot/robot.cpp **** 		}
  72:Core/Src/robot/robot.cpp **** 		else
  73:Core/Src/robot/robot.cpp **** 		{
  74:Core/Src/robot/robot.cpp **** 			if (steering.get_angle() > (2 * PI / 180))
 281              		.loc 1 74 0
 282 019c 5048     		ldr	r0, .L54+80
 283 019e FFF7FEFF 		bl	_ZN8steering9get_angleEv
 284              	.LVL39:
 285 01a2 10EE100A 		vmov	r0, s0
 286 01a6 FFF7FEFF 		bl	__aeabi_f2d
 287              	.LVL40:
 288 01aa 41A3     		adr	r3, .L54+32
 289 01ac D3E90023 		ldrd	r2, [r3]
 290 01b0 FFF7FEFF 		bl	__aeabi_dcmpgt
 291              	.LVL41:
 292 01b4 40B1     		cbz	r0, .L46
  75:Core/Src/robot/robot.cpp **** 			{
  76:Core/Src/robot/robot.cpp **** 				steering.set_omega(-steering_speed);
 293              		.loc 1 76 0
 294 01b6 9FED4E0A 		vldr.32	s0, .L54+96
 295 01ba 4948     		ldr	r0, .L54+80
 296 01bc FFF7FEFF 		bl	_ZN8steering9set_omegaEf
 297              	.LVL42:
 298              	.L25:
  77:Core/Src/robot/robot.cpp **** 			}
  78:Core/Src/robot/robot.cpp **** 			else if (steering.get_angle() < (-2 * PI / 180))
ARM GAS  C:\Users\Prashant\AppData\Local\Temp\cc6tjptP.s 			page 12


  79:Core/Src/robot/robot.cpp **** 			{
  80:Core/Src/robot/robot.cpp **** 				steering.set_omega(steering_speed);
  81:Core/Src/robot/robot.cpp **** 			}
  82:Core/Src/robot/robot.cpp **** 			else
  83:Core/Src/robot/robot.cpp **** 			{
  84:Core/Src/robot/robot.cpp **** 				steering.set_omega(0);
  85:Core/Src/robot/robot.cpp **** 			}
  86:Core/Src/robot/robot.cpp **** 			printf("resetting steering\t");
 299              		.loc 1 86 0
 300 01c0 4E48     		ldr	r0, .L54+108
 301 01c2 FFF7FEFF 		bl	printf
 302              	.LVL43:
 303 01c6 1DE0     		b	.L17
 304              	.L46:
  78:Core/Src/robot/robot.cpp **** 			{
 305              		.loc 1 78 0
 306 01c8 4548     		ldr	r0, .L54+80
 307 01ca FFF7FEFF 		bl	_ZN8steering9get_angleEv
 308              	.LVL44:
 309 01ce 10EE100A 		vmov	r0, s0
 310 01d2 FFF7FEFF 		bl	__aeabi_f2d
 311              	.LVL45:
 312 01d6 38A3     		adr	r3, .L54+40
 313 01d8 D3E90023 		ldrd	r2, [r3]
 314 01dc FFF7FEFF 		bl	__aeabi_dcmplt
 315              	.LVL46:
 316 01e0 28B1     		cbz	r0, .L47
  80:Core/Src/robot/robot.cpp **** 			}
 317              		.loc 1 80 0
 318 01e2 9FED450A 		vldr.32	s0, .L54+104
 319 01e6 3E48     		ldr	r0, .L54+80
 320 01e8 FFF7FEFF 		bl	_ZN8steering9set_omegaEf
 321              	.LVL47:
 322 01ec E8E7     		b	.L25
 323              	.L47:
  84:Core/Src/robot/robot.cpp **** 			}
 324              		.loc 1 84 0
 325 01ee 9FED3F0A 		vldr.32	s0, .L54+92
 326 01f2 3B48     		ldr	r0, .L54+80
 327 01f4 FFF7FEFF 		bl	_ZN8steering9set_omegaEf
 328              	.LVL48:
 329 01f8 E2E7     		b	.L25
 330              	.L12:
  87:Core/Src/robot/robot.cpp **** 			//steering.set_omega(steering_speed * ((steering.get_angle() > 0) ? (-1) : (1)));
  88:Core/Src/robot/robot.cpp **** 		}
  89:Core/Src/robot/robot.cpp **** 	}
  90:Core/Src/robot/robot.cpp **** 	else
  91:Core/Src/robot/robot.cpp **** 	{
  92:Core/Src/robot/robot.cpp **** 		steering.set_omega(0);
 331              		.loc 1 92 0
 332 01fa 9FED3C0A 		vldr.32	s0, .L54+92
 333 01fe 3848     		ldr	r0, .L54+80
 334 0200 FFF7FEFF 		bl	_ZN8steering9set_omegaEf
 335              	.LVL49:
 336              	.L17:
  93:Core/Src/robot/robot.cpp **** 	}
  94:Core/Src/robot/robot.cpp **** 
ARM GAS  C:\Users\Prashant\AppData\Local\Temp\cc6tjptP.s 			page 13


  95:Core/Src/robot/robot.cpp **** 	// printf("%d \t %d \t %d\n", (int)(steering.get_omega() * 100), (int)(steering.get_angle() * 100)
  96:Core/Src/robot/robot.cpp **** 	//printf("%d\n", (int)(leg[0].get_omega() * 100));
  97:Core/Src/robot/robot.cpp **** 
  98:Core/Src/robot/robot.cpp **** 	if (leg[0].is_raised())
 337              		.loc 1 98 0
 338 0204 3348     		ldr	r0, .L54+68
 339 0206 FFF7FEFF 		bl	_ZN3leg9is_raisedEv
 340              	.LVL50:
 341 020a 10B3     		cbz	r0, .L28
  99:Core/Src/robot/robot.cpp **** 	{
 100:Core/Src/robot/robot.cpp **** 		robot_angle = steering.get_angle() + temp_robot_angle;
 342              		.loc 1 100 0
 343 020c 3448     		ldr	r0, .L54+80
 344 020e FFF7FEFF 		bl	_ZN8steering9get_angleEv
 345              	.LVL51:
 346 0212 3B4B     		ldr	r3, .L54+112
 347 0214 D3ED007A 		vldr.32	s15, [r3]
 348 0218 30EE270A 		vadd.f32	s0, s0, s15
 349 021c 2F4B     		ldr	r3, .L54+76
 350 021e 83ED000A 		vstr.32	s0, [r3]
 351              	.L29:
 101:Core/Src/robot/robot.cpp **** 	}
 102:Core/Src/robot/robot.cpp **** 	else
 103:Core/Src/robot/robot.cpp **** 	{
 104:Core/Src/robot/robot.cpp **** 		temp_robot_angle = robot_angle - steering.get_angle();
 105:Core/Src/robot/robot.cpp **** 	}
 106:Core/Src/robot/robot.cpp **** 
 107:Core/Src/robot/robot.cpp **** 	if ((leg[0].get_steps() >= steps) && (fabs(angle-robot_angle) <= 0.05 ))
 352              		.loc 1 107 0
 353 0222 2C48     		ldr	r0, .L54+68
 354 0224 FFF7FEFF 		bl	_ZN3leg9get_stepsEv
 355              	.LVL52:
 356 0228 A042     		cmp	r0, r4
 357 022a 2CDB     		blt	.L32
 358              		.loc 1 107 0 is_stmt 0 discriminator 1
 359 022c 2B4B     		ldr	r3, .L54+76
 360 022e D3ED007A 		vldr.32	s15, [r3]
 361 0232 38EE678A 		vsub.f32	s16, s16, s15
 362              	.LVL53:
 363 0236 F0EEC87A 		vabs.f32	s15, s16
 364 023a 17EE900A 		vmov	r0, s15
 365 023e FFF7FEFF 		bl	__aeabi_f2d
 366              	.LVL54:
 367 0242 1FA3     		adr	r3, .L54+48
 368 0244 D3E90023 		ldrd	r2, [r3]
 369 0248 FFF7FEFF 		bl	__aeabi_dcmple
 370              	.LVL55:
 371 024c 68B9     		cbnz	r0, .L53
 108:Core/Src/robot/robot.cpp **** 	{
 109:Core/Src/robot/robot.cpp **** 		leg[0].set_omega(0);
 110:Core/Src/robot/robot.cpp **** 		steering.set_omega(0);
 111:Core/Src/robot/robot.cpp **** 		//printf("Completed\n");
 112:Core/Src/robot/robot.cpp **** 		return true;
 113:Core/Src/robot/robot.cpp **** 	}
 114:Core/Src/robot/robot.cpp **** 	else
 115:Core/Src/robot/robot.cpp **** 	{
 116:Core/Src/robot/robot.cpp **** 		//printf("Not Completed\n");
ARM GAS  C:\Users\Prashant\AppData\Local\Temp\cc6tjptP.s 			page 14


 117:Core/Src/robot/robot.cpp **** 		return false;
 372              		.loc 1 117 0 is_stmt 1
 373 024e 0020     		movs	r0, #0
 374 0250 1AE0     		b	.L30
 375              	.LVL56:
 376              	.L28:
 104:Core/Src/robot/robot.cpp **** 	}
 377              		.loc 1 104 0
 378 0252 224B     		ldr	r3, .L54+76
 379 0254 D3ED008A 		vldr.32	s17, [r3]
 380 0258 2148     		ldr	r0, .L54+80
 381 025a FFF7FEFF 		bl	_ZN8steering9get_angleEv
 382              	.LVL57:
 383 025e 38EEC00A 		vsub.f32	s0, s17, s0
 384 0262 274B     		ldr	r3, .L54+112
 385 0264 83ED000A 		vstr.32	s0, [r3]
 386 0268 DBE7     		b	.L29
 387              	.LVL58:
 388              	.L53:
 109:Core/Src/robot/robot.cpp **** 		steering.set_omega(0);
 389              		.loc 1 109 0
 390 026a 9FED208A 		vldr.32	s16, .L54+92
 391 026e B0EE480A 		vmov.f32	s0, s16
 392 0272 1848     		ldr	r0, .L54+68
 393 0274 FFF7FEFF 		bl	_ZN3leg9set_omegaEf
 394              	.LVL59:
 110:Core/Src/robot/robot.cpp **** 		//printf("Completed\n");
 395              		.loc 1 110 0
 396 0278 B0EE480A 		vmov.f32	s0, s16
 397 027c 1848     		ldr	r0, .L54+80
 398 027e FFF7FEFF 		bl	_ZN8steering9set_omegaEf
 399              	.LVL60:
 112:Core/Src/robot/robot.cpp **** 	}
 400              		.loc 1 112 0
 401 0282 0120     		movs	r0, #1
 402 0284 00E0     		b	.L30
 403              	.LVL61:
 404              	.L32:
 405              		.loc 1 117 0
 406 0286 0020     		movs	r0, #0
 407              	.LVL62:
 408              	.L30:
 118:Core/Src/robot/robot.cpp **** 	}
 119:Core/Src/robot/robot.cpp **** }
 409              		.loc 1 119 0
 410 0288 BDEC028B 		vldm	sp!, {d8}
 411              	.LCFI2:
 412              		.cfi_restore 80
 413              		.cfi_restore 81
 414              		.cfi_def_cfa_offset 24
 415 028c BDE8D083 		pop	{r4, r6, r7, r8, r9, pc}
 416              	.LVL63:
 417              	.L55:
 418              		.align	3
 419              	.L54:
 420 0290 D221337F 		.word	2134057426
 421 0294 7CD90240 		.word	1073928572
ARM GAS  C:\Users\Prashant\AppData\Local\Temp\cc6tjptP.s 			page 15


 422 0298 182D4454 		.word	1413754136
 423 029c FB210940 		.word	1074340347
 424 02a0 D221337F 		.word	2134057426
 425 02a4 7CD91240 		.word	1074977148
 426 02a8 AB7E3E0D 		.word	222199467
 427 02ac D1091740 		.word	1075251665
 428 02b0 399D52A2 		.word	-1571644103
 429 02b4 46DFA13F 		.word	1067573062
 430 02b8 399D52A2 		.word	-1571644103
 431 02bc 46DFA1BF 		.word	-1079910586
 432 02c0 9A999999 		.word	-1717986918
 433 02c4 9999A93F 		.word	1068079513
 434 02c8 00000000 		.word	.LANCHOR0
 435 02cc 0000A040 		.word	1084227584
 436 02d0 55555540 		.word	1079334229
 437 02d4 00000000 		.word	leg
 438 02d8 00002040 		.word	1075838976
 439 02dc 00000000 		.word	.LANCHOR1
 440 02e0 00000000 		.word	steering
 441 02e4 CDCC4CBE 		.word	-1102263091
 442 02e8 CDCC4C3E 		.word	1045220557
 443 02ec 00000000 		.word	0
 444 02f0 3333B3BE 		.word	-1095552205
 445 02f4 00000000 		.word	.LC0
 446 02f8 3333B33E 		.word	1051931443
 447 02fc 14000000 		.word	.LC1
 448 0300 00000000 		.word	.LANCHOR2
 449 0304 399D52A2 		.word	-1571644103
 450 0308 46DF913F 		.word	1066524486
 451              		.cfi_endproc
 452              	.LFE393:
 454              		.section	.text._Z4playv,"ax",%progbits
 455              		.align	1
 456              		.global	_Z4playv
 457              		.syntax unified
 458              		.thumb
 459              		.thumb_func
 460              		.fpu fpv4-sp-d16
 462              	_Z4playv:
 463              	.LFB394:
 120:Core/Src/robot/robot.cpp **** 
 121:Core/Src/robot/robot.cpp **** bool play()
 122:Core/Src/robot/robot.cpp **** {
 464              		.loc 1 122 0
 465              		.cfi_startproc
 466              		@ args = 0, pretend = 0, frame = 0
 467              		@ frame_needed = 0, uses_anonymous_args = 0
 468 0000 10B5     		push	{r4, lr}
 469              	.LCFI3:
 470              		.cfi_def_cfa_offset 8
 471              		.cfi_offset 4, -8
 472              		.cfi_offset 14, -4
 123:Core/Src/robot/robot.cpp **** 	uint32_t dt = HAL_GetTick();
 473              		.loc 1 123 0
 474 0002 FFF7FEFF 		bl	HAL_GetTick
 475              	.LVL64:
 476 0006 0446     		mov	r4, r0
ARM GAS  C:\Users\Prashant\AppData\Local\Temp\cc6tjptP.s 			page 16


 477              	.LVL65:
 478              	.L57:
 124:Core/Src/robot/robot.cpp **** 	while (true)
 125:Core/Src/robot/robot.cpp **** 		{
 126:Core/Src/robot/robot.cpp **** 			if ((HAL_GetTick() - dt) >= (int)(SAMPLE_TIME))
 479              		.loc 1 126 0
 480 0008 FFF7FEFF 		bl	HAL_GetTick
 481              	.LVL66:
 482 000c 001B     		subs	r0, r0, r4
 483 000e 0928     		cmp	r0, #9
 484 0010 FAD9     		bls	.L57
 127:Core/Src/robot/robot.cpp **** 			{
 128:Core/Src/robot/robot.cpp **** 				dt = HAL_GetTick();
 485              		.loc 1 128 0
 486 0012 FFF7FEFF 		bl	HAL_GetTick
 487              	.LVL67:
 488 0016 0446     		mov	r4, r0
 489              	.LVL68:
 129:Core/Src/robot/robot.cpp **** 				if (go(10, 0) == true)
 490              		.loc 1 129 0
 491 0018 9FED040A 		vldr.32	s0, .L60
 492 001c 0A20     		movs	r0, #10
 493              	.LVL69:
 494 001e FFF7FEFF 		bl	_Z2goif
 495              	.LVL70:
 496 0022 0028     		cmp	r0, #0
 497 0024 F0D0     		beq	.L57
 130:Core/Src/robot/robot.cpp **** 					break;
 131:Core/Src/robot/robot.cpp **** 			}
 132:Core/Src/robot/robot.cpp **** 		}
 133:Core/Src/robot/robot.cpp **** 	// for (int i = 0; i < 6; i++)
 134:Core/Src/robot/robot.cpp **** 	// {
 135:Core/Src/robot/robot.cpp **** 	// 	while (true)
 136:Core/Src/robot/robot.cpp **** 	// 	{
 137:Core/Src/robot/robot.cpp **** 	// 		if ((HAL_GetTick() - dt) >= (int)(SAMPLE_TIME))
 138:Core/Src/robot/robot.cpp **** 	// 		{
 139:Core/Src/robot/robot.cpp **** 	// 			dt = HAL_GetTick();
 140:Core/Src/robot/robot.cpp **** 	// 			if (go(steps[i], angles[i]) == true)
 141:Core/Src/robot/robot.cpp **** 	// 				break;
 142:Core/Src/robot/robot.cpp **** 	// 		}
 143:Core/Src/robot/robot.cpp **** 	// 	}
 144:Core/Src/robot/robot.cpp **** 	// 	printf ("\tstep=%d\t", i);
 145:Core/Src/robot/robot.cpp **** 	// }
 146:Core/Src/robot/robot.cpp **** 	return true;
 147:Core/Src/robot/robot.cpp **** }
 498              		.loc 1 147 0
 499 0026 0120     		movs	r0, #1
 500 0028 10BD     		pop	{r4, pc}
 501              	.LVL71:
 502              	.L61:
 503 002a 00BF     		.align	2
 504              	.L60:
 505 002c 00000000 		.word	0
 506              		.cfi_endproc
 507              	.LFE394:
 509              		.global	angles
 510              		.global	steps
ARM GAS  C:\Users\Prashant\AppData\Local\Temp\cc6tjptP.s 			page 17


 511              		.global	robo_angle_flag
 512              		.global	temp_robot_angle
 513              		.global	robot_angle
 514              		.section	.bss.robot_angle,"aw",%nobits
 515              		.align	2
 516              		.set	.LANCHOR1,. + 0
 519              	robot_angle:
 520 0000 00000000 		.space	4
 521              		.section	.bss.temp_robot_angle,"aw",%nobits
 522              		.align	2
 523              		.set	.LANCHOR2,. + 0
 526              	temp_robot_angle:
 527 0000 00000000 		.space	4
 528              		.section	.data._ZL9leg_speed,"aw",%progbits
 529              		.align	2
 530              		.set	.LANCHOR0,. + 0
 533              	_ZL9leg_speed:
 534 0000 0000A040 		.word	1084227584
 535              		.section	.data.angles,"aw",%progbits
 536              		.align	2
 539              	angles:
 540 0000 00000000 		.word	0
 541 0004 00003442 		.word	1110704128
 542 0008 00003442 		.word	1110704128
 543 000c 00007042 		.word	1114636288
 544 0010 00000000 		.word	0
 545 0014 00000000 		.word	0
 546              		.section	.data.robo_angle_flag,"aw",%progbits
 549              	robo_angle_flag:
 550 0000 01       		.byte	1
 551              		.section	.data.steps,"aw",%progbits
 552              		.align	2
 555              	steps:
 556 0000 00002041 		.word	1092616192
 557 0004 00007041 		.word	1097859072
 558 0008 0000C041 		.word	1103101952
 559 000c 0000E041 		.word	1105199104
 560 0010 00005C42 		.word	1113325568
 561 0014 0000A042 		.word	1117782016
 562              		.section	.rodata._Z2goif.str1.4,"aMS",%progbits,1
 563              		.align	2
 564              	.LC0:
 565 0000 73657474 		.ascii	"setting steering\011\000"
 565      696E6720 
 565      73746565 
 565      72696E67 
 565      0900
 566 0012 0000     		.space	2
 567              	.LC1:
 568 0014 72657365 		.ascii	"resetting steering\011\000"
 568      7474696E 
 568      67207374 
 568      65657269 
 568      6E670900 
 569              		.text
 570              	.Letext0:
 571              		.file 3 "c:\\program files (x86)\\gnu tools arm embedded\\7 2017-q4-major\\arm-none-eabi\\include\
ARM GAS  C:\Users\Prashant\AppData\Local\Temp\cc6tjptP.s 			page 18


 572              		.file 4 "c:\\program files (x86)\\gnu tools arm embedded\\7 2017-q4-major\\arm-none-eabi\\include\
 573              		.file 5 "Drivers/CMSIS/Include/core_cm4.h"
 574              		.file 6 "Drivers/CMSIS/Device/ST/STM32F4xx/Include/system_stm32f4xx.h"
 575              		.file 7 "Drivers/CMSIS/Device/ST/STM32F4xx/Include/stm32f407xx.h"
 576              		.file 8 "c:\\program files (x86)\\gnu tools arm embedded\\7 2017-q4-major\\arm-none-eabi\\include\
 577              		.file 9 "c:\\program files (x86)\\gnu tools arm embedded\\7 2017-q4-major\\arm-none-eabi\\include\
 578              		.file 10 "c:\\program files (x86)\\gnu tools arm embedded\\7 2017-q4-major\\lib\\gcc\\arm-none-eab
 579              		.file 11 "c:\\program files (x86)\\gnu tools arm embedded\\7 2017-q4-major\\arm-none-eabi\\include
 580              		.file 12 "Drivers/STM32F4xx_HAL_Driver/Inc/stm32f4xx_hal_def.h"
 581              		.file 13 "Drivers/STM32F4xx_HAL_Driver/Inc/stm32f4xx_hal_dma.h"
 582              		.file 14 "Drivers/STM32F4xx_HAL_Driver/Inc/stm32f4xx_hal_tim.h"
 583              		.file 15 "Drivers/STM32F4xx_HAL_Driver/Inc/stm32f4xx_hal_uart.h"
 584              		.file 16 "Core/Inc/periphs/tim.h"
 585              		.file 17 "c:\\program files (x86)\\gnu tools arm embedded\\7 2017-q4-major\\arm-none-eabi\\include
 586              		.file 18 "c:\\program files (x86)\\gnu tools arm embedded\\7 2017-q4-major\\arm-none-eabi\\include
 587              		.file 19 "c:\\program files (x86)\\gnu tools arm embedded\\7 2017-q4-major\\arm-none-eabi\\include
 588              		.file 20 "c:\\program files (x86)\\gnu tools arm embedded\\7 2017-q4-major\\arm-none-eabi\\include
 589              		.file 21 "Core/Inc/devs/motor.h"
 590              		.file 22 "Core/Inc/devs/encoder.h"
 591              		.file 23 "Core/Inc/devs/pid.h"
 592              		.file 24 "Core/Inc/devs/limit_switch.h"
 593              		.file 25 "Core/Inc/devs/leg.h"
 594              		.file 26 "Core/Inc/devs/steering.h"
 595              		.file 27 "Core/Inc/periphs/usart.h"
 596              		.file 28 "Drivers/STM32F4xx_HAL_Driver/Inc/stm32f4xx_hal.h"
 597              		.file 29 "c:\\program files (x86)\\gnu tools arm embedded\\7 2017-q4-major\\arm-none-eabi\\include
 598              		.file 30 "<built-in>"
ARM GAS  C:\Users\Prashant\AppData\Local\Temp\cc6tjptP.s 			page 19

