ARM GAS  C:\Users\Prashant\AppData\Local\Temp\ccxGmdSR.s 			page 1


   1              		.cpu cortex-m4
   2              		.eabi_attribute 27, 1
   3              		.eabi_attribute 28, 1
   4              		.eabi_attribute 20, 1
   5              		.eabi_attribute 21, 1
   6              		.eabi_attribute 23, 3
   7              		.eabi_attribute 24, 1
   8              		.eabi_attribute 25, 1
   9              		.eabi_attribute 26, 1
  10              		.eabi_attribute 30, 1
  11              		.eabi_attribute 34, 1
  12              		.eabi_attribute 18, 4
  13              		.file	"adc.c"
  14              		.text
  15              	.Ltext0:
  16              		.cfi_sections	.debug_frame
  17              		.section	.text.MX_ADC1_Init,"ax",%progbits
  18              		.align	1
  19              		.global	MX_ADC1_Init
  20              		.syntax unified
  21              		.thumb
  22              		.thumb_func
  23              		.fpu fpv4-sp-d16
  25              	MX_ADC1_Init:
  26              	.LFB126:
  27              		.file 1 "Core/Src/periphs/adc.c"
   1:Core/Src/periphs/adc.c **** /**
   2:Core/Src/periphs/adc.c ****   ******************************************************************************
   3:Core/Src/periphs/adc.c ****   * File Name          : ADC.c
   4:Core/Src/periphs/adc.c ****   * Description        : This file provides code for the configuration
   5:Core/Src/periphs/adc.c ****   *                      of the ADC instances.
   6:Core/Src/periphs/adc.c ****   ******************************************************************************
   7:Core/Src/periphs/adc.c ****   * This notice applies to any and all portions of this file
   8:Core/Src/periphs/adc.c ****   * that are not between comment pairs USER CODE BEGIN and
   9:Core/Src/periphs/adc.c ****   * USER CODE END. Other portions of this file, whether 
  10:Core/Src/periphs/adc.c ****   * inserted by the user or by software development tools
  11:Core/Src/periphs/adc.c ****   * are owned by their respective copyright owners.
  12:Core/Src/periphs/adc.c ****   *
  13:Core/Src/periphs/adc.c ****   * Copyright (c) 2019 STMicroelectronics International N.V. 
  14:Core/Src/periphs/adc.c ****   * All rights reserved.
  15:Core/Src/periphs/adc.c ****   *
  16:Core/Src/periphs/adc.c ****   * Redistribution and use in source and binary forms, with or without 
  17:Core/Src/periphs/adc.c ****   * modification, are permitted, provided that the following conditions are met:
  18:Core/Src/periphs/adc.c ****   *
  19:Core/Src/periphs/adc.c ****   * 1. Redistribution of source code must retain the above copyright notice, 
  20:Core/Src/periphs/adc.c ****   *    this list of conditions and the following disclaimer.
  21:Core/Src/periphs/adc.c ****   * 2. Redistributions in binary form must reproduce the above copyright notice,
  22:Core/Src/periphs/adc.c ****   *    this list of conditions and the following disclaimer in the documentation
  23:Core/Src/periphs/adc.c ****   *    and/or other materials provided with the distribution.
  24:Core/Src/periphs/adc.c ****   * 3. Neither the name of STMicroelectronics nor the names of other 
  25:Core/Src/periphs/adc.c ****   *    contributors to this software may be used to endorse or promote products 
  26:Core/Src/periphs/adc.c ****   *    derived from this software without specific written permission.
  27:Core/Src/periphs/adc.c ****   * 4. This software, including modifications and/or derivative works of this 
  28:Core/Src/periphs/adc.c ****   *    software, must execute solely and exclusively on microcontroller or
  29:Core/Src/periphs/adc.c ****   *    microprocessor devices manufactured by or for STMicroelectronics.
  30:Core/Src/periphs/adc.c ****   * 5. Redistribution and use of this software other than as permitted under 
  31:Core/Src/periphs/adc.c ****   *    this license is void and will automatically terminate your rights under 
ARM GAS  C:\Users\Prashant\AppData\Local\Temp\ccxGmdSR.s 			page 2


  32:Core/Src/periphs/adc.c ****   *    this license. 
  33:Core/Src/periphs/adc.c ****   *
  34:Core/Src/periphs/adc.c ****   * THIS SOFTWARE IS PROVIDED BY STMICROELECTRONICS AND CONTRIBUTORS "AS IS" 
  35:Core/Src/periphs/adc.c ****   * AND ANY EXPRESS, IMPLIED OR STATUTORY WARRANTIES, INCLUDING, BUT NOT 
  36:Core/Src/periphs/adc.c ****   * LIMITED TO, THE IMPLIED WARRANTIES OF MERCHANTABILITY, FITNESS FOR A 
  37:Core/Src/periphs/adc.c ****   * PARTICULAR PURPOSE AND NON-INFRINGEMENT OF THIRD PARTY INTELLECTUAL PROPERTY
  38:Core/Src/periphs/adc.c ****   * RIGHTS ARE DISCLAIMED TO THE FULLEST EXTENT PERMITTED BY LAW. IN NO EVENT 
  39:Core/Src/periphs/adc.c ****   * SHALL STMICROELECTRONICS OR CONTRIBUTORS BE LIABLE FOR ANY DIRECT, INDIRECT,
  40:Core/Src/periphs/adc.c ****   * INCIDENTAL, SPECIAL, EXEMPLARY, OR CONSEQUENTIAL DAMAGES (INCLUDING, BUT NOT
  41:Core/Src/periphs/adc.c ****   * LIMITED TO, PROCUREMENT OF SUBSTITUTE GOODS OR SERVICES; LOSS OF USE, DATA, 
  42:Core/Src/periphs/adc.c ****   * OR PROFITS; OR BUSINESS INTERRUPTION) HOWEVER CAUSED AND ON ANY THEORY OF 
  43:Core/Src/periphs/adc.c ****   * LIABILITY, WHETHER IN CONTRACT, STRICT LIABILITY, OR TORT (INCLUDING 
  44:Core/Src/periphs/adc.c ****   * NEGLIGENCE OR OTHERWISE) ARISING IN ANY WAY OUT OF THE USE OF THIS SOFTWARE,
  45:Core/Src/periphs/adc.c ****   * EVEN IF ADVISED OF THE POSSIBILITY OF SUCH DAMAGE.
  46:Core/Src/periphs/adc.c ****   *
  47:Core/Src/periphs/adc.c ****   ******************************************************************************
  48:Core/Src/periphs/adc.c ****   */
  49:Core/Src/periphs/adc.c **** 
  50:Core/Src/periphs/adc.c **** /* Includes ------------------------------------------------------------------*/
  51:Core/Src/periphs/adc.c **** #include "adc.h"
  52:Core/Src/periphs/adc.c **** 
  53:Core/Src/periphs/adc.c **** /* USER CODE BEGIN 0 */
  54:Core/Src/periphs/adc.c **** 
  55:Core/Src/periphs/adc.c **** /* USER CODE END 0 */
  56:Core/Src/periphs/adc.c **** 
  57:Core/Src/periphs/adc.c **** ADC_HandleTypeDef hadc1;
  58:Core/Src/periphs/adc.c **** 
  59:Core/Src/periphs/adc.c **** /* ADC1 init function */
  60:Core/Src/periphs/adc.c **** void MX_ADC1_Init(void)
  61:Core/Src/periphs/adc.c **** {
  28              		.loc 1 61 0
  29              		.cfi_startproc
  30              		@ args = 0, pretend = 0, frame = 56
  31              		@ frame_needed = 0, uses_anonymous_args = 0
  32 0000 10B5     		push	{r4, lr}
  33              	.LCFI0:
  34              		.cfi_def_cfa_offset 8
  35              		.cfi_offset 4, -8
  36              		.cfi_offset 14, -4
  37 0002 8EB0     		sub	sp, sp, #56
  38              	.LCFI1:
  39              		.cfi_def_cfa_offset 64
  62:Core/Src/periphs/adc.c ****   ADC_ChannelConfTypeDef sConfig = {0};
  40              		.loc 1 62 0
  41 0004 0024     		movs	r4, #0
  42 0006 0A94     		str	r4, [sp, #40]
  43 0008 0B94     		str	r4, [sp, #44]
  44 000a 0C94     		str	r4, [sp, #48]
  45 000c 0D94     		str	r4, [sp, #52]
  63:Core/Src/periphs/adc.c ****   ADC_InjectionConfTypeDef sConfigInjected = {0};
  46              		.loc 1 63 0
  47 000e 2422     		movs	r2, #36
  48 0010 2146     		mov	r1, r4
  49 0012 01A8     		add	r0, sp, #4
  50 0014 FFF7FEFF 		bl	memset
  51              	.LVL0:
  64:Core/Src/periphs/adc.c **** 
ARM GAS  C:\Users\Prashant\AppData\Local\Temp\ccxGmdSR.s 			page 3


  65:Core/Src/periphs/adc.c ****   /**Configure the global features of the ADC (Clock, Resolution, Data Alignment and number of conv
  66:Core/Src/periphs/adc.c ****   */
  67:Core/Src/periphs/adc.c ****   hadc1.Instance = ADC1;
  52              		.loc 1 67 0
  53 0018 1E48     		ldr	r0, .L9
  54 001a 1F4B     		ldr	r3, .L9+4
  55 001c 0360     		str	r3, [r0]
  68:Core/Src/periphs/adc.c ****   hadc1.Init.ClockPrescaler = ADC_CLOCK_SYNC_PCLK_DIV4;
  56              		.loc 1 68 0
  57 001e 4FF48033 		mov	r3, #65536
  58 0022 4360     		str	r3, [r0, #4]
  69:Core/Src/periphs/adc.c ****   hadc1.Init.Resolution = ADC_RESOLUTION_12B;
  59              		.loc 1 69 0
  60 0024 8460     		str	r4, [r0, #8]
  70:Core/Src/periphs/adc.c ****   hadc1.Init.ScanConvMode = DISABLE;
  61              		.loc 1 70 0
  62 0026 0461     		str	r4, [r0, #16]
  71:Core/Src/periphs/adc.c ****   hadc1.Init.ContinuousConvMode = ENABLE;
  63              		.loc 1 71 0
  64 0028 0123     		movs	r3, #1
  65 002a 8361     		str	r3, [r0, #24]
  72:Core/Src/periphs/adc.c ****   hadc1.Init.DiscontinuousConvMode = DISABLE;
  66              		.loc 1 72 0
  67 002c 0462     		str	r4, [r0, #32]
  73:Core/Src/periphs/adc.c ****   hadc1.Init.ExternalTrigConvEdge = ADC_EXTERNALTRIGCONVEDGE_NONE;
  68              		.loc 1 73 0
  69 002e C462     		str	r4, [r0, #44]
  74:Core/Src/periphs/adc.c ****   hadc1.Init.ExternalTrigConv = ADC_SOFTWARE_START;
  70              		.loc 1 74 0
  71 0030 1A4A     		ldr	r2, .L9+8
  72 0032 8262     		str	r2, [r0, #40]
  75:Core/Src/periphs/adc.c ****   hadc1.Init.DataAlign = ADC_DATAALIGN_RIGHT;
  73              		.loc 1 75 0
  74 0034 C460     		str	r4, [r0, #12]
  76:Core/Src/periphs/adc.c ****   hadc1.Init.NbrOfConversion = 1;
  75              		.loc 1 76 0
  76 0036 C361     		str	r3, [r0, #28]
  77:Core/Src/periphs/adc.c ****   hadc1.Init.DMAContinuousRequests = DISABLE;
  77              		.loc 1 77 0
  78 0038 0463     		str	r4, [r0, #48]
  78:Core/Src/periphs/adc.c ****   hadc1.Init.EOCSelection = ADC_EOC_SINGLE_CONV;
  79              		.loc 1 78 0
  80 003a 4361     		str	r3, [r0, #20]
  79:Core/Src/periphs/adc.c ****   if (HAL_ADC_Init(&hadc1) != HAL_OK)
  81              		.loc 1 79 0
  82 003c FFF7FEFF 		bl	HAL_ADC_Init
  83              	.LVL1:
  84 0040 F0B9     		cbnz	r0, .L6
  85              	.L2:
  80:Core/Src/periphs/adc.c ****   {
  81:Core/Src/periphs/adc.c ****     Error_Handler();
  82:Core/Src/periphs/adc.c ****   }
  83:Core/Src/periphs/adc.c ****   /**Configure for the selected ADC regular channel its corresponding rank in the sequencer and its
  84:Core/Src/periphs/adc.c ****   */
  85:Core/Src/periphs/adc.c ****   sConfig.Channel = ADC_CHANNEL_15;
  86              		.loc 1 85 0
  87 0042 0F23     		movs	r3, #15
ARM GAS  C:\Users\Prashant\AppData\Local\Temp\ccxGmdSR.s 			page 4


  88 0044 0A93     		str	r3, [sp, #40]
  86:Core/Src/periphs/adc.c ****   sConfig.Rank = 1;
  89              		.loc 1 86 0
  90 0046 0123     		movs	r3, #1
  91 0048 0B93     		str	r3, [sp, #44]
  87:Core/Src/periphs/adc.c ****   sConfig.SamplingTime = ADC_SAMPLETIME_3CYCLES;
  92              		.loc 1 87 0
  93 004a 0023     		movs	r3, #0
  94 004c 0C93     		str	r3, [sp, #48]
  88:Core/Src/periphs/adc.c ****   if (HAL_ADC_ConfigChannel(&hadc1, &sConfig) != HAL_OK)
  95              		.loc 1 88 0
  96 004e 0AA9     		add	r1, sp, #40
  97 0050 1048     		ldr	r0, .L9
  98 0052 FFF7FEFF 		bl	HAL_ADC_ConfigChannel
  99              	.LVL2:
 100 0056 B0B9     		cbnz	r0, .L7
 101              	.L3:
  89:Core/Src/periphs/adc.c ****   {
  90:Core/Src/periphs/adc.c ****     Error_Handler();
  91:Core/Src/periphs/adc.c ****   }
  92:Core/Src/periphs/adc.c ****   /**Configures for the selected ADC injected channel its corresponding rank in the sequencer and i
  93:Core/Src/periphs/adc.c ****   */
  94:Core/Src/periphs/adc.c ****   sConfigInjected.InjectedChannel = ADC_CHANNEL_15;
 102              		.loc 1 94 0
 103 0058 0F23     		movs	r3, #15
 104 005a 0193     		str	r3, [sp, #4]
  95:Core/Src/periphs/adc.c ****   sConfigInjected.InjectedRank = 1;
 105              		.loc 1 95 0
 106 005c 0123     		movs	r3, #1
 107 005e 0293     		str	r3, [sp, #8]
  96:Core/Src/periphs/adc.c ****   sConfigInjected.InjectedNbrOfConversion = 1;
 108              		.loc 1 96 0
 109 0060 0593     		str	r3, [sp, #20]
  97:Core/Src/periphs/adc.c ****   sConfigInjected.InjectedSamplingTime = ADC_SAMPLETIME_15CYCLES;
 110              		.loc 1 97 0
 111 0062 0393     		str	r3, [sp, #12]
  98:Core/Src/periphs/adc.c ****   sConfigInjected.ExternalTrigInjecConvEdge = ADC_EXTERNALTRIGINJECCONVEDGE_NONE;
 112              		.loc 1 98 0
 113 0064 0023     		movs	r3, #0
 114 0066 0993     		str	r3, [sp, #36]
  99:Core/Src/periphs/adc.c ****   sConfigInjected.ExternalTrigInjecConv = ADC_INJECTED_SOFTWARE_START;
 115              		.loc 1 99 0
 116 0068 0D4A     		ldr	r2, .L9+12
 117 006a 0892     		str	r2, [sp, #32]
 100:Core/Src/periphs/adc.c ****   sConfigInjected.AutoInjectedConv = DISABLE;
 118              		.loc 1 100 0
 119 006c 0793     		str	r3, [sp, #28]
 101:Core/Src/periphs/adc.c ****   sConfigInjected.InjectedDiscontinuousConvMode = DISABLE;
 120              		.loc 1 101 0
 121 006e 0693     		str	r3, [sp, #24]
 102:Core/Src/periphs/adc.c ****   sConfigInjected.InjectedOffset = 0;
 122              		.loc 1 102 0
 123 0070 0493     		str	r3, [sp, #16]
 103:Core/Src/periphs/adc.c ****   if (HAL_ADCEx_InjectedConfigChannel(&hadc1, &sConfigInjected) != HAL_OK)
 124              		.loc 1 103 0
 125 0072 01A9     		add	r1, sp, #4
 126 0074 0748     		ldr	r0, .L9
ARM GAS  C:\Users\Prashant\AppData\Local\Temp\ccxGmdSR.s 			page 5


 127 0076 FFF7FEFF 		bl	HAL_ADCEx_InjectedConfigChannel
 128              	.LVL3:
 129 007a 38B9     		cbnz	r0, .L8
 130              	.L1:
 104:Core/Src/periphs/adc.c ****   {
 105:Core/Src/periphs/adc.c ****     Error_Handler();
 106:Core/Src/periphs/adc.c ****   }
 107:Core/Src/periphs/adc.c **** 
 108:Core/Src/periphs/adc.c **** }
 131              		.loc 1 108 0
 132 007c 0EB0     		add	sp, sp, #56
 133              	.LCFI2:
 134              		.cfi_remember_state
 135              		.cfi_def_cfa_offset 8
 136              		@ sp needed
 137 007e 10BD     		pop	{r4, pc}
 138              	.L6:
 139              	.LCFI3:
 140              		.cfi_restore_state
  81:Core/Src/periphs/adc.c ****   }
 141              		.loc 1 81 0
 142 0080 FFF7FEFF 		bl	Error_Handler
 143              	.LVL4:
 144 0084 DDE7     		b	.L2
 145              	.L7:
  90:Core/Src/periphs/adc.c ****   }
 146              		.loc 1 90 0
 147 0086 FFF7FEFF 		bl	Error_Handler
 148              	.LVL5:
 149 008a E5E7     		b	.L3
 150              	.L8:
 105:Core/Src/periphs/adc.c ****   }
 151              		.loc 1 105 0
 152 008c FFF7FEFF 		bl	Error_Handler
 153              	.LVL6:
 154              		.loc 1 108 0
 155 0090 F4E7     		b	.L1
 156              	.L10:
 157 0092 00BF     		.align	2
 158              	.L9:
 159 0094 00000000 		.word	hadc1
 160 0098 00200140 		.word	1073815552
 161 009c 0100000F 		.word	251658241
 162 00a0 01000F00 		.word	983041
 163              		.cfi_endproc
 164              	.LFE126:
 166              		.section	.text.HAL_ADC_MspInit,"ax",%progbits
 167              		.align	1
 168              		.global	HAL_ADC_MspInit
 169              		.syntax unified
 170              		.thumb
 171              		.thumb_func
 172              		.fpu fpv4-sp-d16
 174              	HAL_ADC_MspInit:
 175              	.LFB127:
 109:Core/Src/periphs/adc.c **** 
 110:Core/Src/periphs/adc.c **** void HAL_ADC_MspInit(ADC_HandleTypeDef* adcHandle)
ARM GAS  C:\Users\Prashant\AppData\Local\Temp\ccxGmdSR.s 			page 6


 111:Core/Src/periphs/adc.c **** {
 176              		.loc 1 111 0
 177              		.cfi_startproc
 178              		@ args = 0, pretend = 0, frame = 32
 179              		@ frame_needed = 0, uses_anonymous_args = 0
 180              	.LVL7:
 181 0000 00B5     		push	{lr}
 182              	.LCFI4:
 183              		.cfi_def_cfa_offset 4
 184              		.cfi_offset 14, -4
 185 0002 89B0     		sub	sp, sp, #36
 186              	.LCFI5:
 187              		.cfi_def_cfa_offset 40
 112:Core/Src/periphs/adc.c **** 
 113:Core/Src/periphs/adc.c ****   GPIO_InitTypeDef GPIO_InitStruct = {0};
 188              		.loc 1 113 0
 189 0004 0023     		movs	r3, #0
 190 0006 0393     		str	r3, [sp, #12]
 191 0008 0493     		str	r3, [sp, #16]
 192 000a 0593     		str	r3, [sp, #20]
 193 000c 0693     		str	r3, [sp, #24]
 194 000e 0793     		str	r3, [sp, #28]
 114:Core/Src/periphs/adc.c ****   if(adcHandle->Instance==ADC1)
 195              		.loc 1 114 0
 196 0010 0268     		ldr	r2, [r0]
 197 0012 03F18043 		add	r3, r3, #1073741824
 198 0016 03F59033 		add	r3, r3, #73728
 199 001a 9A42     		cmp	r2, r3
 200 001c 02D0     		beq	.L14
 201              	.LVL8:
 202              	.L11:
 115:Core/Src/periphs/adc.c ****   {
 116:Core/Src/periphs/adc.c ****   /* USER CODE BEGIN ADC1_MspInit 0 */
 117:Core/Src/periphs/adc.c **** 
 118:Core/Src/periphs/adc.c ****   /* USER CODE END ADC1_MspInit 0 */
 119:Core/Src/periphs/adc.c ****     /* ADC1 clock enable */
 120:Core/Src/periphs/adc.c ****     __HAL_RCC_ADC1_CLK_ENABLE();
 121:Core/Src/periphs/adc.c ****   
 122:Core/Src/periphs/adc.c ****     __HAL_RCC_GPIOC_CLK_ENABLE();
 123:Core/Src/periphs/adc.c ****     /**ADC1 GPIO Configuration    
 124:Core/Src/periphs/adc.c ****     PC1     ------> ADC1_IN11
 125:Core/Src/periphs/adc.c ****     PC5     ------> ADC1_IN15 
 126:Core/Src/periphs/adc.c ****     */
 127:Core/Src/periphs/adc.c ****     GPIO_InitStruct.Pin = GPIO_PIN_1|GPIO_PIN_5;
 128:Core/Src/periphs/adc.c ****     GPIO_InitStruct.Mode = GPIO_MODE_ANALOG;
 129:Core/Src/periphs/adc.c ****     GPIO_InitStruct.Pull = GPIO_NOPULL;
 130:Core/Src/periphs/adc.c ****     HAL_GPIO_Init(GPIOC, &GPIO_InitStruct);
 131:Core/Src/periphs/adc.c **** 
 132:Core/Src/periphs/adc.c ****   /* USER CODE BEGIN ADC1_MspInit 1 */
 133:Core/Src/periphs/adc.c **** 
 134:Core/Src/periphs/adc.c ****   /* USER CODE END ADC1_MspInit 1 */
 135:Core/Src/periphs/adc.c ****   }
 136:Core/Src/periphs/adc.c **** }
 203              		.loc 1 136 0
 204 001e 09B0     		add	sp, sp, #36
 205              	.LCFI6:
 206              		.cfi_remember_state
ARM GAS  C:\Users\Prashant\AppData\Local\Temp\ccxGmdSR.s 			page 7


 207              		.cfi_def_cfa_offset 4
 208              		@ sp needed
 209 0020 5DF804FB 		ldr	pc, [sp], #4
 210              	.LVL9:
 211              	.L14:
 212              	.LCFI7:
 213              		.cfi_restore_state
 214              	.LBB2:
 120:Core/Src/periphs/adc.c ****   
 215              		.loc 1 120 0
 216 0024 0021     		movs	r1, #0
 217 0026 0191     		str	r1, [sp, #4]
 218 0028 03F58C33 		add	r3, r3, #71680
 219 002c 5A6C     		ldr	r2, [r3, #68]
 220 002e 42F48072 		orr	r2, r2, #256
 221 0032 5A64     		str	r2, [r3, #68]
 222 0034 5A6C     		ldr	r2, [r3, #68]
 223 0036 02F48072 		and	r2, r2, #256
 224 003a 0192     		str	r2, [sp, #4]
 225 003c 019A     		ldr	r2, [sp, #4]
 226              	.LBE2:
 227              	.LBB3:
 122:Core/Src/periphs/adc.c ****     /**ADC1 GPIO Configuration    
 228              		.loc 1 122 0
 229 003e 0291     		str	r1, [sp, #8]
 230 0040 1A6B     		ldr	r2, [r3, #48]
 231 0042 42F00402 		orr	r2, r2, #4
 232 0046 1A63     		str	r2, [r3, #48]
 233 0048 1B6B     		ldr	r3, [r3, #48]
 234 004a 03F00403 		and	r3, r3, #4
 235 004e 0293     		str	r3, [sp, #8]
 236 0050 029B     		ldr	r3, [sp, #8]
 237              	.LBE3:
 127:Core/Src/periphs/adc.c ****     GPIO_InitStruct.Mode = GPIO_MODE_ANALOG;
 238              		.loc 1 127 0
 239 0052 2223     		movs	r3, #34
 240 0054 0393     		str	r3, [sp, #12]
 128:Core/Src/periphs/adc.c ****     GPIO_InitStruct.Pull = GPIO_NOPULL;
 241              		.loc 1 128 0
 242 0056 0323     		movs	r3, #3
 243 0058 0493     		str	r3, [sp, #16]
 130:Core/Src/periphs/adc.c **** 
 244              		.loc 1 130 0
 245 005a 03A9     		add	r1, sp, #12
 246 005c 0148     		ldr	r0, .L15
 247              	.LVL10:
 248 005e FFF7FEFF 		bl	HAL_GPIO_Init
 249              	.LVL11:
 250              		.loc 1 136 0
 251 0062 DCE7     		b	.L11
 252              	.L16:
 253              		.align	2
 254              	.L15:
 255 0064 00080240 		.word	1073874944
 256              		.cfi_endproc
 257              	.LFE127:
 259              		.section	.text.HAL_ADC_MspDeInit,"ax",%progbits
ARM GAS  C:\Users\Prashant\AppData\Local\Temp\ccxGmdSR.s 			page 8


 260              		.align	1
 261              		.global	HAL_ADC_MspDeInit
 262              		.syntax unified
 263              		.thumb
 264              		.thumb_func
 265              		.fpu fpv4-sp-d16
 267              	HAL_ADC_MspDeInit:
 268              	.LFB128:
 137:Core/Src/periphs/adc.c **** 
 138:Core/Src/periphs/adc.c **** void HAL_ADC_MspDeInit(ADC_HandleTypeDef* adcHandle)
 139:Core/Src/periphs/adc.c **** {
 269              		.loc 1 139 0
 270              		.cfi_startproc
 271              		@ args = 0, pretend = 0, frame = 0
 272              		@ frame_needed = 0, uses_anonymous_args = 0
 273              	.LVL12:
 274 0000 08B5     		push	{r3, lr}
 275              	.LCFI8:
 276              		.cfi_def_cfa_offset 8
 277              		.cfi_offset 3, -8
 278              		.cfi_offset 14, -4
 140:Core/Src/periphs/adc.c **** 
 141:Core/Src/periphs/adc.c ****   if(adcHandle->Instance==ADC1)
 279              		.loc 1 141 0
 280 0002 0268     		ldr	r2, [r0]
 281 0004 064B     		ldr	r3, .L21
 282 0006 9A42     		cmp	r2, r3
 283 0008 00D0     		beq	.L20
 284              	.LVL13:
 285              	.L17:
 142:Core/Src/periphs/adc.c ****   {
 143:Core/Src/periphs/adc.c ****   /* USER CODE BEGIN ADC1_MspDeInit 0 */
 144:Core/Src/periphs/adc.c **** 
 145:Core/Src/periphs/adc.c ****   /* USER CODE END ADC1_MspDeInit 0 */
 146:Core/Src/periphs/adc.c ****     /* Peripheral clock disable */
 147:Core/Src/periphs/adc.c ****     __HAL_RCC_ADC1_CLK_DISABLE();
 148:Core/Src/periphs/adc.c ****   
 149:Core/Src/periphs/adc.c ****     /**ADC1 GPIO Configuration    
 150:Core/Src/periphs/adc.c ****     PC1     ------> ADC1_IN11
 151:Core/Src/periphs/adc.c ****     PC5     ------> ADC1_IN15 
 152:Core/Src/periphs/adc.c ****     */
 153:Core/Src/periphs/adc.c ****     HAL_GPIO_DeInit(GPIOC, GPIO_PIN_1|GPIO_PIN_5);
 154:Core/Src/periphs/adc.c **** 
 155:Core/Src/periphs/adc.c ****   /* USER CODE BEGIN ADC1_MspDeInit 1 */
 156:Core/Src/periphs/adc.c **** 
 157:Core/Src/periphs/adc.c ****   /* USER CODE END ADC1_MspDeInit 1 */
 158:Core/Src/periphs/adc.c ****   }
 159:Core/Src/periphs/adc.c **** } 
 286              		.loc 1 159 0
 287 000a 08BD     		pop	{r3, pc}
 288              	.LVL14:
 289              	.L20:
 147:Core/Src/periphs/adc.c ****   
 290              		.loc 1 147 0
 291 000c 054A     		ldr	r2, .L21+4
 292 000e 536C     		ldr	r3, [r2, #68]
 293 0010 23F48073 		bic	r3, r3, #256
ARM GAS  C:\Users\Prashant\AppData\Local\Temp\ccxGmdSR.s 			page 9


 294 0014 5364     		str	r3, [r2, #68]
 153:Core/Src/periphs/adc.c **** 
 295              		.loc 1 153 0
 296 0016 2221     		movs	r1, #34
 297 0018 0348     		ldr	r0, .L21+8
 298              	.LVL15:
 299 001a FFF7FEFF 		bl	HAL_GPIO_DeInit
 300              	.LVL16:
 301              		.loc 1 159 0
 302 001e F4E7     		b	.L17
 303              	.L22:
 304              		.align	2
 305              	.L21:
 306 0020 00200140 		.word	1073815552
 307 0024 00380240 		.word	1073887232
 308 0028 00080240 		.word	1073874944
 309              		.cfi_endproc
 310              	.LFE128:
 312              		.comm	hadc1,72,4
 313              		.text
 314              	.Letext0:
 315              		.file 2 "c:\\program files (x86)\\gnu tools arm embedded\\7 2017-q4-major\\arm-none-eabi\\include\
 316              		.file 3 "c:\\program files (x86)\\gnu tools arm embedded\\7 2017-q4-major\\arm-none-eabi\\include\
 317              		.file 4 "Drivers/CMSIS/Include/core_cm4.h"
 318              		.file 5 "Drivers/CMSIS/Device/ST/STM32F4xx/Include/system_stm32f4xx.h"
 319              		.file 6 "Drivers/CMSIS/Device/ST/STM32F4xx/Include/stm32f407xx.h"
 320              		.file 7 "c:\\program files (x86)\\gnu tools arm embedded\\7 2017-q4-major\\arm-none-eabi\\include\
 321              		.file 8 "c:\\program files (x86)\\gnu tools arm embedded\\7 2017-q4-major\\arm-none-eabi\\include\
 322              		.file 9 "c:\\program files (x86)\\gnu tools arm embedded\\7 2017-q4-major\\lib\\gcc\\arm-none-eabi
 323              		.file 10 "c:\\program files (x86)\\gnu tools arm embedded\\7 2017-q4-major\\arm-none-eabi\\include
 324              		.file 11 "Drivers/CMSIS/Device/ST/STM32F4xx/Include/stm32f4xx.h"
 325              		.file 12 "Drivers/STM32F4xx_HAL_Driver/Inc/stm32f4xx_hal_def.h"
 326              		.file 13 "Drivers/STM32F4xx_HAL_Driver/Inc/stm32f4xx_hal_gpio.h"
 327              		.file 14 "Drivers/STM32F4xx_HAL_Driver/Inc/stm32f4xx_hal_dma.h"
 328              		.file 15 "Drivers/STM32F4xx_HAL_Driver/Inc/stm32f4xx_hal_adc.h"
 329              		.file 16 "Drivers/STM32F4xx_HAL_Driver/Inc/stm32f4xx_hal_adc_ex.h"
 330              		.file 17 "Core/Inc/periphs/adc.h"
 331              		.file 18 "Core/Inc/main.h"
 332              		.file 19 "<built-in>"
ARM GAS  C:\Users\Prashant\AppData\Local\Temp\ccxGmdSR.s 			page 10

