ARM GAS  C:\Users\Prashant\AppData\Local\Temp\ccSKxzkU.s 			page 1


   1              		.cpu cortex-m4
   2              		.eabi_attribute 27, 1
   3              		.eabi_attribute 28, 1
   4              		.eabi_attribute 20, 1
   5              		.eabi_attribute 21, 1
   6              		.eabi_attribute 23, 3
   7              		.eabi_attribute 24, 1
   8              		.eabi_attribute 25, 1
   9              		.eabi_attribute 26, 1
  10              		.eabi_attribute 30, 1
  11              		.eabi_attribute 34, 1
  12              		.eabi_attribute 18, 4
  13              		.file	"gpio.c"
  14              		.text
  15              	.Ltext0:
  16              		.cfi_sections	.debug_frame
  17              		.section	.text.MX_GPIO_Init,"ax",%progbits
  18              		.align	1
  19              		.global	MX_GPIO_Init
  20              		.syntax unified
  21              		.thumb
  22              		.thumb_func
  23              		.fpu fpv4-sp-d16
  25              	MX_GPIO_Init:
  26              	.LFB126:
  27              		.file 1 "Core/Src/periphs/gpio.c"
   1:Core/Src/periphs/gpio.c **** /**
   2:Core/Src/periphs/gpio.c ****   ******************************************************************************
   3:Core/Src/periphs/gpio.c ****   * File Name          : gpio.c
   4:Core/Src/periphs/gpio.c ****   * Description        : This file provides code for the configuration
   5:Core/Src/periphs/gpio.c ****   *                      of all used GPIO pins.
   6:Core/Src/periphs/gpio.c ****   ******************************************************************************
   7:Core/Src/periphs/gpio.c ****   * This notice applies to any and all portions of this file
   8:Core/Src/periphs/gpio.c ****   * that are not between comment pairs USER CODE BEGIN and
   9:Core/Src/periphs/gpio.c ****   * USER CODE END. Other portions of this file, whether 
  10:Core/Src/periphs/gpio.c ****   * inserted by the user or by software development tools
  11:Core/Src/periphs/gpio.c ****   * are owned by their respective copyright owners.
  12:Core/Src/periphs/gpio.c ****   *
  13:Core/Src/periphs/gpio.c ****   * Copyright (c) 2019 STMicroelectronics International N.V. 
  14:Core/Src/periphs/gpio.c ****   * All rights reserved.
  15:Core/Src/periphs/gpio.c ****   *
  16:Core/Src/periphs/gpio.c ****   * Redistribution and use in source and binary forms, with or without 
  17:Core/Src/periphs/gpio.c ****   * modification, are permitted, provided that the following conditions are met:
  18:Core/Src/periphs/gpio.c ****   *
  19:Core/Src/periphs/gpio.c ****   * 1. Redistribution of source code must retain the above copyright notice, 
  20:Core/Src/periphs/gpio.c ****   *    this list of conditions and the following disclaimer.
  21:Core/Src/periphs/gpio.c ****   * 2. Redistributions in binary form must reproduce the above copyright notice,
  22:Core/Src/periphs/gpio.c ****   *    this list of conditions and the following disclaimer in the documentation
  23:Core/Src/periphs/gpio.c ****   *    and/or other materials provided with the distribution.
  24:Core/Src/periphs/gpio.c ****   * 3. Neither the name of STMicroelectronics nor the names of other 
  25:Core/Src/periphs/gpio.c ****   *    contributors to this software may be used to endorse or promote products 
  26:Core/Src/periphs/gpio.c ****   *    derived from this software without specific written permission.
  27:Core/Src/periphs/gpio.c ****   * 4. This software, including modifications and/or derivative works of this 
  28:Core/Src/periphs/gpio.c ****   *    software, must execute solely and exclusively on microcontroller or
  29:Core/Src/periphs/gpio.c ****   *    microprocessor devices manufactured by or for STMicroelectronics.
  30:Core/Src/periphs/gpio.c ****   * 5. Redistribution and use of this software other than as permitted under 
  31:Core/Src/periphs/gpio.c ****   *    this license is void and will automatically terminate your rights under 
ARM GAS  C:\Users\Prashant\AppData\Local\Temp\ccSKxzkU.s 			page 2


  32:Core/Src/periphs/gpio.c ****   *    this license. 
  33:Core/Src/periphs/gpio.c ****   *
  34:Core/Src/periphs/gpio.c ****   * THIS SOFTWARE IS PROVIDED BY STMICROELECTRONICS AND CONTRIBUTORS "AS IS" 
  35:Core/Src/periphs/gpio.c ****   * AND ANY EXPRESS, IMPLIED OR STATUTORY WARRANTIES, INCLUDING, BUT NOT 
  36:Core/Src/periphs/gpio.c ****   * LIMITED TO, THE IMPLIED WARRANTIES OF MERCHANTABILITY, FITNESS FOR A 
  37:Core/Src/periphs/gpio.c ****   * PARTICULAR PURPOSE AND NON-INFRINGEMENT OF THIRD PARTY INTELLECTUAL PROPERTY
  38:Core/Src/periphs/gpio.c ****   * RIGHTS ARE DISCLAIMED TO THE FULLEST EXTENT PERMITTED BY LAW. IN NO EVENT 
  39:Core/Src/periphs/gpio.c ****   * SHALL STMICROELECTRONICS OR CONTRIBUTORS BE LIABLE FOR ANY DIRECT, INDIRECT,
  40:Core/Src/periphs/gpio.c ****   * INCIDENTAL, SPECIAL, EXEMPLARY, OR CONSEQUENTIAL DAMAGES (INCLUDING, BUT NOT
  41:Core/Src/periphs/gpio.c ****   * LIMITED TO, PROCUREMENT OF SUBSTITUTE GOODS OR SERVICES; LOSS OF USE, DATA, 
  42:Core/Src/periphs/gpio.c ****   * OR PROFITS; OR BUSINESS INTERRUPTION) HOWEVER CAUSED AND ON ANY THEORY OF 
  43:Core/Src/periphs/gpio.c ****   * LIABILITY, WHETHER IN CONTRACT, STRICT LIABILITY, OR TORT (INCLUDING 
  44:Core/Src/periphs/gpio.c ****   * NEGLIGENCE OR OTHERWISE) ARISING IN ANY WAY OUT OF THE USE OF THIS SOFTWARE,
  45:Core/Src/periphs/gpio.c ****   * EVEN IF ADVISED OF THE POSSIBILITY OF SUCH DAMAGE.
  46:Core/Src/periphs/gpio.c ****   *
  47:Core/Src/periphs/gpio.c ****   ******************************************************************************
  48:Core/Src/periphs/gpio.c ****   */
  49:Core/Src/periphs/gpio.c **** 
  50:Core/Src/periphs/gpio.c **** /* Includes ------------------------------------------------------------------*/
  51:Core/Src/periphs/gpio.c **** #include "gpio.h"
  52:Core/Src/periphs/gpio.c **** /* USER CODE BEGIN 0 */
  53:Core/Src/periphs/gpio.c **** 
  54:Core/Src/periphs/gpio.c **** /* USER CODE END 0 */
  55:Core/Src/periphs/gpio.c **** 
  56:Core/Src/periphs/gpio.c **** /*----------------------------------------------------------------------------*/
  57:Core/Src/periphs/gpio.c **** /* Configure GPIO                                                             */
  58:Core/Src/periphs/gpio.c **** /*----------------------------------------------------------------------------*/
  59:Core/Src/periphs/gpio.c **** /* USER CODE BEGIN 1 */
  60:Core/Src/periphs/gpio.c **** 
  61:Core/Src/periphs/gpio.c **** /* USER CODE END 1 */
  62:Core/Src/periphs/gpio.c **** 
  63:Core/Src/periphs/gpio.c **** /** Configure pins as 
  64:Core/Src/periphs/gpio.c ****         * Analog 
  65:Core/Src/periphs/gpio.c ****         * Input 
  66:Core/Src/periphs/gpio.c ****         * Output
  67:Core/Src/periphs/gpio.c ****         * EVENT_OUT
  68:Core/Src/periphs/gpio.c ****         * EXTI
  69:Core/Src/periphs/gpio.c **** */
  70:Core/Src/periphs/gpio.c **** void MX_GPIO_Init(void)
  71:Core/Src/periphs/gpio.c **** {
  28              		.loc 1 71 0
  29              		.cfi_startproc
  30              		@ args = 0, pretend = 0, frame = 48
  31              		@ frame_needed = 0, uses_anonymous_args = 0
  32 0000 2DE9F047 		push	{r4, r5, r6, r7, r8, r9, r10, lr}
  33              	.LCFI0:
  34              		.cfi_def_cfa_offset 32
  35              		.cfi_offset 4, -32
  36              		.cfi_offset 5, -28
  37              		.cfi_offset 6, -24
  38              		.cfi_offset 7, -20
  39              		.cfi_offset 8, -16
  40              		.cfi_offset 9, -12
  41              		.cfi_offset 10, -8
  42              		.cfi_offset 14, -4
  43 0004 8CB0     		sub	sp, sp, #48
  44              	.LCFI1:
ARM GAS  C:\Users\Prashant\AppData\Local\Temp\ccSKxzkU.s 			page 3


  45              		.cfi_def_cfa_offset 80
  72:Core/Src/periphs/gpio.c **** 
  73:Core/Src/periphs/gpio.c ****   GPIO_InitTypeDef GPIO_InitStruct = {0};
  46              		.loc 1 73 0
  47 0006 0024     		movs	r4, #0
  48 0008 0794     		str	r4, [sp, #28]
  49 000a 0894     		str	r4, [sp, #32]
  50 000c 0994     		str	r4, [sp, #36]
  51 000e 0A94     		str	r4, [sp, #40]
  52 0010 0B94     		str	r4, [sp, #44]
  53              	.LBB2:
  74:Core/Src/periphs/gpio.c **** 
  75:Core/Src/periphs/gpio.c ****   /* GPIO Ports Clock Enable */
  76:Core/Src/periphs/gpio.c ****   __HAL_RCC_GPIOH_CLK_ENABLE();
  54              		.loc 1 76 0
  55 0012 0194     		str	r4, [sp, #4]
  56 0014 854B     		ldr	r3, .L3
  57 0016 1A6B     		ldr	r2, [r3, #48]
  58 0018 42F08002 		orr	r2, r2, #128
  59 001c 1A63     		str	r2, [r3, #48]
  60 001e 1A6B     		ldr	r2, [r3, #48]
  61 0020 02F08002 		and	r2, r2, #128
  62 0024 0192     		str	r2, [sp, #4]
  63 0026 019A     		ldr	r2, [sp, #4]
  64              	.LBE2:
  65              	.LBB3:
  77:Core/Src/periphs/gpio.c ****   __HAL_RCC_GPIOC_CLK_ENABLE();
  66              		.loc 1 77 0
  67 0028 0294     		str	r4, [sp, #8]
  68 002a 1A6B     		ldr	r2, [r3, #48]
  69 002c 42F00402 		orr	r2, r2, #4
  70 0030 1A63     		str	r2, [r3, #48]
  71 0032 1A6B     		ldr	r2, [r3, #48]
  72 0034 02F00402 		and	r2, r2, #4
  73 0038 0292     		str	r2, [sp, #8]
  74 003a 029A     		ldr	r2, [sp, #8]
  75              	.LBE3:
  76              	.LBB4:
  78:Core/Src/periphs/gpio.c ****   __HAL_RCC_GPIOA_CLK_ENABLE();
  77              		.loc 1 78 0
  78 003c 0394     		str	r4, [sp, #12]
  79 003e 1A6B     		ldr	r2, [r3, #48]
  80 0040 42F00102 		orr	r2, r2, #1
  81 0044 1A63     		str	r2, [r3, #48]
  82 0046 1A6B     		ldr	r2, [r3, #48]
  83 0048 02F00102 		and	r2, r2, #1
  84 004c 0392     		str	r2, [sp, #12]
  85 004e 039A     		ldr	r2, [sp, #12]
  86              	.LBE4:
  87              	.LBB5:
  79:Core/Src/periphs/gpio.c ****   __HAL_RCC_GPIOE_CLK_ENABLE();
  88              		.loc 1 79 0
  89 0050 0494     		str	r4, [sp, #16]
  90 0052 1A6B     		ldr	r2, [r3, #48]
  91 0054 42F01002 		orr	r2, r2, #16
  92 0058 1A63     		str	r2, [r3, #48]
  93 005a 1A6B     		ldr	r2, [r3, #48]
ARM GAS  C:\Users\Prashant\AppData\Local\Temp\ccSKxzkU.s 			page 4


  94 005c 02F01002 		and	r2, r2, #16
  95 0060 0492     		str	r2, [sp, #16]
  96 0062 049A     		ldr	r2, [sp, #16]
  97              	.LBE5:
  98              	.LBB6:
  80:Core/Src/periphs/gpio.c ****   __HAL_RCC_GPIOB_CLK_ENABLE();
  99              		.loc 1 80 0
 100 0064 0594     		str	r4, [sp, #20]
 101 0066 1A6B     		ldr	r2, [r3, #48]
 102 0068 42F00202 		orr	r2, r2, #2
 103 006c 1A63     		str	r2, [r3, #48]
 104 006e 1A6B     		ldr	r2, [r3, #48]
 105 0070 02F00202 		and	r2, r2, #2
 106 0074 0592     		str	r2, [sp, #20]
 107 0076 059A     		ldr	r2, [sp, #20]
 108              	.LBE6:
 109              	.LBB7:
  81:Core/Src/periphs/gpio.c ****   __HAL_RCC_GPIOD_CLK_ENABLE();
 110              		.loc 1 81 0
 111 0078 0694     		str	r4, [sp, #24]
 112 007a 1A6B     		ldr	r2, [r3, #48]
 113 007c 42F00802 		orr	r2, r2, #8
 114 0080 1A63     		str	r2, [r3, #48]
 115 0082 1B6B     		ldr	r3, [r3, #48]
 116 0084 03F00803 		and	r3, r3, #8
 117 0088 0693     		str	r3, [sp, #24]
 118 008a 069B     		ldr	r3, [sp, #24]
 119              	.LBE7:
  82:Core/Src/periphs/gpio.c **** 
  83:Core/Src/periphs/gpio.c ****   /*Configure GPIO pin Output Level */
  84:Core/Src/periphs/gpio.c ****   HAL_GPIO_WritePin(GPIOD, GPIO_PIN_12|GPIO_PIN_13|GPIO_PIN_14|GPIO_PIN_15 
 120              		.loc 1 84 0
 121 008c 684F     		ldr	r7, .L3+4
 122 008e 2246     		mov	r2, r4
 123 0090 4FF20501 		movw	r1, #61445
 124 0094 3846     		mov	r0, r7
 125 0096 FFF7FEFF 		bl	HAL_GPIO_WritePin
 126              	.LVL0:
  85:Core/Src/periphs/gpio.c ****                           |GPIO_PIN_0|MOTOR2_OUT_Pin, GPIO_PIN_RESET);
  86:Core/Src/periphs/gpio.c **** 
  87:Core/Src/periphs/gpio.c ****   /*Configure GPIO pin Output Level */
  88:Core/Src/periphs/gpio.c ****   HAL_GPIO_WritePin(GPIOA, GPIO_PIN_8|MOTOR3_OUT_Pin|MOTOR1_OUT_Pin, GPIO_PIN_RESET);
 127              		.loc 1 88 0
 128 009a DFF8A081 		ldr	r8, .L3+16
 129 009e 2246     		mov	r2, r4
 130 00a0 4FF40541 		mov	r1, #34048
 131 00a4 4046     		mov	r0, r8
 132 00a6 FFF7FEFF 		bl	HAL_GPIO_WritePin
 133              	.LVL1:
  89:Core/Src/periphs/gpio.c **** 
  90:Core/Src/periphs/gpio.c ****   /*Configure GPIO pin Output Level */
  91:Core/Src/periphs/gpio.c ****   HAL_GPIO_WritePin(GPIOC, GPIO_PIN_10|MOTOR1_OUTC11_Pin|GPIO_PIN_12, GPIO_PIN_RESET);
 134              		.loc 1 91 0
 135 00aa DFF89491 		ldr	r9, .L3+20
 136 00ae 2246     		mov	r2, r4
 137 00b0 4FF4E051 		mov	r1, #7168
 138 00b4 4846     		mov	r0, r9
ARM GAS  C:\Users\Prashant\AppData\Local\Temp\ccSKxzkU.s 			page 5


 139 00b6 FFF7FEFF 		bl	HAL_GPIO_WritePin
 140              	.LVL2:
  92:Core/Src/periphs/gpio.c **** 
  93:Core/Src/periphs/gpio.c ****   /*Configure GPIO pins : PC2 PC3 */
  94:Core/Src/periphs/gpio.c ****   GPIO_InitStruct.Pin = GPIO_PIN_2|GPIO_PIN_3;
 141              		.loc 1 94 0
 142 00ba 0C23     		movs	r3, #12
 143 00bc 0793     		str	r3, [sp, #28]
  95:Core/Src/periphs/gpio.c ****   GPIO_InitStruct.Mode = GPIO_MODE_IT_RISING;
 144              		.loc 1 95 0
 145 00be 5D4E     		ldr	r6, .L3+8
 146 00c0 0896     		str	r6, [sp, #32]
  96:Core/Src/periphs/gpio.c ****   GPIO_InitStruct.Pull = GPIO_PULLUP;
 147              		.loc 1 96 0
 148 00c2 0125     		movs	r5, #1
 149 00c4 0995     		str	r5, [sp, #36]
  97:Core/Src/periphs/gpio.c ****   HAL_GPIO_Init(GPIOC, &GPIO_InitStruct);
 150              		.loc 1 97 0
 151 00c6 07A9     		add	r1, sp, #28
 152 00c8 4846     		mov	r0, r9
 153 00ca FFF7FEFF 		bl	HAL_GPIO_Init
 154              	.LVL3:
  98:Core/Src/periphs/gpio.c **** 
  99:Core/Src/periphs/gpio.c ****   /*Configure GPIO pin : PA0 */
 100:Core/Src/periphs/gpio.c ****   GPIO_InitStruct.Pin = GPIO_PIN_0;
 155              		.loc 1 100 0
 156 00ce 0795     		str	r5, [sp, #28]
 101:Core/Src/periphs/gpio.c ****   GPIO_InitStruct.Mode = GPIO_MODE_IT_RISING;
 157              		.loc 1 101 0
 158 00d0 0896     		str	r6, [sp, #32]
 102:Core/Src/periphs/gpio.c ****   GPIO_InitStruct.Pull = GPIO_PULLDOWN;
 159              		.loc 1 102 0
 160 00d2 0223     		movs	r3, #2
 161 00d4 0993     		str	r3, [sp, #36]
 103:Core/Src/periphs/gpio.c ****   HAL_GPIO_Init(GPIOA, &GPIO_InitStruct);
 162              		.loc 1 103 0
 163 00d6 07A9     		add	r1, sp, #28
 164 00d8 4046     		mov	r0, r8
 165 00da FFF7FEFF 		bl	HAL_GPIO_Init
 166              	.LVL4:
 104:Core/Src/periphs/gpio.c **** 
 105:Core/Src/periphs/gpio.c ****   /*Configure GPIO pin : PA4 */
 106:Core/Src/periphs/gpio.c ****   GPIO_InitStruct.Pin = GPIO_PIN_4;
 167              		.loc 1 106 0
 168 00de 1023     		movs	r3, #16
 169 00e0 0793     		str	r3, [sp, #28]
 107:Core/Src/periphs/gpio.c ****   GPIO_InitStruct.Mode = GPIO_MODE_IT_RISING;
 170              		.loc 1 107 0
 171 00e2 0896     		str	r6, [sp, #32]
 108:Core/Src/periphs/gpio.c ****   GPIO_InitStruct.Pull = GPIO_PULLUP;
 172              		.loc 1 108 0
 173 00e4 0995     		str	r5, [sp, #36]
 109:Core/Src/periphs/gpio.c ****   HAL_GPIO_Init(GPIOA, &GPIO_InitStruct);
 174              		.loc 1 109 0
 175 00e6 07A9     		add	r1, sp, #28
 176 00e8 4046     		mov	r0, r8
 177 00ea FFF7FEFF 		bl	HAL_GPIO_Init
ARM GAS  C:\Users\Prashant\AppData\Local\Temp\ccSKxzkU.s 			page 6


 178              	.LVL5:
 110:Core/Src/periphs/gpio.c **** 
 111:Core/Src/periphs/gpio.c ****   /*Configure GPIO pins : PE12 PE14 */
 112:Core/Src/periphs/gpio.c ****   GPIO_InitStruct.Pin = GPIO_PIN_12|GPIO_PIN_14;
 179              		.loc 1 112 0
 180 00ee 4FF4A043 		mov	r3, #20480
 181 00f2 0793     		str	r3, [sp, #28]
 113:Core/Src/periphs/gpio.c ****   GPIO_InitStruct.Mode = GPIO_MODE_IT_RISING;
 182              		.loc 1 113 0
 183 00f4 0896     		str	r6, [sp, #32]
 114:Core/Src/periphs/gpio.c ****   GPIO_InitStruct.Pull = GPIO_PULLUP;
 184              		.loc 1 114 0
 185 00f6 0995     		str	r5, [sp, #36]
 115:Core/Src/periphs/gpio.c ****   HAL_GPIO_Init(GPIOE, &GPIO_InitStruct);
 186              		.loc 1 115 0
 187 00f8 07A9     		add	r1, sp, #28
 188 00fa 4F48     		ldr	r0, .L3+12
 189 00fc FFF7FEFF 		bl	HAL_GPIO_Init
 190              	.LVL6:
 116:Core/Src/periphs/gpio.c **** 
 117:Core/Src/periphs/gpio.c ****   /*Configure GPIO pin : PB13 */
 118:Core/Src/periphs/gpio.c ****   GPIO_InitStruct.Pin = GPIO_PIN_13;
 191              		.loc 1 118 0
 192 0100 4FF40053 		mov	r3, #8192
 193 0104 0793     		str	r3, [sp, #28]
 119:Core/Src/periphs/gpio.c ****   GPIO_InitStruct.Mode = GPIO_MODE_IT_RISING;
 194              		.loc 1 119 0
 195 0106 0896     		str	r6, [sp, #32]
 120:Core/Src/periphs/gpio.c ****   GPIO_InitStruct.Pull = GPIO_PULLUP;
 196              		.loc 1 120 0
 197 0108 0995     		str	r5, [sp, #36]
 121:Core/Src/periphs/gpio.c ****   HAL_GPIO_Init(GPIOB, &GPIO_InitStruct);
 198              		.loc 1 121 0
 199 010a DFF838A1 		ldr	r10, .L3+24
 200 010e 07A9     		add	r1, sp, #28
 201 0110 5046     		mov	r0, r10
 202 0112 FFF7FEFF 		bl	HAL_GPIO_Init
 203              	.LVL7:
 122:Core/Src/periphs/gpio.c **** 
 123:Core/Src/periphs/gpio.c ****   /*Configure GPIO pin : PB15 */
 124:Core/Src/periphs/gpio.c ****   GPIO_InitStruct.Pin = GPIO_PIN_15;
 204              		.loc 1 124 0
 205 0116 4FF40043 		mov	r3, #32768
 206 011a 0793     		str	r3, [sp, #28]
 125:Core/Src/periphs/gpio.c ****   GPIO_InitStruct.Mode = GPIO_MODE_IT_RISING;
 207              		.loc 1 125 0
 208 011c 0896     		str	r6, [sp, #32]
 126:Core/Src/periphs/gpio.c ****   GPIO_InitStruct.Pull = GPIO_NOPULL;
 209              		.loc 1 126 0
 210 011e 0994     		str	r4, [sp, #36]
 127:Core/Src/periphs/gpio.c ****   HAL_GPIO_Init(GPIOB, &GPIO_InitStruct);
 211              		.loc 1 127 0
 212 0120 07A9     		add	r1, sp, #28
 213 0122 5046     		mov	r0, r10
 214 0124 FFF7FEFF 		bl	HAL_GPIO_Init
 215              	.LVL8:
 128:Core/Src/periphs/gpio.c **** 
ARM GAS  C:\Users\Prashant\AppData\Local\Temp\ccSKxzkU.s 			page 7


 129:Core/Src/periphs/gpio.c ****   /*Configure GPIO pins : PD8 PD10 */
 130:Core/Src/periphs/gpio.c ****   GPIO_InitStruct.Pin = GPIO_PIN_8|GPIO_PIN_10;
 216              		.loc 1 130 0
 217 0128 4FF4A063 		mov	r3, #1280
 218 012c 0793     		str	r3, [sp, #28]
 131:Core/Src/periphs/gpio.c ****   GPIO_InitStruct.Mode = GPIO_MODE_INPUT;
 219              		.loc 1 131 0
 220 012e 0894     		str	r4, [sp, #32]
 132:Core/Src/periphs/gpio.c ****   GPIO_InitStruct.Pull = GPIO_NOPULL;
 221              		.loc 1 132 0
 222 0130 0994     		str	r4, [sp, #36]
 133:Core/Src/periphs/gpio.c ****   HAL_GPIO_Init(GPIOD, &GPIO_InitStruct);
 223              		.loc 1 133 0
 224 0132 07A9     		add	r1, sp, #28
 225 0134 3846     		mov	r0, r7
 226 0136 FFF7FEFF 		bl	HAL_GPIO_Init
 227              	.LVL9:
 134:Core/Src/periphs/gpio.c **** 
 135:Core/Src/periphs/gpio.c ****   /*Configure GPIO pins : PD9 PD11 */
 136:Core/Src/periphs/gpio.c ****   GPIO_InitStruct.Pin = GPIO_PIN_9|GPIO_PIN_11;
 228              		.loc 1 136 0
 229 013a 4FF42063 		mov	r3, #2560
 230 013e 0793     		str	r3, [sp, #28]
 137:Core/Src/periphs/gpio.c ****   GPIO_InitStruct.Mode = GPIO_MODE_IT_RISING;
 231              		.loc 1 137 0
 232 0140 0896     		str	r6, [sp, #32]
 138:Core/Src/periphs/gpio.c ****   GPIO_InitStruct.Pull = GPIO_PULLUP;
 233              		.loc 1 138 0
 234 0142 0995     		str	r5, [sp, #36]
 139:Core/Src/periphs/gpio.c ****   HAL_GPIO_Init(GPIOD, &GPIO_InitStruct);
 235              		.loc 1 139 0
 236 0144 07A9     		add	r1, sp, #28
 237 0146 3846     		mov	r0, r7
 238 0148 FFF7FEFF 		bl	HAL_GPIO_Init
 239              	.LVL10:
 140:Core/Src/periphs/gpio.c **** 
 141:Core/Src/periphs/gpio.c ****   /*Configure GPIO pins : PD12 PD13 PD14 PD15 
 142:Core/Src/periphs/gpio.c ****                            PD0 */
 143:Core/Src/periphs/gpio.c ****   GPIO_InitStruct.Pin = GPIO_PIN_12|GPIO_PIN_13|GPIO_PIN_14|GPIO_PIN_15 
 240              		.loc 1 143 0
 241 014c 4FF20103 		movw	r3, #61441
 242 0150 0793     		str	r3, [sp, #28]
 144:Core/Src/periphs/gpio.c ****                           |GPIO_PIN_0;
 145:Core/Src/periphs/gpio.c ****   GPIO_InitStruct.Mode = GPIO_MODE_OUTPUT_PP;
 243              		.loc 1 145 0
 244 0152 0895     		str	r5, [sp, #32]
 146:Core/Src/periphs/gpio.c ****   GPIO_InitStruct.Pull = GPIO_NOPULL;
 245              		.loc 1 146 0
 246 0154 0994     		str	r4, [sp, #36]
 147:Core/Src/periphs/gpio.c ****   GPIO_InitStruct.Speed = GPIO_SPEED_FREQ_LOW;
 247              		.loc 1 147 0
 248 0156 0A94     		str	r4, [sp, #40]
 148:Core/Src/periphs/gpio.c ****   HAL_GPIO_Init(GPIOD, &GPIO_InitStruct);
 249              		.loc 1 148 0
 250 0158 07A9     		add	r1, sp, #28
 251 015a 3846     		mov	r0, r7
 252 015c FFF7FEFF 		bl	HAL_GPIO_Init
ARM GAS  C:\Users\Prashant\AppData\Local\Temp\ccSKxzkU.s 			page 8


 253              	.LVL11:
 149:Core/Src/periphs/gpio.c **** 
 150:Core/Src/periphs/gpio.c ****   /*Configure GPIO pin : PA8 */
 151:Core/Src/periphs/gpio.c ****   GPIO_InitStruct.Pin = GPIO_PIN_8;
 254              		.loc 1 151 0
 255 0160 4FF48073 		mov	r3, #256
 256 0164 0793     		str	r3, [sp, #28]
 152:Core/Src/periphs/gpio.c ****   GPIO_InitStruct.Mode = GPIO_MODE_OUTPUT_PP;
 257              		.loc 1 152 0
 258 0166 0895     		str	r5, [sp, #32]
 153:Core/Src/periphs/gpio.c ****   GPIO_InitStruct.Pull = GPIO_NOPULL;
 259              		.loc 1 153 0
 260 0168 0994     		str	r4, [sp, #36]
 154:Core/Src/periphs/gpio.c ****   GPIO_InitStruct.Speed = GPIO_SPEED_FREQ_LOW;
 261              		.loc 1 154 0
 262 016a 0A94     		str	r4, [sp, #40]
 155:Core/Src/periphs/gpio.c ****   HAL_GPIO_Init(GPIOA, &GPIO_InitStruct);
 263              		.loc 1 155 0
 264 016c 07A9     		add	r1, sp, #28
 265 016e 4046     		mov	r0, r8
 266 0170 FFF7FEFF 		bl	HAL_GPIO_Init
 267              	.LVL12:
 156:Core/Src/periphs/gpio.c **** 
 157:Core/Src/periphs/gpio.c ****   /*Configure GPIO pins : PAPin PAPin */
 158:Core/Src/periphs/gpio.c ****   GPIO_InitStruct.Pin = MOTOR3_OUT_Pin|MOTOR1_OUT_Pin;
 268              		.loc 1 158 0
 269 0174 4FF40443 		mov	r3, #33792
 270 0178 0793     		str	r3, [sp, #28]
 159:Core/Src/periphs/gpio.c ****   GPIO_InitStruct.Mode = GPIO_MODE_OUTPUT_PP;
 271              		.loc 1 159 0
 272 017a 0895     		str	r5, [sp, #32]
 160:Core/Src/periphs/gpio.c ****   GPIO_InitStruct.Pull = GPIO_NOPULL;
 273              		.loc 1 160 0
 274 017c 0994     		str	r4, [sp, #36]
 161:Core/Src/periphs/gpio.c ****   GPIO_InitStruct.Speed = GPIO_SPEED_FREQ_VERY_HIGH;
 275              		.loc 1 161 0
 276 017e 0326     		movs	r6, #3
 277 0180 0A96     		str	r6, [sp, #40]
 162:Core/Src/periphs/gpio.c ****   HAL_GPIO_Init(GPIOA, &GPIO_InitStruct);
 278              		.loc 1 162 0
 279 0182 07A9     		add	r1, sp, #28
 280 0184 4046     		mov	r0, r8
 281 0186 FFF7FEFF 		bl	HAL_GPIO_Init
 282              	.LVL13:
 163:Core/Src/periphs/gpio.c **** 
 164:Core/Src/periphs/gpio.c ****   /*Configure GPIO pins : PC10 PC12 */
 165:Core/Src/periphs/gpio.c ****   GPIO_InitStruct.Pin = GPIO_PIN_10|GPIO_PIN_12;
 283              		.loc 1 165 0
 284 018a 4FF4A053 		mov	r3, #5120
 285 018e 0793     		str	r3, [sp, #28]
 166:Core/Src/periphs/gpio.c ****   GPIO_InitStruct.Mode = GPIO_MODE_OUTPUT_PP;
 286              		.loc 1 166 0
 287 0190 0895     		str	r5, [sp, #32]
 167:Core/Src/periphs/gpio.c ****   GPIO_InitStruct.Pull = GPIO_NOPULL;
 288              		.loc 1 167 0
 289 0192 0994     		str	r4, [sp, #36]
 168:Core/Src/periphs/gpio.c ****   GPIO_InitStruct.Speed = GPIO_SPEED_FREQ_LOW;
ARM GAS  C:\Users\Prashant\AppData\Local\Temp\ccSKxzkU.s 			page 9


 290              		.loc 1 168 0
 291 0194 0A94     		str	r4, [sp, #40]
 169:Core/Src/periphs/gpio.c ****   HAL_GPIO_Init(GPIOC, &GPIO_InitStruct);
 292              		.loc 1 169 0
 293 0196 07A9     		add	r1, sp, #28
 294 0198 4846     		mov	r0, r9
 295 019a FFF7FEFF 		bl	HAL_GPIO_Init
 296              	.LVL14:
 170:Core/Src/periphs/gpio.c **** 
 171:Core/Src/periphs/gpio.c ****   /*Configure GPIO pin : PtPin */
 172:Core/Src/periphs/gpio.c ****   GPIO_InitStruct.Pin = MOTOR1_OUTC11_Pin;
 297              		.loc 1 172 0
 298 019e 4FF40063 		mov	r3, #2048
 299 01a2 0793     		str	r3, [sp, #28]
 173:Core/Src/periphs/gpio.c ****   GPIO_InitStruct.Mode = GPIO_MODE_OUTPUT_PP;
 300              		.loc 1 173 0
 301 01a4 0895     		str	r5, [sp, #32]
 174:Core/Src/periphs/gpio.c ****   GPIO_InitStruct.Pull = GPIO_NOPULL;
 302              		.loc 1 174 0
 303 01a6 0994     		str	r4, [sp, #36]
 175:Core/Src/periphs/gpio.c ****   GPIO_InitStruct.Speed = GPIO_SPEED_FREQ_VERY_HIGH;
 304              		.loc 1 175 0
 305 01a8 0A96     		str	r6, [sp, #40]
 176:Core/Src/periphs/gpio.c ****   HAL_GPIO_Init(MOTOR1_OUTC11_GPIO_Port, &GPIO_InitStruct);
 306              		.loc 1 176 0
 307 01aa 07A9     		add	r1, sp, #28
 308 01ac 4846     		mov	r0, r9
 309 01ae FFF7FEFF 		bl	HAL_GPIO_Init
 310              	.LVL15:
 177:Core/Src/periphs/gpio.c **** 
 178:Core/Src/periphs/gpio.c ****   /*Configure GPIO pin : PtPin */
 179:Core/Src/periphs/gpio.c ****   GPIO_InitStruct.Pin = MOTOR2_OUT_Pin;
 311              		.loc 1 179 0
 312 01b2 0423     		movs	r3, #4
 313 01b4 0793     		str	r3, [sp, #28]
 180:Core/Src/periphs/gpio.c ****   GPIO_InitStruct.Mode = GPIO_MODE_OUTPUT_PP;
 314              		.loc 1 180 0
 315 01b6 0895     		str	r5, [sp, #32]
 181:Core/Src/periphs/gpio.c ****   GPIO_InitStruct.Pull = GPIO_NOPULL;
 316              		.loc 1 181 0
 317 01b8 0994     		str	r4, [sp, #36]
 182:Core/Src/periphs/gpio.c ****   GPIO_InitStruct.Speed = GPIO_SPEED_FREQ_VERY_HIGH;
 318              		.loc 1 182 0
 319 01ba 0A96     		str	r6, [sp, #40]
 183:Core/Src/periphs/gpio.c ****   HAL_GPIO_Init(MOTOR2_OUT_GPIO_Port, &GPIO_InitStruct);
 320              		.loc 1 183 0
 321 01bc 07A9     		add	r1, sp, #28
 322 01be 3846     		mov	r0, r7
 323 01c0 FFF7FEFF 		bl	HAL_GPIO_Init
 324              	.LVL16:
 184:Core/Src/periphs/gpio.c **** 
 185:Core/Src/periphs/gpio.c ****   /* EXTI interrupt init*/
 186:Core/Src/periphs/gpio.c ****   HAL_NVIC_SetPriority(EXTI0_IRQn, 5, 0);
 325              		.loc 1 186 0
 326 01c4 2246     		mov	r2, r4
 327 01c6 0521     		movs	r1, #5
 328 01c8 0620     		movs	r0, #6
ARM GAS  C:\Users\Prashant\AppData\Local\Temp\ccSKxzkU.s 			page 10


 329 01ca FFF7FEFF 		bl	HAL_NVIC_SetPriority
 330              	.LVL17:
 187:Core/Src/periphs/gpio.c ****   HAL_NVIC_EnableIRQ(EXTI0_IRQn);
 331              		.loc 1 187 0
 332 01ce 0620     		movs	r0, #6
 333 01d0 FFF7FEFF 		bl	HAL_NVIC_EnableIRQ
 334              	.LVL18:
 188:Core/Src/periphs/gpio.c **** 
 189:Core/Src/periphs/gpio.c ****   HAL_NVIC_SetPriority(EXTI2_IRQn, 5, 0);
 335              		.loc 1 189 0
 336 01d4 2246     		mov	r2, r4
 337 01d6 0521     		movs	r1, #5
 338 01d8 0820     		movs	r0, #8
 339 01da FFF7FEFF 		bl	HAL_NVIC_SetPriority
 340              	.LVL19:
 190:Core/Src/periphs/gpio.c ****   HAL_NVIC_EnableIRQ(EXTI2_IRQn);
 341              		.loc 1 190 0
 342 01de 0820     		movs	r0, #8
 343 01e0 FFF7FEFF 		bl	HAL_NVIC_EnableIRQ
 344              	.LVL20:
 191:Core/Src/periphs/gpio.c **** 
 192:Core/Src/periphs/gpio.c ****   HAL_NVIC_SetPriority(EXTI3_IRQn, 5, 0);
 345              		.loc 1 192 0
 346 01e4 2246     		mov	r2, r4
 347 01e6 0521     		movs	r1, #5
 348 01e8 0920     		movs	r0, #9
 349 01ea FFF7FEFF 		bl	HAL_NVIC_SetPriority
 350              	.LVL21:
 193:Core/Src/periphs/gpio.c ****   HAL_NVIC_EnableIRQ(EXTI3_IRQn);
 351              		.loc 1 193 0
 352 01ee 0920     		movs	r0, #9
 353 01f0 FFF7FEFF 		bl	HAL_NVIC_EnableIRQ
 354              	.LVL22:
 194:Core/Src/periphs/gpio.c **** 
 195:Core/Src/periphs/gpio.c ****   HAL_NVIC_SetPriority(EXTI4_IRQn, 5, 0);
 355              		.loc 1 195 0
 356 01f4 2246     		mov	r2, r4
 357 01f6 0521     		movs	r1, #5
 358 01f8 0A20     		movs	r0, #10
 359 01fa FFF7FEFF 		bl	HAL_NVIC_SetPriority
 360              	.LVL23:
 196:Core/Src/periphs/gpio.c ****   HAL_NVIC_EnableIRQ(EXTI4_IRQn);
 361              		.loc 1 196 0
 362 01fe 0A20     		movs	r0, #10
 363 0200 FFF7FEFF 		bl	HAL_NVIC_EnableIRQ
 364              	.LVL24:
 197:Core/Src/periphs/gpio.c **** 
 198:Core/Src/periphs/gpio.c ****   HAL_NVIC_SetPriority(EXTI9_5_IRQn, 5, 0);
 365              		.loc 1 198 0
 366 0204 2246     		mov	r2, r4
 367 0206 0521     		movs	r1, #5
 368 0208 1720     		movs	r0, #23
 369 020a FFF7FEFF 		bl	HAL_NVIC_SetPriority
 370              	.LVL25:
 199:Core/Src/periphs/gpio.c ****   HAL_NVIC_EnableIRQ(EXTI9_5_IRQn);
 371              		.loc 1 199 0
 372 020e 1720     		movs	r0, #23
ARM GAS  C:\Users\Prashant\AppData\Local\Temp\ccSKxzkU.s 			page 11


 373 0210 FFF7FEFF 		bl	HAL_NVIC_EnableIRQ
 374              	.LVL26:
 200:Core/Src/periphs/gpio.c **** 
 201:Core/Src/periphs/gpio.c ****   HAL_NVIC_SetPriority(EXTI15_10_IRQn, 5, 0);
 375              		.loc 1 201 0
 376 0214 2246     		mov	r2, r4
 377 0216 0521     		movs	r1, #5
 378 0218 2820     		movs	r0, #40
 379 021a FFF7FEFF 		bl	HAL_NVIC_SetPriority
 380              	.LVL27:
 202:Core/Src/periphs/gpio.c ****   HAL_NVIC_EnableIRQ(EXTI15_10_IRQn);
 381              		.loc 1 202 0
 382 021e 2820     		movs	r0, #40
 383 0220 FFF7FEFF 		bl	HAL_NVIC_EnableIRQ
 384              	.LVL28:
 203:Core/Src/periphs/gpio.c **** 
 204:Core/Src/periphs/gpio.c **** }
 385              		.loc 1 204 0
 386 0224 0CB0     		add	sp, sp, #48
 387              	.LCFI2:
 388              		.cfi_def_cfa_offset 32
 389              		@ sp needed
 390 0226 BDE8F087 		pop	{r4, r5, r6, r7, r8, r9, r10, pc}
 391              	.L4:
 392 022a 00BF     		.align	2
 393              	.L3:
 394 022c 00380240 		.word	1073887232
 395 0230 000C0240 		.word	1073875968
 396 0234 00001110 		.word	269549568
 397 0238 00100240 		.word	1073876992
 398 023c 00000240 		.word	1073872896
 399 0240 00080240 		.word	1073874944
 400 0244 00040240 		.word	1073873920
 401              		.cfi_endproc
 402              	.LFE126:
 404              		.text
 405              	.Letext0:
 406              		.file 2 "c:\\program files (x86)\\gnu tools arm embedded\\7 2017-q4-major\\arm-none-eabi\\include\
 407              		.file 3 "c:\\program files (x86)\\gnu tools arm embedded\\7 2017-q4-major\\arm-none-eabi\\include\
 408              		.file 4 "Drivers/CMSIS/Include/core_cm4.h"
 409              		.file 5 "Drivers/CMSIS/Device/ST/STM32F4xx/Include/system_stm32f4xx.h"
 410              		.file 6 "Drivers/CMSIS/Device/ST/STM32F4xx/Include/stm32f407xx.h"
 411              		.file 7 "c:\\program files (x86)\\gnu tools arm embedded\\7 2017-q4-major\\arm-none-eabi\\include\
 412              		.file 8 "c:\\program files (x86)\\gnu tools arm embedded\\7 2017-q4-major\\arm-none-eabi\\include\
 413              		.file 9 "c:\\program files (x86)\\gnu tools arm embedded\\7 2017-q4-major\\lib\\gcc\\arm-none-eabi
 414              		.file 10 "c:\\program files (x86)\\gnu tools arm embedded\\7 2017-q4-major\\arm-none-eabi\\include
 415              		.file 11 "Drivers/STM32F4xx_HAL_Driver/Inc/stm32f4xx_hal_gpio.h"
 416              		.file 12 "Drivers/STM32F4xx_HAL_Driver/Inc/stm32f4xx_hal_cortex.h"
ARM GAS  C:\Users\Prashant\AppData\Local\Temp\ccSKxzkU.s 			page 12

