ARM GAS  C:\Users\Prashant\AppData\Local\Temp\ccTX9b0K.s 			page 1


   1              		.cpu cortex-m4
   2              		.eabi_attribute 27, 1
   3              		.eabi_attribute 28, 1
   4              		.eabi_attribute 20, 1
   5              		.eabi_attribute 21, 1
   6              		.eabi_attribute 23, 3
   7              		.eabi_attribute 24, 1
   8              		.eabi_attribute 25, 1
   9              		.eabi_attribute 26, 1
  10              		.eabi_attribute 30, 1
  11              		.eabi_attribute 34, 1
  12              		.eabi_attribute 18, 4
  13              		.file	"logger.cpp"
  14              		.text
  15              	.Ltext0:
  16              		.cfi_sections	.debug_frame
  17              		.section	.text._ZN5QueueIhLj16384EED2Ev,"axG",%progbits,_ZN5QueueIhLj16384EED5Ev,comdat
  18              		.align	1
  19              		.weak	_ZN5QueueIhLj16384EED2Ev
  20              		.syntax unified
  21              		.thumb
  22              		.thumb_func
  23              		.fpu fpv4-sp-d16
  25              	_ZN5QueueIhLj16384EED2Ev:
  26              	.LFB169:
  27              		.file 1 "Core/Inc/utils/queue_custom.h"
   1:Core/Inc/utils/queue_custom.h **** /*
   2:Core/Inc/utils/queue_custom.h ****  * queue.h
   3:Core/Inc/utils/queue_custom.h ****  * 
   4:Core/Inc/utils/queue_custom.h ****  * Created : 11/16/2018
   5:Core/Inc/utils/queue_custom.h ****  *  Author : n-is
   6:Core/Inc/utils/queue_custom.h ****  *   email : 073bex422.nischal@pcampus.edu.np
   7:Core/Inc/utils/queue_custom.h ****  */
   8:Core/Inc/utils/queue_custom.h **** 
   9:Core/Inc/utils/queue_custom.h **** #ifndef _QUEUE_CUSTOM_H_
  10:Core/Inc/utils/queue_custom.h **** #define _QUEUE_CUSTOM_H_
  11:Core/Inc/utils/queue_custom.h **** 
  12:Core/Inc/utils/queue_custom.h **** #include "stm32f4xx_hal.h"
  13:Core/Inc/utils/queue_custom.h **** 
  14:Core/Inc/utils/queue_custom.h **** template <class T, size_t q_size>
  15:Core/Inc/utils/queue_custom.h **** class Queue
  16:Core/Inc/utils/queue_custom.h **** {
  17:Core/Inc/utils/queue_custom.h **** public:
  18:Core/Inc/utils/queue_custom.h ****         Queue():head_(0), tail_(0), curr_size_(0) { }
  19:Core/Inc/utils/queue_custom.h ****         Queue(Queue &&) = default;
  20:Core/Inc/utils/queue_custom.h ****         Queue(const Queue &) = default;
  21:Core/Inc/utils/queue_custom.h ****         Queue &operator=(Queue &&) = default;
  22:Core/Inc/utils/queue_custom.h ****         Queue &operator=(const Queue &) = default;
  23:Core/Inc/utils/queue_custom.h ****         ~Queue() {  }
  28              		.loc 1 23 0
  29              		.cfi_startproc
  30              		@ args = 0, pretend = 0, frame = 0
  31              		@ frame_needed = 0, uses_anonymous_args = 0
  32              		@ link register save eliminated.
  33              	.LVL0:
  34              		.loc 1 23 0
  35 0000 7047     		bx	lr
ARM GAS  C:\Users\Prashant\AppData\Local\Temp\ccTX9b0K.s 			page 2


  36              		.cfi_endproc
  37              	.LFE169:
  39              		.weak	_ZN5QueueIhLj16384EED1Ev
  40              		.thumb_set _ZN5QueueIhLj16384EED1Ev,_ZN5QueueIhLj16384EED2Ev
  41              		.section	.text._Z41__static_initialization_and_destruction_0ii,"ax",%progbits
  42              		.align	1
  43              		.syntax unified
  44              		.thumb
  45              		.thumb_func
  46              		.fpu fpv4-sp-d16
  48              	_Z41__static_initialization_and_destruction_0ii:
  49              	.LFB167:
  50              		.file 2 "Core/Src/utils/logger.cpp"
   1:Core/Src/utils/logger.cpp **** /*
   2:Core/Src/utils/logger.cpp ****  * logger.cpp
   3:Core/Src/utils/logger.cpp ****  *
   4:Core/Src/utils/logger.cpp ****  * Created : 5/21/2019
   5:Core/Src/utils/logger.cpp ****  *  Author : n-is
   6:Core/Src/utils/logger.cpp ****  *   email : 073bex422.nischal@pcampus.edu.np
   7:Core/Src/utils/logger.cpp ****  */
   8:Core/Src/utils/logger.cpp **** 
   9:Core/Src/utils/logger.cpp **** #include "stm32f4xx_hal.h"
  10:Core/Src/utils/logger.cpp **** #include "logger.h"
  11:Core/Src/utils/logger.cpp **** #include "defines.h"
  12:Core/Src/utils/logger.cpp **** 
  13:Core/Src/utils/logger.cpp **** Queue<uint8_t, LOG_BUFFER_SIZE> gLogging_Buffer;
  14:Core/Src/utils/logger.cpp **** static bool gLogDataSent = true;
  15:Core/Src/utils/logger.cpp **** 
  16:Core/Src/utils/logger.cpp **** void log_data()
  17:Core/Src/utils/logger.cpp **** {
  18:Core/Src/utils/logger.cpp ****         if (gLogDataSent && !gLogging_Buffer.is_Empty()) {
  19:Core/Src/utils/logger.cpp ****                 gLogDataSent = false;
  20:Core/Src/utils/logger.cpp ****                 uint8_t data = gLogging_Buffer.lookup();
  21:Core/Src/utils/logger.cpp ****                 HAL_UART_Transmit_IT(&huart2, &data, 1);
  22:Core/Src/utils/logger.cpp ****                 for (uint32_t i = 500; i; --i) {
  23:Core/Src/utils/logger.cpp ****                         asm volatile("nop");
  24:Core/Src/utils/logger.cpp ****                 }
  25:Core/Src/utils/logger.cpp ****         }
  26:Core/Src/utils/logger.cpp **** }
  27:Core/Src/utils/logger.cpp **** 
  28:Core/Src/utils/logger.cpp **** uint8_t gSent_Count = 0;
  29:Core/Src/utils/logger.cpp **** void Logging_Handle_TxCplt()
  30:Core/Src/utils/logger.cpp **** {
  31:Core/Src/utils/logger.cpp ****         gLogDataSent = true;
  32:Core/Src/utils/logger.cpp **** }
  33:Core/Src/utils/logger.cpp **** 
  34:Core/Src/utils/logger.cpp **** //* Angle_Logging Function
  35:Core/Src/utils/logger.cpp **** void log_Angle(float psi, float rw)
  36:Core/Src/utils/logger.cpp **** {
  37:Core/Src/utils/logger.cpp ****         // Angle Packet is of the following form
  38:Core/Src/utils/logger.cpp ****         // START_BYTE  ANGLE_PACKET_ID  PSI  NEW_PSI
  39:Core/Src/utils/logger.cpp ****         // A total of 4 bytes including start byte
  40:Core/Src/utils/logger.cpp **** 
  41:Core/Src/utils/logger.cpp ****         gLogging_Buffer.insert((uint8_t)(START_BYTE));
  42:Core/Src/utils/logger.cpp ****         // gLogging_Buffer.insert((uint8_t)(ANGLE_PACKET_ID));
  43:Core/Src/utils/logger.cpp ****         gLogging_Buffer.insert((int8_t)(psi * 20));
  44:Core/Src/utils/logger.cpp ****         gLogging_Buffer.insert((int8_t)(rw * 25));
ARM GAS  C:\Users\Prashant\AppData\Local\Temp\ccTX9b0K.s 			page 3


  45:Core/Src/utils/logger.cpp **** }
  51              		.loc 2 45 0
  52              		.cfi_startproc
  53              		@ args = 0, pretend = 0, frame = 0
  54              		@ frame_needed = 0, uses_anonymous_args = 0
  55              	.LVL1:
  56 0000 0128     		cmp	r0, #1
  57 0002 00D0     		beq	.L8
  58 0004 7047     		bx	lr
  59              	.L8:
  60              		.loc 2 45 0 is_stmt 0 discriminator 1
  61 0006 08B5     		push	{r3, lr}
  62              	.LCFI0:
  63              		.cfi_def_cfa_offset 8
  64              		.cfi_offset 3, -8
  65              		.cfi_offset 14, -4
  66              		.loc 2 45 0 is_stmt 1 discriminator 1
  67 0008 4FF6FF73 		movw	r3, #65535
  68 000c 9942     		cmp	r1, r3
  69 000e 00D0     		beq	.L9
  70              	.LVL2:
  71              	.L2:
  72              		.loc 2 45 0 is_stmt 0
  73 0010 08BD     		pop	{r3, pc}
  74              	.LVL3:
  75              	.L9:
  76              	.LBB22:
  77              	.LBB23:
  78              	.LBB24:
  18:Core/Inc/utils/queue_custom.h ****         Queue(Queue &&) = default;
  79              		.loc 1 18 0 is_stmt 1
  80 0012 0548     		ldr	r0, .L10
  81              	.LVL4:
  82 0014 0023     		movs	r3, #0
  83 0016 0360     		str	r3, [r0]
  84 0018 4360     		str	r3, [r0, #4]
  85 001a 8360     		str	r3, [r0, #8]
  86              	.LVL5:
  87              	.LBE24:
  88              	.LBE23:
  89              	.LBE22:
  13:Core/Src/utils/logger.cpp **** static bool gLogDataSent = true;
  90              		.loc 2 13 0
  91 001c 034A     		ldr	r2, .L10+4
  92 001e 0449     		ldr	r1, .L10+8
  93              	.LVL6:
  94 0020 FFF7FEFF 		bl	__aeabi_atexit
  95              	.LVL7:
  96              		.loc 2 45 0
  97 0024 F4E7     		b	.L2
  98              	.L11:
  99 0026 00BF     		.align	2
 100              	.L10:
 101 0028 00000000 		.word	gLogging_Buffer
 102 002c 00000000 		.word	__dso_handle
 103 0030 00000000 		.word	_ZN5QueueIhLj16384EED1Ev
 104              		.cfi_endproc
ARM GAS  C:\Users\Prashant\AppData\Local\Temp\ccTX9b0K.s 			page 4


 105              	.LFE167:
 107              		.section	.text._Z8log_datav,"ax",%progbits
 108              		.align	1
 109              		.global	_Z8log_datav
 110              		.syntax unified
 111              		.thumb
 112              		.thumb_func
 113              		.fpu fpv4-sp-d16
 115              	_Z8log_datav:
 116              	.LFB157:
  17:Core/Src/utils/logger.cpp ****         if (gLogDataSent && !gLogging_Buffer.is_Empty()) {
 117              		.loc 2 17 0
 118              		.cfi_startproc
 119              		@ args = 0, pretend = 0, frame = 8
 120              		@ frame_needed = 0, uses_anonymous_args = 0
 121              	.LBB25:
  18:Core/Src/utils/logger.cpp ****                 gLogDataSent = false;
 122              		.loc 2 18 0
 123 0000 124B     		ldr	r3, .L21
 124 0002 1B78     		ldrb	r3, [r3]	@ zero_extendqisi2
 125 0004 13B1     		cbz	r3, .L17
 126              	.LVL8:
 127              	.LBB26:
 128              	.LBB27:
 129              	.LBB28:
  24:Core/Inc/utils/queue_custom.h **** 
  25:Core/Inc/utils/queue_custom.h ****         void insert(T elem) {
  26:Core/Inc/utils/queue_custom.h ****                 ++curr_size_;
  27:Core/Inc/utils/queue_custom.h ****                 queue_[head_++] = elem;
  28:Core/Inc/utils/queue_custom.h ****                 head_ %= q_size;
  29:Core/Inc/utils/queue_custom.h ****         }
  30:Core/Inc/utils/queue_custom.h **** 
  31:Core/Inc/utils/queue_custom.h ****         T lookup() {
  32:Core/Inc/utils/queue_custom.h ****                 // if( curr_size_ ) {
  33:Core/Inc/utils/queue_custom.h ****                 --curr_size_;
  34:Core/Inc/utils/queue_custom.h ****                 T elem = queue_[tail_++];
  35:Core/Inc/utils/queue_custom.h ****                 tail_ %= q_size;
  36:Core/Inc/utils/queue_custom.h ****                 return elem;
  37:Core/Inc/utils/queue_custom.h ****                 // }
  38:Core/Inc/utils/queue_custom.h ****                 // return 0;
  39:Core/Inc/utils/queue_custom.h ****         }
  40:Core/Inc/utils/queue_custom.h **** 
  41:Core/Inc/utils/queue_custom.h ****         uint32_t length() const { return curr_size_; }
 130              		.loc 1 41 0
 131 0006 124B     		ldr	r3, .L21+4
 132 0008 9B68     		ldr	r3, [r3, #8]
 133              	.LVL9:
 134              	.LBE28:
 135              	.LBE27:
 136              	.LBE26:
  18:Core/Src/utils/logger.cpp ****                 gLogDataSent = false;
 137              		.loc 2 18 0
 138 000a 03B9     		cbnz	r3, .L20
 139              	.L17:
 140 000c 7047     		bx	lr
 141              	.L20:
 142              	.LBE25:
ARM GAS  C:\Users\Prashant\AppData\Local\Temp\ccTX9b0K.s 			page 5


  17:Core/Src/utils/logger.cpp ****         if (gLogDataSent && !gLogging_Buffer.is_Empty()) {
 143              		.loc 2 17 0
 144 000e 00B5     		push	{lr}
 145              	.LCFI1:
 146              		.cfi_def_cfa_offset 4
 147              		.cfi_offset 14, -4
 148 0010 83B0     		sub	sp, sp, #12
 149              	.LCFI2:
 150              		.cfi_def_cfa_offset 16
 151              	.LBB33:
 152              	.LBB29:
  19:Core/Src/utils/logger.cpp ****                 uint8_t data = gLogging_Buffer.lookup();
 153              		.loc 2 19 0
 154 0012 0E4A     		ldr	r2, .L21
 155 0014 0021     		movs	r1, #0
 156 0016 1170     		strb	r1, [r2]
 157              	.LVL10:
 158              	.LBB30:
 159              	.LBB31:
  33:Core/Inc/utils/queue_custom.h ****                 T elem = queue_[tail_++];
 160              		.loc 1 33 0
 161 0018 0D4A     		ldr	r2, .L21+4
 162 001a 013B     		subs	r3, r3, #1
 163 001c 9360     		str	r3, [r2, #8]
  34:Core/Inc/utils/queue_custom.h ****                 tail_ %= q_size;
 164              		.loc 1 34 0
 165 001e 5368     		ldr	r3, [r2, #4]
 166 0020 591C     		adds	r1, r3, #1
 167 0022 1344     		add	r3, r3, r2
 168 0024 187B     		ldrb	r0, [r3, #12]	@ zero_extendqisi2
 169              	.LVL11:
  35:Core/Inc/utils/queue_custom.h ****                 return elem;
 170              		.loc 1 35 0
 171 0026 C1F30D01 		ubfx	r1, r1, #0, #14
 172 002a 5160     		str	r1, [r2, #4]
 173              	.LVL12:
 174              	.LBE31:
 175              	.LBE30:
  20:Core/Src/utils/logger.cpp ****                 HAL_UART_Transmit_IT(&huart2, &data, 1);
 176              		.loc 2 20 0
 177 002c 02A9     		add	r1, sp, #8
 178 002e 01F8010D 		strb	r0, [r1, #-1]!
  21:Core/Src/utils/logger.cpp ****                 for (uint32_t i = 500; i; --i) {
 179              		.loc 2 21 0
 180 0032 0122     		movs	r2, #1
 181 0034 0748     		ldr	r0, .L21+8
 182 0036 FFF7FEFF 		bl	HAL_UART_Transmit_IT
 183              	.LVL13:
 184              	.LBB32:
  22:Core/Src/utils/logger.cpp ****                         asm volatile("nop");
 185              		.loc 2 22 0
 186 003a 4FF4FA73 		mov	r3, #500
 187              	.LVL14:
 188              	.L15:
  22:Core/Src/utils/logger.cpp ****                         asm volatile("nop");
 189              		.loc 2 22 0 is_stmt 0 discriminator 3
 190 003e 13B1     		cbz	r3, .L12
ARM GAS  C:\Users\Prashant\AppData\Local\Temp\ccTX9b0K.s 			page 6


  23:Core/Src/utils/logger.cpp ****                 }
 191              		.loc 2 23 0 is_stmt 1 discriminator 2
 192              		.syntax unified
 193              	@ 23 "Core/Src/utils/logger.cpp" 1
 194 0040 00BF     		nop
 195              	@ 0 "" 2
  22:Core/Src/utils/logger.cpp ****                         asm volatile("nop");
 196              		.loc 2 22 0 discriminator 2
 197              		.thumb
 198              		.syntax unified
 199 0042 013B     		subs	r3, r3, #1
 200              	.LVL15:
 201 0044 FBE7     		b	.L15
 202              	.L12:
 203              	.LBE32:
 204              	.LBE29:
 205              	.LBE33:
  26:Core/Src/utils/logger.cpp **** 
 206              		.loc 2 26 0
 207 0046 03B0     		add	sp, sp, #12
 208              	.LCFI3:
 209              		.cfi_def_cfa_offset 4
 210              		@ sp needed
 211 0048 5DF804FB 		ldr	pc, [sp], #4
 212              	.L22:
 213              		.align	2
 214              	.L21:
 215 004c 00000000 		.word	.LANCHOR0
 216 0050 00000000 		.word	gLogging_Buffer
 217 0054 00000000 		.word	huart2
 218              		.cfi_endproc
 219              	.LFE157:
 221              		.section	.text._Z21Logging_Handle_TxCpltv,"ax",%progbits
 222              		.align	1
 223              		.global	_Z21Logging_Handle_TxCpltv
 224              		.syntax unified
 225              		.thumb
 226              		.thumb_func
 227              		.fpu fpv4-sp-d16
 229              	_Z21Logging_Handle_TxCpltv:
 230              	.LFB158:
  30:Core/Src/utils/logger.cpp ****         gLogDataSent = true;
 231              		.loc 2 30 0
 232              		.cfi_startproc
 233              		@ args = 0, pretend = 0, frame = 0
 234              		@ frame_needed = 0, uses_anonymous_args = 0
 235              		@ link register save eliminated.
  31:Core/Src/utils/logger.cpp **** }
 236              		.loc 2 31 0
 237 0000 014B     		ldr	r3, .L24
 238 0002 0122     		movs	r2, #1
 239 0004 1A70     		strb	r2, [r3]
  32:Core/Src/utils/logger.cpp **** 
 240              		.loc 2 32 0
 241 0006 7047     		bx	lr
 242              	.L25:
 243              		.align	2
ARM GAS  C:\Users\Prashant\AppData\Local\Temp\ccTX9b0K.s 			page 7


 244              	.L24:
 245 0008 00000000 		.word	.LANCHOR0
 246              		.cfi_endproc
 247              	.LFE158:
 249              		.section	.text._Z9log_Angleff,"ax",%progbits
 250              		.align	1
 251              		.global	_Z9log_Angleff
 252              		.syntax unified
 253              		.thumb
 254              		.thumb_func
 255              		.fpu fpv4-sp-d16
 257              	_Z9log_Angleff:
 258              	.LFB159:
  36:Core/Src/utils/logger.cpp ****         // Angle Packet is of the following form
 259              		.loc 2 36 0
 260              		.cfi_startproc
 261              		@ args = 0, pretend = 0, frame = 0
 262              		@ frame_needed = 0, uses_anonymous_args = 0
 263              		@ link register save eliminated.
 264              	.LVL16:
 265 0000 10B4     		push	{r4}
 266              	.LCFI4:
 267              		.cfi_def_cfa_offset 4
 268              		.cfi_offset 4, -4
 269              	.LVL17:
 270              	.LBB34:
 271              	.LBB35:
  26:Core/Inc/utils/queue_custom.h ****                 queue_[head_++] = elem;
 272              		.loc 1 26 0
 273 0002 144B     		ldr	r3, .L28
 274 0004 9868     		ldr	r0, [r3, #8]
  27:Core/Inc/utils/queue_custom.h ****                 head_ %= q_size;
 275              		.loc 1 27 0
 276 0006 1A68     		ldr	r2, [r3]
 277 0008 511C     		adds	r1, r2, #1
 278 000a 1A44     		add	r2, r2, r3
 279 000c A524     		movs	r4, #165
 280 000e 1473     		strb	r4, [r2, #12]
  28:Core/Inc/utils/queue_custom.h ****         }
 281              		.loc 1 28 0
 282 0010 C1F30D01 		ubfx	r1, r1, #0, #14
 283              	.LVL18:
 284              	.LBE35:
 285              	.LBE34:
  43:Core/Src/utils/logger.cpp ****         gLogging_Buffer.insert((int8_t)(rw * 25));
 286              		.loc 2 43 0
 287 0014 F3EE047A 		vmov.f32	s15, #2.0e+1
 288 0018 20EE270A 		vmul.f32	s0, s0, s15
 289              	.LVL19:
 290 001c FDEEC07A 		vcvt.s32.f32	s15, s0
 291 0020 17EE904A 		vmov	r4, s15	@ int
 292              	.LVL20:
 293              	.LBB36:
 294              	.LBB37:
  27:Core/Inc/utils/queue_custom.h ****                 head_ %= q_size;
 295              		.loc 1 27 0
 296 0024 4A1C     		adds	r2, r1, #1
ARM GAS  C:\Users\Prashant\AppData\Local\Temp\ccTX9b0K.s 			page 8


 297 0026 1944     		add	r1, r1, r3
 298 0028 0C73     		strb	r4, [r1, #12]
  28:Core/Inc/utils/queue_custom.h ****         }
 299              		.loc 1 28 0
 300 002a C2F30D02 		ubfx	r2, r2, #0, #14
 301              	.LVL21:
 302              	.LBE37:
 303              	.LBE36:
  44:Core/Src/utils/logger.cpp **** }
 304              		.loc 2 44 0
 305 002e F3EE097A 		vmov.f32	s15, #2.5e+1
 306 0032 60EEA70A 		vmul.f32	s1, s1, s15
 307              	.LVL22:
 308 0036 FDEEE07A 		vcvt.s32.f32	s15, s1
 309 003a 17EE901A 		vmov	r1, s15	@ int
 310              	.LVL23:
 311              	.LBB38:
 312              	.LBB39:
  26:Core/Inc/utils/queue_custom.h ****                 queue_[head_++] = elem;
 313              		.loc 1 26 0
 314 003e 0330     		adds	r0, r0, #3
 315 0040 9860     		str	r0, [r3, #8]
  27:Core/Inc/utils/queue_custom.h ****                 head_ %= q_size;
 316              		.loc 1 27 0
 317 0042 501C     		adds	r0, r2, #1
 318 0044 1A44     		add	r2, r2, r3
 319 0046 1173     		strb	r1, [r2, #12]
  28:Core/Inc/utils/queue_custom.h ****         }
 320              		.loc 1 28 0
 321 0048 C0F30D00 		ubfx	r0, r0, #0, #14
 322 004c 1860     		str	r0, [r3]
 323              	.LVL24:
 324              	.LBE39:
 325              	.LBE38:
 326              		.loc 2 45 0
 327 004e 5DF8044B 		ldr	r4, [sp], #4
 328              	.LCFI5:
 329              		.cfi_restore 4
 330              		.cfi_def_cfa_offset 0
 331 0052 7047     		bx	lr
 332              	.L29:
 333              		.align	2
 334              	.L28:
 335 0054 00000000 		.word	gLogging_Buffer
 336              		.cfi_endproc
 337              	.LFE159:
 339              		.section	.text._GLOBAL__sub_I_gLogging_Buffer,"ax",%progbits
 340              		.align	1
 341              		.syntax unified
 342              		.thumb
 343              		.thumb_func
 344              		.fpu fpv4-sp-d16
 346              	_GLOBAL__sub_I_gLogging_Buffer:
 347              	.LFB171:
 348              		.loc 2 45 0
 349              		.cfi_startproc
 350              		@ args = 0, pretend = 0, frame = 0
ARM GAS  C:\Users\Prashant\AppData\Local\Temp\ccTX9b0K.s 			page 9


 351              		@ frame_needed = 0, uses_anonymous_args = 0
 352 0000 08B5     		push	{r3, lr}
 353              	.LCFI6:
 354              		.cfi_def_cfa_offset 8
 355              		.cfi_offset 3, -8
 356              		.cfi_offset 14, -4
 357              		.loc 2 45 0
 358 0002 4FF6FF71 		movw	r1, #65535
 359 0006 0120     		movs	r0, #1
 360 0008 FFF7FEFF 		bl	_Z41__static_initialization_and_destruction_0ii
 361              	.LVL25:
 362 000c 08BD     		pop	{r3, pc}
 363              		.cfi_endproc
 364              	.LFE171:
 366              		.section	.init_array,"aw",%init_array
 367              		.align	2
 368 0000 00000000 		.word	_GLOBAL__sub_I_gLogging_Buffer(target1)
 369              		.global	gSent_Count
 370              		.global	gLogging_Buffer
 371              		.section	.bss.gLogging_Buffer,"aw",%nobits
 372              		.align	2
 375              	gLogging_Buffer:
 376 0000 00000000 		.space	16396
 376      00000000 
 376      00000000 
 376      00000000 
 376      00000000 
 377              		.section	.bss.gSent_Count,"aw",%nobits
 380              	gSent_Count:
 381 0000 00       		.space	1
 382              		.section	.data._ZL12gLogDataSent,"aw",%progbits
 383              		.set	.LANCHOR0,. + 0
 386              	_ZL12gLogDataSent:
 387 0000 01       		.byte	1
 388              		.text
 389              	.Letext0:
 390              		.file 3 "c:\\program files (x86)\\gnu tools arm embedded\\7 2017-q4-major\\arm-none-eabi\\include\
 391              		.file 4 "c:\\program files (x86)\\gnu tools arm embedded\\7 2017-q4-major\\arm-none-eabi\\include\
 392              		.file 5 "Drivers/CMSIS/Include/core_cm4.h"
 393              		.file 6 "Drivers/CMSIS/Device/ST/STM32F4xx/Include/system_stm32f4xx.h"
 394              		.file 7 "Drivers/CMSIS/Device/ST/STM32F4xx/Include/stm32f407xx.h"
 395              		.file 8 "Drivers/CMSIS/Device/ST/STM32F4xx/Include/stm32f4xx.h"
 396              		.file 9 "c:\\program files (x86)\\gnu tools arm embedded\\7 2017-q4-major\\arm-none-eabi\\include\
 397              		.file 10 "c:\\program files (x86)\\gnu tools arm embedded\\7 2017-q4-major\\arm-none-eabi\\include
 398              		.file 11 "c:\\program files (x86)\\gnu tools arm embedded\\7 2017-q4-major\\lib\\gcc\\arm-none-eab
 399              		.file 12 "c:\\program files (x86)\\gnu tools arm embedded\\7 2017-q4-major\\arm-none-eabi\\include
 400              		.file 13 "Drivers/STM32F4xx_HAL_Driver/Inc/stm32f4xx_hal_def.h"
 401              		.file 14 "Drivers/STM32F4xx_HAL_Driver/Inc/stm32f4xx_hal_dma.h"
 402              		.file 15 "Drivers/STM32F4xx_HAL_Driver/Inc/stm32f4xx_hal_uart.h"
 403              		.file 16 "Drivers/STM32F4xx_HAL_Driver/Inc/stm32f4xx_hal.h"
 404              		.file 17 "Core/Inc/periphs/usart.h"
 405              		.file 18 "Core/Inc/utils/logger.h"
ARM GAS  C:\Users\Prashant\AppData\Local\Temp\ccTX9b0K.s 			page 10

