ARM GAS  C:\Users\Prashant\AppData\Local\Temp\cc8cn1Ip.s 			page 1


   1              		.cpu cortex-m4
   2              		.eabi_attribute 27, 1
   3              		.eabi_attribute 28, 1
   4              		.eabi_attribute 20, 1
   5              		.eabi_attribute 21, 1
   6              		.eabi_attribute 23, 3
   7              		.eabi_attribute 24, 1
   8              		.eabi_attribute 25, 1
   9              		.eabi_attribute 26, 1
  10              		.eabi_attribute 30, 1
  11              		.eabi_attribute 34, 1
  12              		.eabi_attribute 18, 4
  13              		.file	"gpio.c"
  14              		.text
  15              	.Ltext0:
  16              		.cfi_sections	.debug_frame
  17              		.section	.text.MX_GPIO_Init,"ax",%progbits
  18              		.align	1
  19              		.global	MX_GPIO_Init
  20              		.syntax unified
  21              		.thumb
  22              		.thumb_func
  23              		.fpu fpv4-sp-d16
  25              	MX_GPIO_Init:
  26              	.LFB126:
  27              		.file 1 "Core/Src/gpio.c"
   1:Core/Src/gpio.c **** /**
   2:Core/Src/gpio.c ****   ******************************************************************************
   3:Core/Src/gpio.c ****   * File Name          : gpio.c
   4:Core/Src/gpio.c ****   * Description        : This file provides code for the configuration
   5:Core/Src/gpio.c ****   *                      of all used GPIO pins.
   6:Core/Src/gpio.c ****   ******************************************************************************
   7:Core/Src/gpio.c ****   ** This notice applies to any and all portions of this file
   8:Core/Src/gpio.c ****   * that are not between comment pairs USER CODE BEGIN and
   9:Core/Src/gpio.c ****   * USER CODE END. Other portions of this file, whether 
  10:Core/Src/gpio.c ****   * inserted by the user or by software development tools
  11:Core/Src/gpio.c ****   * are owned by their respective copyright owners.
  12:Core/Src/gpio.c ****   *
  13:Core/Src/gpio.c ****   * COPYRIGHT(c) 2019 STMicroelectronics
  14:Core/Src/gpio.c ****   *
  15:Core/Src/gpio.c ****   * Redistribution and use in source and binary forms, with or without modification,
  16:Core/Src/gpio.c ****   * are permitted provided that the following conditions are met:
  17:Core/Src/gpio.c ****   *   1. Redistributions of source code must retain the above copyright notice,
  18:Core/Src/gpio.c ****   *      this list of conditions and the following disclaimer.
  19:Core/Src/gpio.c ****   *   2. Redistributions in binary form must reproduce the above copyright notice,
  20:Core/Src/gpio.c ****   *      this list of conditions and the following disclaimer in the documentation
  21:Core/Src/gpio.c ****   *      and/or other materials provided with the distribution.
  22:Core/Src/gpio.c ****   *   3. Neither the name of STMicroelectronics nor the names of its contributors
  23:Core/Src/gpio.c ****   *      may be used to endorse or promote products derived from this software
  24:Core/Src/gpio.c ****   *      without specific prior written permission.
  25:Core/Src/gpio.c ****   *
  26:Core/Src/gpio.c ****   * THIS SOFTWARE IS PROVIDED BY THE COPYRIGHT HOLDERS AND CONTRIBUTORS "AS IS"
  27:Core/Src/gpio.c ****   * AND ANY EXPRESS OR IMPLIED WARRANTIES, INCLUDING, BUT NOT LIMITED TO, THE
  28:Core/Src/gpio.c ****   * IMPLIED WARRANTIES OF MERCHANTABILITY AND FITNESS FOR A PARTICULAR PURPOSE ARE
  29:Core/Src/gpio.c ****   * DISCLAIMED. IN NO EVENT SHALL THE COPYRIGHT HOLDER OR CONTRIBUTORS BE LIABLE
  30:Core/Src/gpio.c ****   * FOR ANY DIRECT, INDIRECT, INCIDENTAL, SPECIAL, EXEMPLARY, OR CONSEQUENTIAL
  31:Core/Src/gpio.c ****   * DAMAGES (INCLUDING, BUT NOT LIMITED TO, PROCUREMENT OF SUBSTITUTE GOODS OR
ARM GAS  C:\Users\Prashant\AppData\Local\Temp\cc8cn1Ip.s 			page 2


  32:Core/Src/gpio.c ****   * SERVICES; LOSS OF USE, DATA, OR PROFITS; OR BUSINESS INTERRUPTION) HOWEVER
  33:Core/Src/gpio.c ****   * CAUSED AND ON ANY THEORY OF LIABILITY, WHETHER IN CONTRACT, STRICT LIABILITY,
  34:Core/Src/gpio.c ****   * OR TORT (INCLUDING NEGLIGENCE OR OTHERWISE) ARISING IN ANY WAY OUT OF THE USE
  35:Core/Src/gpio.c ****   * OF THIS SOFTWARE, EVEN IF ADVISED OF THE POSSIBILITY OF SUCH DAMAGE.
  36:Core/Src/gpio.c ****   *
  37:Core/Src/gpio.c ****   ******************************************************************************
  38:Core/Src/gpio.c ****   */
  39:Core/Src/gpio.c **** 
  40:Core/Src/gpio.c **** /* Includes ------------------------------------------------------------------*/
  41:Core/Src/gpio.c **** #include "gpio.h"
  42:Core/Src/gpio.c **** /* USER CODE BEGIN 0 */
  43:Core/Src/gpio.c **** 
  44:Core/Src/gpio.c **** /* USER CODE END 0 */
  45:Core/Src/gpio.c **** 
  46:Core/Src/gpio.c **** /*----------------------------------------------------------------------------*/
  47:Core/Src/gpio.c **** /* Configure GPIO                                                             */
  48:Core/Src/gpio.c **** /*----------------------------------------------------------------------------*/
  49:Core/Src/gpio.c **** /* USER CODE BEGIN 1 */
  50:Core/Src/gpio.c **** 
  51:Core/Src/gpio.c **** /* USER CODE END 1 */
  52:Core/Src/gpio.c **** 
  53:Core/Src/gpio.c **** /** Configure pins as 
  54:Core/Src/gpio.c ****         * Analog 
  55:Core/Src/gpio.c ****         * Input 
  56:Core/Src/gpio.c ****         * Output
  57:Core/Src/gpio.c ****         * EVENT_OUT
  58:Core/Src/gpio.c ****         * EXTI
  59:Core/Src/gpio.c **** */
  60:Core/Src/gpio.c **** void MX_GPIO_Init(void)
  61:Core/Src/gpio.c **** {
  28              		.loc 1 61 0
  29              		.cfi_startproc
  30              		@ args = 0, pretend = 0, frame = 48
  31              		@ frame_needed = 0, uses_anonymous_args = 0
  32 0000 2DE9F043 		push	{r4, r5, r6, r7, r8, r9, lr}
  33              	.LCFI0:
  34              		.cfi_def_cfa_offset 28
  35              		.cfi_offset 4, -28
  36              		.cfi_offset 5, -24
  37              		.cfi_offset 6, -20
  38              		.cfi_offset 7, -16
  39              		.cfi_offset 8, -12
  40              		.cfi_offset 9, -8
  41              		.cfi_offset 14, -4
  42 0004 8DB0     		sub	sp, sp, #52
  43              	.LCFI1:
  44              		.cfi_def_cfa_offset 80
  62:Core/Src/gpio.c **** 
  63:Core/Src/gpio.c ****   GPIO_InitTypeDef GPIO_InitStruct = {0};
  45              		.loc 1 63 0
  46 0006 0024     		movs	r4, #0
  47 0008 0794     		str	r4, [sp, #28]
  48 000a 0894     		str	r4, [sp, #32]
  49 000c 0994     		str	r4, [sp, #36]
  50 000e 0A94     		str	r4, [sp, #40]
  51 0010 0B94     		str	r4, [sp, #44]
  52              	.LBB2:
ARM GAS  C:\Users\Prashant\AppData\Local\Temp\cc8cn1Ip.s 			page 3


  64:Core/Src/gpio.c **** 
  65:Core/Src/gpio.c ****   /* GPIO Ports Clock Enable */
  66:Core/Src/gpio.c ****   __HAL_RCC_GPIOE_CLK_ENABLE();
  53              		.loc 1 66 0
  54 0012 0194     		str	r4, [sp, #4]
  55 0014 414B     		ldr	r3, .L3
  56 0016 1A6B     		ldr	r2, [r3, #48]
  57 0018 42F01002 		orr	r2, r2, #16
  58 001c 1A63     		str	r2, [r3, #48]
  59 001e 1A6B     		ldr	r2, [r3, #48]
  60 0020 02F01002 		and	r2, r2, #16
  61 0024 0192     		str	r2, [sp, #4]
  62 0026 019A     		ldr	r2, [sp, #4]
  63              	.LBE2:
  64              	.LBB3:
  67:Core/Src/gpio.c ****   __HAL_RCC_GPIOH_CLK_ENABLE();
  65              		.loc 1 67 0
  66 0028 0294     		str	r4, [sp, #8]
  67 002a 1A6B     		ldr	r2, [r3, #48]
  68 002c 42F08002 		orr	r2, r2, #128
  69 0030 1A63     		str	r2, [r3, #48]
  70 0032 1A6B     		ldr	r2, [r3, #48]
  71 0034 02F08002 		and	r2, r2, #128
  72 0038 0292     		str	r2, [sp, #8]
  73 003a 029A     		ldr	r2, [sp, #8]
  74              	.LBE3:
  75              	.LBB4:
  68:Core/Src/gpio.c ****   __HAL_RCC_GPIOB_CLK_ENABLE();
  76              		.loc 1 68 0
  77 003c 0394     		str	r4, [sp, #12]
  78 003e 1A6B     		ldr	r2, [r3, #48]
  79 0040 42F00202 		orr	r2, r2, #2
  80 0044 1A63     		str	r2, [r3, #48]
  81 0046 1A6B     		ldr	r2, [r3, #48]
  82 0048 02F00202 		and	r2, r2, #2
  83 004c 0392     		str	r2, [sp, #12]
  84 004e 039A     		ldr	r2, [sp, #12]
  85              	.LBE4:
  86              	.LBB5:
  69:Core/Src/gpio.c ****   __HAL_RCC_GPIOD_CLK_ENABLE();
  87              		.loc 1 69 0
  88 0050 0494     		str	r4, [sp, #16]
  89 0052 1A6B     		ldr	r2, [r3, #48]
  90 0054 42F00802 		orr	r2, r2, #8
  91 0058 1A63     		str	r2, [r3, #48]
  92 005a 1A6B     		ldr	r2, [r3, #48]
  93 005c 02F00802 		and	r2, r2, #8
  94 0060 0492     		str	r2, [sp, #16]
  95 0062 049A     		ldr	r2, [sp, #16]
  96              	.LBE5:
  97              	.LBB6:
  70:Core/Src/gpio.c ****   __HAL_RCC_GPIOC_CLK_ENABLE();
  98              		.loc 1 70 0
  99 0064 0594     		str	r4, [sp, #20]
 100 0066 1A6B     		ldr	r2, [r3, #48]
 101 0068 42F00402 		orr	r2, r2, #4
 102 006c 1A63     		str	r2, [r3, #48]
ARM GAS  C:\Users\Prashant\AppData\Local\Temp\cc8cn1Ip.s 			page 4


 103 006e 1A6B     		ldr	r2, [r3, #48]
 104 0070 02F00402 		and	r2, r2, #4
 105 0074 0592     		str	r2, [sp, #20]
 106 0076 059A     		ldr	r2, [sp, #20]
 107              	.LBE6:
 108              	.LBB7:
  71:Core/Src/gpio.c ****   __HAL_RCC_GPIOA_CLK_ENABLE();
 109              		.loc 1 71 0
 110 0078 0694     		str	r4, [sp, #24]
 111 007a 1A6B     		ldr	r2, [r3, #48]
 112 007c 42F00102 		orr	r2, r2, #1
 113 0080 1A63     		str	r2, [r3, #48]
 114 0082 1B6B     		ldr	r3, [r3, #48]
 115 0084 03F00103 		and	r3, r3, #1
 116 0088 0693     		str	r3, [sp, #24]
 117 008a 069B     		ldr	r3, [sp, #24]
 118              	.LBE7:
  72:Core/Src/gpio.c **** 
  73:Core/Src/gpio.c ****   /*Configure GPIO pin Output Level */
  74:Core/Src/gpio.c ****   HAL_GPIO_WritePin(GPIOE, GPIO_PIN_3, GPIO_PIN_RESET);
 119              		.loc 1 74 0
 120 008c DFF89890 		ldr	r9, .L3+12
 121 0090 2246     		mov	r2, r4
 122 0092 0821     		movs	r1, #8
 123 0094 4846     		mov	r0, r9
 124 0096 FFF7FEFF 		bl	HAL_GPIO_WritePin
 125              	.LVL0:
  75:Core/Src/gpio.c **** 
  76:Core/Src/gpio.c ****   /*Configure GPIO pin Output Level */
  77:Core/Src/gpio.c ****   HAL_GPIO_WritePin(GPIOD, GPIO_PIN_12|GPIO_PIN_14|GPIO_PIN_2|GPIO_PIN_4, GPIO_PIN_RESET);
 126              		.loc 1 77 0
 127 009a DFF89080 		ldr	r8, .L3+16
 128 009e 2246     		mov	r2, r4
 129 00a0 45F21401 		movw	r1, #20500
 130 00a4 4046     		mov	r0, r8
 131 00a6 FFF7FEFF 		bl	HAL_GPIO_WritePin
 132              	.LVL1:
  78:Core/Src/gpio.c **** 
  79:Core/Src/gpio.c ****   /*Configure GPIO pin Output Level */
  80:Core/Src/gpio.c ****   HAL_GPIO_WritePin(GPIOA, GPIO_PIN_9|GPIO_PIN_10|GPIO_PIN_15, GPIO_PIN_RESET);
 133              		.loc 1 80 0
 134 00aa 1D4F     		ldr	r7, .L3+4
 135 00ac 2246     		mov	r2, r4
 136 00ae 4FF40641 		mov	r1, #34304
 137 00b2 3846     		mov	r0, r7
 138 00b4 FFF7FEFF 		bl	HAL_GPIO_WritePin
 139              	.LVL2:
  81:Core/Src/gpio.c **** 
  82:Core/Src/gpio.c ****   /*Configure GPIO pin Output Level */
  83:Core/Src/gpio.c ****   HAL_GPIO_WritePin(GPIOC, GPIO_PIN_11, GPIO_PIN_RESET);
 140              		.loc 1 83 0
 141 00b8 1A4E     		ldr	r6, .L3+8
 142 00ba 2246     		mov	r2, r4
 143 00bc 4FF40061 		mov	r1, #2048
 144 00c0 3046     		mov	r0, r6
 145 00c2 FFF7FEFF 		bl	HAL_GPIO_WritePin
 146              	.LVL3:
ARM GAS  C:\Users\Prashant\AppData\Local\Temp\cc8cn1Ip.s 			page 5


  84:Core/Src/gpio.c **** 
  85:Core/Src/gpio.c ****   /*Configure GPIO pin : PE3 */
  86:Core/Src/gpio.c ****   GPIO_InitStruct.Pin = GPIO_PIN_3;
 147              		.loc 1 86 0
 148 00c6 0823     		movs	r3, #8
 149 00c8 0793     		str	r3, [sp, #28]
  87:Core/Src/gpio.c ****   GPIO_InitStruct.Mode = GPIO_MODE_OUTPUT_PP;
 150              		.loc 1 87 0
 151 00ca 0125     		movs	r5, #1
 152 00cc 0895     		str	r5, [sp, #32]
  88:Core/Src/gpio.c ****   GPIO_InitStruct.Pull = GPIO_NOPULL;
 153              		.loc 1 88 0
 154 00ce 0994     		str	r4, [sp, #36]
  89:Core/Src/gpio.c ****   GPIO_InitStruct.Speed = GPIO_SPEED_FREQ_LOW;
 155              		.loc 1 89 0
 156 00d0 0A94     		str	r4, [sp, #40]
  90:Core/Src/gpio.c ****   HAL_GPIO_Init(GPIOE, &GPIO_InitStruct);
 157              		.loc 1 90 0
 158 00d2 07A9     		add	r1, sp, #28
 159 00d4 4846     		mov	r0, r9
 160 00d6 FFF7FEFF 		bl	HAL_GPIO_Init
 161              	.LVL4:
  91:Core/Src/gpio.c **** 
  92:Core/Src/gpio.c ****   /*Configure GPIO pins : PD12 PD14 PD2 PD4 */
  93:Core/Src/gpio.c ****   GPIO_InitStruct.Pin = GPIO_PIN_12|GPIO_PIN_14|GPIO_PIN_2|GPIO_PIN_4;
 162              		.loc 1 93 0
 163 00da 45F21403 		movw	r3, #20500
 164 00de 0793     		str	r3, [sp, #28]
  94:Core/Src/gpio.c ****   GPIO_InitStruct.Mode = GPIO_MODE_OUTPUT_PP;
 165              		.loc 1 94 0
 166 00e0 0895     		str	r5, [sp, #32]
  95:Core/Src/gpio.c ****   GPIO_InitStruct.Pull = GPIO_NOPULL;
 167              		.loc 1 95 0
 168 00e2 0994     		str	r4, [sp, #36]
  96:Core/Src/gpio.c ****   GPIO_InitStruct.Speed = GPIO_SPEED_FREQ_LOW;
 169              		.loc 1 96 0
 170 00e4 0A94     		str	r4, [sp, #40]
  97:Core/Src/gpio.c ****   HAL_GPIO_Init(GPIOD, &GPIO_InitStruct);
 171              		.loc 1 97 0
 172 00e6 07A9     		add	r1, sp, #28
 173 00e8 4046     		mov	r0, r8
 174 00ea FFF7FEFF 		bl	HAL_GPIO_Init
 175              	.LVL5:
  98:Core/Src/gpio.c **** 
  99:Core/Src/gpio.c ****   /*Configure GPIO pins : PA9 PA10 PA15 */
 100:Core/Src/gpio.c ****   GPIO_InitStruct.Pin = GPIO_PIN_9|GPIO_PIN_10|GPIO_PIN_15;
 176              		.loc 1 100 0
 177 00ee 4FF40643 		mov	r3, #34304
 178 00f2 0793     		str	r3, [sp, #28]
 101:Core/Src/gpio.c ****   GPIO_InitStruct.Mode = GPIO_MODE_OUTPUT_PP;
 179              		.loc 1 101 0
 180 00f4 0895     		str	r5, [sp, #32]
 102:Core/Src/gpio.c ****   GPIO_InitStruct.Pull = GPIO_NOPULL;
 181              		.loc 1 102 0
 182 00f6 0994     		str	r4, [sp, #36]
 103:Core/Src/gpio.c ****   GPIO_InitStruct.Speed = GPIO_SPEED_FREQ_LOW;
 183              		.loc 1 103 0
ARM GAS  C:\Users\Prashant\AppData\Local\Temp\cc8cn1Ip.s 			page 6


 184 00f8 0A94     		str	r4, [sp, #40]
 104:Core/Src/gpio.c ****   HAL_GPIO_Init(GPIOA, &GPIO_InitStruct);
 185              		.loc 1 104 0
 186 00fa 07A9     		add	r1, sp, #28
 187 00fc 3846     		mov	r0, r7
 188 00fe FFF7FEFF 		bl	HAL_GPIO_Init
 189              	.LVL6:
 105:Core/Src/gpio.c **** 
 106:Core/Src/gpio.c ****   /*Configure GPIO pin : PC11 */
 107:Core/Src/gpio.c ****   GPIO_InitStruct.Pin = GPIO_PIN_11;
 190              		.loc 1 107 0
 191 0102 4FF40063 		mov	r3, #2048
 192 0106 0793     		str	r3, [sp, #28]
 108:Core/Src/gpio.c ****   GPIO_InitStruct.Mode = GPIO_MODE_OUTPUT_PP;
 193              		.loc 1 108 0
 194 0108 0895     		str	r5, [sp, #32]
 109:Core/Src/gpio.c ****   GPIO_InitStruct.Pull = GPIO_NOPULL;
 195              		.loc 1 109 0
 196 010a 0994     		str	r4, [sp, #36]
 110:Core/Src/gpio.c ****   GPIO_InitStruct.Speed = GPIO_SPEED_FREQ_LOW;
 197              		.loc 1 110 0
 198 010c 0A94     		str	r4, [sp, #40]
 111:Core/Src/gpio.c ****   HAL_GPIO_Init(GPIOC, &GPIO_InitStruct);
 199              		.loc 1 111 0
 200 010e 07A9     		add	r1, sp, #28
 201 0110 3046     		mov	r0, r6
 202 0112 FFF7FEFF 		bl	HAL_GPIO_Init
 203              	.LVL7:
 112:Core/Src/gpio.c **** 
 113:Core/Src/gpio.c **** }
 204              		.loc 1 113 0
 205 0116 0DB0     		add	sp, sp, #52
 206              	.LCFI2:
 207              		.cfi_def_cfa_offset 28
 208              		@ sp needed
 209 0118 BDE8F083 		pop	{r4, r5, r6, r7, r8, r9, pc}
 210              	.L4:
 211              		.align	2
 212              	.L3:
 213 011c 00380240 		.word	1073887232
 214 0120 00000240 		.word	1073872896
 215 0124 00080240 		.word	1073874944
 216 0128 00100240 		.word	1073876992
 217 012c 000C0240 		.word	1073875968
 218              		.cfi_endproc
 219              	.LFE126:
 221              		.text
 222              	.Letext0:
 223              		.file 2 "c:\\program files (x86)\\gnu tools arm embedded\\7 2017-q4-major\\arm-none-eabi\\include\
 224              		.file 3 "c:\\program files (x86)\\gnu tools arm embedded\\7 2017-q4-major\\arm-none-eabi\\include\
 225              		.file 4 "Drivers/CMSIS/Include/core_cm4.h"
 226              		.file 5 "Drivers/CMSIS/Device/ST/STM32F4xx/Include/system_stm32f4xx.h"
 227              		.file 6 "Drivers/CMSIS/Device/ST/STM32F4xx/Include/stm32f407xx.h"
 228              		.file 7 "c:\\program files (x86)\\gnu tools arm embedded\\7 2017-q4-major\\arm-none-eabi\\include\
 229              		.file 8 "c:\\program files (x86)\\gnu tools arm embedded\\7 2017-q4-major\\arm-none-eabi\\include\
 230              		.file 9 "c:\\program files (x86)\\gnu tools arm embedded\\7 2017-q4-major\\lib\\gcc\\arm-none-eabi
 231              		.file 10 "c:\\program files (x86)\\gnu tools arm embedded\\7 2017-q4-major\\arm-none-eabi\\include
ARM GAS  C:\Users\Prashant\AppData\Local\Temp\cc8cn1Ip.s 			page 7


 232              		.file 11 "Drivers/STM32F4xx_HAL_Driver/Inc/stm32f4xx_hal_gpio.h"
ARM GAS  C:\Users\Prashant\AppData\Local\Temp\cc8cn1Ip.s 			page 8

