ARM GAS  C:\Users\Prashant\AppData\Local\Temp\ccEBMn4R.s 			page 1


   1              		.cpu cortex-m4
   2              		.eabi_attribute 27, 1
   3              		.eabi_attribute 28, 1
   4              		.eabi_attribute 20, 1
   5              		.eabi_attribute 21, 1
   6              		.eabi_attribute 23, 3
   7              		.eabi_attribute 24, 1
   8              		.eabi_attribute 25, 1
   9              		.eabi_attribute 26, 1
  10              		.eabi_attribute 30, 1
  11              		.eabi_attribute 34, 1
  12              		.eabi_attribute 18, 4
  13              		.file	"robo_init.c"
  14              		.text
  15              	.Ltext0:
  16              		.cfi_sections	.debug_frame
  17              		.section	.text.wheel_init,"ax",%progbits
  18              		.align	1
  19              		.global	wheel_init
  20              		.syntax unified
  21              		.thumb
  22              		.thumb_func
  23              		.fpu fpv4-sp-d16
  25              	wheel_init:
  26              	.LFB126:
  27              		.file 1 "Core/Src/robo_init.c"
   1:Core/Src/robo_init.c **** /*
   2:Core/Src/robo_init.c ****  * robo_init.c
   3:Core/Src/robo_init.c ****  *
   4:Core/Src/robo_init.c ****  * Created : 10/1/2018
   5:Core/Src/robo_init.c ****  */
   6:Core/Src/robo_init.c **** 
   7:Core/Src/robo_init.c **** #include "robo_init.h"
   8:Core/Src/robo_init.c **** 
   9:Core/Src/robo_init.c **** struct Wheel Wheel_arr[4];
  10:Core/Src/robo_init.c **** 
  11:Core/Src/robo_init.c **** void wheel_init(void)
  12:Core/Src/robo_init.c **** {
  28              		.loc 1 12 0
  29              		.cfi_startproc
  30              		@ args = 0, pretend = 0, frame = 0
  31              		@ frame_needed = 0, uses_anonymous_args = 0
  32              		@ link register save eliminated.
  33              	.LVL0:
  13:Core/Src/robo_init.c ****         int i;
  14:Core/Src/robo_init.c ****         for (i = 0; i < 3; i++)
  34              		.loc 1 14 0
  35 0000 0023     		movs	r3, #0
  36 0002 0DE0     		b	.L2
  37              	.LVL1:
  38              	.L3:
  15:Core/Src/robo_init.c ****         {
  16:Core/Src/robo_init.c ****                 Wheel_arr[i].id = i;
  39              		.loc 1 16 0 discriminator 3
  40 0004 1A48     		ldr	r0, .L4
  41 0006 9A00     		lsls	r2, r3, #2
  42 0008 1A44     		add	r2, r2, r3
ARM GAS  C:\Users\Prashant\AppData\Local\Temp\ccEBMn4R.s 			page 2


  43 000a D100     		lsls	r1, r2, #3
  44 000c 4218     		adds	r2, r0, r1
  45 000e 4354     		strb	r3, [r0, r1]
  17:Core/Src/robo_init.c ****                 Wheel_arr[i].radius = 0.067;
  46              		.loc 1 17 0 discriminator 3
  47 0010 1849     		ldr	r1, .L4+4
  48 0012 5160     		str	r1, [r2, #4]	@ float
  18:Core/Src/robo_init.c ****                 // All motors are connected to same timer : TIM8
  19:Core/Src/robo_init.c ****                 Wheel_arr[i].htim = &htim8;
  49              		.loc 1 19 0 discriminator 3
  50 0014 1849     		ldr	r1, .L4+8
  51 0016 1162     		str	r1, [r2, #32]
  20:Core/Src/robo_init.c ****                 // Initialize velocity and omega to 0 at the first epoch
  21:Core/Src/robo_init.c ****                 Wheel_arr[i].velcoity = 0;
  52              		.loc 1 21 0 discriminator 3
  53 0018 0021     		movs	r1, #0
  54 001a 9160     		str	r1, [r2, #8]	@ float
  22:Core/Src/robo_init.c ****                 Wheel_arr[i].omega = 0;
  55              		.loc 1 22 0 discriminator 3
  56 001c D160     		str	r1, [r2, #12]	@ float
  14:Core/Src/robo_init.c ****         {
  57              		.loc 1 14 0 discriminator 3
  58 001e 0133     		adds	r3, r3, #1
  59              	.LVL2:
  60              	.L2:
  14:Core/Src/robo_init.c ****         {
  61              		.loc 1 14 0 is_stmt 0 discriminator 1
  62 0020 022B     		cmp	r3, #2
  63 0022 EFDD     		ble	.L3
  23:Core/Src/robo_init.c ****         }
  24:Core/Src/robo_init.c ****         Wheel_arr[0].in1_port = GPIOD;
  64              		.loc 1 24 0 is_stmt 1
  65 0024 124B     		ldr	r3, .L4
  66              	.LVL3:
  67 0026 154A     		ldr	r2, .L4+12
  68 0028 1A61     		str	r2, [r3, #16]
  25:Core/Src/robo_init.c ****         Wheel_arr[0].in1_pin = GPIO_PIN_2;
  69              		.loc 1 25 0
  70 002a 0421     		movs	r1, #4
  71 002c 9982     		strh	r1, [r3, #20]	@ movhi
  26:Core/Src/robo_init.c ****         Wheel_arr[0].in2_port = GPIOD;
  72              		.loc 1 26 0
  73 002e 9A61     		str	r2, [r3, #24]
  27:Core/Src/robo_init.c ****         Wheel_arr[0].in2_pin = GPIO_PIN_4;
  74              		.loc 1 27 0
  75 0030 1022     		movs	r2, #16
  76 0032 9A83     		strh	r2, [r3, #28]	@ movhi
  28:Core/Src/robo_init.c ****         Wheel_arr[0].channel = TIM_CHANNEL_1;
  77              		.loc 1 28 0
  78 0034 0022     		movs	r2, #0
  79 0036 5A62     		str	r2, [r3, #36]
  29:Core/Src/robo_init.c **** 
  30:Core/Src/robo_init.c ****         Wheel_arr[1].in1_port = GPIOC;
  80              		.loc 1 30 0
  81 0038 02F18042 		add	r2, r2, #1073741824
  82 003c 02F50232 		add	r2, r2, #133120
  83 0040 9A63     		str	r2, [r3, #56]
ARM GAS  C:\Users\Prashant\AppData\Local\Temp\ccEBMn4R.s 			page 3


  31:Core/Src/robo_init.c ****         Wheel_arr[1].in1_pin = GPIO_PIN_11;
  84              		.loc 1 31 0
  85 0042 4FF40062 		mov	r2, #2048
  86 0046 9A87     		strh	r2, [r3, #60]	@ movhi
  32:Core/Src/robo_init.c ****         Wheel_arr[1].in2_port = GPIOA;
  87              		.loc 1 32 0
  88 0048 0D4A     		ldr	r2, .L4+16
  89 004a 1A64     		str	r2, [r3, #64]
  33:Core/Src/robo_init.c ****         Wheel_arr[1].in2_pin = GPIO_PIN_15 ;
  90              		.loc 1 33 0
  91 004c 4FF40040 		mov	r0, #32768
  92 0050 A3F84400 		strh	r0, [r3, #68]	@ movhi
  34:Core/Src/robo_init.c ****         Wheel_arr[1].channel = TIM_CHANNEL_2;
  93              		.loc 1 34 0
  94 0054 D964     		str	r1, [r3, #76]
  35:Core/Src/robo_init.c **** 	
  36:Core/Src/robo_init.c ****         Wheel_arr[2].in1_port = GPIOA;
  95              		.loc 1 36 0
  96 0056 1A66     		str	r2, [r3, #96]
  37:Core/Src/robo_init.c ****         Wheel_arr[2].in1_pin = GPIO_PIN_9;
  97              		.loc 1 37 0
  98 0058 4FF40071 		mov	r1, #512
  99 005c A3F86410 		strh	r1, [r3, #100]	@ movhi
  38:Core/Src/robo_init.c ****         Wheel_arr[2].in2_port = GPIOA;
 100              		.loc 1 38 0
 101 0060 9A66     		str	r2, [r3, #104]
  39:Core/Src/robo_init.c ****         Wheel_arr[2].in2_pin = GPIO_PIN_10 ;
 102              		.loc 1 39 0
 103 0062 4FF48062 		mov	r2, #1024
 104 0066 A3F86C20 		strh	r2, [r3, #108]	@ movhi
  40:Core/Src/robo_init.c ****         Wheel_arr[2].channel = TIM_CHANNEL_4;
 105              		.loc 1 40 0
 106 006a 0C22     		movs	r2, #12
 107 006c 5A67     		str	r2, [r3, #116]
  41:Core/Src/robo_init.c **** }
 108              		.loc 1 41 0
 109 006e 7047     		bx	lr
 110              	.L5:
 111              		.align	2
 112              	.L4:
 113 0070 00000000 		.word	Wheel_arr
 114 0074 4C37893D 		.word	1032402764
 115 0078 00000000 		.word	htim8
 116 007c 000C0240 		.word	1073875968
 117 0080 00000240 		.word	1073872896
 118              		.cfi_endproc
 119              	.LFE126:
 121              		.comm	Wheel_arr,160,4
 122              		.text
 123              	.Letext0:
 124              		.file 2 "c:\\program files (x86)\\gnu tools arm embedded\\7 2017-q4-major\\arm-none-eabi\\include\
 125              		.file 3 "c:\\program files (x86)\\gnu tools arm embedded\\7 2017-q4-major\\arm-none-eabi\\include\
 126              		.file 4 "Drivers/CMSIS/Include/core_cm4.h"
 127              		.file 5 "Drivers/CMSIS/Device/ST/STM32F4xx/Include/system_stm32f4xx.h"
 128              		.file 6 "Drivers/CMSIS/Device/ST/STM32F4xx/Include/stm32f407xx.h"
 129              		.file 7 "c:\\program files (x86)\\gnu tools arm embedded\\7 2017-q4-major\\arm-none-eabi\\include\
 130              		.file 8 "c:\\program files (x86)\\gnu tools arm embedded\\7 2017-q4-major\\arm-none-eabi\\include\
ARM GAS  C:\Users\Prashant\AppData\Local\Temp\ccEBMn4R.s 			page 4


 131              		.file 9 "c:\\program files (x86)\\gnu tools arm embedded\\7 2017-q4-major\\lib\\gcc\\arm-none-eabi
 132              		.file 10 "c:\\program files (x86)\\gnu tools arm embedded\\7 2017-q4-major\\arm-none-eabi\\include
 133              		.file 11 "Drivers/STM32F4xx_HAL_Driver/Inc/stm32f4xx_hal_def.h"
 134              		.file 12 "Drivers/STM32F4xx_HAL_Driver/Inc/stm32f4xx_hal_dma.h"
 135              		.file 13 "Drivers/STM32F4xx_HAL_Driver/Inc/stm32f4xx_hal_tim.h"
 136              		.file 14 "Drivers/STM32F4xx_HAL_Driver/Inc/stm32f4xx_hal_uart.h"
 137              		.file 15 "Core/Inc/tim.h"
 138              		.file 16 "Core/Inc/usart.h"
 139              		.file 17 "Core/Inc/wheel.h"
 140              		.file 18 "Core/Inc/robo_init.h"
ARM GAS  C:\Users\Prashant\AppData\Local\Temp\ccEBMn4R.s 			page 5


DEFINED SYMBOLS
                            *ABS*:00000000 robo_init.c
C:\Users\Prashant\AppData\Local\Temp\ccEBMn4R.s:18     .text.wheel_init:00000000 $t
C:\Users\Prashant\AppData\Local\Temp\ccEBMn4R.s:25     .text.wheel_init:00000000 wheel_init
C:\Users\Prashant\AppData\Local\Temp\ccEBMn4R.s:113    .text.wheel_init:00000070 $d
                            *COM*:000000a0 Wheel_arr

UNDEFINED SYMBOLS
htim8
