ARM GAS  C:\Users\Prashant\AppData\Local\Temp\ccovwVAk.s 			page 1


   1              		.cpu cortex-m4
   2              		.eabi_attribute 27, 1
   3              		.eabi_attribute 28, 1
   4              		.eabi_attribute 20, 1
   5              		.eabi_attribute 21, 1
   6              		.eabi_attribute 23, 3
   7              		.eabi_attribute 24, 1
   8              		.eabi_attribute 25, 1
   9              		.eabi_attribute 26, 1
  10              		.eabi_attribute 30, 1
  11              		.eabi_attribute 34, 1
  12              		.eabi_attribute 18, 4
  13              		.file	"robot.c"
  14              		.text
  15              	.Ltext0:
  16              		.cfi_sections	.debug_frame
  17              		.section	.text.play,"ax",%progbits
  18              		.align	1
  19              		.global	play
  20              		.syntax unified
  21              		.thumb
  22              		.thumb_func
  23              		.fpu fpv4-sp-d16
  25              	play:
  26              	.LFB126:
  27              		.file 1 "Core/Src/robot.c"
   1:Core/Src/robot.c **** /*
   2:Core/Src/robot.c ****  * robot.c
   3:Core/Src/robot.c ****  *
   4:Core/Src/robot.c ****  * Created : 10/1/2018
   5:Core/Src/robot.c ****  */
   6:Core/Src/robot.c **** 
   7:Core/Src/robot.c **** #include "robo_init.h"
   8:Core/Src/robot.c **** extern struct Wheel Wheel_arr[4];
   9:Core/Src/robot.c **** uint16_t max_front_velocity = 35000;
  10:Core/Src/robot.c **** uint16_t max_rotation_velocity = 50000;
  11:Core/Src/robot.c **** uint16_t front_velocity = 0;
  12:Core/Src/robot.c **** uint16_t rotation_velocity = 0;
  13:Core/Src/robot.c **** uint8_t ramp_speed = 250; 
  14:Core/Src/robot.c **** 
  15:Core/Src/robot.c **** void play(void)
  16:Core/Src/robot.c **** {
  28              		.loc 1 16 0
  29              		.cfi_startproc
  30              		@ Volatile: function does not return.
  31              		@ args = 0, pretend = 0, frame = 8
  32              		@ frame_needed = 0, uses_anonymous_args = 0
  33 0000 00B5     		push	{lr}
  34              	.LCFI0:
  35              		.cfi_def_cfa_offset 4
  36              		.cfi_offset 14, -4
  37 0002 83B0     		sub	sp, sp, #12
  38              	.LCFI1:
  39              		.cfi_def_cfa_offset 16
  40 0004 2CE0     		b	.L18
  41              	.L4:
  17:Core/Src/robot.c ****         uint8_t buffer[1];
ARM GAS  C:\Users\Prashant\AppData\Local\Temp\ccovwVAk.s 			page 2


  18:Core/Src/robot.c ****         while (1) {
  19:Core/Src/robot.c ****                 if (HAL_UART_Receive(&huart3, buffer, 1, 10) == HAL_OK){
  20:Core/Src/robot.c **** 			if((buffer[0] == 'S') || (buffer[0] == 's'))
  21:Core/Src/robot.c **** 				HAL_GPIO_WritePin(GPIOD,GPIO_PIN_14, GPIO_PIN_SET);
  22:Core/Src/robot.c **** 			else{
  23:Core/Src/robot.c **** 				HAL_GPIO_WritePin(GPIOD,GPIO_PIN_14, GPIO_PIN_RESET);
  42              		.loc 1 23 0
  43 0006 674C     		ldr	r4, .L20
  44 0008 0022     		movs	r2, #0
  45 000a 4FF48041 		mov	r1, #16384
  46 000e 2046     		mov	r0, r4
  47 0010 FFF7FEFF 		bl	HAL_GPIO_WritePin
  48              	.LVL0:
  24:Core/Src/robot.c **** 				HAL_GPIO_TogglePin(GPIOD,GPIO_PIN_12);
  49              		.loc 1 24 0
  50 0014 4FF48051 		mov	r1, #4096
  51 0018 2046     		mov	r0, r4
  52 001a FFF7FEFF 		bl	HAL_GPIO_TogglePin
  53              	.LVL1:
  54 001e 32E0     		b	.L5
  55              	.L9:
  25:Core/Src/robot.c **** 			}
  26:Core/Src/robot.c **** 			printf("%c",buffer[0]);
  27:Core/Src/robot.c **** 		}
  28:Core/Src/robot.c **** 		//HAL_UART_Transmit(&huart3, buffer, 1, 10);
  29:Core/Src/robot.c **** 		//printf("Data = %c",buffer[0]);	
  30:Core/Src/robot.c **** 		//buffer[0] = 'F';
  31:Core/Src/robot.c **** 		switch (buffer[0])
  32:Core/Src/robot.c **** 		{
  33:Core/Src/robot.c **** 			case 'F':
  34:Core/Src/robot.c **** 			{
  35:Core/Src/robot.c **** 				robot_direction(FORWARD);
  56              		.loc 1 35 0
  57 0020 0020     		movs	r0, #0
  58 0022 FFF7FEFF 		bl	robot_direction
  59              	.LVL2:
  36:Core/Src/robot.c **** 				if(front_velocity<max_front_velocity)
  60              		.loc 1 36 0
  61 0026 604B     		ldr	r3, .L20+4
  62 0028 1B88     		ldrh	r3, [r3]
  63 002a 604A     		ldr	r2, .L20+8
  64 002c 1288     		ldrh	r2, [r2]
  65 002e 9342     		cmp	r3, r2
  66 0030 04D2     		bcs	.L13
  37:Core/Src/robot.c **** 					front_velocity+=ramp_speed;
  67              		.loc 1 37 0
  68 0032 5F4A     		ldr	r2, .L20+12
  69 0034 1278     		ldrb	r2, [r2]	@ zero_extendqisi2
  70 0036 1344     		add	r3, r3, r2
  71 0038 5B4A     		ldr	r2, .L20+4
  72 003a 1380     		strh	r3, [r2]	@ movhi
  73              	.L13:
  38:Core/Src/robot.c **** 				if(rotation_velocity>0)
  74              		.loc 1 38 0
  75 003c 5D4B     		ldr	r3, .L20+16
  76 003e 1B88     		ldrh	r3, [r3]
  77 0040 23B1     		cbz	r3, .L6
ARM GAS  C:\Users\Prashant\AppData\Local\Temp\ccovwVAk.s 			page 3


  39:Core/Src/robot.c **** 					rotation_velocity-=ramp_speed;
  78              		.loc 1 39 0
  79 0042 5B4A     		ldr	r2, .L20+12
  80 0044 1278     		ldrb	r2, [r2]	@ zero_extendqisi2
  81 0046 9B1A     		subs	r3, r3, r2
  82 0048 5A4A     		ldr	r2, .L20+16
  83 004a 1380     		strh	r3, [r2]	@ movhi
  84              	.L6:
  40:Core/Src/robot.c **** 				break;
  41:Core/Src/robot.c **** 			}
  42:Core/Src/robot.c **** 			case 'B':
  43:Core/Src/robot.c **** 			{
  44:Core/Src/robot.c **** 				robot_direction(BACKWARD);
  45:Core/Src/robot.c **** 				if(front_velocity<max_front_velocity)
  46:Core/Src/robot.c **** 					front_velocity+=ramp_speed;
  47:Core/Src/robot.c **** 				if(rotation_velocity>0)
  48:Core/Src/robot.c **** 					rotation_velocity-=ramp_speed;
  49:Core/Src/robot.c **** 				break;
  50:Core/Src/robot.c **** 			}
  51:Core/Src/robot.c **** 			case 'L':
  52:Core/Src/robot.c **** 			{
  53:Core/Src/robot.c **** 				robot_direction(ROTATE_LEFT);
  54:Core/Src/robot.c **** 				if(front_velocity>0)
  55:Core/Src/robot.c **** 					front_velocity-=ramp_speed;
  56:Core/Src/robot.c **** 				if(rotation_velocity<max_rotation_velocity)
  57:Core/Src/robot.c **** 					rotation_velocity+=ramp_speed;
  58:Core/Src/robot.c **** 				break;
  59:Core/Src/robot.c **** 			}
  60:Core/Src/robot.c **** 			case 'R':
  61:Core/Src/robot.c **** 			{
  62:Core/Src/robot.c **** 				robot_direction(ROTATE_RIGHT);
  63:Core/Src/robot.c **** 				if(front_velocity>0)
  64:Core/Src/robot.c **** 					front_velocity-=ramp_speed;
  65:Core/Src/robot.c **** 				if(rotation_velocity<max_rotation_velocity)
  66:Core/Src/robot.c **** 					rotation_velocity+=ramp_speed;
  67:Core/Src/robot.c **** 				break;
  68:Core/Src/robot.c **** 			}
  69:Core/Src/robot.c **** 			case 'S':
  70:Core/Src/robot.c **** 			{
  71:Core/Src/robot.c **** 				robot_direction(STOP);
  72:Core/Src/robot.c **** 				if(front_velocity>0)
  73:Core/Src/robot.c **** 					front_velocity-=ramp_speed;
  74:Core/Src/robot.c **** 				if(rotation_velocity>0)
  75:Core/Src/robot.c **** 					rotation_velocity-=ramp_speed;
  76:Core/Src/robot.c **** 				break; 
  77:Core/Src/robot.c **** 			}
  78:Core/Src/robot.c **** 			default:
  79:Core/Src/robot.c **** 			{
  80:Core/Src/robot.c **** 			}		
  81:Core/Src/robot.c **** 		}
  82:Core/Src/robot.c **** 		robot_speed(front_velocity);
  85              		.loc 1 82 0
  86 004c 564B     		ldr	r3, .L20+4
  87 004e B3F90000 		ldrsh	r0, [r3]
  88 0052 FFF7FEFF 		bl	robot_speed
  89              	.LVL3:
  83:Core/Src/robot.c **** 		robot_yaw(rotation_velocity);
ARM GAS  C:\Users\Prashant\AppData\Local\Temp\ccovwVAk.s 			page 4


  90              		.loc 1 83 0
  91 0056 574B     		ldr	r3, .L20+16
  92 0058 B3F90000 		ldrsh	r0, [r3]
  93 005c FFF7FEFF 		bl	robot_yaw
  94              	.LVL4:
  95              	.L18:
  19:Core/Src/robot.c **** 			if((buffer[0] == 'S') || (buffer[0] == 's'))
  96              		.loc 1 19 0
  97 0060 0A23     		movs	r3, #10
  98 0062 0122     		movs	r2, #1
  99 0064 01A9     		add	r1, sp, #4
 100 0066 5448     		ldr	r0, .L20+20
 101 0068 FFF7FEFF 		bl	HAL_UART_Receive
 102              	.LVL5:
 103 006c 78B9     		cbnz	r0, .L2
  20:Core/Src/robot.c **** 				HAL_GPIO_WritePin(GPIOD,GPIO_PIN_14, GPIO_PIN_SET);
 104              		.loc 1 20 0
 105 006e 9DF80430 		ldrb	r3, [sp, #4]	@ zero_extendqisi2
 106 0072 532B     		cmp	r3, #83
 107 0074 01D0     		beq	.L3
  20:Core/Src/robot.c **** 				HAL_GPIO_WritePin(GPIOD,GPIO_PIN_14, GPIO_PIN_SET);
 108              		.loc 1 20 0 is_stmt 0 discriminator 1
 109 0076 732B     		cmp	r3, #115
 110 0078 C5D1     		bne	.L4
 111              	.L3:
  21:Core/Src/robot.c **** 			else{
 112              		.loc 1 21 0 is_stmt 1
 113 007a 0122     		movs	r2, #1
 114 007c 4FF48041 		mov	r1, #16384
 115 0080 4848     		ldr	r0, .L20
 116 0082 FFF7FEFF 		bl	HAL_GPIO_WritePin
 117              	.LVL6:
 118              	.L5:
  26:Core/Src/robot.c **** 		}
 119              		.loc 1 26 0
 120 0086 9DF80400 		ldrb	r0, [sp, #4]	@ zero_extendqisi2
 121 008a FFF7FEFF 		bl	putchar
 122              	.LVL7:
 123              	.L2:
  31:Core/Src/robot.c **** 		{
 124              		.loc 1 31 0
 125 008e 9DF80430 		ldrb	r3, [sp, #4]	@ zero_extendqisi2
 126 0092 423B     		subs	r3, r3, #66
 127 0094 112B     		cmp	r3, #17
 128 0096 D9D8     		bhi	.L6
 129 0098 01A2     		adr	r2, .L8
 130 009a 52F823F0 		ldr	pc, [r2, r3, lsl #2]
 131 009e 00BF     		.p2align 2
 132              	.L8:
 133 00a0 E9000000 		.word	.L7+1
 134 00a4 4D000000 		.word	.L6+1
 135 00a8 4D000000 		.word	.L6+1
 136 00ac 4D000000 		.word	.L6+1
 137 00b0 21000000 		.word	.L9+1
 138 00b4 4D000000 		.word	.L6+1
 139 00b8 4D000000 		.word	.L6+1
 140 00bc 4D000000 		.word	.L6+1
ARM GAS  C:\Users\Prashant\AppData\Local\Temp\ccovwVAk.s 			page 5


 141 00c0 4D000000 		.word	.L6+1
 142 00c4 4D000000 		.word	.L6+1
 143 00c8 19010000 		.word	.L10+1
 144 00cc 4D000000 		.word	.L6+1
 145 00d0 4D000000 		.word	.L6+1
 146 00d4 4D000000 		.word	.L6+1
 147 00d8 4D000000 		.word	.L6+1
 148 00dc 4D000000 		.word	.L6+1
 149 00e0 47010000 		.word	.L11+1
 150 00e4 77010000 		.word	.L12+1
 151              		.p2align 1
 152              	.L7:
  44:Core/Src/robot.c **** 				if(front_velocity<max_front_velocity)
 153              		.loc 1 44 0
 154 00e8 0120     		movs	r0, #1
 155 00ea FFF7FEFF 		bl	robot_direction
 156              	.LVL8:
  45:Core/Src/robot.c **** 					front_velocity+=ramp_speed;
 157              		.loc 1 45 0
 158 00ee 2E4B     		ldr	r3, .L20+4
 159 00f0 1B88     		ldrh	r3, [r3]
 160 00f2 2E4A     		ldr	r2, .L20+8
 161 00f4 1288     		ldrh	r2, [r2]
 162 00f6 9342     		cmp	r3, r2
 163 00f8 04D2     		bcs	.L14
  46:Core/Src/robot.c **** 				if(rotation_velocity>0)
 164              		.loc 1 46 0
 165 00fa 2D4A     		ldr	r2, .L20+12
 166 00fc 1278     		ldrb	r2, [r2]	@ zero_extendqisi2
 167 00fe 1344     		add	r3, r3, r2
 168 0100 294A     		ldr	r2, .L20+4
 169 0102 1380     		strh	r3, [r2]	@ movhi
 170              	.L14:
  47:Core/Src/robot.c **** 					rotation_velocity-=ramp_speed;
 171              		.loc 1 47 0
 172 0104 2B4B     		ldr	r3, .L20+16
 173 0106 1B88     		ldrh	r3, [r3]
 174 0108 002B     		cmp	r3, #0
 175 010a 9FD0     		beq	.L6
  48:Core/Src/robot.c **** 				break;
 176              		.loc 1 48 0
 177 010c 284A     		ldr	r2, .L20+12
 178 010e 1278     		ldrb	r2, [r2]	@ zero_extendqisi2
 179 0110 9B1A     		subs	r3, r3, r2
 180 0112 284A     		ldr	r2, .L20+16
 181 0114 1380     		strh	r3, [r2]	@ movhi
 182 0116 99E7     		b	.L6
 183              	.L10:
  53:Core/Src/robot.c **** 				if(front_velocity>0)
 184              		.loc 1 53 0
 185 0118 0220     		movs	r0, #2
 186 011a FFF7FEFF 		bl	robot_direction
 187              	.LVL9:
  54:Core/Src/robot.c **** 					front_velocity-=ramp_speed;
 188              		.loc 1 54 0
 189 011e 224B     		ldr	r3, .L20+4
 190 0120 1B88     		ldrh	r3, [r3]
ARM GAS  C:\Users\Prashant\AppData\Local\Temp\ccovwVAk.s 			page 6


 191 0122 23B1     		cbz	r3, .L15
  55:Core/Src/robot.c **** 				if(rotation_velocity<max_rotation_velocity)
 192              		.loc 1 55 0
 193 0124 224A     		ldr	r2, .L20+12
 194 0126 1278     		ldrb	r2, [r2]	@ zero_extendqisi2
 195 0128 9B1A     		subs	r3, r3, r2
 196 012a 1F4A     		ldr	r2, .L20+4
 197 012c 1380     		strh	r3, [r2]	@ movhi
 198              	.L15:
  56:Core/Src/robot.c **** 					rotation_velocity+=ramp_speed;
 199              		.loc 1 56 0
 200 012e 214B     		ldr	r3, .L20+16
 201 0130 1B88     		ldrh	r3, [r3]
 202 0132 224A     		ldr	r2, .L20+24
 203 0134 1288     		ldrh	r2, [r2]
 204 0136 9342     		cmp	r3, r2
 205 0138 88D2     		bcs	.L6
  57:Core/Src/robot.c **** 				break;
 206              		.loc 1 57 0
 207 013a 1D4A     		ldr	r2, .L20+12
 208 013c 1278     		ldrb	r2, [r2]	@ zero_extendqisi2
 209 013e 1344     		add	r3, r3, r2
 210 0140 1C4A     		ldr	r2, .L20+16
 211 0142 1380     		strh	r3, [r2]	@ movhi
 212 0144 82E7     		b	.L6
 213              	.L11:
  62:Core/Src/robot.c **** 				if(front_velocity>0)
 214              		.loc 1 62 0
 215 0146 0320     		movs	r0, #3
 216 0148 FFF7FEFF 		bl	robot_direction
 217              	.LVL10:
  63:Core/Src/robot.c **** 					front_velocity-=ramp_speed;
 218              		.loc 1 63 0
 219 014c 164B     		ldr	r3, .L20+4
 220 014e 1B88     		ldrh	r3, [r3]
 221 0150 23B1     		cbz	r3, .L16
  64:Core/Src/robot.c **** 				if(rotation_velocity<max_rotation_velocity)
 222              		.loc 1 64 0
 223 0152 174A     		ldr	r2, .L20+12
 224 0154 1278     		ldrb	r2, [r2]	@ zero_extendqisi2
 225 0156 9B1A     		subs	r3, r3, r2
 226 0158 134A     		ldr	r2, .L20+4
 227 015a 1380     		strh	r3, [r2]	@ movhi
 228              	.L16:
  65:Core/Src/robot.c **** 					rotation_velocity+=ramp_speed;
 229              		.loc 1 65 0
 230 015c 154B     		ldr	r3, .L20+16
 231 015e 1B88     		ldrh	r3, [r3]
 232 0160 164A     		ldr	r2, .L20+24
 233 0162 1288     		ldrh	r2, [r2]
 234 0164 9342     		cmp	r3, r2
 235 0166 BFF471AF 		bcs	.L6
  66:Core/Src/robot.c **** 				break;
 236              		.loc 1 66 0
 237 016a 114A     		ldr	r2, .L20+12
 238 016c 1278     		ldrb	r2, [r2]	@ zero_extendqisi2
 239 016e 1344     		add	r3, r3, r2
ARM GAS  C:\Users\Prashant\AppData\Local\Temp\ccovwVAk.s 			page 7


 240 0170 104A     		ldr	r2, .L20+16
 241 0172 1380     		strh	r3, [r2]	@ movhi
 242 0174 6AE7     		b	.L6
 243              	.L12:
  71:Core/Src/robot.c **** 				if(front_velocity>0)
 244              		.loc 1 71 0
 245 0176 0420     		movs	r0, #4
 246 0178 FFF7FEFF 		bl	robot_direction
 247              	.LVL11:
  72:Core/Src/robot.c **** 					front_velocity-=ramp_speed;
 248              		.loc 1 72 0
 249 017c 0A4B     		ldr	r3, .L20+4
 250 017e 1B88     		ldrh	r3, [r3]
 251 0180 23B1     		cbz	r3, .L17
  73:Core/Src/robot.c **** 				if(rotation_velocity>0)
 252              		.loc 1 73 0
 253 0182 0B4A     		ldr	r2, .L20+12
 254 0184 1278     		ldrb	r2, [r2]	@ zero_extendqisi2
 255 0186 9B1A     		subs	r3, r3, r2
 256 0188 074A     		ldr	r2, .L20+4
 257 018a 1380     		strh	r3, [r2]	@ movhi
 258              	.L17:
  74:Core/Src/robot.c **** 					rotation_velocity-=ramp_speed;
 259              		.loc 1 74 0
 260 018c 094B     		ldr	r3, .L20+16
 261 018e 1B88     		ldrh	r3, [r3]
 262 0190 002B     		cmp	r3, #0
 263 0192 3FF45BAF 		beq	.L6
  75:Core/Src/robot.c **** 				break; 
 264              		.loc 1 75 0
 265 0196 064A     		ldr	r2, .L20+12
 266 0198 1278     		ldrb	r2, [r2]	@ zero_extendqisi2
 267 019a 9B1A     		subs	r3, r3, r2
 268 019c 054A     		ldr	r2, .L20+16
 269 019e 1380     		strh	r3, [r2]	@ movhi
 270 01a0 54E7     		b	.L6
 271              	.L21:
 272 01a2 00BF     		.align	2
 273              	.L20:
 274 01a4 000C0240 		.word	1073875968
 275 01a8 00000000 		.word	.LANCHOR0
 276 01ac 00000000 		.word	.LANCHOR1
 277 01b0 00000000 		.word	.LANCHOR2
 278 01b4 00000000 		.word	.LANCHOR3
 279 01b8 00000000 		.word	huart3
 280 01bc 00000000 		.word	.LANCHOR4
 281              		.cfi_endproc
 282              	.LFE126:
 284              		.global	ramp_speed
 285              		.global	rotation_velocity
 286              		.global	front_velocity
 287              		.global	max_rotation_velocity
 288              		.global	max_front_velocity
 289              		.section	.bss.front_velocity,"aw",%nobits
 290              		.align	1
 291              		.set	.LANCHOR0,. + 0
 294              	front_velocity:
ARM GAS  C:\Users\Prashant\AppData\Local\Temp\ccovwVAk.s 			page 8


 295 0000 0000     		.space	2
 296              		.section	.bss.rotation_velocity,"aw",%nobits
 297              		.align	1
 298              		.set	.LANCHOR3,. + 0
 301              	rotation_velocity:
 302 0000 0000     		.space	2
 303              		.section	.data.max_front_velocity,"aw",%progbits
 304              		.align	1
 305              		.set	.LANCHOR1,. + 0
 308              	max_front_velocity:
 309 0000 B888     		.short	-30536
 310              		.section	.data.max_rotation_velocity,"aw",%progbits
 311              		.align	1
 312              		.set	.LANCHOR4,. + 0
 315              	max_rotation_velocity:
 316 0000 50C3     		.short	-15536
 317              		.section	.data.ramp_speed,"aw",%progbits
 318              		.set	.LANCHOR2,. + 0
 321              	ramp_speed:
 322 0000 FA       		.byte	-6
 323              		.text
 324              	.Letext0:
 325              		.file 2 "c:\\program files (x86)\\gnu tools arm embedded\\7 2017-q4-major\\arm-none-eabi\\include\
 326              		.file 3 "c:\\program files (x86)\\gnu tools arm embedded\\7 2017-q4-major\\arm-none-eabi\\include\
 327              		.file 4 "Drivers/CMSIS/Include/core_cm4.h"
 328              		.file 5 "Drivers/CMSIS/Device/ST/STM32F4xx/Include/system_stm32f4xx.h"
 329              		.file 6 "Drivers/CMSIS/Device/ST/STM32F4xx/Include/stm32f407xx.h"
 330              		.file 7 "c:\\program files (x86)\\gnu tools arm embedded\\7 2017-q4-major\\arm-none-eabi\\include\
 331              		.file 8 "c:\\program files (x86)\\gnu tools arm embedded\\7 2017-q4-major\\arm-none-eabi\\include\
 332              		.file 9 "c:\\program files (x86)\\gnu tools arm embedded\\7 2017-q4-major\\lib\\gcc\\arm-none-eabi
 333              		.file 10 "c:\\program files (x86)\\gnu tools arm embedded\\7 2017-q4-major\\arm-none-eabi\\include
 334              		.file 11 "Drivers/STM32F4xx_HAL_Driver/Inc/stm32f4xx_hal_def.h"
 335              		.file 12 "Drivers/STM32F4xx_HAL_Driver/Inc/stm32f4xx_hal_gpio.h"
 336              		.file 13 "Drivers/STM32F4xx_HAL_Driver/Inc/stm32f4xx_hal_dma.h"
 337              		.file 14 "Drivers/STM32F4xx_HAL_Driver/Inc/stm32f4xx_hal_tim.h"
 338              		.file 15 "Drivers/STM32F4xx_HAL_Driver/Inc/stm32f4xx_hal_uart.h"
 339              		.file 16 "Core/Inc/tim.h"
 340              		.file 17 "Core/Inc/usart.h"
 341              		.file 18 "Core/Inc/wheel.h"
 342              		.file 19 "Core/Inc/robo_init.h"
 343              		.file 20 "Core/Inc/drive.h"
 344              		.file 21 "<built-in>"
ARM GAS  C:\Users\Prashant\AppData\Local\Temp\ccovwVAk.s 			page 9


DEFINED SYMBOLS
                            *ABS*:00000000 robot.c
C:\Users\Prashant\AppData\Local\Temp\ccovwVAk.s:18     .text.play:00000000 $t
C:\Users\Prashant\AppData\Local\Temp\ccovwVAk.s:25     .text.play:00000000 play
C:\Users\Prashant\AppData\Local\Temp\ccovwVAk.s:133    .text.play:000000a0 $d
C:\Users\Prashant\AppData\Local\Temp\ccovwVAk.s:151    .text.play:000000e8 $t
C:\Users\Prashant\AppData\Local\Temp\ccovwVAk.s:274    .text.play:000001a4 $d
C:\Users\Prashant\AppData\Local\Temp\ccovwVAk.s:321    .data.ramp_speed:00000000 ramp_speed
C:\Users\Prashant\AppData\Local\Temp\ccovwVAk.s:301    .bss.rotation_velocity:00000000 rotation_velocity
C:\Users\Prashant\AppData\Local\Temp\ccovwVAk.s:294    .bss.front_velocity:00000000 front_velocity
C:\Users\Prashant\AppData\Local\Temp\ccovwVAk.s:315    .data.max_rotation_velocity:00000000 max_rotation_velocity
C:\Users\Prashant\AppData\Local\Temp\ccovwVAk.s:308    .data.max_front_velocity:00000000 max_front_velocity
C:\Users\Prashant\AppData\Local\Temp\ccovwVAk.s:290    .bss.front_velocity:00000000 $d
C:\Users\Prashant\AppData\Local\Temp\ccovwVAk.s:297    .bss.rotation_velocity:00000000 $d
C:\Users\Prashant\AppData\Local\Temp\ccovwVAk.s:304    .data.max_front_velocity:00000000 $d
C:\Users\Prashant\AppData\Local\Temp\ccovwVAk.s:311    .data.max_rotation_velocity:00000000 $d

UNDEFINED SYMBOLS
HAL_GPIO_WritePin
HAL_GPIO_TogglePin
robot_direction
robot_speed
robot_yaw
HAL_UART_Receive
putchar
huart3
