ARM GAS  C:\Users\Prashant\AppData\Local\Temp\ccSAafju.s 			page 1


   1              		.cpu cortex-m4
   2              		.eabi_attribute 27, 1
   3              		.eabi_attribute 28, 1
   4              		.eabi_attribute 20, 1
   5              		.eabi_attribute 21, 1
   6              		.eabi_attribute 23, 3
   7              		.eabi_attribute 24, 1
   8              		.eabi_attribute 25, 1
   9              		.eabi_attribute 26, 1
  10              		.eabi_attribute 30, 1
  11              		.eabi_attribute 34, 1
  12              		.eabi_attribute 18, 4
  13              		.file	"wheel.c"
  14              		.text
  15              	.Ltext0:
  16              		.cfi_sections	.debug_frame
  17              		.section	.text.time_period,"ax",%progbits
  18              		.align	1
  19              		.global	time_period
  20              		.syntax unified
  21              		.thumb
  22              		.thumb_func
  23              		.fpu fpv4-sp-d16
  25              	time_period:
  26              	.LFB126:
  27              		.file 1 "Core/Src/wheel.c"
   1:Core/Src/wheel.c **** /*
   2:Core/Src/wheel.c ****  * wheel.c
   3:Core/Src/wheel.c ****  *
   4:Core/Src/wheel.c ****  * Created : 10/1/2018
   5:Core/Src/wheel.c ****  */
   6:Core/Src/wheel.c **** 
   7:Core/Src/wheel.c **** #include "wheel.h"
   8:Core/Src/wheel.c **** 
   9:Core/Src/wheel.c **** 
  10:Core/Src/wheel.c **** uint16_t time_period(uint16_t PWM_frequency)
  11:Core/Src/wheel.c **** {
  28              		.loc 1 11 0
  29              		.cfi_startproc
  30              		@ args = 0, pretend = 0, frame = 0
  31              		@ frame_needed = 0, uses_anonymous_args = 0
  32              		@ link register save eliminated.
  33              	.LVL0:
  12:Core/Src/wheel.c ****         if (PWM_frequency < 2000) { //MIN PWM_FREQUENCY = 1281.738 for time period to be 16 bit
  13:Core/Src/wheel.c ****                 //_Error_Handler(__FILE__, __LINE__);
  14:Core/Src/wheel.c ****         }
  15:Core/Src/wheel.c ****         return ((PWM_TIMER_FREQUENCY / 2) / PWM_frequency) - 1; // In Center aligned mode period do
  34              		.loc 1 15 0
  35 0000 024B     		ldr	r3, .L2
  36 0002 93FBF0F0 		sdiv	r0, r3, r0
  37              	.LVL1:
  38 0006 0138     		subs	r0, r0, #1
  16:Core/Src/wheel.c **** }
  39              		.loc 1 16 0
  40 0008 80B2     		uxth	r0, r0
  41 000a 7047     		bx	lr
  42              	.L3:
ARM GAS  C:\Users\Prashant\AppData\Local\Temp\ccSAafju.s 			page 2


  43              		.align	2
  44              	.L2:
  45 000c 00BD0105 		.word	84000000
  46              		.cfi_endproc
  47              	.LFE126:
  49              		.section	.text.set_DutyCycle_Primary,"ax",%progbits
  50              		.align	1
  51              		.global	set_DutyCycle_Primary
  52              		.syntax unified
  53              		.thumb
  54              		.thumb_func
  55              		.fpu fpv4-sp-d16
  57              	set_DutyCycle_Primary:
  58              	.LFB127:
  17:Core/Src/wheel.c **** 
  18:Core/Src/wheel.c **** /* SET DUTYCYCLE primary function */
  19:Core/Src/wheel.c **** void set_DutyCycle_Primary(TIM_HandleTypeDef *htim, uint32_t Channel, uint16_t dutyCycle)
  20:Core/Src/wheel.c **** {
  59              		.loc 1 20 0
  60              		.cfi_startproc
  61              		@ args = 0, pretend = 0, frame = 0
  62              		@ frame_needed = 0, uses_anonymous_args = 0
  63              	.LVL2:
  64 0000 70B5     		push	{r4, r5, r6, lr}
  65              	.LCFI0:
  66              		.cfi_def_cfa_offset 16
  67              		.cfi_offset 4, -16
  68              		.cfi_offset 5, -12
  69              		.cfi_offset 6, -8
  70              		.cfi_offset 14, -4
  71 0002 0646     		mov	r6, r0
  72 0004 0D46     		mov	r5, r1
  73 0006 1446     		mov	r4, r2
  21:Core/Src/wheel.c ****         uint16_t mapped_value;
  22:Core/Src/wheel.c ****         mapped_value = (time_period(MOTOR_DRIVER_FREQUENCY) * dutyCycle) / 65535;
  74              		.loc 1 22 0
  75 0008 4FF4FA50 		mov	r0, #8000
  76              	.LVL3:
  77 000c FFF7FEFF 		bl	time_period
  78              	.LVL4:
  79 0010 00FB04F0 		mul	r0, r0, r4
  80 0014 064B     		ldr	r3, .L6
  81 0016 83FB0023 		smull	r2, r3, r3, r0
  82 001a 0344     		add	r3, r3, r0
  83 001c C017     		asrs	r0, r0, #31
  84 001e C0EBE330 		rsb	r0, r0, r3, asr #15
  85              	.LVL5:
  23:Core/Src/wheel.c ****         __HAL_TIM_SET_COMPARE(htim, Channel, mapped_value);
  86              		.loc 1 23 0
  87 0022 3368     		ldr	r3, [r6]
  88 0024 3433     		adds	r3, r3, #52
  89 0026 AD08     		lsrs	r5, r5, #2
  90              	.LVL6:
  91 0028 80B2     		uxth	r0, r0
  92 002a 43F82500 		str	r0, [r3, r5, lsl #2]
  24:Core/Src/wheel.c **** }
  93              		.loc 1 24 0
ARM GAS  C:\Users\Prashant\AppData\Local\Temp\ccSAafju.s 			page 3


  94 002e 70BD     		pop	{r4, r5, r6, pc}
  95              	.LVL7:
  96              	.L7:
  97              		.align	2
  98              	.L6:
  99 0030 01800080 		.word	-2147450879
 100              		.cfi_endproc
 101              	.LFE127:
 103              		.section	.text.float_abs,"ax",%progbits
 104              		.align	1
 105              		.global	float_abs
 106              		.syntax unified
 107              		.thumb
 108              		.thumb_func
 109              		.fpu fpv4-sp-d16
 111              	float_abs:
 112              	.LFB128:
  25:Core/Src/wheel.c **** 
  26:Core/Src/wheel.c **** 
  27:Core/Src/wheel.c **** float float_abs(float x)
  28:Core/Src/wheel.c **** {
 113              		.loc 1 28 0
 114              		.cfi_startproc
 115              		@ args = 0, pretend = 0, frame = 0
 116              		@ frame_needed = 0, uses_anonymous_args = 0
 117              		@ link register save eliminated.
 118              	.LVL8:
  29:Core/Src/wheel.c ****         if (x < 0)
 119              		.loc 1 29 0
 120 0000 B5EEC00A 		vcmpe.f32	s0, #0
 121 0004 F1EE10FA 		vmrs	APSR_nzcv, FPSCR
 122 0008 00D4     		bmi	.L12
 123              	.LVL9:
 124              	.L9:
  30:Core/Src/wheel.c ****         {
  31:Core/Src/wheel.c ****                 return (-1 * x);
  32:Core/Src/wheel.c ****         }
  33:Core/Src/wheel.c ****         return x;
  34:Core/Src/wheel.c **** }
 125              		.loc 1 34 0
 126 000a 7047     		bx	lr
 127              	.LVL10:
 128              	.L12:
  31:Core/Src/wheel.c ****         }
 129              		.loc 1 31 0
 130 000c B1EE400A 		vneg.f32	s0, s0
 131              	.LVL11:
 132 0010 FBE7     		b	.L9
 133              		.cfi_endproc
 134              	.LFE128:
 136              		.section	.text.calculate_omega,"ax",%progbits
 137              		.align	1
 138              		.global	calculate_omega
 139              		.syntax unified
 140              		.thumb
 141              		.thumb_func
 142              		.fpu fpv4-sp-d16
ARM GAS  C:\Users\Prashant\AppData\Local\Temp\ccSAafju.s 			page 4


 144              	calculate_omega:
 145              	.LFB129:
  35:Core/Src/wheel.c **** 
  36:Core/Src/wheel.c **** void calculate_omega(struct Wheel *w)
  37:Core/Src/wheel.c **** {
 146              		.loc 1 37 0
 147              		.cfi_startproc
 148              		@ args = 0, pretend = 0, frame = 0
 149              		@ frame_needed = 0, uses_anonymous_args = 0
 150              		@ link register save eliminated.
 151              	.LVL12:
  38:Core/Src/wheel.c ****         // v = wr
  39:Core/Src/wheel.c ****         w->omega = w->velcoity / w->radius;
 152              		.loc 1 39 0
 153 0000 D0ED026A 		vldr.32	s13, [r0, #8]
 154 0004 90ED017A 		vldr.32	s14, [r0, #4]
 155 0008 C6EE877A 		vdiv.f32	s15, s13, s14
 156 000c C0ED037A 		vstr.32	s15, [r0, #12]
  40:Core/Src/wheel.c **** }
 157              		.loc 1 40 0
 158 0010 7047     		bx	lr
 159              		.cfi_endproc
 160              	.LFE129:
 162              		.section	.text.set_Direction,"ax",%progbits
 163              		.align	1
 164              		.global	set_Direction
 165              		.syntax unified
 166              		.thumb
 167              		.thumb_func
 168              		.fpu fpv4-sp-d16
 170              	set_Direction:
 171              	.LFB130:
  41:Core/Src/wheel.c **** 
  42:Core/Src/wheel.c **** void set_Direction(struct Wheel *w, enum Direction d)
  43:Core/Src/wheel.c **** {
 172              		.loc 1 43 0
 173              		.cfi_startproc
 174              		@ args = 0, pretend = 0, frame = 0
 175              		@ frame_needed = 0, uses_anonymous_args = 0
 176              	.LVL13:
 177 0000 10B5     		push	{r4, lr}
 178              	.LCFI1:
 179              		.cfi_def_cfa_offset 8
 180              		.cfi_offset 4, -8
 181              		.cfi_offset 14, -4
 182 0002 0446     		mov	r4, r0
  44:Core/Src/wheel.c ****         if (d == DIR_ANTICLOCKWISE)       // AHEAD
 183              		.loc 1 44 0
 184 0004 0129     		cmp	r1, #1
 185 0006 0BD0     		beq	.L19
  45:Core/Src/wheel.c ****         {
  46:Core/Src/wheel.c ****                 HAL_GPIO_WritePin(w->in1_port, w->in1_pin, GPIO_PIN_SET);
  47:Core/Src/wheel.c ****                 HAL_GPIO_WritePin(w->in2_port, w->in2_pin, GPIO_PIN_RESET);
  48:Core/Src/wheel.c ****         }
  49:Core/Src/wheel.c ****         else if (d == DIR_CLOCKWISE)  // BACK
 186              		.loc 1 49 0
 187 0008 A9B1     		cbz	r1, .L20
ARM GAS  C:\Users\Prashant\AppData\Local\Temp\ccSAafju.s 			page 5


  50:Core/Src/wheel.c ****         {
  51:Core/Src/wheel.c ****                 HAL_GPIO_WritePin(w->in1_port, w->in1_pin, GPIO_PIN_RESET);
  52:Core/Src/wheel.c ****                 HAL_GPIO_WritePin(w->in2_port, w->in2_pin, GPIO_PIN_SET);
  53:Core/Src/wheel.c ****         }
  54:Core/Src/wheel.c ****         else                    // HALT
  55:Core/Src/wheel.c ****         {
  56:Core/Src/wheel.c ****                 HAL_GPIO_WritePin(w->in1_port, w->in1_pin, GPIO_PIN_RESET);
 188              		.loc 1 56 0
 189 000a 0022     		movs	r2, #0
 190 000c 818A     		ldrh	r1, [r0, #20]
 191              	.LVL14:
 192 000e 0069     		ldr	r0, [r0, #16]
 193              	.LVL15:
 194 0010 FFF7FEFF 		bl	HAL_GPIO_WritePin
 195              	.LVL16:
  57:Core/Src/wheel.c ****                 HAL_GPIO_WritePin(w->in2_port, w->in2_pin, GPIO_PIN_RESET);
 196              		.loc 1 57 0
 197 0014 0022     		movs	r2, #0
 198 0016 A18B     		ldrh	r1, [r4, #28]
 199 0018 A069     		ldr	r0, [r4, #24]
 200 001a FFF7FEFF 		bl	HAL_GPIO_WritePin
 201              	.LVL17:
 202              	.L14:
  58:Core/Src/wheel.c ****         }
  59:Core/Src/wheel.c **** }
 203              		.loc 1 59 0
 204 001e 10BD     		pop	{r4, pc}
 205              	.LVL18:
 206              	.L19:
  46:Core/Src/wheel.c ****                 HAL_GPIO_WritePin(w->in2_port, w->in2_pin, GPIO_PIN_RESET);
 207              		.loc 1 46 0
 208 0020 0122     		movs	r2, #1
 209 0022 818A     		ldrh	r1, [r0, #20]
 210              	.LVL19:
 211 0024 0069     		ldr	r0, [r0, #16]
 212              	.LVL20:
 213 0026 FFF7FEFF 		bl	HAL_GPIO_WritePin
 214              	.LVL21:
  47:Core/Src/wheel.c ****         }
 215              		.loc 1 47 0
 216 002a 0022     		movs	r2, #0
 217 002c A18B     		ldrh	r1, [r4, #28]
 218 002e A069     		ldr	r0, [r4, #24]
 219 0030 FFF7FEFF 		bl	HAL_GPIO_WritePin
 220              	.LVL22:
 221 0034 F3E7     		b	.L14
 222              	.LVL23:
 223              	.L20:
  51:Core/Src/wheel.c ****                 HAL_GPIO_WritePin(w->in2_port, w->in2_pin, GPIO_PIN_SET);
 224              		.loc 1 51 0
 225 0036 0022     		movs	r2, #0
 226 0038 818A     		ldrh	r1, [r0, #20]
 227              	.LVL24:
 228 003a 0069     		ldr	r0, [r0, #16]
 229              	.LVL25:
 230 003c FFF7FEFF 		bl	HAL_GPIO_WritePin
 231              	.LVL26:
ARM GAS  C:\Users\Prashant\AppData\Local\Temp\ccSAafju.s 			page 6


  52:Core/Src/wheel.c ****         }
 232              		.loc 1 52 0
 233 0040 0122     		movs	r2, #1
 234 0042 A18B     		ldrh	r1, [r4, #28]
 235 0044 A069     		ldr	r0, [r4, #24]
 236 0046 FFF7FEFF 		bl	HAL_GPIO_WritePin
 237              	.LVL27:
 238 004a E8E7     		b	.L14
 239              		.cfi_endproc
 240              	.LFE130:
 242              		.section	.text.set_DutyCycle,"ax",%progbits
 243              		.align	1
 244              		.global	set_DutyCycle
 245              		.syntax unified
 246              		.thumb
 247              		.thumb_func
 248              		.fpu fpv4-sp-d16
 250              	set_DutyCycle:
 251              	.LFB131:
  60:Core/Src/wheel.c **** 
  61:Core/Src/wheel.c **** void set_DutyCycle(struct Wheel *w, uint16_t dutyCycle)
  62:Core/Src/wheel.c **** {
 252              		.loc 1 62 0
 253              		.cfi_startproc
 254              		@ args = 0, pretend = 0, frame = 0
 255              		@ frame_needed = 0, uses_anonymous_args = 0
 256              	.LVL28:
 257 0000 08B5     		push	{r3, lr}
 258              	.LCFI2:
 259              		.cfi_def_cfa_offset 8
 260              		.cfi_offset 3, -8
 261              		.cfi_offset 14, -4
  63:Core/Src/wheel.c ****         set_DutyCycle_Primary(w->htim, w->channel, dutyCycle);
 262              		.loc 1 63 0
 263 0002 0A46     		mov	r2, r1
 264 0004 416A     		ldr	r1, [r0, #36]
 265              	.LVL29:
 266 0006 006A     		ldr	r0, [r0, #32]
 267              	.LVL30:
 268 0008 FFF7FEFF 		bl	set_DutyCycle_Primary
 269              	.LVL31:
  64:Core/Src/wheel.c **** }
 270              		.loc 1 64 0
 271 000c 08BD     		pop	{r3, pc}
 272              		.cfi_endproc
 273              	.LFE131:
 275              		.global	__aeabi_f2d
 276              		.global	__aeabi_dmul
 277              		.global	__aeabi_d2uiz
 278              		.section	.text.set_Omega,"ax",%progbits
 279              		.align	1
 280              		.global	set_Omega
 281              		.syntax unified
 282              		.thumb
 283              		.thumb_func
 284              		.fpu fpv4-sp-d16
 286              	set_Omega:
ARM GAS  C:\Users\Prashant\AppData\Local\Temp\ccSAafju.s 			page 7


 287              	.LFB132:
  65:Core/Src/wheel.c **** 
  66:Core/Src/wheel.c **** void set_Omega(struct Wheel *w, float omega)
  67:Core/Src/wheel.c **** {
 288              		.loc 1 67 0
 289              		.cfi_startproc
 290              		@ args = 0, pretend = 0, frame = 0
 291              		@ frame_needed = 0, uses_anonymous_args = 0
 292              	.LVL32:
 293 0000 38B5     		push	{r3, r4, r5, lr}
 294              	.LCFI3:
 295              		.cfi_def_cfa_offset 16
 296              		.cfi_offset 3, -16
 297              		.cfi_offset 4, -12
 298              		.cfi_offset 5, -8
 299              		.cfi_offset 14, -4
 300 0002 2DED028B 		vpush.64	{d8}
 301              	.LCFI4:
 302              		.cfi_def_cfa_offset 24
 303              		.cfi_offset 80, -24
 304              		.cfi_offset 81, -20
 305 0006 0446     		mov	r4, r0
 306 0008 B0EE408A 		vmov.f32	s16, s0
  68:Core/Src/wheel.c ****         uint16_t new_omega = (65535.0 / MAX_OMEGA) * float_abs(omega);
 307              		.loc 1 68 0
 308 000c FFF7FEFF 		bl	float_abs
 309              	.LVL33:
 310 0010 10EE100A 		vmov	r0, s0
 311 0014 FFF7FEFF 		bl	__aeabi_f2d
 312              	.LVL34:
 313 0018 19A3     		adr	r3, .L36
 314 001a D3E90023 		ldrd	r2, [r3]
 315 001e FFF7FEFF 		bl	__aeabi_dmul
 316              	.LVL35:
 317 0022 FFF7FEFF 		bl	__aeabi_d2uiz
 318              	.LVL36:
 319 0026 85B2     		uxth	r5, r0
 320              	.LVL37:
  69:Core/Src/wheel.c ****         if (omega > 0) {
 321              		.loc 1 69 0
 322 0028 B5EEC08A 		vcmpe.f32	s16, #0
 323 002c F1EE10FA 		vmrs	APSR_nzcv, FPSCR
 324 0030 0DDC     		bgt	.L34
  70:Core/Src/wheel.c ****                 set_Direction(w, DIR_ANTICLOCKWISE);
  71:Core/Src/wheel.c ****                 set_DutyCycle(w, new_omega);
  72:Core/Src/wheel.c ****         }
  73:Core/Src/wheel.c ****         else if (omega < 0) {
 325              		.loc 1 73 0
 326 0032 B5EEC08A 		vcmpe.f32	s16, #0
 327 0036 F1EE10FA 		vmrs	APSR_nzcv, FPSCR
 328 003a 15D4     		bmi	.L35
  74:Core/Src/wheel.c ****                 set_Direction(w, DIR_CLOCKWISE);
  75:Core/Src/wheel.c ****                 set_DutyCycle(w, new_omega);
  76:Core/Src/wheel.c ****         }
  77:Core/Src/wheel.c ****         else {
  78:Core/Src/wheel.c ****                 set_Direction(w, DIR_HALT);
 329              		.loc 1 78 0
ARM GAS  C:\Users\Prashant\AppData\Local\Temp\ccSAafju.s 			page 8


 330 003c 0221     		movs	r1, #2
 331 003e 2046     		mov	r0, r4
 332 0040 FFF7FEFF 		bl	set_Direction
 333              	.LVL38:
  79:Core/Src/wheel.c ****                 set_DutyCycle(w, 0);
 334              		.loc 1 79 0
 335 0044 0021     		movs	r1, #0
 336 0046 2046     		mov	r0, r4
 337 0048 FFF7FEFF 		bl	set_DutyCycle
 338              	.LVL39:
 339 004c 07E0     		b	.L26
 340              	.L34:
  70:Core/Src/wheel.c ****                 set_Direction(w, DIR_ANTICLOCKWISE);
 341              		.loc 1 70 0
 342 004e 0121     		movs	r1, #1
 343 0050 2046     		mov	r0, r4
 344 0052 FFF7FEFF 		bl	set_Direction
 345              	.LVL40:
  71:Core/Src/wheel.c ****         }
 346              		.loc 1 71 0
 347 0056 2946     		mov	r1, r5
 348 0058 2046     		mov	r0, r4
 349 005a FFF7FEFF 		bl	set_DutyCycle
 350              	.LVL41:
 351              	.L26:
  80:Core/Src/wheel.c ****         }
  81:Core/Src/wheel.c ****         w->omega = omega;
 352              		.loc 1 81 0
 353 005e 84ED038A 		vstr.32	s16, [r4, #12]
  82:Core/Src/wheel.c **** }
 354              		.loc 1 82 0
 355 0062 BDEC028B 		vldm	sp!, {d8}
 356              	.LCFI5:
 357              		.cfi_remember_state
 358              		.cfi_restore 80
 359              		.cfi_restore 81
 360              		.cfi_def_cfa_offset 16
 361              	.LVL42:
 362 0066 38BD     		pop	{r3, r4, r5, pc}
 363              	.LVL43:
 364              	.L35:
 365              	.LCFI6:
 366              		.cfi_restore_state
  74:Core/Src/wheel.c ****                 set_DutyCycle(w, new_omega);
 367              		.loc 1 74 0
 368 0068 0021     		movs	r1, #0
 369 006a 2046     		mov	r0, r4
 370 006c FFF7FEFF 		bl	set_Direction
 371              	.LVL44:
  75:Core/Src/wheel.c ****         }
 372              		.loc 1 75 0
 373 0070 2946     		mov	r1, r5
 374 0072 2046     		mov	r0, r4
 375 0074 FFF7FEFF 		bl	set_DutyCycle
 376              	.LVL45:
 377 0078 F1E7     		b	.L26
 378              	.L37:
ARM GAS  C:\Users\Prashant\AppData\Local\Temp\ccSAafju.s 			page 9


 379 007a 00BFAFF3 		.align	3
 379      0080
 380              	.L36:
 381 0080 A7FF0DD0 		.word	-804388953
 382 0084 7DBB9940 		.word	1083816829
 383              		.cfi_endproc
 384              	.LFE132:
 386              		.text
 387              	.Letext0:
 388              		.file 2 "c:\\program files (x86)\\gnu tools arm embedded\\7 2017-q4-major\\arm-none-eabi\\include\
 389              		.file 3 "c:\\program files (x86)\\gnu tools arm embedded\\7 2017-q4-major\\arm-none-eabi\\include\
 390              		.file 4 "Drivers/CMSIS/Include/core_cm4.h"
 391              		.file 5 "Drivers/CMSIS/Device/ST/STM32F4xx/Include/system_stm32f4xx.h"
 392              		.file 6 "Drivers/CMSIS/Device/ST/STM32F4xx/Include/stm32f407xx.h"
 393              		.file 7 "c:\\program files (x86)\\gnu tools arm embedded\\7 2017-q4-major\\arm-none-eabi\\include\
 394              		.file 8 "c:\\program files (x86)\\gnu tools arm embedded\\7 2017-q4-major\\arm-none-eabi\\include\
 395              		.file 9 "c:\\program files (x86)\\gnu tools arm embedded\\7 2017-q4-major\\lib\\gcc\\arm-none-eabi
 396              		.file 10 "c:\\program files (x86)\\gnu tools arm embedded\\7 2017-q4-major\\arm-none-eabi\\include
 397              		.file 11 "Drivers/STM32F4xx_HAL_Driver/Inc/stm32f4xx_hal_def.h"
 398              		.file 12 "Drivers/STM32F4xx_HAL_Driver/Inc/stm32f4xx_hal_gpio.h"
 399              		.file 13 "Drivers/STM32F4xx_HAL_Driver/Inc/stm32f4xx_hal_dma.h"
 400              		.file 14 "Drivers/STM32F4xx_HAL_Driver/Inc/stm32f4xx_hal_tim.h"
 401              		.file 15 "Core/Inc/tim.h"
 402              		.file 16 "Core/Inc/wheel.h"
ARM GAS  C:\Users\Prashant\AppData\Local\Temp\ccSAafju.s 			page 10

