ARM GAS  C:\Users\Prashant\AppData\Local\Temp\ccrYBTJT.s 			page 1


   1              		.cpu cortex-m4
   2              		.eabi_attribute 27, 1
   3              		.eabi_attribute 28, 1
   4              		.eabi_attribute 20, 1
   5              		.eabi_attribute 21, 1
   6              		.eabi_attribute 23, 3
   7              		.eabi_attribute 24, 1
   8              		.eabi_attribute 25, 1
   9              		.eabi_attribute 26, 1
  10              		.eabi_attribute 30, 1
  11              		.eabi_attribute 34, 1
  12              		.eabi_attribute 18, 4
  13              		.file	"feed_forward.cpp"
  14              		.text
  15              	.Ltext0:
  16              		.cfi_sections	.debug_frame
  17              		.section	.text._Z6ffInitP7feedStrfff,"ax",%progbits
  18              		.align	1
  19              		.global	_Z6ffInitP7feedStrfff
  20              		.syntax unified
  21              		.thumb
  22              		.thumb_func
  23              		.fpu fpv4-sp-d16
  25              	_Z6ffInitP7feedStrfff:
  26              	.LFB225:
  27              		.file 1 "Core/Src/robot/feed_forward.cpp"
   1:Core/Src/robot/feed_forward.cpp **** /*30-1-2019*/
   2:Core/Src/robot/feed_forward.cpp **** 
   3:Core/Src/robot/feed_forward.cpp **** #include "feed_forward.h"
   4:Core/Src/robot/feed_forward.cpp **** #include <math.h>
   5:Core/Src/robot/feed_forward.cpp **** 
   6:Core/Src/robot/feed_forward.cpp **** void ffInit(struct feedStr *ff, float _max_omega, float _percent_div, float _dt)
   7:Core/Src/robot/feed_forward.cpp **** {
  28              		.loc 1 7 0
  29              		.cfi_startproc
  30              		@ args = 0, pretend = 0, frame = 0
  31              		@ frame_needed = 0, uses_anonymous_args = 0
  32              		@ link register save eliminated.
  33              	.LVL0:
   8:Core/Src/robot/feed_forward.cpp ****         ff->max_omega = _max_omega;
  34              		.loc 1 8 0
  35 0000 80ED000A 		vstr.32	s0, [r0]
   9:Core/Src/robot/feed_forward.cpp ****         ff->percent_div = _percent_div;
  36              		.loc 1 9 0
  37 0004 C0ED020A 		vstr.32	s1, [r0, #8]
  10:Core/Src/robot/feed_forward.cpp ****         ff->status = ffBUSY;
  38              		.loc 1 10 0
  39 0008 0023     		movs	r3, #0
  40 000a 80F83830 		strb	r3, [r0, #56]
  11:Core/Src/robot/feed_forward.cpp ****         ff->dt = _dt;
  41              		.loc 1 11 0
  42 000e 80ED031A 		vstr.32	s2, [r0, #12]
  12:Core/Src/robot/feed_forward.cpp ****         ff->index = 0;
  43              		.loc 1 12 0
  44 0012 C362     		str	r3, [r0, #44]
  13:Core/Src/robot/feed_forward.cpp **** }
  45              		.loc 1 13 0
ARM GAS  C:\Users\Prashant\AppData\Local\Temp\ccrYBTJT.s 			page 2


  46 0014 7047     		bx	lr
  47              		.cfi_endproc
  48              	.LFE225:
  50              		.section	.text._Z10ffSetAngleP7feedStrf,"ax",%progbits
  51              		.align	1
  52              		.global	_Z10ffSetAngleP7feedStrf
  53              		.syntax unified
  54              		.thumb
  55              		.thumb_func
  56              		.fpu fpv4-sp-d16
  58              	_Z10ffSetAngleP7feedStrf:
  59              	.LFB226:
  14:Core/Src/robot/feed_forward.cpp **** 
  15:Core/Src/robot/feed_forward.cpp **** void ffSetAngle(struct feedStr *ff, float _max_angle)
  16:Core/Src/robot/feed_forward.cpp **** {
  60              		.loc 1 16 0
  61              		.cfi_startproc
  62              		@ args = 0, pretend = 0, frame = 0
  63              		@ frame_needed = 0, uses_anonymous_args = 0
  64              		@ link register save eliminated.
  65              	.LVL1:
  17:Core/Src/robot/feed_forward.cpp ****         float max_angle_rad;
  18:Core/Src/robot/feed_forward.cpp **** 
  19:Core/Src/robot/feed_forward.cpp ****         if (_max_angle > 0)
  66              		.loc 1 19 0
  67 0000 B5EEC00A 		vcmpe.f32	s0, #0
  68 0004 F1EE10FA 		vmrs	APSR_nzcv, FPSCR
  69 0008 01DD     		ble	.L3
  20:Core/Src/robot/feed_forward.cpp ****         {
  21:Core/Src/robot/feed_forward.cpp ****                 ff->sign_flag = 1;
  70              		.loc 1 21 0
  71 000a 0123     		movs	r3, #1
  72 000c 0363     		str	r3, [r0, #48]
  73              	.L3:
  22:Core/Src/robot/feed_forward.cpp ****         }
  23:Core/Src/robot/feed_forward.cpp **** 
  24:Core/Src/robot/feed_forward.cpp ****         if (_max_angle < 0)
  74              		.loc 1 24 0
  75 000e B5EEC00A 		vcmpe.f32	s0, #0
  76 0012 F1EE10FA 		vmrs	APSR_nzcv, FPSCR
  77 0016 2AD4     		bmi	.L10
  78              	.L5:
  25:Core/Src/robot/feed_forward.cpp ****         {
  26:Core/Src/robot/feed_forward.cpp ****                 _max_angle = -1 * _max_angle;
  27:Core/Src/robot/feed_forward.cpp ****                 ff->sign_flag = -1;
  28:Core/Src/robot/feed_forward.cpp ****         }
  29:Core/Src/robot/feed_forward.cpp **** 
  30:Core/Src/robot/feed_forward.cpp ****         //printf("%d", ff->sign_flag);
  31:Core/Src/robot/feed_forward.cpp ****         if (_max_angle == 0)
  79              		.loc 1 31 0
  80 0018 B5EE400A 		vcmp.f32	s0, #0
  81 001c F1EE10FA 		vmrs	APSR_nzcv, FPSCR
  82 0020 02D1     		bne	.L7
  32:Core/Src/robot/feed_forward.cpp ****                 ff->status = ffCOMPLETE;
  83              		.loc 1 32 0
  84 0022 0123     		movs	r3, #1
  85 0024 80F83830 		strb	r3, [r0, #56]
ARM GAS  C:\Users\Prashant\AppData\Local\Temp\ccrYBTJT.s 			page 3


  86              	.L7:
  33:Core/Src/robot/feed_forward.cpp **** 
  34:Core/Src/robot/feed_forward.cpp ****         max_angle_rad = (_max_angle * PI) / 180;
  87              		.loc 1 34 0
  88 0028 DFED147A 		vldr.32	s15, .L11
  89 002c 60EE277A 		vmul.f32	s15, s0, s15
  90 0030 9FED137A 		vldr.32	s14, .L11+4
  91 0034 C7EE876A 		vdiv.f32	s13, s15, s14
  92              	.LVL2:
  35:Core/Src/robot/feed_forward.cpp **** 
  36:Core/Src/robot/feed_forward.cpp ****         ff->max_angle = _max_angle;
  93              		.loc 1 36 0
  94 0038 80ED010A 		vstr.32	s0, [r0, #4]
  37:Core/Src/robot/feed_forward.cpp ****         ff->T = max_angle_rad / ff->max_omega; /*change*/
  95              		.loc 1 37 0
  96 003c 90ED007A 		vldr.32	s14, [r0]
  97 0040 C6EE877A 		vdiv.f32	s15, s13, s14
  98 0044 C0ED047A 		vstr.32	s15, [r0, #16]
  38:Core/Src/robot/feed_forward.cpp ****         ff->t1 = (ff->percent_div * ff->T) / 100.0f;
  99              		.loc 1 38 0
 100 0048 90ED027A 		vldr.32	s14, [r0, #8]
 101 004c 67EE875A 		vmul.f32	s11, s15, s14
 102 0050 DFED0C6A 		vldr.32	s13, .L11+8
 103              	.LVL3:
 104 0054 85EEA66A 		vdiv.f32	s12, s11, s13
 105 0058 80ED056A 		vstr.32	s12, [r0, #20]
  39:Core/Src/robot/feed_forward.cpp ****         ff->t2 = (100.0f - ff->percent_div) * ff->T / 100.0f;
 106              		.loc 1 39 0
 107 005c 36EEC77A 		vsub.f32	s14, s13, s14
 108 0060 67EE877A 		vmul.f32	s15, s15, s14
 109 0064 87EEA67A 		vdiv.f32	s14, s15, s13
 110 0068 80ED067A 		vstr.32	s14, [r0, #24]
  40:Core/Src/robot/feed_forward.cpp **** }
 111              		.loc 1 40 0
 112 006c 7047     		bx	lr
 113              	.LVL4:
 114              	.L10:
  26:Core/Src/robot/feed_forward.cpp ****                 ff->sign_flag = -1;
 115              		.loc 1 26 0
 116 006e B1EE400A 		vneg.f32	s0, s0
 117              	.LVL5:
  27:Core/Src/robot/feed_forward.cpp ****         }
 118              		.loc 1 27 0
 119 0072 4FF0FF33 		mov	r3, #-1
 120 0076 0363     		str	r3, [r0, #48]
 121 0078 CEE7     		b	.L5
 122              	.L12:
 123 007a 00BF     		.align	2
 124              	.L11:
 125 007c 560E4940 		.word	1078529622
 126 0080 00003443 		.word	1127481344
 127 0084 0000C842 		.word	1120403456
 128              		.cfi_endproc
 129              	.LFE226:
 131              		.section	.text._Z10ffGenerateP7feedStrf,"ax",%progbits
 132              		.align	1
 133              		.global	_Z10ffGenerateP7feedStrf
ARM GAS  C:\Users\Prashant\AppData\Local\Temp\ccrYBTJT.s 			page 4


 134              		.syntax unified
 135              		.thumb
 136              		.thumb_func
 137              		.fpu fpv4-sp-d16
 139              	_Z10ffGenerateP7feedStrf:
 140              	.LFB227:
  41:Core/Src/robot/feed_forward.cpp **** 
  42:Core/Src/robot/feed_forward.cpp **** float ffGenerate(struct feedStr *ff, float curr_angle)
  43:Core/Src/robot/feed_forward.cpp **** {
 141              		.loc 1 43 0
 142              		.cfi_startproc
 143              		@ args = 0, pretend = 0, frame = 0
 144              		@ frame_needed = 0, uses_anonymous_args = 0
 145              		@ link register save eliminated.
 146              	.LVL6:
  44:Core/Src/robot/feed_forward.cpp **** 
  45:Core/Src/robot/feed_forward.cpp ****         float new_omega = 0;
  46:Core/Src/robot/feed_forward.cpp ****         float t = ff->index * ff->dt;
 147              		.loc 1 46 0
 148 0000 C36A     		ldr	r3, [r0, #44]
 149 0002 07EE903A 		vmov	s15, r3	@ int
 150 0006 F8EEE77A 		vcvt.f32.s32	s15, s15
 151 000a 90ED037A 		vldr.32	s14, [r0, #12]
 152 000e 67EE877A 		vmul.f32	s15, s15, s14
 153              	.LVL7:
  47:Core/Src/robot/feed_forward.cpp **** 
  48:Core/Src/robot/feed_forward.cpp ****         while (ff->status == ffBUSY)
 154              		.loc 1 48 0
 155 0012 90F83820 		ldrb	r2, [r0, #56]	@ zero_extendqisi2
 156 0016 002A     		cmp	r2, #0
 157 0018 70D1     		bne	.L28
  49:Core/Src/robot/feed_forward.cpp ****         {
  50:Core/Src/robot/feed_forward.cpp ****                 if ((t >= 0) && (t < ff->t1))
 158              		.loc 1 50 0
 159 001a F5EEC07A 		vcmpe.f32	s15, #0
 160 001e F1EE10FA 		vmrs	APSR_nzcv, FPSCR
 161 0022 20DB     		blt	.L15
 162              		.loc 1 50 0 is_stmt 0 discriminator 1
 163 0024 90ED057A 		vldr.32	s14, [r0, #20]
 164 0028 B4EEE77A 		vcmpe.f32	s14, s15
 165 002c F1EE10FA 		vmrs	APSR_nzcv, FPSCR
 166 0030 19DD     		ble	.L15
  51:Core/Src/robot/feed_forward.cpp ****                 {
  52:Core/Src/robot/feed_forward.cpp ****                         new_omega = (ff->max_omega * t) / ff->t1;
 167              		.loc 1 52 0 is_stmt 1
 168 0032 D0ED006A 		vldr.32	s13, [r0]
 169 0036 66EEA77A 		vmul.f32	s15, s13, s15
 170              	.LVL8:
 171 003a C7EE876A 		vdiv.f32	s13, s15, s14
 172              	.LVL9:
 173              	.L18:
 174              	.LBB10:
 175              	.LBB11:
 176              		.file 2 "c:\\program files (x86)\\gnu tools arm embedded\\7 2017-q4-major\\arm-none-eabi\\include\
   1:c:\program files (x86)\gnu tools arm embedded\7 2017-q4-major\arm-none-eabi\include\c++\7.2.1\cmath **** // -*- C++ -*- C forwarding header.
   2:c:\program files (x86)\gnu tools arm embedded\7 2017-q4-major\arm-none-eabi\include\c++\7.2.1\cmath **** 
   3:c:\program files (x86)\gnu tools arm embedded\7 2017-q4-major\arm-none-eabi\include\c++\7.2.1\cmath **** // Copyright (C) 1997-2017 Free Software Foundation, Inc.
ARM GAS  C:\Users\Prashant\AppData\Local\Temp\ccrYBTJT.s 			page 5


   4:c:\program files (x86)\gnu tools arm embedded\7 2017-q4-major\arm-none-eabi\include\c++\7.2.1\cmath **** //
   5:c:\program files (x86)\gnu tools arm embedded\7 2017-q4-major\arm-none-eabi\include\c++\7.2.1\cmath **** // This file is part of the GNU ISO C++ Library.  This library is free
   6:c:\program files (x86)\gnu tools arm embedded\7 2017-q4-major\arm-none-eabi\include\c++\7.2.1\cmath **** // software; you can redistribute it and/or modify it under the
   7:c:\program files (x86)\gnu tools arm embedded\7 2017-q4-major\arm-none-eabi\include\c++\7.2.1\cmath **** // terms of the GNU General Public License as published by the
   8:c:\program files (x86)\gnu tools arm embedded\7 2017-q4-major\arm-none-eabi\include\c++\7.2.1\cmath **** // Free Software Foundation; either version 3, or (at your option)
   9:c:\program files (x86)\gnu tools arm embedded\7 2017-q4-major\arm-none-eabi\include\c++\7.2.1\cmath **** // any later version.
  10:c:\program files (x86)\gnu tools arm embedded\7 2017-q4-major\arm-none-eabi\include\c++\7.2.1\cmath **** 
  11:c:\program files (x86)\gnu tools arm embedded\7 2017-q4-major\arm-none-eabi\include\c++\7.2.1\cmath **** // This library is distributed in the hope that it will be useful,
  12:c:\program files (x86)\gnu tools arm embedded\7 2017-q4-major\arm-none-eabi\include\c++\7.2.1\cmath **** // but WITHOUT ANY WARRANTY; without even the implied warranty of
  13:c:\program files (x86)\gnu tools arm embedded\7 2017-q4-major\arm-none-eabi\include\c++\7.2.1\cmath **** // MERCHANTABILITY or FITNESS FOR A PARTICULAR PURPOSE.  See the
  14:c:\program files (x86)\gnu tools arm embedded\7 2017-q4-major\arm-none-eabi\include\c++\7.2.1\cmath **** // GNU General Public License for more details.
  15:c:\program files (x86)\gnu tools arm embedded\7 2017-q4-major\arm-none-eabi\include\c++\7.2.1\cmath **** 
  16:c:\program files (x86)\gnu tools arm embedded\7 2017-q4-major\arm-none-eabi\include\c++\7.2.1\cmath **** // Under Section 7 of GPL version 3, you are granted additional
  17:c:\program files (x86)\gnu tools arm embedded\7 2017-q4-major\arm-none-eabi\include\c++\7.2.1\cmath **** // permissions described in the GCC Runtime Library Exception, version
  18:c:\program files (x86)\gnu tools arm embedded\7 2017-q4-major\arm-none-eabi\include\c++\7.2.1\cmath **** // 3.1, as published by the Free Software Foundation.
  19:c:\program files (x86)\gnu tools arm embedded\7 2017-q4-major\arm-none-eabi\include\c++\7.2.1\cmath **** 
  20:c:\program files (x86)\gnu tools arm embedded\7 2017-q4-major\arm-none-eabi\include\c++\7.2.1\cmath **** // You should have received a copy of the GNU General Public License and
  21:c:\program files (x86)\gnu tools arm embedded\7 2017-q4-major\arm-none-eabi\include\c++\7.2.1\cmath **** // a copy of the GCC Runtime Library Exception along with this program;
  22:c:\program files (x86)\gnu tools arm embedded\7 2017-q4-major\arm-none-eabi\include\c++\7.2.1\cmath **** // see the files COPYING3 and COPYING.RUNTIME respectively.  If not, see
  23:c:\program files (x86)\gnu tools arm embedded\7 2017-q4-major\arm-none-eabi\include\c++\7.2.1\cmath **** // <http://www.gnu.org/licenses/>.
  24:c:\program files (x86)\gnu tools arm embedded\7 2017-q4-major\arm-none-eabi\include\c++\7.2.1\cmath **** 
  25:c:\program files (x86)\gnu tools arm embedded\7 2017-q4-major\arm-none-eabi\include\c++\7.2.1\cmath **** /** @file include/cmath
  26:c:\program files (x86)\gnu tools arm embedded\7 2017-q4-major\arm-none-eabi\include\c++\7.2.1\cmath ****  *  This is a Standard C++ Library file.  You should @c \#include this file
  27:c:\program files (x86)\gnu tools arm embedded\7 2017-q4-major\arm-none-eabi\include\c++\7.2.1\cmath ****  *  in your programs, rather than any of the @a *.h implementation files.
  28:c:\program files (x86)\gnu tools arm embedded\7 2017-q4-major\arm-none-eabi\include\c++\7.2.1\cmath ****  *
  29:c:\program files (x86)\gnu tools arm embedded\7 2017-q4-major\arm-none-eabi\include\c++\7.2.1\cmath ****  *  This is the C++ version of the Standard C Library header @c math.h,
  30:c:\program files (x86)\gnu tools arm embedded\7 2017-q4-major\arm-none-eabi\include\c++\7.2.1\cmath ****  *  and its contents are (mostly) the same as that header, but are all
  31:c:\program files (x86)\gnu tools arm embedded\7 2017-q4-major\arm-none-eabi\include\c++\7.2.1\cmath ****  *  contained in the namespace @c std (except for names which are defined
  32:c:\program files (x86)\gnu tools arm embedded\7 2017-q4-major\arm-none-eabi\include\c++\7.2.1\cmath ****  *  as macros in C).
  33:c:\program files (x86)\gnu tools arm embedded\7 2017-q4-major\arm-none-eabi\include\c++\7.2.1\cmath ****  */
  34:c:\program files (x86)\gnu tools arm embedded\7 2017-q4-major\arm-none-eabi\include\c++\7.2.1\cmath **** 
  35:c:\program files (x86)\gnu tools arm embedded\7 2017-q4-major\arm-none-eabi\include\c++\7.2.1\cmath **** //
  36:c:\program files (x86)\gnu tools arm embedded\7 2017-q4-major\arm-none-eabi\include\c++\7.2.1\cmath **** // ISO C++ 14882: 26.5  C library
  37:c:\program files (x86)\gnu tools arm embedded\7 2017-q4-major\arm-none-eabi\include\c++\7.2.1\cmath **** //
  38:c:\program files (x86)\gnu tools arm embedded\7 2017-q4-major\arm-none-eabi\include\c++\7.2.1\cmath **** 
  39:c:\program files (x86)\gnu tools arm embedded\7 2017-q4-major\arm-none-eabi\include\c++\7.2.1\cmath **** #pragma GCC system_header
  40:c:\program files (x86)\gnu tools arm embedded\7 2017-q4-major\arm-none-eabi\include\c++\7.2.1\cmath **** 
  41:c:\program files (x86)\gnu tools arm embedded\7 2017-q4-major\arm-none-eabi\include\c++\7.2.1\cmath **** #include <bits/c++config.h>
  42:c:\program files (x86)\gnu tools arm embedded\7 2017-q4-major\arm-none-eabi\include\c++\7.2.1\cmath **** #include <bits/cpp_type_traits.h>
  43:c:\program files (x86)\gnu tools arm embedded\7 2017-q4-major\arm-none-eabi\include\c++\7.2.1\cmath **** #include <ext/type_traits.h>
  44:c:\program files (x86)\gnu tools arm embedded\7 2017-q4-major\arm-none-eabi\include\c++\7.2.1\cmath **** #define _GLIBCXX_INCLUDE_NEXT_C_HEADERS
  45:c:\program files (x86)\gnu tools arm embedded\7 2017-q4-major\arm-none-eabi\include\c++\7.2.1\cmath **** #include_next <math.h>
  46:c:\program files (x86)\gnu tools arm embedded\7 2017-q4-major\arm-none-eabi\include\c++\7.2.1\cmath **** #undef _GLIBCXX_INCLUDE_NEXT_C_HEADERS
  47:c:\program files (x86)\gnu tools arm embedded\7 2017-q4-major\arm-none-eabi\include\c++\7.2.1\cmath **** #include <bits/std_abs.h>
  48:c:\program files (x86)\gnu tools arm embedded\7 2017-q4-major\arm-none-eabi\include\c++\7.2.1\cmath **** 
  49:c:\program files (x86)\gnu tools arm embedded\7 2017-q4-major\arm-none-eabi\include\c++\7.2.1\cmath **** #ifndef _GLIBCXX_CMATH
  50:c:\program files (x86)\gnu tools arm embedded\7 2017-q4-major\arm-none-eabi\include\c++\7.2.1\cmath **** #define _GLIBCXX_CMATH 1
  51:c:\program files (x86)\gnu tools arm embedded\7 2017-q4-major\arm-none-eabi\include\c++\7.2.1\cmath **** 
  52:c:\program files (x86)\gnu tools arm embedded\7 2017-q4-major\arm-none-eabi\include\c++\7.2.1\cmath **** // Get rid of those macros defined in <math.h> in lieu of real functions.
  53:c:\program files (x86)\gnu tools arm embedded\7 2017-q4-major\arm-none-eabi\include\c++\7.2.1\cmath **** #undef div
  54:c:\program files (x86)\gnu tools arm embedded\7 2017-q4-major\arm-none-eabi\include\c++\7.2.1\cmath **** #undef acos
  55:c:\program files (x86)\gnu tools arm embedded\7 2017-q4-major\arm-none-eabi\include\c++\7.2.1\cmath **** #undef asin
  56:c:\program files (x86)\gnu tools arm embedded\7 2017-q4-major\arm-none-eabi\include\c++\7.2.1\cmath **** #undef atan
  57:c:\program files (x86)\gnu tools arm embedded\7 2017-q4-major\arm-none-eabi\include\c++\7.2.1\cmath **** #undef atan2
  58:c:\program files (x86)\gnu tools arm embedded\7 2017-q4-major\arm-none-eabi\include\c++\7.2.1\cmath **** #undef ceil
  59:c:\program files (x86)\gnu tools arm embedded\7 2017-q4-major\arm-none-eabi\include\c++\7.2.1\cmath **** #undef cos
  60:c:\program files (x86)\gnu tools arm embedded\7 2017-q4-major\arm-none-eabi\include\c++\7.2.1\cmath **** #undef cosh
ARM GAS  C:\Users\Prashant\AppData\Local\Temp\ccrYBTJT.s 			page 6


  61:c:\program files (x86)\gnu tools arm embedded\7 2017-q4-major\arm-none-eabi\include\c++\7.2.1\cmath **** #undef exp
  62:c:\program files (x86)\gnu tools arm embedded\7 2017-q4-major\arm-none-eabi\include\c++\7.2.1\cmath **** #undef fabs
  63:c:\program files (x86)\gnu tools arm embedded\7 2017-q4-major\arm-none-eabi\include\c++\7.2.1\cmath **** #undef floor
  64:c:\program files (x86)\gnu tools arm embedded\7 2017-q4-major\arm-none-eabi\include\c++\7.2.1\cmath **** #undef fmod
  65:c:\program files (x86)\gnu tools arm embedded\7 2017-q4-major\arm-none-eabi\include\c++\7.2.1\cmath **** #undef frexp
  66:c:\program files (x86)\gnu tools arm embedded\7 2017-q4-major\arm-none-eabi\include\c++\7.2.1\cmath **** #undef ldexp
  67:c:\program files (x86)\gnu tools arm embedded\7 2017-q4-major\arm-none-eabi\include\c++\7.2.1\cmath **** #undef log
  68:c:\program files (x86)\gnu tools arm embedded\7 2017-q4-major\arm-none-eabi\include\c++\7.2.1\cmath **** #undef log10
  69:c:\program files (x86)\gnu tools arm embedded\7 2017-q4-major\arm-none-eabi\include\c++\7.2.1\cmath **** #undef modf
  70:c:\program files (x86)\gnu tools arm embedded\7 2017-q4-major\arm-none-eabi\include\c++\7.2.1\cmath **** #undef pow
  71:c:\program files (x86)\gnu tools arm embedded\7 2017-q4-major\arm-none-eabi\include\c++\7.2.1\cmath **** #undef sin
  72:c:\program files (x86)\gnu tools arm embedded\7 2017-q4-major\arm-none-eabi\include\c++\7.2.1\cmath **** #undef sinh
  73:c:\program files (x86)\gnu tools arm embedded\7 2017-q4-major\arm-none-eabi\include\c++\7.2.1\cmath **** #undef sqrt
  74:c:\program files (x86)\gnu tools arm embedded\7 2017-q4-major\arm-none-eabi\include\c++\7.2.1\cmath **** #undef tan
  75:c:\program files (x86)\gnu tools arm embedded\7 2017-q4-major\arm-none-eabi\include\c++\7.2.1\cmath **** #undef tanh
  76:c:\program files (x86)\gnu tools arm embedded\7 2017-q4-major\arm-none-eabi\include\c++\7.2.1\cmath **** 
  77:c:\program files (x86)\gnu tools arm embedded\7 2017-q4-major\arm-none-eabi\include\c++\7.2.1\cmath **** extern "C++"
  78:c:\program files (x86)\gnu tools arm embedded\7 2017-q4-major\arm-none-eabi\include\c++\7.2.1\cmath **** {
  79:c:\program files (x86)\gnu tools arm embedded\7 2017-q4-major\arm-none-eabi\include\c++\7.2.1\cmath **** namespace std _GLIBCXX_VISIBILITY(default)
  80:c:\program files (x86)\gnu tools arm embedded\7 2017-q4-major\arm-none-eabi\include\c++\7.2.1\cmath **** {
  81:c:\program files (x86)\gnu tools arm embedded\7 2017-q4-major\arm-none-eabi\include\c++\7.2.1\cmath **** _GLIBCXX_BEGIN_NAMESPACE_VERSION
  82:c:\program files (x86)\gnu tools arm embedded\7 2017-q4-major\arm-none-eabi\include\c++\7.2.1\cmath **** 
  83:c:\program files (x86)\gnu tools arm embedded\7 2017-q4-major\arm-none-eabi\include\c++\7.2.1\cmath ****   using ::acos;
  84:c:\program files (x86)\gnu tools arm embedded\7 2017-q4-major\arm-none-eabi\include\c++\7.2.1\cmath **** 
  85:c:\program files (x86)\gnu tools arm embedded\7 2017-q4-major\arm-none-eabi\include\c++\7.2.1\cmath **** #ifndef __CORRECT_ISO_CPP_MATH_H_PROTO
  86:c:\program files (x86)\gnu tools arm embedded\7 2017-q4-major\arm-none-eabi\include\c++\7.2.1\cmath ****   inline _GLIBCXX_CONSTEXPR float
  87:c:\program files (x86)\gnu tools arm embedded\7 2017-q4-major\arm-none-eabi\include\c++\7.2.1\cmath ****   acos(float __x)
  88:c:\program files (x86)\gnu tools arm embedded\7 2017-q4-major\arm-none-eabi\include\c++\7.2.1\cmath ****   { return __builtin_acosf(__x); }
  89:c:\program files (x86)\gnu tools arm embedded\7 2017-q4-major\arm-none-eabi\include\c++\7.2.1\cmath **** 
  90:c:\program files (x86)\gnu tools arm embedded\7 2017-q4-major\arm-none-eabi\include\c++\7.2.1\cmath ****   inline _GLIBCXX_CONSTEXPR long double
  91:c:\program files (x86)\gnu tools arm embedded\7 2017-q4-major\arm-none-eabi\include\c++\7.2.1\cmath ****   acos(long double __x)
  92:c:\program files (x86)\gnu tools arm embedded\7 2017-q4-major\arm-none-eabi\include\c++\7.2.1\cmath ****   { return __builtin_acosl(__x); }
  93:c:\program files (x86)\gnu tools arm embedded\7 2017-q4-major\arm-none-eabi\include\c++\7.2.1\cmath **** #endif
  94:c:\program files (x86)\gnu tools arm embedded\7 2017-q4-major\arm-none-eabi\include\c++\7.2.1\cmath **** 
  95:c:\program files (x86)\gnu tools arm embedded\7 2017-q4-major\arm-none-eabi\include\c++\7.2.1\cmath ****   template<typename _Tp>
  96:c:\program files (x86)\gnu tools arm embedded\7 2017-q4-major\arm-none-eabi\include\c++\7.2.1\cmath ****     inline _GLIBCXX_CONSTEXPR
  97:c:\program files (x86)\gnu tools arm embedded\7 2017-q4-major\arm-none-eabi\include\c++\7.2.1\cmath ****     typename __gnu_cxx::__enable_if<__is_integer<_Tp>::__value, 
  98:c:\program files (x86)\gnu tools arm embedded\7 2017-q4-major\arm-none-eabi\include\c++\7.2.1\cmath ****                                     double>::__type
  99:c:\program files (x86)\gnu tools arm embedded\7 2017-q4-major\arm-none-eabi\include\c++\7.2.1\cmath ****     acos(_Tp __x)
 100:c:\program files (x86)\gnu tools arm embedded\7 2017-q4-major\arm-none-eabi\include\c++\7.2.1\cmath ****     { return __builtin_acos(__x); }
 101:c:\program files (x86)\gnu tools arm embedded\7 2017-q4-major\arm-none-eabi\include\c++\7.2.1\cmath **** 
 102:c:\program files (x86)\gnu tools arm embedded\7 2017-q4-major\arm-none-eabi\include\c++\7.2.1\cmath ****   using ::asin;
 103:c:\program files (x86)\gnu tools arm embedded\7 2017-q4-major\arm-none-eabi\include\c++\7.2.1\cmath **** 
 104:c:\program files (x86)\gnu tools arm embedded\7 2017-q4-major\arm-none-eabi\include\c++\7.2.1\cmath **** #ifndef __CORRECT_ISO_CPP_MATH_H_PROTO
 105:c:\program files (x86)\gnu tools arm embedded\7 2017-q4-major\arm-none-eabi\include\c++\7.2.1\cmath ****   inline _GLIBCXX_CONSTEXPR float
 106:c:\program files (x86)\gnu tools arm embedded\7 2017-q4-major\arm-none-eabi\include\c++\7.2.1\cmath ****   asin(float __x)
 107:c:\program files (x86)\gnu tools arm embedded\7 2017-q4-major\arm-none-eabi\include\c++\7.2.1\cmath ****   { return __builtin_asinf(__x); }
 108:c:\program files (x86)\gnu tools arm embedded\7 2017-q4-major\arm-none-eabi\include\c++\7.2.1\cmath **** 
 109:c:\program files (x86)\gnu tools arm embedded\7 2017-q4-major\arm-none-eabi\include\c++\7.2.1\cmath ****   inline _GLIBCXX_CONSTEXPR long double
 110:c:\program files (x86)\gnu tools arm embedded\7 2017-q4-major\arm-none-eabi\include\c++\7.2.1\cmath ****   asin(long double __x)
 111:c:\program files (x86)\gnu tools arm embedded\7 2017-q4-major\arm-none-eabi\include\c++\7.2.1\cmath ****   { return __builtin_asinl(__x); }
 112:c:\program files (x86)\gnu tools arm embedded\7 2017-q4-major\arm-none-eabi\include\c++\7.2.1\cmath **** #endif
 113:c:\program files (x86)\gnu tools arm embedded\7 2017-q4-major\arm-none-eabi\include\c++\7.2.1\cmath **** 
 114:c:\program files (x86)\gnu tools arm embedded\7 2017-q4-major\arm-none-eabi\include\c++\7.2.1\cmath ****   template<typename _Tp>
 115:c:\program files (x86)\gnu tools arm embedded\7 2017-q4-major\arm-none-eabi\include\c++\7.2.1\cmath ****     inline _GLIBCXX_CONSTEXPR
 116:c:\program files (x86)\gnu tools arm embedded\7 2017-q4-major\arm-none-eabi\include\c++\7.2.1\cmath ****     typename __gnu_cxx::__enable_if<__is_integer<_Tp>::__value,
 117:c:\program files (x86)\gnu tools arm embedded\7 2017-q4-major\arm-none-eabi\include\c++\7.2.1\cmath ****                                     double>::__type
ARM GAS  C:\Users\Prashant\AppData\Local\Temp\ccrYBTJT.s 			page 7


 118:c:\program files (x86)\gnu tools arm embedded\7 2017-q4-major\arm-none-eabi\include\c++\7.2.1\cmath ****     asin(_Tp __x)
 119:c:\program files (x86)\gnu tools arm embedded\7 2017-q4-major\arm-none-eabi\include\c++\7.2.1\cmath ****     { return __builtin_asin(__x); }
 120:c:\program files (x86)\gnu tools arm embedded\7 2017-q4-major\arm-none-eabi\include\c++\7.2.1\cmath **** 
 121:c:\program files (x86)\gnu tools arm embedded\7 2017-q4-major\arm-none-eabi\include\c++\7.2.1\cmath ****   using ::atan;
 122:c:\program files (x86)\gnu tools arm embedded\7 2017-q4-major\arm-none-eabi\include\c++\7.2.1\cmath **** 
 123:c:\program files (x86)\gnu tools arm embedded\7 2017-q4-major\arm-none-eabi\include\c++\7.2.1\cmath **** #ifndef __CORRECT_ISO_CPP_MATH_H_PROTO
 124:c:\program files (x86)\gnu tools arm embedded\7 2017-q4-major\arm-none-eabi\include\c++\7.2.1\cmath ****   inline _GLIBCXX_CONSTEXPR float
 125:c:\program files (x86)\gnu tools arm embedded\7 2017-q4-major\arm-none-eabi\include\c++\7.2.1\cmath ****   atan(float __x)
 126:c:\program files (x86)\gnu tools arm embedded\7 2017-q4-major\arm-none-eabi\include\c++\7.2.1\cmath ****   { return __builtin_atanf(__x); }
 127:c:\program files (x86)\gnu tools arm embedded\7 2017-q4-major\arm-none-eabi\include\c++\7.2.1\cmath **** 
 128:c:\program files (x86)\gnu tools arm embedded\7 2017-q4-major\arm-none-eabi\include\c++\7.2.1\cmath ****   inline _GLIBCXX_CONSTEXPR long double
 129:c:\program files (x86)\gnu tools arm embedded\7 2017-q4-major\arm-none-eabi\include\c++\7.2.1\cmath ****   atan(long double __x)
 130:c:\program files (x86)\gnu tools arm embedded\7 2017-q4-major\arm-none-eabi\include\c++\7.2.1\cmath ****   { return __builtin_atanl(__x); }
 131:c:\program files (x86)\gnu tools arm embedded\7 2017-q4-major\arm-none-eabi\include\c++\7.2.1\cmath **** #endif
 132:c:\program files (x86)\gnu tools arm embedded\7 2017-q4-major\arm-none-eabi\include\c++\7.2.1\cmath **** 
 133:c:\program files (x86)\gnu tools arm embedded\7 2017-q4-major\arm-none-eabi\include\c++\7.2.1\cmath ****   template<typename _Tp>
 134:c:\program files (x86)\gnu tools arm embedded\7 2017-q4-major\arm-none-eabi\include\c++\7.2.1\cmath ****     inline _GLIBCXX_CONSTEXPR
 135:c:\program files (x86)\gnu tools arm embedded\7 2017-q4-major\arm-none-eabi\include\c++\7.2.1\cmath ****     typename __gnu_cxx::__enable_if<__is_integer<_Tp>::__value,
 136:c:\program files (x86)\gnu tools arm embedded\7 2017-q4-major\arm-none-eabi\include\c++\7.2.1\cmath ****                                     double>::__type
 137:c:\program files (x86)\gnu tools arm embedded\7 2017-q4-major\arm-none-eabi\include\c++\7.2.1\cmath ****     atan(_Tp __x)
 138:c:\program files (x86)\gnu tools arm embedded\7 2017-q4-major\arm-none-eabi\include\c++\7.2.1\cmath ****     { return __builtin_atan(__x); }
 139:c:\program files (x86)\gnu tools arm embedded\7 2017-q4-major\arm-none-eabi\include\c++\7.2.1\cmath **** 
 140:c:\program files (x86)\gnu tools arm embedded\7 2017-q4-major\arm-none-eabi\include\c++\7.2.1\cmath ****   using ::atan2;
 141:c:\program files (x86)\gnu tools arm embedded\7 2017-q4-major\arm-none-eabi\include\c++\7.2.1\cmath **** 
 142:c:\program files (x86)\gnu tools arm embedded\7 2017-q4-major\arm-none-eabi\include\c++\7.2.1\cmath **** #ifndef __CORRECT_ISO_CPP_MATH_H_PROTO
 143:c:\program files (x86)\gnu tools arm embedded\7 2017-q4-major\arm-none-eabi\include\c++\7.2.1\cmath ****   inline _GLIBCXX_CONSTEXPR float
 144:c:\program files (x86)\gnu tools arm embedded\7 2017-q4-major\arm-none-eabi\include\c++\7.2.1\cmath ****   atan2(float __y, float __x)
 145:c:\program files (x86)\gnu tools arm embedded\7 2017-q4-major\arm-none-eabi\include\c++\7.2.1\cmath ****   { return __builtin_atan2f(__y, __x); }
 146:c:\program files (x86)\gnu tools arm embedded\7 2017-q4-major\arm-none-eabi\include\c++\7.2.1\cmath **** 
 147:c:\program files (x86)\gnu tools arm embedded\7 2017-q4-major\arm-none-eabi\include\c++\7.2.1\cmath ****   inline _GLIBCXX_CONSTEXPR long double
 148:c:\program files (x86)\gnu tools arm embedded\7 2017-q4-major\arm-none-eabi\include\c++\7.2.1\cmath ****   atan2(long double __y, long double __x)
 149:c:\program files (x86)\gnu tools arm embedded\7 2017-q4-major\arm-none-eabi\include\c++\7.2.1\cmath ****   { return __builtin_atan2l(__y, __x); }
 150:c:\program files (x86)\gnu tools arm embedded\7 2017-q4-major\arm-none-eabi\include\c++\7.2.1\cmath **** #endif
 151:c:\program files (x86)\gnu tools arm embedded\7 2017-q4-major\arm-none-eabi\include\c++\7.2.1\cmath **** 
 152:c:\program files (x86)\gnu tools arm embedded\7 2017-q4-major\arm-none-eabi\include\c++\7.2.1\cmath ****   template<typename _Tp, typename _Up>
 153:c:\program files (x86)\gnu tools arm embedded\7 2017-q4-major\arm-none-eabi\include\c++\7.2.1\cmath ****     inline _GLIBCXX_CONSTEXPR
 154:c:\program files (x86)\gnu tools arm embedded\7 2017-q4-major\arm-none-eabi\include\c++\7.2.1\cmath ****     typename __gnu_cxx::__promote_2<_Tp, _Up>::__type
 155:c:\program files (x86)\gnu tools arm embedded\7 2017-q4-major\arm-none-eabi\include\c++\7.2.1\cmath ****     atan2(_Tp __y, _Up __x)
 156:c:\program files (x86)\gnu tools arm embedded\7 2017-q4-major\arm-none-eabi\include\c++\7.2.1\cmath ****     {
 157:c:\program files (x86)\gnu tools arm embedded\7 2017-q4-major\arm-none-eabi\include\c++\7.2.1\cmath ****       typedef typename __gnu_cxx::__promote_2<_Tp, _Up>::__type __type;
 158:c:\program files (x86)\gnu tools arm embedded\7 2017-q4-major\arm-none-eabi\include\c++\7.2.1\cmath ****       return atan2(__type(__y), __type(__x));
 159:c:\program files (x86)\gnu tools arm embedded\7 2017-q4-major\arm-none-eabi\include\c++\7.2.1\cmath ****     }
 160:c:\program files (x86)\gnu tools arm embedded\7 2017-q4-major\arm-none-eabi\include\c++\7.2.1\cmath **** 
 161:c:\program files (x86)\gnu tools arm embedded\7 2017-q4-major\arm-none-eabi\include\c++\7.2.1\cmath ****   using ::ceil;
 162:c:\program files (x86)\gnu tools arm embedded\7 2017-q4-major\arm-none-eabi\include\c++\7.2.1\cmath **** 
 163:c:\program files (x86)\gnu tools arm embedded\7 2017-q4-major\arm-none-eabi\include\c++\7.2.1\cmath **** #ifndef __CORRECT_ISO_CPP_MATH_H_PROTO
 164:c:\program files (x86)\gnu tools arm embedded\7 2017-q4-major\arm-none-eabi\include\c++\7.2.1\cmath ****   inline _GLIBCXX_CONSTEXPR float
 165:c:\program files (x86)\gnu tools arm embedded\7 2017-q4-major\arm-none-eabi\include\c++\7.2.1\cmath ****   ceil(float __x)
 166:c:\program files (x86)\gnu tools arm embedded\7 2017-q4-major\arm-none-eabi\include\c++\7.2.1\cmath ****   { return __builtin_ceilf(__x); }
 167:c:\program files (x86)\gnu tools arm embedded\7 2017-q4-major\arm-none-eabi\include\c++\7.2.1\cmath **** 
 168:c:\program files (x86)\gnu tools arm embedded\7 2017-q4-major\arm-none-eabi\include\c++\7.2.1\cmath ****   inline _GLIBCXX_CONSTEXPR long double
 169:c:\program files (x86)\gnu tools arm embedded\7 2017-q4-major\arm-none-eabi\include\c++\7.2.1\cmath ****   ceil(long double __x)
 170:c:\program files (x86)\gnu tools arm embedded\7 2017-q4-major\arm-none-eabi\include\c++\7.2.1\cmath ****   { return __builtin_ceill(__x); }
 171:c:\program files (x86)\gnu tools arm embedded\7 2017-q4-major\arm-none-eabi\include\c++\7.2.1\cmath **** #endif
 172:c:\program files (x86)\gnu tools arm embedded\7 2017-q4-major\arm-none-eabi\include\c++\7.2.1\cmath **** 
 173:c:\program files (x86)\gnu tools arm embedded\7 2017-q4-major\arm-none-eabi\include\c++\7.2.1\cmath ****   template<typename _Tp>
 174:c:\program files (x86)\gnu tools arm embedded\7 2017-q4-major\arm-none-eabi\include\c++\7.2.1\cmath ****     inline _GLIBCXX_CONSTEXPR
ARM GAS  C:\Users\Prashant\AppData\Local\Temp\ccrYBTJT.s 			page 8


 175:c:\program files (x86)\gnu tools arm embedded\7 2017-q4-major\arm-none-eabi\include\c++\7.2.1\cmath ****     typename __gnu_cxx::__enable_if<__is_integer<_Tp>::__value, 
 176:c:\program files (x86)\gnu tools arm embedded\7 2017-q4-major\arm-none-eabi\include\c++\7.2.1\cmath ****                                     double>::__type
 177:c:\program files (x86)\gnu tools arm embedded\7 2017-q4-major\arm-none-eabi\include\c++\7.2.1\cmath ****     ceil(_Tp __x)
 178:c:\program files (x86)\gnu tools arm embedded\7 2017-q4-major\arm-none-eabi\include\c++\7.2.1\cmath ****     { return __builtin_ceil(__x); }
 179:c:\program files (x86)\gnu tools arm embedded\7 2017-q4-major\arm-none-eabi\include\c++\7.2.1\cmath **** 
 180:c:\program files (x86)\gnu tools arm embedded\7 2017-q4-major\arm-none-eabi\include\c++\7.2.1\cmath ****   using ::cos;
 181:c:\program files (x86)\gnu tools arm embedded\7 2017-q4-major\arm-none-eabi\include\c++\7.2.1\cmath **** 
 182:c:\program files (x86)\gnu tools arm embedded\7 2017-q4-major\arm-none-eabi\include\c++\7.2.1\cmath **** #ifndef __CORRECT_ISO_CPP_MATH_H_PROTO
 183:c:\program files (x86)\gnu tools arm embedded\7 2017-q4-major\arm-none-eabi\include\c++\7.2.1\cmath ****   inline _GLIBCXX_CONSTEXPR float
 184:c:\program files (x86)\gnu tools arm embedded\7 2017-q4-major\arm-none-eabi\include\c++\7.2.1\cmath ****   cos(float __x)
 185:c:\program files (x86)\gnu tools arm embedded\7 2017-q4-major\arm-none-eabi\include\c++\7.2.1\cmath ****   { return __builtin_cosf(__x); }
 186:c:\program files (x86)\gnu tools arm embedded\7 2017-q4-major\arm-none-eabi\include\c++\7.2.1\cmath **** 
 187:c:\program files (x86)\gnu tools arm embedded\7 2017-q4-major\arm-none-eabi\include\c++\7.2.1\cmath ****   inline _GLIBCXX_CONSTEXPR long double
 188:c:\program files (x86)\gnu tools arm embedded\7 2017-q4-major\arm-none-eabi\include\c++\7.2.1\cmath ****   cos(long double __x)
 189:c:\program files (x86)\gnu tools arm embedded\7 2017-q4-major\arm-none-eabi\include\c++\7.2.1\cmath ****   { return __builtin_cosl(__x); }
 190:c:\program files (x86)\gnu tools arm embedded\7 2017-q4-major\arm-none-eabi\include\c++\7.2.1\cmath **** #endif
 191:c:\program files (x86)\gnu tools arm embedded\7 2017-q4-major\arm-none-eabi\include\c++\7.2.1\cmath **** 
 192:c:\program files (x86)\gnu tools arm embedded\7 2017-q4-major\arm-none-eabi\include\c++\7.2.1\cmath ****   template<typename _Tp>
 193:c:\program files (x86)\gnu tools arm embedded\7 2017-q4-major\arm-none-eabi\include\c++\7.2.1\cmath ****     inline _GLIBCXX_CONSTEXPR
 194:c:\program files (x86)\gnu tools arm embedded\7 2017-q4-major\arm-none-eabi\include\c++\7.2.1\cmath ****     typename __gnu_cxx::__enable_if<__is_integer<_Tp>::__value,
 195:c:\program files (x86)\gnu tools arm embedded\7 2017-q4-major\arm-none-eabi\include\c++\7.2.1\cmath ****                                     double>::__type
 196:c:\program files (x86)\gnu tools arm embedded\7 2017-q4-major\arm-none-eabi\include\c++\7.2.1\cmath ****     cos(_Tp __x)
 197:c:\program files (x86)\gnu tools arm embedded\7 2017-q4-major\arm-none-eabi\include\c++\7.2.1\cmath ****     { return __builtin_cos(__x); }
 198:c:\program files (x86)\gnu tools arm embedded\7 2017-q4-major\arm-none-eabi\include\c++\7.2.1\cmath **** 
 199:c:\program files (x86)\gnu tools arm embedded\7 2017-q4-major\arm-none-eabi\include\c++\7.2.1\cmath ****   using ::cosh;
 200:c:\program files (x86)\gnu tools arm embedded\7 2017-q4-major\arm-none-eabi\include\c++\7.2.1\cmath **** 
 201:c:\program files (x86)\gnu tools arm embedded\7 2017-q4-major\arm-none-eabi\include\c++\7.2.1\cmath **** #ifndef __CORRECT_ISO_CPP_MATH_H_PROTO
 202:c:\program files (x86)\gnu tools arm embedded\7 2017-q4-major\arm-none-eabi\include\c++\7.2.1\cmath ****   inline _GLIBCXX_CONSTEXPR float
 203:c:\program files (x86)\gnu tools arm embedded\7 2017-q4-major\arm-none-eabi\include\c++\7.2.1\cmath ****   cosh(float __x)
 204:c:\program files (x86)\gnu tools arm embedded\7 2017-q4-major\arm-none-eabi\include\c++\7.2.1\cmath ****   { return __builtin_coshf(__x); }
 205:c:\program files (x86)\gnu tools arm embedded\7 2017-q4-major\arm-none-eabi\include\c++\7.2.1\cmath **** 
 206:c:\program files (x86)\gnu tools arm embedded\7 2017-q4-major\arm-none-eabi\include\c++\7.2.1\cmath ****   inline _GLIBCXX_CONSTEXPR long double
 207:c:\program files (x86)\gnu tools arm embedded\7 2017-q4-major\arm-none-eabi\include\c++\7.2.1\cmath ****   cosh(long double __x)
 208:c:\program files (x86)\gnu tools arm embedded\7 2017-q4-major\arm-none-eabi\include\c++\7.2.1\cmath ****   { return __builtin_coshl(__x); }
 209:c:\program files (x86)\gnu tools arm embedded\7 2017-q4-major\arm-none-eabi\include\c++\7.2.1\cmath **** #endif
 210:c:\program files (x86)\gnu tools arm embedded\7 2017-q4-major\arm-none-eabi\include\c++\7.2.1\cmath **** 
 211:c:\program files (x86)\gnu tools arm embedded\7 2017-q4-major\arm-none-eabi\include\c++\7.2.1\cmath ****   template<typename _Tp>
 212:c:\program files (x86)\gnu tools arm embedded\7 2017-q4-major\arm-none-eabi\include\c++\7.2.1\cmath ****     inline _GLIBCXX_CONSTEXPR
 213:c:\program files (x86)\gnu tools arm embedded\7 2017-q4-major\arm-none-eabi\include\c++\7.2.1\cmath ****     typename __gnu_cxx::__enable_if<__is_integer<_Tp>::__value,
 214:c:\program files (x86)\gnu tools arm embedded\7 2017-q4-major\arm-none-eabi\include\c++\7.2.1\cmath ****                                     double>::__type
 215:c:\program files (x86)\gnu tools arm embedded\7 2017-q4-major\arm-none-eabi\include\c++\7.2.1\cmath ****     cosh(_Tp __x)
 216:c:\program files (x86)\gnu tools arm embedded\7 2017-q4-major\arm-none-eabi\include\c++\7.2.1\cmath ****     { return __builtin_cosh(__x); }
 217:c:\program files (x86)\gnu tools arm embedded\7 2017-q4-major\arm-none-eabi\include\c++\7.2.1\cmath **** 
 218:c:\program files (x86)\gnu tools arm embedded\7 2017-q4-major\arm-none-eabi\include\c++\7.2.1\cmath ****   using ::exp;
 219:c:\program files (x86)\gnu tools arm embedded\7 2017-q4-major\arm-none-eabi\include\c++\7.2.1\cmath **** 
 220:c:\program files (x86)\gnu tools arm embedded\7 2017-q4-major\arm-none-eabi\include\c++\7.2.1\cmath **** #ifndef __CORRECT_ISO_CPP_MATH_H_PROTO
 221:c:\program files (x86)\gnu tools arm embedded\7 2017-q4-major\arm-none-eabi\include\c++\7.2.1\cmath ****   inline _GLIBCXX_CONSTEXPR float
 222:c:\program files (x86)\gnu tools arm embedded\7 2017-q4-major\arm-none-eabi\include\c++\7.2.1\cmath ****   exp(float __x)
 223:c:\program files (x86)\gnu tools arm embedded\7 2017-q4-major\arm-none-eabi\include\c++\7.2.1\cmath ****   { return __builtin_expf(__x); }
 224:c:\program files (x86)\gnu tools arm embedded\7 2017-q4-major\arm-none-eabi\include\c++\7.2.1\cmath **** 
 225:c:\program files (x86)\gnu tools arm embedded\7 2017-q4-major\arm-none-eabi\include\c++\7.2.1\cmath ****   inline _GLIBCXX_CONSTEXPR long double
 226:c:\program files (x86)\gnu tools arm embedded\7 2017-q4-major\arm-none-eabi\include\c++\7.2.1\cmath ****   exp(long double __x)
 227:c:\program files (x86)\gnu tools arm embedded\7 2017-q4-major\arm-none-eabi\include\c++\7.2.1\cmath ****   { return __builtin_expl(__x); }
 228:c:\program files (x86)\gnu tools arm embedded\7 2017-q4-major\arm-none-eabi\include\c++\7.2.1\cmath **** #endif
 229:c:\program files (x86)\gnu tools arm embedded\7 2017-q4-major\arm-none-eabi\include\c++\7.2.1\cmath **** 
 230:c:\program files (x86)\gnu tools arm embedded\7 2017-q4-major\arm-none-eabi\include\c++\7.2.1\cmath ****   template<typename _Tp>
 231:c:\program files (x86)\gnu tools arm embedded\7 2017-q4-major\arm-none-eabi\include\c++\7.2.1\cmath ****     inline _GLIBCXX_CONSTEXPR
ARM GAS  C:\Users\Prashant\AppData\Local\Temp\ccrYBTJT.s 			page 9


 232:c:\program files (x86)\gnu tools arm embedded\7 2017-q4-major\arm-none-eabi\include\c++\7.2.1\cmath ****     typename __gnu_cxx::__enable_if<__is_integer<_Tp>::__value,
 233:c:\program files (x86)\gnu tools arm embedded\7 2017-q4-major\arm-none-eabi\include\c++\7.2.1\cmath ****                                     double>::__type
 234:c:\program files (x86)\gnu tools arm embedded\7 2017-q4-major\arm-none-eabi\include\c++\7.2.1\cmath ****     exp(_Tp __x)
 235:c:\program files (x86)\gnu tools arm embedded\7 2017-q4-major\arm-none-eabi\include\c++\7.2.1\cmath ****     { return __builtin_exp(__x); }
 236:c:\program files (x86)\gnu tools arm embedded\7 2017-q4-major\arm-none-eabi\include\c++\7.2.1\cmath **** 
 237:c:\program files (x86)\gnu tools arm embedded\7 2017-q4-major\arm-none-eabi\include\c++\7.2.1\cmath ****   using ::fabs;
 238:c:\program files (x86)\gnu tools arm embedded\7 2017-q4-major\arm-none-eabi\include\c++\7.2.1\cmath **** 
 239:c:\program files (x86)\gnu tools arm embedded\7 2017-q4-major\arm-none-eabi\include\c++\7.2.1\cmath **** #ifndef __CORRECT_ISO_CPP_MATH_H_PROTO
 240:c:\program files (x86)\gnu tools arm embedded\7 2017-q4-major\arm-none-eabi\include\c++\7.2.1\cmath ****   inline _GLIBCXX_CONSTEXPR float
 241:c:\program files (x86)\gnu tools arm embedded\7 2017-q4-major\arm-none-eabi\include\c++\7.2.1\cmath ****   fabs(float __x)
 242:c:\program files (x86)\gnu tools arm embedded\7 2017-q4-major\arm-none-eabi\include\c++\7.2.1\cmath ****   { return __builtin_fabsf(__x); }
 177              		.loc 2 242 0
 178 003e B0EEC00A 		vabs.f32	s0, s0
 179              	.LVL10:
 180              	.LBE11:
 181              	.LBE10:
  53:Core/Src/robot/feed_forward.cpp ****                 }
  54:Core/Src/robot/feed_forward.cpp **** 
  55:Core/Src/robot/feed_forward.cpp ****                 else if ((t > ff->t1 && (t < ff->t2)))
  56:Core/Src/robot/feed_forward.cpp ****                 {
  57:Core/Src/robot/feed_forward.cpp ****                         new_omega = ff->max_omega;
  58:Core/Src/robot/feed_forward.cpp ****                 }
  59:Core/Src/robot/feed_forward.cpp **** 
  60:Core/Src/robot/feed_forward.cpp ****                 else if ((t > ff->t2) && (t < ff->T))
  61:Core/Src/robot/feed_forward.cpp ****                 {
  62:Core/Src/robot/feed_forward.cpp ****                         new_omega = ff->max_omega * (t - ff->T) / (ff->t2 - ff->T);
  63:Core/Src/robot/feed_forward.cpp ****                         //new_omega = ff->max_omega ;
  64:Core/Src/robot/feed_forward.cpp ****                 }
  65:Core/Src/robot/feed_forward.cpp **** 
  66:Core/Src/robot/feed_forward.cpp ****                 else if (fabs(curr_angle) < fabs(ff->max_angle) && t > ff->T)
  67:Core/Src/robot/feed_forward.cpp ****                 {
  68:Core/Src/robot/feed_forward.cpp ****                         new_omega = 3;
  69:Core/Src/robot/feed_forward.cpp ****                 }
  70:Core/Src/robot/feed_forward.cpp **** 
  71:Core/Src/robot/feed_forward.cpp ****                 if (fabs(curr_angle) >= fabs(ff->max_angle))
 182              		.loc 1 71 0
 183 0042 D0ED017A 		vldr.32	s15, [r0, #4]
 184              	.LVL11:
 185              	.LBB12:
 186              	.LBB13:
 187              		.loc 2 242 0
 188 0046 F0EEE77A 		vabs.f32	s15, s15
 189              	.LVL12:
 190              	.LBE13:
 191              	.LBE12:
 192              		.loc 1 71 0
 193 004a B4EEE70A 		vcmpe.f32	s0, s15
 194 004e F1EE10FA 		vmrs	APSR_nzcv, FPSCR
 195 0052 4DDA     		bge	.L41
  72:Core/Src/robot/feed_forward.cpp ****                 {
  73:Core/Src/robot/feed_forward.cpp ****                         ff->status = ffCOMPLETE;
  74:Core/Src/robot/feed_forward.cpp ****                         return 0;
  75:Core/Src/robot/feed_forward.cpp ****                 }
  76:Core/Src/robot/feed_forward.cpp ****                 ff->index++;
 196              		.loc 1 76 0
 197 0054 0133     		adds	r3, r3, #1
 198              	.LVL13:
ARM GAS  C:\Users\Prashant\AppData\Local\Temp\ccrYBTJT.s 			page 10


 199 0056 C362     		str	r3, [r0, #44]
 200              	.LVL14:
  77:Core/Src/robot/feed_forward.cpp ****                 return new_omega * ff->sign_flag;
 201              		.loc 1 77 0
 202 0058 90ED0C0A 		vldr.32	s0, [r0, #48]	@ int
 203 005c B8EEC00A 		vcvt.f32.s32	s0, s0
 204 0060 20EE260A 		vmul.f32	s0, s0, s13
 205 0064 7047     		bx	lr
 206              	.LVL15:
 207              	.L15:
  55:Core/Src/robot/feed_forward.cpp ****                 {
 208              		.loc 1 55 0
 209 0066 90ED057A 		vldr.32	s14, [r0, #20]
 210 006a B4EEE77A 		vcmpe.f32	s14, s15
 211 006e F1EE10FA 		vmrs	APSR_nzcv, FPSCR
 212 0072 09D5     		bpl	.L19
  55:Core/Src/robot/feed_forward.cpp ****                 {
 213              		.loc 1 55 0 is_stmt 0 discriminator 1
 214 0074 90ED067A 		vldr.32	s14, [r0, #24]
 215 0078 B4EEE77A 		vcmpe.f32	s14, s15
 216 007c F1EE10FA 		vmrs	APSR_nzcv, FPSCR
 217 0080 02DD     		ble	.L19
  57:Core/Src/robot/feed_forward.cpp ****                 }
 218              		.loc 1 57 0 is_stmt 1
 219 0082 D0ED006A 		vldr.32	s13, [r0]
 220              	.LVL16:
 221 0086 DAE7     		b	.L18
 222              	.LVL17:
 223              	.L19:
  60:Core/Src/robot/feed_forward.cpp ****                 {
 224              		.loc 1 60 0
 225 0088 90ED067A 		vldr.32	s14, [r0, #24]
 226 008c B4EEE77A 		vcmpe.f32	s14, s15
 227 0090 F1EE10FA 		vmrs	APSR_nzcv, FPSCR
 228 0094 11D5     		bpl	.L22
  60:Core/Src/robot/feed_forward.cpp ****                 {
 229              		.loc 1 60 0 is_stmt 0 discriminator 1
 230 0096 D0ED046A 		vldr.32	s13, [r0, #16]
 231 009a F4EEE76A 		vcmpe.f32	s13, s15
 232 009e F1EE10FA 		vmrs	APSR_nzcv, FPSCR
 233 00a2 0ADD     		ble	.L22
  62:Core/Src/robot/feed_forward.cpp ****                         //new_omega = ff->max_omega ;
 234              		.loc 1 62 0 is_stmt 1
 235 00a4 90ED006A 		vldr.32	s12, [r0]
 236 00a8 77EEE67A 		vsub.f32	s15, s15, s13
 237              	.LVL18:
 238 00ac 66EE277A 		vmul.f32	s15, s12, s15
 239 00b0 37EE667A 		vsub.f32	s14, s14, s13
 240 00b4 C7EE876A 		vdiv.f32	s13, s15, s14
 241              	.LVL19:
 242 00b8 C1E7     		b	.L18
 243              	.LVL20:
 244              	.L22:
 245              	.LBB14:
 246              	.LBB15:
 247              		.loc 2 242 0
 248 00ba F0EEC06A 		vabs.f32	s13, s0
ARM GAS  C:\Users\Prashant\AppData\Local\Temp\ccrYBTJT.s 			page 11


 249              	.LVL21:
 250              	.LBE15:
 251              	.LBE14:
  66:Core/Src/robot/feed_forward.cpp ****                 {
 252              		.loc 1 66 0
 253 00be 90ED017A 		vldr.32	s14, [r0, #4]
 254              	.LVL22:
 255              	.LBB16:
 256              	.LBB17:
 257              		.loc 2 242 0
 258 00c2 B0EEC77A 		vabs.f32	s14, s14
 259              	.LVL23:
 260              	.LBE17:
 261              	.LBE16:
  66:Core/Src/robot/feed_forward.cpp ****                 {
 262              		.loc 1 66 0
 263 00c6 F4EEC76A 		vcmpe.f32	s13, s14
 264 00ca F1EE10FA 		vmrs	APSR_nzcv, FPSCR
 265 00ce 09D5     		bpl	.L39
  66:Core/Src/robot/feed_forward.cpp ****                 {
 266              		.loc 1 66 0 is_stmt 0 discriminator 1
 267 00d0 90ED047A 		vldr.32	s14, [r0, #16]
 268 00d4 B4EEE77A 		vcmpe.f32	s14, s15
 269 00d8 F1EE10FA 		vmrs	APSR_nzcv, FPSCR
 270 00dc 05D4     		bmi	.L30
  45:Core/Src/robot/feed_forward.cpp ****         float t = ff->index * ff->dt;
 271              		.loc 1 45 0 is_stmt 1
 272 00de DFED096A 		vldr.32	s13, .L42
 273 00e2 ACE7     		b	.L18
 274              	.L39:
 275 00e4 DFED076A 		vldr.32	s13, .L42
 276 00e8 A9E7     		b	.L18
 277              	.L30:
  68:Core/Src/robot/feed_forward.cpp ****                 }
 278              		.loc 1 68 0
 279 00ea F0EE086A 		vmov.f32	s13, #3.0e+0
 280 00ee A6E7     		b	.L18
 281              	.LVL24:
 282              	.L41:
  73:Core/Src/robot/feed_forward.cpp ****                         return 0;
 283              		.loc 1 73 0
 284 00f0 0123     		movs	r3, #1
 285              	.LVL25:
 286 00f2 80F83830 		strb	r3, [r0, #56]
  74:Core/Src/robot/feed_forward.cpp ****                 }
 287              		.loc 1 74 0
 288 00f6 9FED030A 		vldr.32	s0, .L42
 289 00fa 7047     		bx	lr
 290              	.LVL26:
 291              	.L28:
  78:Core/Src/robot/feed_forward.cpp ****         }
  79:Core/Src/robot/feed_forward.cpp ****         return 0;
 292              		.loc 1 79 0
 293 00fc 9FED010A 		vldr.32	s0, .L42
 294              	.LVL27:
  80:Core/Src/robot/feed_forward.cpp **** }
 295              		.loc 1 80 0
ARM GAS  C:\Users\Prashant\AppData\Local\Temp\ccrYBTJT.s 			page 12


 296 0100 7047     		bx	lr
 297              	.L43:
 298 0102 00BF     		.align	2
 299              	.L42:
 300 0104 00000000 		.word	0
 301              		.cfi_endproc
 302              	.LFE227:
 304              		.section	.text._Z13ffResetParamsP7feedStr,"ax",%progbits
 305              		.align	1
 306              		.global	_Z13ffResetParamsP7feedStr
 307              		.syntax unified
 308              		.thumb
 309              		.thumb_func
 310              		.fpu fpv4-sp-d16
 312              	_Z13ffResetParamsP7feedStr:
 313              	.LFB229:
  81:Core/Src/robot/feed_forward.cpp **** 
  82:Core/Src/robot/feed_forward.cpp **** void ffRestart(struct feedStr *ff)
  83:Core/Src/robot/feed_forward.cpp **** {
  84:Core/Src/robot/feed_forward.cpp ****         ff->status = ffBUSY;
  85:Core/Src/robot/feed_forward.cpp ****         ffResetParams(ff);
  86:Core/Src/robot/feed_forward.cpp **** }
  87:Core/Src/robot/feed_forward.cpp **** 
  88:Core/Src/robot/feed_forward.cpp **** void ffResetParams(struct feedStr *ff)
  89:Core/Src/robot/feed_forward.cpp **** {
 314              		.loc 1 89 0
 315              		.cfi_startproc
 316              		@ args = 0, pretend = 0, frame = 0
 317              		@ frame_needed = 0, uses_anonymous_args = 0
 318              		@ link register save eliminated.
 319              	.LVL28:
  90:Core/Src/robot/feed_forward.cpp ****         ff->index = 0;
 320              		.loc 1 90 0
 321 0000 0023     		movs	r3, #0
 322 0002 C362     		str	r3, [r0, #44]
  91:Core/Src/robot/feed_forward.cpp **** }
 323              		.loc 1 91 0
 324 0004 7047     		bx	lr
 325              		.cfi_endproc
 326              	.LFE229:
 328              		.section	.text._Z9ffRestartP7feedStr,"ax",%progbits
 329              		.align	1
 330              		.global	_Z9ffRestartP7feedStr
 331              		.syntax unified
 332              		.thumb
 333              		.thumb_func
 334              		.fpu fpv4-sp-d16
 336              	_Z9ffRestartP7feedStr:
 337              	.LFB228:
  83:Core/Src/robot/feed_forward.cpp ****         ff->status = ffBUSY;
 338              		.loc 1 83 0
 339              		.cfi_startproc
 340              		@ args = 0, pretend = 0, frame = 0
 341              		@ frame_needed = 0, uses_anonymous_args = 0
 342              	.LVL29:
 343 0000 08B5     		push	{r3, lr}
 344              	.LCFI0:
ARM GAS  C:\Users\Prashant\AppData\Local\Temp\ccrYBTJT.s 			page 13


 345              		.cfi_def_cfa_offset 8
 346              		.cfi_offset 3, -8
 347              		.cfi_offset 14, -4
  84:Core/Src/robot/feed_forward.cpp ****         ffResetParams(ff);
 348              		.loc 1 84 0
 349 0002 0022     		movs	r2, #0
 350 0004 80F83820 		strb	r2, [r0, #56]
  85:Core/Src/robot/feed_forward.cpp **** }
 351              		.loc 1 85 0
 352 0008 FFF7FEFF 		bl	_Z13ffResetParamsP7feedStr
 353              	.LVL30:
  86:Core/Src/robot/feed_forward.cpp **** 
 354              		.loc 1 86 0
 355 000c 08BD     		pop	{r3, pc}
 356              		.cfi_endproc
 357              	.LFE228:
 359              		.text
 360              	.Letext0:
 361              		.file 3 "c:\\program files (x86)\\gnu tools arm embedded\\7 2017-q4-major\\arm-none-eabi\\include\
 362              		.file 4 "c:\\program files (x86)\\gnu tools arm embedded\\7 2017-q4-major\\arm-none-eabi\\include\
 363              		.file 5 "c:\\program files (x86)\\gnu tools arm embedded\\7 2017-q4-major\\lib\\gcc\\arm-none-eabi
 364              		.file 6 "c:\\program files (x86)\\gnu tools arm embedded\\7 2017-q4-major\\arm-none-eabi\\include\
 365              		.file 7 "Core/Inc/robot/feed_forward.h"
 366              		.file 8 "c:\\program files (x86)\\gnu tools arm embedded\\7 2017-q4-major\\arm-none-eabi\\include\
 367              		.file 9 "c:\\program files (x86)\\gnu tools arm embedded\\7 2017-q4-major\\arm-none-eabi\\include\
 368              		.file 10 "c:\\program files (x86)\\gnu tools arm embedded\\7 2017-q4-major\\arm-none-eabi\\include
 369              		.file 11 "c:\\program files (x86)\\gnu tools arm embedded\\7 2017-q4-major\\arm-none-eabi\\include
 370              		.file 12 "<built-in>"
ARM GAS  C:\Users\Prashant\AppData\Local\Temp\ccrYBTJT.s 			page 14

