ARM GAS  C:\Users\Prashant\AppData\Local\Temp\ccYSBqAg.s 			page 1


   1              		.cpu cortex-m4
   2              		.eabi_attribute 27, 1
   3              		.eabi_attribute 28, 1
   4              		.eabi_attribute 20, 1
   5              		.eabi_attribute 21, 1
   6              		.eabi_attribute 23, 3
   7              		.eabi_attribute 24, 1
   8              		.eabi_attribute 25, 1
   9              		.eabi_attribute 26, 1
  10              		.eabi_attribute 30, 1
  11              		.eabi_attribute 34, 1
  12              		.eabi_attribute 18, 4
  13              		.file	"fsm_tasks.cpp"
  14              		.text
  15              	.Ltext0:
  16              		.cfi_sections	.debug_frame
  17              		.section	.text._Z14phaseOneChoresP6fsmStr,"ax",%progbits
  18              		.align	1
  19              		.global	_Z14phaseOneChoresP6fsmStr
  20              		.syntax unified
  21              		.thumb
  22              		.thumb_func
  23              		.fpu fpv4-sp-d16
  25              	_Z14phaseOneChoresP6fsmStr:
  26              	.LFB137:
  27              		.file 1 "Core/Src/robot/fsm_tasks.cpp"
   1:Core/Src/robot/fsm_tasks.cpp **** /*28-1-2019*/
   2:Core/Src/robot/fsm_tasks.cpp **** 
   3:Core/Src/robot/fsm_tasks.cpp **** #include "fsm_tasks.h"
   4:Core/Src/robot/fsm_tasks.cpp **** #include "robo_states.h"
   5:Core/Src/robot/fsm_tasks.cpp **** 
   6:Core/Src/robot/fsm_tasks.cpp **** #define SINGLE_ANGLE    (40)
   7:Core/Src/robot/fsm_tasks.cpp **** 
   8:Core/Src/robot/fsm_tasks.cpp **** extern State gHorse_State;
   9:Core/Src/robot/fsm_tasks.cpp **** 
  10:Core/Src/robot/fsm_tasks.cpp **** void homePositionChores(struct fsmStr *fsm)
  11:Core/Src/robot/fsm_tasks.cpp **** {
  12:Core/Src/robot/fsm_tasks.cpp ****         setHomePosition();
  13:Core/Src/robot/fsm_tasks.cpp ****         check_N_Stop();
  14:Core/Src/robot/fsm_tasks.cpp **** }
  15:Core/Src/robot/fsm_tasks.cpp **** 
  16:Core/Src/robot/fsm_tasks.cpp **** static uint8_t gIs_First = 1;
  17:Core/Src/robot/fsm_tasks.cpp **** void phaseOneChores(struct fsmStr *fsm)
  18:Core/Src/robot/fsm_tasks.cpp **** {
  28              		.loc 1 18 0
  29              		.cfi_startproc
  30              		@ args = 0, pretend = 0, frame = 0
  31              		@ frame_needed = 0, uses_anonymous_args = 0
  32              	.LVL0:
  33 0000 70B5     		push	{r4, r5, r6, lr}
  34              	.LCFI0:
  35              		.cfi_def_cfa_offset 16
  36              		.cfi_offset 4, -16
  37              		.cfi_offset 5, -12
  38              		.cfi_offset 6, -8
  39              		.cfi_offset 14, -4
  40              	.LVL1:
ARM GAS  C:\Users\Prashant\AppData\Local\Temp\ccYSBqAg.s 			page 2


  41              	.LBB2:
  19:Core/Src/robot/fsm_tasks.cpp ****         uint8_t motor_index = 0;
  20:Core/Src/robot/fsm_tasks.cpp ****         float set_point = 0;
  21:Core/Src/robot/fsm_tasks.cpp **** 
  22:Core/Src/robot/fsm_tasks.cpp ****         for (uint8_t i = 0; i < 4; i++)
  42              		.loc 1 22 0
  43 0002 0024     		movs	r4, #0
  44 0004 14E0     		b	.L6
  45              	.LVL2:
  46              	.L3:
  23:Core/Src/robot/fsm_tasks.cpp ****         {
  24:Core/Src/robot/fsm_tasks.cpp ****                 if (i != motor_index)
  25:Core/Src/robot/fsm_tasks.cpp ****                 {
  26:Core/Src/robot/fsm_tasks.cpp ****                         ffSetAngle(&ff_arr[i], SINGLE_ANGLE);
  27:Core/Src/robot/fsm_tasks.cpp ****                         getAngle(&motor_arr[i]);
  28:Core/Src/robot/fsm_tasks.cpp ****                         getOmega(&motor_arr[i]);
  29:Core/Src/robot/fsm_tasks.cpp **** 
  30:Core/Src/robot/fsm_tasks.cpp ****                         set_point = ffGenerate(&ff_arr[i], motor_arr[i].angle);
  31:Core/Src/robot/fsm_tasks.cpp ****                         motor_arr[i].update_omega = PID_Compute(&pid_arr[i],
  32:Core/Src/robot/fsm_tasks.cpp ****                                                                 set_point,
  33:Core/Src/robot/fsm_tasks.cpp ****                                                                 motor_arr[i].omega,
  34:Core/Src/robot/fsm_tasks.cpp ****                                                                 dt_ms);
  35:Core/Src/robot/fsm_tasks.cpp ****                 }
  36:Core/Src/robot/fsm_tasks.cpp ****                 else if (i == motor_index)
  37:Core/Src/robot/fsm_tasks.cpp ****                 {
  38:Core/Src/robot/fsm_tasks.cpp ****                         if (gIs_First) {
  47              		.loc 1 38 0
  48 0006 234B     		ldr	r3, .L8
  49 0008 1B78     		ldrb	r3, [r3]	@ zero_extendqisi2
  50 000a 002B     		cmp	r3, #0
  51 000c 3AD0     		beq	.L5
  39:Core/Src/robot/fsm_tasks.cpp ****                                 motor_arr[i].update_omega = 0;
  52              		.loc 1 39 0
  53 000e 224A     		ldr	r2, .L8+4
  54 0010 3423     		movs	r3, #52
  55 0012 03FB0423 		mla	r3, r3, r4, r2
  56 0016 0022     		movs	r2, #0
  57 0018 1A61     		str	r2, [r3, #16]	@ float
  40:Core/Src/robot/fsm_tasks.cpp ****                                 int_arr[i].intState = STATE_A;
  58              		.loc 1 40 0
  59 001a 04EB4403 		add	r3, r4, r4, lsl #1
  60 001e 9A00     		lsls	r2, r3, #2
  61 0020 1E4B     		ldr	r3, .L8+8
  62 0022 1344     		add	r3, r3, r2
  63 0024 0022     		movs	r2, #0
  64 0026 9A72     		strb	r2, [r3, #10]
  41:Core/Src/robot/fsm_tasks.cpp ****                                 gIs_First = 0;
  65              		.loc 1 41 0
  66 0028 1A4B     		ldr	r3, .L8
  67 002a 1A70     		strb	r2, [r3]
  68              	.L4:
  22:Core/Src/robot/fsm_tasks.cpp ****         {
  69              		.loc 1 22 0 discriminator 2
  70 002c 0134     		adds	r4, r4, #1
  71              	.LVL3:
  72 002e E4B2     		uxtb	r4, r4
  73              	.LVL4:
ARM GAS  C:\Users\Prashant\AppData\Local\Temp\ccYSBqAg.s 			page 3


  74              	.L6:
  22:Core/Src/robot/fsm_tasks.cpp ****         {
  75              		.loc 1 22 0 is_stmt 0 discriminator 1
  76 0030 032C     		cmp	r4, #3
  77 0032 2ED8     		bhi	.L1
  24:Core/Src/robot/fsm_tasks.cpp ****                 {
  78              		.loc 1 24 0 is_stmt 1
  79 0034 002C     		cmp	r4, #0
  80 0036 E6D0     		beq	.L3
  26:Core/Src/robot/fsm_tasks.cpp ****                         getAngle(&motor_arr[i]);
  81              		.loc 1 26 0
  82 0038 C4EB0413 		rsb	r3, r4, r4, lsl #4
  83 003c 9E00     		lsls	r6, r3, #2
  84 003e 184B     		ldr	r3, .L8+12
  85 0040 1E44     		add	r6, r6, r3
  86 0042 9FED180A 		vldr.32	s0, .L8+16
  87 0046 3046     		mov	r0, r6
  88 0048 FFF7FEFF 		bl	_Z10ffSetAngleP7feedStrf
  89              	.LVL5:
  27:Core/Src/robot/fsm_tasks.cpp ****                         getOmega(&motor_arr[i]);
  90              		.loc 1 27 0
  91 004c 3425     		movs	r5, #52
  92 004e 124B     		ldr	r3, .L8+4
  93 0050 05FB0435 		mla	r5, r5, r4, r3
  94 0054 2846     		mov	r0, r5
  95 0056 FFF7FEFF 		bl	_Z8getAngleP8motorStr
  96              	.LVL6:
  28:Core/Src/robot/fsm_tasks.cpp **** 
  97              		.loc 1 28 0
  98 005a 2846     		mov	r0, r5
  99 005c FFF7FEFF 		bl	_Z8getOmegaP8motorStr
 100              	.LVL7:
  30:Core/Src/robot/fsm_tasks.cpp ****                         motor_arr[i].update_omega = PID_Compute(&pid_arr[i],
 101              		.loc 1 30 0
 102 0060 95ED010A 		vldr.32	s0, [r5, #4]
 103 0064 3046     		mov	r0, r6
 104 0066 FFF7FEFF 		bl	_Z10ffGenerateP7feedStrf
 105              	.LVL8:
  31:Core/Src/robot/fsm_tasks.cpp ****                                                                 set_point,
 106              		.loc 1 31 0
 107 006a C4EBC402 		rsb	r2, r4, r4, lsl #3
 108 006e D300     		lsls	r3, r2, #3
 109 0070 0A21     		movs	r1, #10
 110 0072 D5ED000A 		vldr.32	s1, [r5]
 111 0076 0C48     		ldr	r0, .L8+20
 112 0078 1844     		add	r0, r0, r3
 113 007a FFF7FEFF 		bl	_Z11PID_ComputeP6pidStrfft
 114              	.LVL9:
 115 007e 85ED040A 		vstr.32	s0, [r5, #16]
 116 0082 D3E7     		b	.L4
 117              	.L5:
  42:Core/Src/robot/fsm_tasks.cpp ****                         }
  43:Core/Src/robot/fsm_tasks.cpp ****                         else {
  44:Core/Src/robot/fsm_tasks.cpp ****                                 motor_arr[i].update_omega = HOME_POSITION_OMEGA;
 118              		.loc 1 44 0
 119 0084 044A     		ldr	r2, .L8+4
 120 0086 3423     		movs	r3, #52
ARM GAS  C:\Users\Prashant\AppData\Local\Temp\ccYSBqAg.s 			page 4


 121 0088 03FB0423 		mla	r3, r3, r4, r2
 122 008c 074A     		ldr	r2, .L8+24
 123 008e 1A61     		str	r2, [r3, #16]	@ float
 124 0090 CCE7     		b	.L4
 125              	.L1:
 126              	.LBE2:
  45:Core/Src/robot/fsm_tasks.cpp ****                         }
  46:Core/Src/robot/fsm_tasks.cpp ****                 }
  47:Core/Src/robot/fsm_tasks.cpp ****         }
  48:Core/Src/robot/fsm_tasks.cpp **** }
 127              		.loc 1 48 0
 128 0092 70BD     		pop	{r4, r5, r6, pc}
 129              	.LVL10:
 130              	.L9:
 131              		.align	2
 132              	.L8:
 133 0094 00000000 		.word	.LANCHOR0
 134 0098 00000000 		.word	motor_arr
 135 009c 00000000 		.word	int_arr
 136 00a0 00000000 		.word	ff_arr
 137 00a4 00002042 		.word	1109393408
 138 00a8 00000000 		.word	pid_arr
 139 00ac 000040C0 		.word	-1069547520
 140              		.cfi_endproc
 141              	.LFE137:
 143              		.section	.text._Z14phaseTwoChoresP6fsmStr,"ax",%progbits
 144              		.align	1
 145              		.global	_Z14phaseTwoChoresP6fsmStr
 146              		.syntax unified
 147              		.thumb
 148              		.thumb_func
 149              		.fpu fpv4-sp-d16
 151              	_Z14phaseTwoChoresP6fsmStr:
 152              	.LFB138:
  49:Core/Src/robot/fsm_tasks.cpp **** 
  50:Core/Src/robot/fsm_tasks.cpp **** void phaseTwoChores(struct fsmStr *fsm)
  51:Core/Src/robot/fsm_tasks.cpp **** {
 153              		.loc 1 51 0
 154              		.cfi_startproc
 155              		@ args = 0, pretend = 0, frame = 0
 156              		@ frame_needed = 0, uses_anonymous_args = 0
 157              	.LVL11:
 158 0000 70B5     		push	{r4, r5, r6, lr}
 159              	.LCFI1:
 160              		.cfi_def_cfa_offset 16
 161              		.cfi_offset 4, -16
 162              		.cfi_offset 5, -12
 163              		.cfi_offset 6, -8
 164              		.cfi_offset 14, -4
 165              	.LVL12:
 166              	.LBB3:
  52:Core/Src/robot/fsm_tasks.cpp ****         uint8_t motor_index = 1;
  53:Core/Src/robot/fsm_tasks.cpp ****         float set_point = 0;
  54:Core/Src/robot/fsm_tasks.cpp **** 
  55:Core/Src/robot/fsm_tasks.cpp ****         for (uint8_t i = 0; i < 4; i++)
 167              		.loc 1 55 0
 168 0002 0024     		movs	r4, #0
ARM GAS  C:\Users\Prashant\AppData\Local\Temp\ccYSBqAg.s 			page 5


 169 0004 07E0     		b	.L14
 170              	.LVL13:
 171              	.L12:
  56:Core/Src/robot/fsm_tasks.cpp ****         {
  57:Core/Src/robot/fsm_tasks.cpp ****                 if (i != motor_index)
  58:Core/Src/robot/fsm_tasks.cpp ****                 {
  59:Core/Src/robot/fsm_tasks.cpp ****                         ffSetAngle(&ff_arr[i], SINGLE_ANGLE);
  60:Core/Src/robot/fsm_tasks.cpp **** 
  61:Core/Src/robot/fsm_tasks.cpp ****                         getAngle(&motor_arr[i]);
  62:Core/Src/robot/fsm_tasks.cpp ****                         getOmega(&motor_arr[i]);
  63:Core/Src/robot/fsm_tasks.cpp **** 
  64:Core/Src/robot/fsm_tasks.cpp ****                         set_point = ffGenerate(&ff_arr[i], motor_arr[i].angle);
  65:Core/Src/robot/fsm_tasks.cpp ****                         motor_arr[i].update_omega = PID_Compute(&pid_arr[i],
  66:Core/Src/robot/fsm_tasks.cpp ****                                                                 set_point,
  67:Core/Src/robot/fsm_tasks.cpp ****                                                                 motor_arr[i].omega,
  68:Core/Src/robot/fsm_tasks.cpp ****                                                                 dt_ms);
  69:Core/Src/robot/fsm_tasks.cpp ****                 }
  70:Core/Src/robot/fsm_tasks.cpp ****                 else {
  71:Core/Src/robot/fsm_tasks.cpp ****                         motor_arr[i].update_omega = HOME_POSITION_OMEGA;
 172              		.loc 1 71 0
 173 0006 194A     		ldr	r2, .L16
 174 0008 3423     		movs	r3, #52
 175 000a 03FB0423 		mla	r3, r3, r4, r2
 176 000e 184A     		ldr	r2, .L16+4
 177 0010 1A61     		str	r2, [r3, #16]	@ float
 178              	.L13:
  55:Core/Src/robot/fsm_tasks.cpp ****         {
 179              		.loc 1 55 0 discriminator 2
 180 0012 0134     		adds	r4, r4, #1
 181              	.LVL14:
 182 0014 E4B2     		uxtb	r4, r4
 183              	.LVL15:
 184              	.L14:
  55:Core/Src/robot/fsm_tasks.cpp ****         {
 185              		.loc 1 55 0 is_stmt 0 discriminator 1
 186 0016 032C     		cmp	r4, #3
 187 0018 27D8     		bhi	.L10
  57:Core/Src/robot/fsm_tasks.cpp ****                 {
 188              		.loc 1 57 0 is_stmt 1
 189 001a 012C     		cmp	r4, #1
 190 001c F3D0     		beq	.L12
  59:Core/Src/robot/fsm_tasks.cpp **** 
 191              		.loc 1 59 0
 192 001e C4EB0413 		rsb	r3, r4, r4, lsl #4
 193 0022 9E00     		lsls	r6, r3, #2
 194 0024 134B     		ldr	r3, .L16+8
 195 0026 1E44     		add	r6, r6, r3
 196 0028 9FED130A 		vldr.32	s0, .L16+12
 197 002c 3046     		mov	r0, r6
 198 002e FFF7FEFF 		bl	_Z10ffSetAngleP7feedStrf
 199              	.LVL16:
  61:Core/Src/robot/fsm_tasks.cpp ****                         getOmega(&motor_arr[i]);
 200              		.loc 1 61 0
 201 0032 3425     		movs	r5, #52
 202 0034 0D4B     		ldr	r3, .L16
 203 0036 05FB0435 		mla	r5, r5, r4, r3
 204 003a 2846     		mov	r0, r5
ARM GAS  C:\Users\Prashant\AppData\Local\Temp\ccYSBqAg.s 			page 6


 205 003c FFF7FEFF 		bl	_Z8getAngleP8motorStr
 206              	.LVL17:
  62:Core/Src/robot/fsm_tasks.cpp **** 
 207              		.loc 1 62 0
 208 0040 2846     		mov	r0, r5
 209 0042 FFF7FEFF 		bl	_Z8getOmegaP8motorStr
 210              	.LVL18:
  64:Core/Src/robot/fsm_tasks.cpp ****                         motor_arr[i].update_omega = PID_Compute(&pid_arr[i],
 211              		.loc 1 64 0
 212 0046 95ED010A 		vldr.32	s0, [r5, #4]
 213 004a 3046     		mov	r0, r6
 214 004c FFF7FEFF 		bl	_Z10ffGenerateP7feedStrf
 215              	.LVL19:
  65:Core/Src/robot/fsm_tasks.cpp ****                                                                 set_point,
 216              		.loc 1 65 0
 217 0050 C4EBC402 		rsb	r2, r4, r4, lsl #3
 218 0054 D300     		lsls	r3, r2, #3
 219 0056 0A21     		movs	r1, #10
 220 0058 D5ED000A 		vldr.32	s1, [r5]
 221 005c 0748     		ldr	r0, .L16+16
 222 005e 1844     		add	r0, r0, r3
 223 0060 FFF7FEFF 		bl	_Z11PID_ComputeP6pidStrfft
 224              	.LVL20:
 225 0064 85ED040A 		vstr.32	s0, [r5, #16]
 226 0068 D3E7     		b	.L13
 227              	.L10:
 228              	.LBE3:
  72:Core/Src/robot/fsm_tasks.cpp ****                 }
  73:Core/Src/robot/fsm_tasks.cpp ****         }
  74:Core/Src/robot/fsm_tasks.cpp **** }
 229              		.loc 1 74 0
 230 006a 70BD     		pop	{r4, r5, r6, pc}
 231              	.LVL21:
 232              	.L17:
 233              		.align	2
 234              	.L16:
 235 006c 00000000 		.word	motor_arr
 236 0070 000040C0 		.word	-1069547520
 237 0074 00000000 		.word	ff_arr
 238 0078 00002042 		.word	1109393408
 239 007c 00000000 		.word	pid_arr
 240              		.cfi_endproc
 241              	.LFE138:
 243              		.section	.text._Z16phaseThreeChoresP6fsmStr,"ax",%progbits
 244              		.align	1
 245              		.global	_Z16phaseThreeChoresP6fsmStr
 246              		.syntax unified
 247              		.thumb
 248              		.thumb_func
 249              		.fpu fpv4-sp-d16
 251              	_Z16phaseThreeChoresP6fsmStr:
 252              	.LFB139:
  75:Core/Src/robot/fsm_tasks.cpp **** 
  76:Core/Src/robot/fsm_tasks.cpp **** void phaseThreeChores(struct fsmStr *fsm)
  77:Core/Src/robot/fsm_tasks.cpp **** {
 253              		.loc 1 77 0
 254              		.cfi_startproc
ARM GAS  C:\Users\Prashant\AppData\Local\Temp\ccYSBqAg.s 			page 7


 255              		@ args = 0, pretend = 0, frame = 0
 256              		@ frame_needed = 0, uses_anonymous_args = 0
 257              	.LVL22:
 258 0000 70B5     		push	{r4, r5, r6, lr}
 259              	.LCFI2:
 260              		.cfi_def_cfa_offset 16
 261              		.cfi_offset 4, -16
 262              		.cfi_offset 5, -12
 263              		.cfi_offset 6, -8
 264              		.cfi_offset 14, -4
 265              	.LVL23:
 266              	.LBB4:
  78:Core/Src/robot/fsm_tasks.cpp ****         uint8_t motor_index = 2;
  79:Core/Src/robot/fsm_tasks.cpp ****         float set_point;
  80:Core/Src/robot/fsm_tasks.cpp **** 
  81:Core/Src/robot/fsm_tasks.cpp ****         for (uint8_t i = 0; i < 4; i++)
 267              		.loc 1 81 0
 268 0002 0024     		movs	r4, #0
 269 0004 07E0     		b	.L22
 270              	.LVL24:
 271              	.L20:
  82:Core/Src/robot/fsm_tasks.cpp ****         {
  83:Core/Src/robot/fsm_tasks.cpp ****                 if (i != motor_index)
  84:Core/Src/robot/fsm_tasks.cpp ****                 {
  85:Core/Src/robot/fsm_tasks.cpp ****                         ffSetAngle(&ff_arr[i], SINGLE_ANGLE);
  86:Core/Src/robot/fsm_tasks.cpp **** 
  87:Core/Src/robot/fsm_tasks.cpp ****                         getAngle(&motor_arr[i]);
  88:Core/Src/robot/fsm_tasks.cpp ****                         getOmega(&motor_arr[i]);
  89:Core/Src/robot/fsm_tasks.cpp **** 
  90:Core/Src/robot/fsm_tasks.cpp ****                         set_point = ffGenerate(&ff_arr[i], motor_arr[i].angle);
  91:Core/Src/robot/fsm_tasks.cpp ****                         motor_arr[i].update_omega = PID_Compute(&pid_arr[i],
  92:Core/Src/robot/fsm_tasks.cpp ****                                                                 set_point,
  93:Core/Src/robot/fsm_tasks.cpp ****                                                                 motor_arr[i].omega,
  94:Core/Src/robot/fsm_tasks.cpp ****                                                                 dt_ms);
  95:Core/Src/robot/fsm_tasks.cpp ****                 }
  96:Core/Src/robot/fsm_tasks.cpp ****                 else {
  97:Core/Src/robot/fsm_tasks.cpp ****                         motor_arr[i].update_omega = HOME_POSITION_OMEGA;
 272              		.loc 1 97 0
 273 0006 194A     		ldr	r2, .L24
 274 0008 3423     		movs	r3, #52
 275 000a 03FB0423 		mla	r3, r3, r4, r2
 276 000e 184A     		ldr	r2, .L24+4
 277 0010 1A61     		str	r2, [r3, #16]	@ float
 278              	.L21:
  81:Core/Src/robot/fsm_tasks.cpp ****         {
 279              		.loc 1 81 0 discriminator 2
 280 0012 0134     		adds	r4, r4, #1
 281              	.LVL25:
 282 0014 E4B2     		uxtb	r4, r4
 283              	.LVL26:
 284              	.L22:
  81:Core/Src/robot/fsm_tasks.cpp ****         {
 285              		.loc 1 81 0 is_stmt 0 discriminator 1
 286 0016 032C     		cmp	r4, #3
 287 0018 27D8     		bhi	.L18
  83:Core/Src/robot/fsm_tasks.cpp ****                 {
 288              		.loc 1 83 0 is_stmt 1
ARM GAS  C:\Users\Prashant\AppData\Local\Temp\ccYSBqAg.s 			page 8


 289 001a 022C     		cmp	r4, #2
 290 001c F3D0     		beq	.L20
  85:Core/Src/robot/fsm_tasks.cpp **** 
 291              		.loc 1 85 0
 292 001e C4EB0413 		rsb	r3, r4, r4, lsl #4
 293 0022 9E00     		lsls	r6, r3, #2
 294 0024 134B     		ldr	r3, .L24+8
 295 0026 1E44     		add	r6, r6, r3
 296 0028 9FED130A 		vldr.32	s0, .L24+12
 297 002c 3046     		mov	r0, r6
 298 002e FFF7FEFF 		bl	_Z10ffSetAngleP7feedStrf
 299              	.LVL27:
  87:Core/Src/robot/fsm_tasks.cpp ****                         getOmega(&motor_arr[i]);
 300              		.loc 1 87 0
 301 0032 3425     		movs	r5, #52
 302 0034 0D4B     		ldr	r3, .L24
 303 0036 05FB0435 		mla	r5, r5, r4, r3
 304 003a 2846     		mov	r0, r5
 305 003c FFF7FEFF 		bl	_Z8getAngleP8motorStr
 306              	.LVL28:
  88:Core/Src/robot/fsm_tasks.cpp **** 
 307              		.loc 1 88 0
 308 0040 2846     		mov	r0, r5
 309 0042 FFF7FEFF 		bl	_Z8getOmegaP8motorStr
 310              	.LVL29:
  90:Core/Src/robot/fsm_tasks.cpp ****                         motor_arr[i].update_omega = PID_Compute(&pid_arr[i],
 311              		.loc 1 90 0
 312 0046 95ED010A 		vldr.32	s0, [r5, #4]
 313 004a 3046     		mov	r0, r6
 314 004c FFF7FEFF 		bl	_Z10ffGenerateP7feedStrf
 315              	.LVL30:
  91:Core/Src/robot/fsm_tasks.cpp ****                                                                 set_point,
 316              		.loc 1 91 0
 317 0050 C4EBC402 		rsb	r2, r4, r4, lsl #3
 318 0054 D300     		lsls	r3, r2, #3
 319 0056 0A21     		movs	r1, #10
 320 0058 D5ED000A 		vldr.32	s1, [r5]
 321 005c 0748     		ldr	r0, .L24+16
 322 005e 1844     		add	r0, r0, r3
 323 0060 FFF7FEFF 		bl	_Z11PID_ComputeP6pidStrfft
 324              	.LVL31:
 325 0064 85ED040A 		vstr.32	s0, [r5, #16]
 326 0068 D3E7     		b	.L21
 327              	.L18:
 328              	.LBE4:
  98:Core/Src/robot/fsm_tasks.cpp ****                 }
  99:Core/Src/robot/fsm_tasks.cpp ****         }
 100:Core/Src/robot/fsm_tasks.cpp **** }
 329              		.loc 1 100 0
 330 006a 70BD     		pop	{r4, r5, r6, pc}
 331              	.LVL32:
 332              	.L25:
 333              		.align	2
 334              	.L24:
 335 006c 00000000 		.word	motor_arr
 336 0070 000040C0 		.word	-1069547520
 337 0074 00000000 		.word	ff_arr
ARM GAS  C:\Users\Prashant\AppData\Local\Temp\ccYSBqAg.s 			page 9


 338 0078 00002042 		.word	1109393408
 339 007c 00000000 		.word	pid_arr
 340              		.cfi_endproc
 341              	.LFE139:
 343              		.section	.text._Z15phaseFourChoresP6fsmStr,"ax",%progbits
 344              		.align	1
 345              		.global	_Z15phaseFourChoresP6fsmStr
 346              		.syntax unified
 347              		.thumb
 348              		.thumb_func
 349              		.fpu fpv4-sp-d16
 351              	_Z15phaseFourChoresP6fsmStr:
 352              	.LFB140:
 101:Core/Src/robot/fsm_tasks.cpp **** 
 102:Core/Src/robot/fsm_tasks.cpp **** void phaseFourChores(struct fsmStr *fsm)
 103:Core/Src/robot/fsm_tasks.cpp **** {
 353              		.loc 1 103 0
 354              		.cfi_startproc
 355              		@ args = 0, pretend = 0, frame = 0
 356              		@ frame_needed = 0, uses_anonymous_args = 0
 357              	.LVL33:
 358 0000 70B5     		push	{r4, r5, r6, lr}
 359              	.LCFI3:
 360              		.cfi_def_cfa_offset 16
 361              		.cfi_offset 4, -16
 362              		.cfi_offset 5, -12
 363              		.cfi_offset 6, -8
 364              		.cfi_offset 14, -4
 365              	.LVL34:
 366              	.LBB5:
 104:Core/Src/robot/fsm_tasks.cpp ****         uint8_t motor_index = 3;
 105:Core/Src/robot/fsm_tasks.cpp ****         float set_point;
 106:Core/Src/robot/fsm_tasks.cpp **** 
 107:Core/Src/robot/fsm_tasks.cpp ****         for (uint8_t i = 0; i < 4; i++)
 367              		.loc 1 107 0
 368 0002 0024     		movs	r4, #0
 369 0004 07E0     		b	.L30
 370              	.LVL35:
 371              	.L28:
 108:Core/Src/robot/fsm_tasks.cpp ****         {
 109:Core/Src/robot/fsm_tasks.cpp ****                 if (i != motor_index)
 110:Core/Src/robot/fsm_tasks.cpp ****                 {
 111:Core/Src/robot/fsm_tasks.cpp **** 
 112:Core/Src/robot/fsm_tasks.cpp ****                         ffSetAngle(&ff_arr[i], SINGLE_ANGLE);
 113:Core/Src/robot/fsm_tasks.cpp **** 
 114:Core/Src/robot/fsm_tasks.cpp ****                         getAngle(&motor_arr[i]);
 115:Core/Src/robot/fsm_tasks.cpp ****                         getOmega(&motor_arr[i]);
 116:Core/Src/robot/fsm_tasks.cpp **** 
 117:Core/Src/robot/fsm_tasks.cpp ****                         set_point = ffGenerate(&ff_arr[i], motor_arr[i].angle);
 118:Core/Src/robot/fsm_tasks.cpp ****                         motor_arr[i].update_omega = PID_Compute(&pid_arr[i],
 119:Core/Src/robot/fsm_tasks.cpp ****                                                                 set_point,
 120:Core/Src/robot/fsm_tasks.cpp ****                                                                 motor_arr[i].omega,
 121:Core/Src/robot/fsm_tasks.cpp ****                                                                 dt_ms);
 122:Core/Src/robot/fsm_tasks.cpp ****                 }
 123:Core/Src/robot/fsm_tasks.cpp ****                 else {
 124:Core/Src/robot/fsm_tasks.cpp ****                         motor_arr[i].update_omega = HOME_POSITION_OMEGA;
 372              		.loc 1 124 0
ARM GAS  C:\Users\Prashant\AppData\Local\Temp\ccYSBqAg.s 			page 10


 373 0006 194A     		ldr	r2, .L32
 374 0008 3423     		movs	r3, #52
 375 000a 03FB0423 		mla	r3, r3, r4, r2
 376 000e 184A     		ldr	r2, .L32+4
 377 0010 1A61     		str	r2, [r3, #16]	@ float
 378              	.L29:
 107:Core/Src/robot/fsm_tasks.cpp ****         {
 379              		.loc 1 107 0 discriminator 2
 380 0012 0134     		adds	r4, r4, #1
 381              	.LVL36:
 382 0014 E4B2     		uxtb	r4, r4
 383              	.LVL37:
 384              	.L30:
 107:Core/Src/robot/fsm_tasks.cpp ****         {
 385              		.loc 1 107 0 is_stmt 0 discriminator 1
 386 0016 032C     		cmp	r4, #3
 387 0018 26D8     		bhi	.L26
 109:Core/Src/robot/fsm_tasks.cpp ****                 {
 388              		.loc 1 109 0 is_stmt 1
 389 001a F4D0     		beq	.L28
 112:Core/Src/robot/fsm_tasks.cpp **** 
 390              		.loc 1 112 0
 391 001c C4EB0413 		rsb	r3, r4, r4, lsl #4
 392 0020 9E00     		lsls	r6, r3, #2
 393 0022 144B     		ldr	r3, .L32+8
 394 0024 1E44     		add	r6, r6, r3
 395 0026 9FED140A 		vldr.32	s0, .L32+12
 396 002a 3046     		mov	r0, r6
 397 002c FFF7FEFF 		bl	_Z10ffSetAngleP7feedStrf
 398              	.LVL38:
 114:Core/Src/robot/fsm_tasks.cpp ****                         getOmega(&motor_arr[i]);
 399              		.loc 1 114 0
 400 0030 3425     		movs	r5, #52
 401 0032 0E4B     		ldr	r3, .L32
 402 0034 05FB0435 		mla	r5, r5, r4, r3
 403 0038 2846     		mov	r0, r5
 404 003a FFF7FEFF 		bl	_Z8getAngleP8motorStr
 405              	.LVL39:
 115:Core/Src/robot/fsm_tasks.cpp **** 
 406              		.loc 1 115 0
 407 003e 2846     		mov	r0, r5
 408 0040 FFF7FEFF 		bl	_Z8getOmegaP8motorStr
 409              	.LVL40:
 117:Core/Src/robot/fsm_tasks.cpp ****                         motor_arr[i].update_omega = PID_Compute(&pid_arr[i],
 410              		.loc 1 117 0
 411 0044 95ED010A 		vldr.32	s0, [r5, #4]
 412 0048 3046     		mov	r0, r6
 413 004a FFF7FEFF 		bl	_Z10ffGenerateP7feedStrf
 414              	.LVL41:
 118:Core/Src/robot/fsm_tasks.cpp ****                                                                 set_point,
 415              		.loc 1 118 0
 416 004e C4EBC402 		rsb	r2, r4, r4, lsl #3
 417 0052 D300     		lsls	r3, r2, #3
 418 0054 0A21     		movs	r1, #10
 419 0056 D5ED000A 		vldr.32	s1, [r5]
 420 005a 0848     		ldr	r0, .L32+16
 421 005c 1844     		add	r0, r0, r3
ARM GAS  C:\Users\Prashant\AppData\Local\Temp\ccYSBqAg.s 			page 11


 422 005e FFF7FEFF 		bl	_Z11PID_ComputeP6pidStrfft
 423              	.LVL42:
 424 0062 85ED040A 		vstr.32	s0, [r5, #16]
 425 0066 D4E7     		b	.L29
 426              	.L26:
 427              	.LBE5:
 125:Core/Src/robot/fsm_tasks.cpp ****                 }
 126:Core/Src/robot/fsm_tasks.cpp ****         }
 127:Core/Src/robot/fsm_tasks.cpp **** }
 428              		.loc 1 127 0
 429 0068 70BD     		pop	{r4, r5, r6, pc}
 430              	.LVL43:
 431              	.L33:
 432 006a 00BF     		.align	2
 433              	.L32:
 434 006c 00000000 		.word	motor_arr
 435 0070 000040C0 		.word	-1069547520
 436 0074 00000000 		.word	ff_arr
 437 0078 00002042 		.word	1109393408
 438 007c 00000000 		.word	pid_arr
 439              		.cfi_endproc
 440              	.LFE140:
 442              		.section	.text._Z15setHomePositionv,"ax",%progbits
 443              		.align	1
 444              		.global	_Z15setHomePositionv
 445              		.syntax unified
 446              		.thumb
 447              		.thumb_func
 448              		.fpu fpv4-sp-d16
 450              	_Z15setHomePositionv:
 451              	.LFB141:
 128:Core/Src/robot/fsm_tasks.cpp **** 
 129:Core/Src/robot/fsm_tasks.cpp **** void setHomePosition(void)
 130:Core/Src/robot/fsm_tasks.cpp **** {
 452              		.loc 1 130 0
 453              		.cfi_startproc
 454              		@ args = 0, pretend = 0, frame = 0
 455              		@ frame_needed = 0, uses_anonymous_args = 0
 456 0000 10B5     		push	{r4, lr}
 457              	.LCFI4:
 458              		.cfi_def_cfa_offset 8
 459              		.cfi_offset 4, -8
 460              		.cfi_offset 14, -4
 131:Core/Src/robot/fsm_tasks.cpp ****         setDutyCycle(&balance_motor, 65535);
 461              		.loc 1 131 0
 462 0002 0B4C     		ldr	r4, .L38
 463 0004 4FF6FF71 		movw	r1, #65535
 464 0008 2046     		mov	r0, r4
 465 000a FFF7FEFF 		bl	_Z12setDutyCycleP8motorStrt
 466              	.LVL44:
 132:Core/Src/robot/fsm_tasks.cpp ****         setDirection(&balance_motor, DIR_ANTICLOCKWISE);
 467              		.loc 1 132 0
 468 000e 0121     		movs	r1, #1
 469 0010 2046     		mov	r0, r4
 470 0012 FFF7FEFF 		bl	_Z12setDirectionP8motorStr14motorDirection
 471              	.LVL45:
 472              	.LBB6:
ARM GAS  C:\Users\Prashant\AppData\Local\Temp\ccYSBqAg.s 			page 12


 133:Core/Src/robot/fsm_tasks.cpp **** 
 134:Core/Src/robot/fsm_tasks.cpp ****         for (uint8_t i = 0; i < 4; i++)
 473              		.loc 1 134 0
 474 0016 0023     		movs	r3, #0
 475              	.LVL46:
 476              	.L36:
 477              		.loc 1 134 0 is_stmt 0 discriminator 3
 478 0018 032B     		cmp	r3, #3
 479 001a 08D8     		bhi	.L34
 135:Core/Src/robot/fsm_tasks.cpp ****         {
 136:Core/Src/robot/fsm_tasks.cpp ****                 motor_arr[i].update_omega = HOME_POSITION_OMEGA;
 480              		.loc 1 136 0 is_stmt 1 discriminator 2
 481 001c 0549     		ldr	r1, .L38+4
 482 001e 3422     		movs	r2, #52
 483 0020 02FB0312 		mla	r2, r2, r3, r1
 484 0024 0449     		ldr	r1, .L38+8
 485 0026 1161     		str	r1, [r2, #16]	@ float
 134:Core/Src/robot/fsm_tasks.cpp ****         {
 486              		.loc 1 134 0 discriminator 2
 487 0028 0133     		adds	r3, r3, #1
 488              	.LVL47:
 489 002a DBB2     		uxtb	r3, r3
 490              	.LVL48:
 491 002c F4E7     		b	.L36
 492              	.L34:
 493              	.LBE6:
 137:Core/Src/robot/fsm_tasks.cpp ****         }
 138:Core/Src/robot/fsm_tasks.cpp **** }
 494              		.loc 1 138 0
 495 002e 10BD     		pop	{r4, pc}
 496              	.L39:
 497              		.align	2
 498              	.L38:
 499 0030 00000000 		.word	balance_motor
 500 0034 00000000 		.word	motor_arr
 501 0038 000040C0 		.word	-1069547520
 502              		.cfi_endproc
 503              	.LFE141:
 505              		.section	.text._Z12check_N_Stopv,"ax",%progbits
 506              		.align	1
 507              		.global	_Z12check_N_Stopv
 508              		.syntax unified
 509              		.thumb
 510              		.thumb_func
 511              		.fpu fpv4-sp-d16
 513              	_Z12check_N_Stopv:
 514              	.LFB142:
 139:Core/Src/robot/fsm_tasks.cpp **** 
 140:Core/Src/robot/fsm_tasks.cpp **** void check_N_Stop(void)
 141:Core/Src/robot/fsm_tasks.cpp **** {
 515              		.loc 1 141 0
 516              		.cfi_startproc
 517              		@ args = 0, pretend = 0, frame = 0
 518              		@ frame_needed = 0, uses_anonymous_args = 0
 519              		@ link register save eliminated.
 520              	.LVL49:
 521              	.LBB7:
ARM GAS  C:\Users\Prashant\AppData\Local\Temp\ccYSBqAg.s 			page 13


 142:Core/Src/robot/fsm_tasks.cpp ****         for (uint8_t i = 0; i < 4; i++)
 522              		.loc 1 142 0
 523 0000 0023     		movs	r3, #0
 524 0002 01E0     		b	.L43
 525              	.LVL50:
 526              	.L42:
 527              		.loc 1 142 0 is_stmt 0 discriminator 2
 528 0004 0133     		adds	r3, r3, #1
 529              	.LVL51:
 530 0006 DBB2     		uxtb	r3, r3
 531              	.LVL52:
 532              	.L43:
 533              		.loc 1 142 0 discriminator 1
 534 0008 032B     		cmp	r3, #3
 535 000a 13D8     		bhi	.L40
 143:Core/Src/robot/fsm_tasks.cpp ****         {
 144:Core/Src/robot/fsm_tasks.cpp ****                 if (int_arr[i].fhome_pos)
 536              		.loc 1 144 0 is_stmt 1
 537 000c 03EB4302 		add	r2, r3, r3, lsl #1
 538 0010 9100     		lsls	r1, r2, #2
 539 0012 094A     		ldr	r2, .L44
 540 0014 0A44     		add	r2, r2, r1
 541 0016 5278     		ldrb	r2, [r2, #1]	@ zero_extendqisi2
 542 0018 002A     		cmp	r2, #0
 543 001a F3D0     		beq	.L42
 145:Core/Src/robot/fsm_tasks.cpp ****                 {
 146:Core/Src/robot/fsm_tasks.cpp ****                         motor_arr[i].update_omega = 0;
 544              		.loc 1 146 0
 545 001c 0749     		ldr	r1, .L44+4
 546 001e 3422     		movs	r2, #52
 547 0020 02FB0312 		mla	r2, r2, r3, r1
 548 0024 0021     		movs	r1, #0
 549 0026 1161     		str	r1, [r2, #16]	@ float
 147:Core/Src/robot/fsm_tasks.cpp ****                         // resetAngle(&motor_arr[i]);
 148:Core/Src/robot/fsm_tasks.cpp ****                         motor_arr[i].encoder->htim->Instance->CNT = 0;
 550              		.loc 1 148 0
 551 0028 126B     		ldr	r2, [r2, #48]
 552 002a D268     		ldr	r2, [r2, #12]
 553 002c 1268     		ldr	r2, [r2]
 554 002e 0021     		movs	r1, #0
 555 0030 5162     		str	r1, [r2, #36]
 556 0032 E7E7     		b	.L42
 557              	.L40:
 558              	.LBE7:
 149:Core/Src/robot/fsm_tasks.cpp ****                 }
 150:Core/Src/robot/fsm_tasks.cpp ****         }
 151:Core/Src/robot/fsm_tasks.cpp ****         // if (blnc_int_arr[2].fhome_pos == 1)
 152:Core/Src/robot/fsm_tasks.cpp ****         // {
 153:Core/Src/robot/fsm_tasks.cpp ****         //         setDutyCycle(&balance_motor, 0);
 154:Core/Src/robot/fsm_tasks.cpp ****         // }
 155:Core/Src/robot/fsm_tasks.cpp **** }
 559              		.loc 1 155 0
 560 0034 7047     		bx	lr
 561              	.L45:
 562 0036 00BF     		.align	2
 563              	.L44:
 564 0038 00000000 		.word	int_arr
ARM GAS  C:\Users\Prashant\AppData\Local\Temp\ccYSBqAg.s 			page 14


 565 003c 00000000 		.word	motor_arr
 566              		.cfi_endproc
 567              	.LFE142:
 569              		.section	.text._Z18homePositionChoresP6fsmStr,"ax",%progbits
 570              		.align	1
 571              		.global	_Z18homePositionChoresP6fsmStr
 572              		.syntax unified
 573              		.thumb
 574              		.thumb_func
 575              		.fpu fpv4-sp-d16
 577              	_Z18homePositionChoresP6fsmStr:
 578              	.LFB136:
  11:Core/Src/robot/fsm_tasks.cpp ****         setHomePosition();
 579              		.loc 1 11 0
 580              		.cfi_startproc
 581              		@ args = 0, pretend = 0, frame = 0
 582              		@ frame_needed = 0, uses_anonymous_args = 0
 583              	.LVL53:
 584 0000 08B5     		push	{r3, lr}
 585              	.LCFI5:
 586              		.cfi_def_cfa_offset 8
 587              		.cfi_offset 3, -8
 588              		.cfi_offset 14, -4
  12:Core/Src/robot/fsm_tasks.cpp ****         check_N_Stop();
 589              		.loc 1 12 0
 590 0002 FFF7FEFF 		bl	_Z15setHomePositionv
 591              	.LVL54:
  13:Core/Src/robot/fsm_tasks.cpp **** }
 592              		.loc 1 13 0
 593 0006 FFF7FEFF 		bl	_Z12check_N_Stopv
 594              	.LVL55:
  14:Core/Src/robot/fsm_tasks.cpp **** 
 595              		.loc 1 14 0
 596 000a 08BD     		pop	{r3, pc}
 597              		.cfi_endproc
 598              	.LFE136:
 600              		.section	.text._Z12updateOmegasv,"ax",%progbits
 601              		.align	1
 602              		.global	_Z12updateOmegasv
 603              		.syntax unified
 604              		.thumb
 605              		.thumb_func
 606              		.fpu fpv4-sp-d16
 608              	_Z12updateOmegasv:
 609              	.LFB143:
 156:Core/Src/robot/fsm_tasks.cpp **** 
 157:Core/Src/robot/fsm_tasks.cpp **** void updateOmegas(void)
 158:Core/Src/robot/fsm_tasks.cpp **** {
 610              		.loc 1 158 0
 611              		.cfi_startproc
 612              		@ args = 0, pretend = 0, frame = 0
 613              		@ frame_needed = 0, uses_anonymous_args = 0
 614 0000 10B5     		push	{r4, lr}
 615              	.LCFI6:
 616              		.cfi_def_cfa_offset 8
 617              		.cfi_offset 4, -8
 618              		.cfi_offset 14, -4
ARM GAS  C:\Users\Prashant\AppData\Local\Temp\ccYSBqAg.s 			page 15


 619              	.LVL56:
 620              	.LBB8:
 159:Core/Src/robot/fsm_tasks.cpp ****         for (uint8_t i = 0; i < 4; i++)
 621              		.loc 1 159 0
 622 0002 0024     		movs	r4, #0
 623              	.LVL57:
 624              	.L50:
 625              		.loc 1 159 0 is_stmt 0 discriminator 3
 626 0004 032C     		cmp	r4, #3
 627 0006 0AD8     		bhi	.L48
 160:Core/Src/robot/fsm_tasks.cpp ****         {
 161:Core/Src/robot/fsm_tasks.cpp ****                 setOmega(&motor_arr[i], motor_arr[i].update_omega);
 628              		.loc 1 161 0 is_stmt 1 discriminator 2
 629 0008 054B     		ldr	r3, .L52
 630 000a 3420     		movs	r0, #52
 631 000c 00FB0430 		mla	r0, r0, r4, r3
 632 0010 90ED040A 		vldr.32	s0, [r0, #16]
 633 0014 FFF7FEFF 		bl	_Z8setOmegaP8motorStrf
 634              	.LVL58:
 159:Core/Src/robot/fsm_tasks.cpp ****         for (uint8_t i = 0; i < 4; i++)
 635              		.loc 1 159 0 discriminator 2
 636 0018 0134     		adds	r4, r4, #1
 637              	.LVL59:
 638 001a E4B2     		uxtb	r4, r4
 639              	.LVL60:
 640 001c F2E7     		b	.L50
 641              	.L48:
 642              	.LBE8:
 162:Core/Src/robot/fsm_tasks.cpp ****         }
 163:Core/Src/robot/fsm_tasks.cpp **** }
 643              		.loc 1 163 0
 644 001e 10BD     		pop	{r4, pc}
 645              	.LVL61:
 646              	.L53:
 647              		.align	2
 648              	.L52:
 649 0020 00000000 		.word	motor_arr
 650              		.cfi_endproc
 651              	.LFE143:
 653              		.section	.text._Z11resetAnglesv,"ax",%progbits
 654              		.align	1
 655              		.global	_Z11resetAnglesv
 656              		.syntax unified
 657              		.thumb
 658              		.thumb_func
 659              		.fpu fpv4-sp-d16
 661              	_Z11resetAnglesv:
 662              	.LFB144:
 164:Core/Src/robot/fsm_tasks.cpp **** 
 165:Core/Src/robot/fsm_tasks.cpp **** void resetAngles(void)
 166:Core/Src/robot/fsm_tasks.cpp **** {
 663              		.loc 1 166 0
 664              		.cfi_startproc
 665              		@ args = 0, pretend = 0, frame = 0
 666              		@ frame_needed = 0, uses_anonymous_args = 0
 667 0000 10B5     		push	{r4, lr}
 668              	.LCFI7:
ARM GAS  C:\Users\Prashant\AppData\Local\Temp\ccYSBqAg.s 			page 16


 669              		.cfi_def_cfa_offset 8
 670              		.cfi_offset 4, -8
 671              		.cfi_offset 14, -4
 672              	.LVL62:
 673              	.LBB9:
 167:Core/Src/robot/fsm_tasks.cpp ****         for (uint8_t i = 0; i < 4; i++)
 674              		.loc 1 167 0
 675 0002 0024     		movs	r4, #0
 676              	.LVL63:
 677              	.L56:
 678              		.loc 1 167 0 is_stmt 0 discriminator 3
 679 0004 032C     		cmp	r4, #3
 680 0006 08D8     		bhi	.L54
 168:Core/Src/robot/fsm_tasks.cpp ****         {
 169:Core/Src/robot/fsm_tasks.cpp ****                 resetAngle(&motor_arr[i]);
 681              		.loc 1 169 0 is_stmt 1 discriminator 2
 682 0008 3420     		movs	r0, #52
 683 000a 044B     		ldr	r3, .L58
 684 000c 00FB0430 		mla	r0, r0, r4, r3
 685 0010 FFF7FEFF 		bl	_Z10resetAngleP8motorStr
 686              	.LVL64:
 167:Core/Src/robot/fsm_tasks.cpp ****         for (uint8_t i = 0; i < 4; i++)
 687              		.loc 1 167 0 discriminator 2
 688 0014 0134     		adds	r4, r4, #1
 689              	.LVL65:
 690 0016 E4B2     		uxtb	r4, r4
 691              	.LVL66:
 692 0018 F4E7     		b	.L56
 693              	.L54:
 694              	.LBE9:
 170:Core/Src/robot/fsm_tasks.cpp ****         }
 171:Core/Src/robot/fsm_tasks.cpp **** }
 695              		.loc 1 171 0
 696 001a 10BD     		pop	{r4, pc}
 697              	.LVL67:
 698              	.L59:
 699              		.align	2
 700              	.L58:
 701 001c 00000000 		.word	motor_arr
 702              		.cfi_endproc
 703              	.LFE144:
 705              		.section	.text._Z8resetPIDv,"ax",%progbits
 706              		.align	1
 707              		.global	_Z8resetPIDv
 708              		.syntax unified
 709              		.thumb
 710              		.thumb_func
 711              		.fpu fpv4-sp-d16
 713              	_Z8resetPIDv:
 714              	.LFB145:
 172:Core/Src/robot/fsm_tasks.cpp **** 
 173:Core/Src/robot/fsm_tasks.cpp **** void resetPID(void)
 174:Core/Src/robot/fsm_tasks.cpp **** {
 715              		.loc 1 174 0
 716              		.cfi_startproc
 717              		@ args = 0, pretend = 0, frame = 0
 718              		@ frame_needed = 0, uses_anonymous_args = 0
ARM GAS  C:\Users\Prashant\AppData\Local\Temp\ccYSBqAg.s 			page 17


 719 0000 10B5     		push	{r4, lr}
 720              	.LCFI8:
 721              		.cfi_def_cfa_offset 8
 722              		.cfi_offset 4, -8
 723              		.cfi_offset 14, -4
 724              	.LVL68:
 725              	.LBB10:
 175:Core/Src/robot/fsm_tasks.cpp ****         for (uint8_t i = 0; i < 4; i++)
 726              		.loc 1 175 0
 727 0002 0024     		movs	r4, #0
 728              	.LVL69:
 729              	.L62:
 730              		.loc 1 175 0 is_stmt 0 discriminator 3
 731 0004 032C     		cmp	r4, #3
 732 0006 09D8     		bhi	.L60
 176:Core/Src/robot/fsm_tasks.cpp ****         {
 177:Core/Src/robot/fsm_tasks.cpp ****                 PID_resetParams(&pid_arr[i]);
 733              		.loc 1 177 0 is_stmt 1 discriminator 2
 734 0008 C4EBC402 		rsb	r2, r4, r4, lsl #3
 735 000c D300     		lsls	r3, r2, #3
 736 000e 0448     		ldr	r0, .L64
 737 0010 1844     		add	r0, r0, r3
 738 0012 FFF7FEFF 		bl	_Z15PID_resetParamsP6pidStr
 739              	.LVL70:
 175:Core/Src/robot/fsm_tasks.cpp ****         for (uint8_t i = 0; i < 4; i++)
 740              		.loc 1 175 0 discriminator 2
 741 0016 0134     		adds	r4, r4, #1
 742              	.LVL71:
 743 0018 E4B2     		uxtb	r4, r4
 744              	.LVL72:
 745 001a F3E7     		b	.L62
 746              	.L60:
 747              	.LBE10:
 178:Core/Src/robot/fsm_tasks.cpp ****         }
 179:Core/Src/robot/fsm_tasks.cpp **** }
 748              		.loc 1 179 0
 749 001c 10BD     		pop	{r4, pc}
 750              	.LVL73:
 751              	.L65:
 752 001e 00BF     		.align	2
 753              	.L64:
 754 0020 00000000 		.word	pid_arr
 755              		.cfi_endproc
 756              	.LFE145:
 758              		.section	.text._Z10omegaResetv,"ax",%progbits
 759              		.align	1
 760              		.global	_Z10omegaResetv
 761              		.syntax unified
 762              		.thumb
 763              		.thumb_func
 764              		.fpu fpv4-sp-d16
 766              	_Z10omegaResetv:
 767              	.LFB147:
 180:Core/Src/robot/fsm_tasks.cpp **** 
 181:Core/Src/robot/fsm_tasks.cpp **** void stateReset()
 182:Core/Src/robot/fsm_tasks.cpp **** {
 183:Core/Src/robot/fsm_tasks.cpp ****         resetPID();
ARM GAS  C:\Users\Prashant\AppData\Local\Temp\ccYSBqAg.s 			page 18


 184:Core/Src/robot/fsm_tasks.cpp ****         resetAngles();
 185:Core/Src/robot/fsm_tasks.cpp ****         omegaReset();
 186:Core/Src/robot/fsm_tasks.cpp ****         resetIntState();
 187:Core/Src/robot/fsm_tasks.cpp ****         feedForwardRestart();
 188:Core/Src/robot/fsm_tasks.cpp **** }
 189:Core/Src/robot/fsm_tasks.cpp **** 
 190:Core/Src/robot/fsm_tasks.cpp **** void omegaReset(void)
 191:Core/Src/robot/fsm_tasks.cpp **** {
 768              		.loc 1 191 0
 769              		.cfi_startproc
 770              		@ args = 0, pretend = 0, frame = 0
 771              		@ frame_needed = 0, uses_anonymous_args = 0
 772              		@ link register save eliminated.
 773              	.LVL74:
 774              	.LBB11:
 192:Core/Src/robot/fsm_tasks.cpp ****         for (uint8_t i = 0; i < 4; i++)
 775              		.loc 1 192 0
 776 0000 0023     		movs	r3, #0
 777              	.LVL75:
 778              	.L68:
 779              		.loc 1 192 0 is_stmt 0 discriminator 3
 780 0002 032B     		cmp	r3, #3
 781 0004 08D8     		bhi	.L66
 193:Core/Src/robot/fsm_tasks.cpp ****         {
 194:Core/Src/robot/fsm_tasks.cpp ****                 motor_arr[i].update_omega = 0;
 782              		.loc 1 194 0 is_stmt 1 discriminator 2
 783 0006 0549     		ldr	r1, .L69
 784 0008 3422     		movs	r2, #52
 785 000a 02FB0312 		mla	r2, r2, r3, r1
 786 000e 0021     		movs	r1, #0
 787 0010 1161     		str	r1, [r2, #16]	@ float
 192:Core/Src/robot/fsm_tasks.cpp ****         for (uint8_t i = 0; i < 4; i++)
 788              		.loc 1 192 0 discriminator 2
 789 0012 0133     		adds	r3, r3, #1
 790              	.LVL76:
 791 0014 DBB2     		uxtb	r3, r3
 792              	.LVL77:
 793 0016 F4E7     		b	.L68
 794              	.L66:
 795              	.LBE11:
 195:Core/Src/robot/fsm_tasks.cpp ****         }
 196:Core/Src/robot/fsm_tasks.cpp **** }
 796              		.loc 1 196 0
 797 0018 7047     		bx	lr
 798              	.L70:
 799 001a 00BF     		.align	2
 800              	.L69:
 801 001c 00000000 		.word	motor_arr
 802              		.cfi_endproc
 803              	.LFE147:
 805              		.section	.text._Z18feedForwardRestartv,"ax",%progbits
 806              		.align	1
 807              		.global	_Z18feedForwardRestartv
 808              		.syntax unified
 809              		.thumb
 810              		.thumb_func
 811              		.fpu fpv4-sp-d16
ARM GAS  C:\Users\Prashant\AppData\Local\Temp\ccYSBqAg.s 			page 19


 813              	_Z18feedForwardRestartv:
 814              	.LFB148:
 197:Core/Src/robot/fsm_tasks.cpp **** 
 198:Core/Src/robot/fsm_tasks.cpp **** void feedForwardRestart(void)
 199:Core/Src/robot/fsm_tasks.cpp **** {
 815              		.loc 1 199 0
 816              		.cfi_startproc
 817              		@ args = 0, pretend = 0, frame = 0
 818              		@ frame_needed = 0, uses_anonymous_args = 0
 819 0000 10B5     		push	{r4, lr}
 820              	.LCFI9:
 821              		.cfi_def_cfa_offset 8
 822              		.cfi_offset 4, -8
 823              		.cfi_offset 14, -4
 824              	.LVL78:
 825              	.LBB12:
 200:Core/Src/robot/fsm_tasks.cpp ****         for (uint8_t i = 0; i < 4; i++)
 826              		.loc 1 200 0
 827 0002 0024     		movs	r4, #0
 828              	.LVL79:
 829              	.L73:
 830              		.loc 1 200 0 is_stmt 0 discriminator 3
 831 0004 032C     		cmp	r4, #3
 832 0006 09D8     		bhi	.L71
 201:Core/Src/robot/fsm_tasks.cpp ****         {
 202:Core/Src/robot/fsm_tasks.cpp ****                 ffRestart(&ff_arr[i]);
 833              		.loc 1 202 0 is_stmt 1 discriminator 2
 834 0008 C4EB0412 		rsb	r2, r4, r4, lsl #4
 835 000c 9300     		lsls	r3, r2, #2
 836 000e 0448     		ldr	r0, .L75
 837 0010 1844     		add	r0, r0, r3
 838 0012 FFF7FEFF 		bl	_Z9ffRestartP7feedStr
 839              	.LVL80:
 200:Core/Src/robot/fsm_tasks.cpp ****         for (uint8_t i = 0; i < 4; i++)
 840              		.loc 1 200 0 discriminator 2
 841 0016 0134     		adds	r4, r4, #1
 842              	.LVL81:
 843 0018 E4B2     		uxtb	r4, r4
 844              	.LVL82:
 845 001a F3E7     		b	.L73
 846              	.L71:
 847              	.LBE12:
 203:Core/Src/robot/fsm_tasks.cpp ****         }
 204:Core/Src/robot/fsm_tasks.cpp **** }
 848              		.loc 1 204 0
 849 001c 10BD     		pop	{r4, pc}
 850              	.LVL83:
 851              	.L76:
 852 001e 00BF     		.align	2
 853              	.L75:
 854 0020 00000000 		.word	ff_arr
 855              		.cfi_endproc
 856              	.LFE148:
 858              		.section	.text._Z13resetIntStatev,"ax",%progbits
 859              		.align	1
 860              		.global	_Z13resetIntStatev
 861              		.syntax unified
ARM GAS  C:\Users\Prashant\AppData\Local\Temp\ccYSBqAg.s 			page 20


 862              		.thumb
 863              		.thumb_func
 864              		.fpu fpv4-sp-d16
 866              	_Z13resetIntStatev:
 867              	.LFB149:
 205:Core/Src/robot/fsm_tasks.cpp **** 
 206:Core/Src/robot/fsm_tasks.cpp **** void resetIntState()
 207:Core/Src/robot/fsm_tasks.cpp **** {
 868              		.loc 1 207 0
 869              		.cfi_startproc
 870              		@ args = 0, pretend = 0, frame = 0
 871              		@ frame_needed = 0, uses_anonymous_args = 0
 872 0000 08B5     		push	{r3, lr}
 873              	.LCFI10:
 874              		.cfi_def_cfa_offset 8
 875              		.cfi_offset 3, -8
 876              		.cfi_offset 14, -4
 208:Core/Src/robot/fsm_tasks.cpp ****         switch(gHorse_State.get_ID())
 877              		.loc 1 208 0
 878 0002 1948     		ldr	r0, .L85
 879 0004 FFF7FEFF 		bl	_ZN5State6get_IDEv
 880              	.LVL84:
 881 0008 0138     		subs	r0, r0, #1
 882 000a 0328     		cmp	r0, #3
 883 000c 0CD8     		bhi	.L77
 884 000e DFE800F0 		tbb	[pc, r0]
 885              	.L80:
 886 0012 02       		.byte	(.L79-.L80)/2
 887 0013 0C       		.byte	(.L81-.L80)/2
 888 0014 16       		.byte	(.L82-.L80)/2
 889 0015 20       		.byte	(.L83-.L80)/2
 890              		.p2align 1
 891              	.L79:
 209:Core/Src/robot/fsm_tasks.cpp ****         {
 210:Core/Src/robot/fsm_tasks.cpp ****                 case State_ID::HOME:
 211:Core/Src/robot/fsm_tasks.cpp ****                         break;
 212:Core/Src/robot/fsm_tasks.cpp **** 
 213:Core/Src/robot/fsm_tasks.cpp **** 
 214:Core/Src/robot/fsm_tasks.cpp ****                 case State_ID::WS1:
 215:Core/Src/robot/fsm_tasks.cpp ****                         int_arr[0].intState = STATE_B;
 892              		.loc 1 215 0
 893 0016 154B     		ldr	r3, .L85+4
 894 0018 0122     		movs	r2, #1
 895 001a 9A72     		strb	r2, [r3, #10]
 216:Core/Src/robot/fsm_tasks.cpp ****                         int_arr[1].intState = STATE_A;
 896              		.loc 1 216 0
 897 001c 0022     		movs	r2, #0
 898 001e 9A75     		strb	r2, [r3, #22]
 217:Core/Src/robot/fsm_tasks.cpp ****                         int_arr[2].intState = STATE_A;
 899              		.loc 1 217 0
 900 0020 83F82220 		strb	r2, [r3, #34]
 218:Core/Src/robot/fsm_tasks.cpp ****                         int_arr[3].intState = STATE_A;
 901              		.loc 1 218 0
 902 0024 83F82E20 		strb	r2, [r3, #46]
 903              	.L77:
 219:Core/Src/robot/fsm_tasks.cpp ****                         break;
 220:Core/Src/robot/fsm_tasks.cpp **** 
ARM GAS  C:\Users\Prashant\AppData\Local\Temp\ccYSBqAg.s 			page 21


 221:Core/Src/robot/fsm_tasks.cpp ****                 case State_ID::WS2:
 222:Core/Src/robot/fsm_tasks.cpp ****                         int_arr[0].intState = STATE_A;
 223:Core/Src/robot/fsm_tasks.cpp ****                         int_arr[1].intState = STATE_B;
 224:Core/Src/robot/fsm_tasks.cpp ****                         int_arr[2].intState = STATE_A;
 225:Core/Src/robot/fsm_tasks.cpp ****                         int_arr[3].intState = STATE_A;
 226:Core/Src/robot/fsm_tasks.cpp ****                         break;
 227:Core/Src/robot/fsm_tasks.cpp **** 
 228:Core/Src/robot/fsm_tasks.cpp ****                 case State_ID::WS3:
 229:Core/Src/robot/fsm_tasks.cpp ****                         int_arr[0].intState = STATE_A;
 230:Core/Src/robot/fsm_tasks.cpp ****                         int_arr[1].intState = STATE_A;
 231:Core/Src/robot/fsm_tasks.cpp ****                         int_arr[2].intState = STATE_B;
 232:Core/Src/robot/fsm_tasks.cpp ****                         int_arr[3].intState = STATE_A;
 233:Core/Src/robot/fsm_tasks.cpp ****                         break;
 234:Core/Src/robot/fsm_tasks.cpp **** 
 235:Core/Src/robot/fsm_tasks.cpp ****                 case State_ID::WS4:
 236:Core/Src/robot/fsm_tasks.cpp ****                         int_arr[0].intState = STATE_A;
 237:Core/Src/robot/fsm_tasks.cpp ****                         int_arr[1].intState = STATE_A;
 238:Core/Src/robot/fsm_tasks.cpp ****                         int_arr[2].intState = STATE_A;
 239:Core/Src/robot/fsm_tasks.cpp ****                         int_arr[3].intState = STATE_B;
 240:Core/Src/robot/fsm_tasks.cpp ****                         break;
 241:Core/Src/robot/fsm_tasks.cpp ****         }
 242:Core/Src/robot/fsm_tasks.cpp **** }
 904              		.loc 1 242 0
 905 0028 08BD     		pop	{r3, pc}
 906              	.L81:
 222:Core/Src/robot/fsm_tasks.cpp ****                         int_arr[1].intState = STATE_B;
 907              		.loc 1 222 0
 908 002a 104B     		ldr	r3, .L85+4
 909 002c 0022     		movs	r2, #0
 910 002e 9A72     		strb	r2, [r3, #10]
 223:Core/Src/robot/fsm_tasks.cpp ****                         int_arr[2].intState = STATE_A;
 911              		.loc 1 223 0
 912 0030 0121     		movs	r1, #1
 913 0032 9975     		strb	r1, [r3, #22]
 224:Core/Src/robot/fsm_tasks.cpp ****                         int_arr[3].intState = STATE_A;
 914              		.loc 1 224 0
 915 0034 83F82220 		strb	r2, [r3, #34]
 225:Core/Src/robot/fsm_tasks.cpp ****                         break;
 916              		.loc 1 225 0
 917 0038 83F82E20 		strb	r2, [r3, #46]
 226:Core/Src/robot/fsm_tasks.cpp **** 
 918              		.loc 1 226 0
 919 003c F4E7     		b	.L77
 920              	.L82:
 229:Core/Src/robot/fsm_tasks.cpp ****                         int_arr[1].intState = STATE_A;
 921              		.loc 1 229 0
 922 003e 0B4B     		ldr	r3, .L85+4
 923 0040 0022     		movs	r2, #0
 924 0042 9A72     		strb	r2, [r3, #10]
 230:Core/Src/robot/fsm_tasks.cpp ****                         int_arr[2].intState = STATE_B;
 925              		.loc 1 230 0
 926 0044 9A75     		strb	r2, [r3, #22]
 231:Core/Src/robot/fsm_tasks.cpp ****                         int_arr[3].intState = STATE_A;
 927              		.loc 1 231 0
 928 0046 0121     		movs	r1, #1
 929 0048 83F82210 		strb	r1, [r3, #34]
 232:Core/Src/robot/fsm_tasks.cpp ****                         break;
ARM GAS  C:\Users\Prashant\AppData\Local\Temp\ccYSBqAg.s 			page 22


 930              		.loc 1 232 0
 931 004c 83F82E20 		strb	r2, [r3, #46]
 233:Core/Src/robot/fsm_tasks.cpp **** 
 932              		.loc 1 233 0
 933 0050 EAE7     		b	.L77
 934              	.L83:
 236:Core/Src/robot/fsm_tasks.cpp ****                         int_arr[1].intState = STATE_A;
 935              		.loc 1 236 0
 936 0052 064B     		ldr	r3, .L85+4
 937 0054 0022     		movs	r2, #0
 938 0056 9A72     		strb	r2, [r3, #10]
 237:Core/Src/robot/fsm_tasks.cpp ****                         int_arr[2].intState = STATE_A;
 939              		.loc 1 237 0
 940 0058 9A75     		strb	r2, [r3, #22]
 238:Core/Src/robot/fsm_tasks.cpp ****                         int_arr[3].intState = STATE_B;
 941              		.loc 1 238 0
 942 005a 83F82220 		strb	r2, [r3, #34]
 239:Core/Src/robot/fsm_tasks.cpp ****                         break;
 943              		.loc 1 239 0
 944 005e 0122     		movs	r2, #1
 945 0060 83F82E20 		strb	r2, [r3, #46]
 946              		.loc 1 242 0
 947 0064 E0E7     		b	.L77
 948              	.L86:
 949 0066 00BF     		.align	2
 950              	.L85:
 951 0068 00000000 		.word	gHorse_State
 952 006c 00000000 		.word	int_arr
 953              		.cfi_endproc
 954              	.LFE149:
 956              		.section	.text._Z10stateResetv,"ax",%progbits
 957              		.align	1
 958              		.global	_Z10stateResetv
 959              		.syntax unified
 960              		.thumb
 961              		.thumb_func
 962              		.fpu fpv4-sp-d16
 964              	_Z10stateResetv:
 965              	.LFB146:
 182:Core/Src/robot/fsm_tasks.cpp ****         resetPID();
 966              		.loc 1 182 0
 967              		.cfi_startproc
 968              		@ args = 0, pretend = 0, frame = 0
 969              		@ frame_needed = 0, uses_anonymous_args = 0
 970 0000 08B5     		push	{r3, lr}
 971              	.LCFI11:
 972              		.cfi_def_cfa_offset 8
 973              		.cfi_offset 3, -8
 974              		.cfi_offset 14, -4
 183:Core/Src/robot/fsm_tasks.cpp ****         resetAngles();
 975              		.loc 1 183 0
 976 0002 FFF7FEFF 		bl	_Z8resetPIDv
 977              	.LVL85:
 184:Core/Src/robot/fsm_tasks.cpp ****         omegaReset();
 978              		.loc 1 184 0
 979 0006 FFF7FEFF 		bl	_Z11resetAnglesv
 980              	.LVL86:
ARM GAS  C:\Users\Prashant\AppData\Local\Temp\ccYSBqAg.s 			page 23


 185:Core/Src/robot/fsm_tasks.cpp ****         resetIntState();
 981              		.loc 1 185 0
 982 000a FFF7FEFF 		bl	_Z10omegaResetv
 983              	.LVL87:
 186:Core/Src/robot/fsm_tasks.cpp ****         feedForwardRestart();
 984              		.loc 1 186 0
 985 000e FFF7FEFF 		bl	_Z13resetIntStatev
 986              	.LVL88:
 187:Core/Src/robot/fsm_tasks.cpp **** }
 987              		.loc 1 187 0
 988 0012 FFF7FEFF 		bl	_Z18feedForwardRestartv
 989              	.LVL89:
 188:Core/Src/robot/fsm_tasks.cpp **** 
 990              		.loc 1 188 0
 991 0016 08BD     		pop	{r3, pc}
 992              		.cfi_endproc
 993              	.LFE146:
 995              		.section	.data._ZL9gIs_First,"aw",%progbits
 996              		.set	.LANCHOR0,. + 0
 999              	_ZL9gIs_First:
 1000 0000 01       		.byte	1
 1001              		.text
 1002              	.Letext0:
 1003              		.file 2 "c:\\program files (x86)\\gnu tools arm embedded\\7 2017-q4-major\\arm-none-eabi\\include\
 1004              		.file 3 "c:\\program files (x86)\\gnu tools arm embedded\\7 2017-q4-major\\arm-none-eabi\\include\
 1005              		.file 4 "C:/Users/Prashant/STM32Cube/Repository/STM32Cube_FW_F4_V1.23.0/Drivers/CMSIS/Include/core
 1006              		.file 5 "C:/Users/Prashant/STM32Cube/Repository/STM32Cube_FW_F4_V1.23.0/Drivers/CMSIS/Device/ST/ST
 1007              		.file 6 "C:/Users/Prashant/STM32Cube/Repository/STM32Cube_FW_F4_V1.23.0/Drivers/CMSIS/Device/ST/ST
 1008              		.file 7 "C:/Users/Prashant/STM32Cube/Repository/STM32Cube_FW_F4_V1.23.0/Drivers/CMSIS/Device/ST/ST
 1009              		.file 8 "c:\\program files (x86)\\gnu tools arm embedded\\7 2017-q4-major\\arm-none-eabi\\include\
 1010              		.file 9 "c:\\program files (x86)\\gnu tools arm embedded\\7 2017-q4-major\\arm-none-eabi\\include\
 1011              		.file 10 "c:\\program files (x86)\\gnu tools arm embedded\\7 2017-q4-major\\lib\\gcc\\arm-none-eab
 1012              		.file 11 "c:\\program files (x86)\\gnu tools arm embedded\\7 2017-q4-major\\arm-none-eabi\\include
 1013              		.file 12 "C:/Users/Prashant/STM32Cube/Repository/STM32Cube_FW_F4_V1.23.0/Drivers/STM32F4xx_HAL_Dri
 1014              		.file 13 "C:/Users/Prashant/STM32Cube/Repository/STM32Cube_FW_F4_V1.23.0/Drivers/STM32F4xx_HAL_Dri
 1015              		.file 14 "C:/Users/Prashant/STM32Cube/Repository/STM32Cube_FW_F4_V1.23.0/Drivers/STM32F4xx_HAL_Dri
 1016              		.file 15 "C:/Users/Prashant/STM32Cube/Repository/STM32Cube_FW_F4_V1.23.0/Drivers/STM32F4xx_HAL_Dri
 1017              		.file 16 "Core/Inc/robot/feed_forward.h"
 1018              		.file 17 "Core/Inc/periphs/tim.h"
 1019              		.file 18 "Core/Inc/robot/interrupt.h"
 1020              		.file 19 "Core/Inc/devs/encoder.h"
 1021              		.file 20 "Core/Inc/devs/motor.h"
 1022              		.file 21 "Core/Inc/utils/pid.h"
 1023              		.file 22 "Core/Inc/robot/fsm.h"
 1024              		.file 23 "Core/Inc/robot/robo_init.h"
 1025              		.file 24 "Core/Inc/robot/robo_states.h"
ARM GAS  C:\Users\Prashant\AppData\Local\Temp\ccYSBqAg.s 			page 24

