ARM GAS  C:\Users\073be\AppData\Local\Temp\cc7sieUp.s 			page 1


   1              		.cpu cortex-m4
   2              		.eabi_attribute 27, 1
   3              		.eabi_attribute 28, 1
   4              		.eabi_attribute 20, 1
   5              		.eabi_attribute 21, 1
   6              		.eabi_attribute 23, 3
   7              		.eabi_attribute 24, 1
   8              		.eabi_attribute 25, 1
   9              		.eabi_attribute 26, 1
  10              		.eabi_attribute 30, 1
  11              		.eabi_attribute 34, 1
  12              		.eabi_attribute 18, 4
  13              		.file	"gpio.c"
  14              		.text
  15              	.Ltext0:
  16              		.cfi_sections	.debug_frame
  17              		.section	.text.MX_GPIO_Init,"ax",%progbits
  18              		.align	1
  19              		.global	MX_GPIO_Init
  20              		.syntax unified
  21              		.thumb
  22              		.thumb_func
  23              		.fpu fpv4-sp-d16
  25              	MX_GPIO_Init:
  26              	.LFB126:
  27              		.file 1 "Core/Src/periphs/gpio.c"
   1:Core/Src/periphs/gpio.c **** /**
   2:Core/Src/periphs/gpio.c ****   ******************************************************************************
   3:Core/Src/periphs/gpio.c ****   * File Name          : gpio.c
   4:Core/Src/periphs/gpio.c ****   * Description        : This file provides code for the configuration
   5:Core/Src/periphs/gpio.c ****   *                      of all used GPIO pins.
   6:Core/Src/periphs/gpio.c ****   ******************************************************************************
   7:Core/Src/periphs/gpio.c ****   * This notice applies to any and all portions of this file
   8:Core/Src/periphs/gpio.c ****   * that are not between comment pairs USER CODE BEGIN and
   9:Core/Src/periphs/gpio.c ****   * USER CODE END. Other portions of this file, whether 
  10:Core/Src/periphs/gpio.c ****   * inserted by the user or by software development tools
  11:Core/Src/periphs/gpio.c ****   * are owned by their respective copyright owners.
  12:Core/Src/periphs/gpio.c ****   *
  13:Core/Src/periphs/gpio.c ****   * Copyright (c) 2019 STMicroelectronics International N.V. 
  14:Core/Src/periphs/gpio.c ****   * All rights reserved.
  15:Core/Src/periphs/gpio.c ****   *
  16:Core/Src/periphs/gpio.c ****   * Redistribution and use in source and binary forms, with or without 
  17:Core/Src/periphs/gpio.c ****   * modification, are permitted, provided that the following conditions are met:
  18:Core/Src/periphs/gpio.c ****   *
  19:Core/Src/periphs/gpio.c ****   * 1. Redistribution of source code must retain the above copyright notice, 
  20:Core/Src/periphs/gpio.c ****   *    this list of conditions and the following disclaimer.
  21:Core/Src/periphs/gpio.c ****   * 2. Redistributions in binary form must reproduce the above copyright notice,
  22:Core/Src/periphs/gpio.c ****   *    this list of conditions and the following disclaimer in the documentation
  23:Core/Src/periphs/gpio.c ****   *    and/or other materials provided with the distribution.
  24:Core/Src/periphs/gpio.c ****   * 3. Neither the name of STMicroelectronics nor the names of other 
  25:Core/Src/periphs/gpio.c ****   *    contributors to this software may be used to endorse or promote products 
  26:Core/Src/periphs/gpio.c ****   *    derived from this software without specific written permission.
  27:Core/Src/periphs/gpio.c ****   * 4. This software, including modifications and/or derivative works of this 
  28:Core/Src/periphs/gpio.c ****   *    software, must execute solely and exclusively on microcontroller or
  29:Core/Src/periphs/gpio.c ****   *    microprocessor devices manufactured by or for STMicroelectronics.
  30:Core/Src/periphs/gpio.c ****   * 5. Redistribution and use of this software other than as permitted under 
  31:Core/Src/periphs/gpio.c ****   *    this license is void and will automatically terminate your rights under 
ARM GAS  C:\Users\073be\AppData\Local\Temp\cc7sieUp.s 			page 2


  32:Core/Src/periphs/gpio.c ****   *    this license. 
  33:Core/Src/periphs/gpio.c ****   *
  34:Core/Src/periphs/gpio.c ****   * THIS SOFTWARE IS PROVIDED BY STMICROELECTRONICS AND CONTRIBUTORS "AS IS" 
  35:Core/Src/periphs/gpio.c ****   * AND ANY EXPRESS, IMPLIED OR STATUTORY WARRANTIES, INCLUDING, BUT NOT 
  36:Core/Src/periphs/gpio.c ****   * LIMITED TO, THE IMPLIED WARRANTIES OF MERCHANTABILITY, FITNESS FOR A 
  37:Core/Src/periphs/gpio.c ****   * PARTICULAR PURPOSE AND NON-INFRINGEMENT OF THIRD PARTY INTELLECTUAL PROPERTY
  38:Core/Src/periphs/gpio.c ****   * RIGHTS ARE DISCLAIMED TO THE FULLEST EXTENT PERMITTED BY LAW. IN NO EVENT 
  39:Core/Src/periphs/gpio.c ****   * SHALL STMICROELECTRONICS OR CONTRIBUTORS BE LIABLE FOR ANY DIRECT, INDIRECT,
  40:Core/Src/periphs/gpio.c ****   * INCIDENTAL, SPECIAL, EXEMPLARY, OR CONSEQUENTIAL DAMAGES (INCLUDING, BUT NOT
  41:Core/Src/periphs/gpio.c ****   * LIMITED TO, PROCUREMENT OF SUBSTITUTE GOODS OR SERVICES; LOSS OF USE, DATA, 
  42:Core/Src/periphs/gpio.c ****   * OR PROFITS; OR BUSINESS INTERRUPTION) HOWEVER CAUSED AND ON ANY THEORY OF 
  43:Core/Src/periphs/gpio.c ****   * LIABILITY, WHETHER IN CONTRACT, STRICT LIABILITY, OR TORT (INCLUDING 
  44:Core/Src/periphs/gpio.c ****   * NEGLIGENCE OR OTHERWISE) ARISING IN ANY WAY OUT OF THE USE OF THIS SOFTWARE,
  45:Core/Src/periphs/gpio.c ****   * EVEN IF ADVISED OF THE POSSIBILITY OF SUCH DAMAGE.
  46:Core/Src/periphs/gpio.c ****   *
  47:Core/Src/periphs/gpio.c ****   ******************************************************************************
  48:Core/Src/periphs/gpio.c ****   */
  49:Core/Src/periphs/gpio.c **** 
  50:Core/Src/periphs/gpio.c **** /* Includes ------------------------------------------------------------------*/
  51:Core/Src/periphs/gpio.c **** #include "gpio.h"
  52:Core/Src/periphs/gpio.c **** /* USER CODE BEGIN 0 */
  53:Core/Src/periphs/gpio.c **** 
  54:Core/Src/periphs/gpio.c **** /* USER CODE END 0 */
  55:Core/Src/periphs/gpio.c **** 
  56:Core/Src/periphs/gpio.c **** /*----------------------------------------------------------------------------*/
  57:Core/Src/periphs/gpio.c **** /* Configure GPIO                                                             */
  58:Core/Src/periphs/gpio.c **** /*----------------------------------------------------------------------------*/
  59:Core/Src/periphs/gpio.c **** /* USER CODE BEGIN 1 */
  60:Core/Src/periphs/gpio.c **** 
  61:Core/Src/periphs/gpio.c **** /* USER CODE END 1 */
  62:Core/Src/periphs/gpio.c **** 
  63:Core/Src/periphs/gpio.c **** /** Configure pins as 
  64:Core/Src/periphs/gpio.c ****         * Analog 
  65:Core/Src/periphs/gpio.c ****         * Input 
  66:Core/Src/periphs/gpio.c ****         * Output
  67:Core/Src/periphs/gpio.c ****         * EVENT_OUT
  68:Core/Src/periphs/gpio.c ****         * EXTI
  69:Core/Src/periphs/gpio.c ****         * Free pins are configured automatically as Analog (this feature is enabled through 
  70:Core/Src/periphs/gpio.c ****         * the Code Generation settings)
  71:Core/Src/periphs/gpio.c **** */
  72:Core/Src/periphs/gpio.c **** void MX_GPIO_Init(void)
  73:Core/Src/periphs/gpio.c **** {
  28              		.loc 1 73 0
  29              		.cfi_startproc
  30              		@ args = 0, pretend = 0, frame = 48
  31              		@ frame_needed = 0, uses_anonymous_args = 0
  32 0000 2DE9F04F 		push	{r4, r5, r6, r7, r8, r9, r10, fp, lr}
  33              	.LCFI0:
  34              		.cfi_def_cfa_offset 36
  35              		.cfi_offset 4, -36
  36              		.cfi_offset 5, -32
  37              		.cfi_offset 6, -28
  38              		.cfi_offset 7, -24
  39              		.cfi_offset 8, -20
  40              		.cfi_offset 9, -16
  41              		.cfi_offset 10, -12
  42              		.cfi_offset 11, -8
ARM GAS  C:\Users\073be\AppData\Local\Temp\cc7sieUp.s 			page 3


  43              		.cfi_offset 14, -4
  44 0004 8DB0     		sub	sp, sp, #52
  45              	.LCFI1:
  46              		.cfi_def_cfa_offset 88
  74:Core/Src/periphs/gpio.c **** 
  75:Core/Src/periphs/gpio.c ****   GPIO_InitTypeDef GPIO_InitStruct = {0};
  47              		.loc 1 75 0
  48 0006 0024     		movs	r4, #0
  49 0008 0794     		str	r4, [sp, #28]
  50 000a 0894     		str	r4, [sp, #32]
  51 000c 0994     		str	r4, [sp, #36]
  52 000e 0A94     		str	r4, [sp, #40]
  53 0010 0B94     		str	r4, [sp, #44]
  54              	.LBB2:
  76:Core/Src/periphs/gpio.c **** 
  77:Core/Src/periphs/gpio.c ****   /* GPIO Ports Clock Enable */
  78:Core/Src/periphs/gpio.c ****   __HAL_RCC_GPIOE_CLK_ENABLE();
  55              		.loc 1 78 0
  56 0012 0194     		str	r4, [sp, #4]
  57 0014 8B4B     		ldr	r3, .L3
  58 0016 1A6B     		ldr	r2, [r3, #48]
  59 0018 42F01002 		orr	r2, r2, #16
  60 001c 1A63     		str	r2, [r3, #48]
  61 001e 1A6B     		ldr	r2, [r3, #48]
  62 0020 02F01002 		and	r2, r2, #16
  63 0024 0192     		str	r2, [sp, #4]
  64 0026 019A     		ldr	r2, [sp, #4]
  65              	.LBE2:
  66              	.LBB3:
  79:Core/Src/periphs/gpio.c ****   __HAL_RCC_GPIOC_CLK_ENABLE();
  67              		.loc 1 79 0
  68 0028 0294     		str	r4, [sp, #8]
  69 002a 1A6B     		ldr	r2, [r3, #48]
  70 002c 42F00402 		orr	r2, r2, #4
  71 0030 1A63     		str	r2, [r3, #48]
  72 0032 1A6B     		ldr	r2, [r3, #48]
  73 0034 02F00402 		and	r2, r2, #4
  74 0038 0292     		str	r2, [sp, #8]
  75 003a 029A     		ldr	r2, [sp, #8]
  76              	.LBE3:
  77              	.LBB4:
  80:Core/Src/periphs/gpio.c ****   __HAL_RCC_GPIOH_CLK_ENABLE();
  78              		.loc 1 80 0
  79 003c 0394     		str	r4, [sp, #12]
  80 003e 1A6B     		ldr	r2, [r3, #48]
  81 0040 42F08002 		orr	r2, r2, #128
  82 0044 1A63     		str	r2, [r3, #48]
  83 0046 1A6B     		ldr	r2, [r3, #48]
  84 0048 02F08002 		and	r2, r2, #128
  85 004c 0392     		str	r2, [sp, #12]
  86 004e 039A     		ldr	r2, [sp, #12]
  87              	.LBE4:
  88              	.LBB5:
  81:Core/Src/periphs/gpio.c ****   __HAL_RCC_GPIOA_CLK_ENABLE();
  89              		.loc 1 81 0
  90 0050 0494     		str	r4, [sp, #16]
  91 0052 1A6B     		ldr	r2, [r3, #48]
ARM GAS  C:\Users\073be\AppData\Local\Temp\cc7sieUp.s 			page 4


  92 0054 42F00102 		orr	r2, r2, #1
  93 0058 1A63     		str	r2, [r3, #48]
  94 005a 1A6B     		ldr	r2, [r3, #48]
  95 005c 02F00102 		and	r2, r2, #1
  96 0060 0492     		str	r2, [sp, #16]
  97 0062 049A     		ldr	r2, [sp, #16]
  98              	.LBE5:
  99              	.LBB6:
  82:Core/Src/periphs/gpio.c ****   __HAL_RCC_GPIOB_CLK_ENABLE();
 100              		.loc 1 82 0
 101 0064 0594     		str	r4, [sp, #20]
 102 0066 1A6B     		ldr	r2, [r3, #48]
 103 0068 42F00202 		orr	r2, r2, #2
 104 006c 1A63     		str	r2, [r3, #48]
 105 006e 1A6B     		ldr	r2, [r3, #48]
 106 0070 02F00202 		and	r2, r2, #2
 107 0074 0592     		str	r2, [sp, #20]
 108 0076 059A     		ldr	r2, [sp, #20]
 109              	.LBE6:
 110              	.LBB7:
  83:Core/Src/periphs/gpio.c ****   __HAL_RCC_GPIOD_CLK_ENABLE();
 111              		.loc 1 83 0
 112 0078 0694     		str	r4, [sp, #24]
 113 007a 1A6B     		ldr	r2, [r3, #48]
 114 007c 42F00802 		orr	r2, r2, #8
 115 0080 1A63     		str	r2, [r3, #48]
 116 0082 1B6B     		ldr	r3, [r3, #48]
 117 0084 03F00803 		and	r3, r3, #8
 118 0088 0693     		str	r3, [sp, #24]
 119 008a 069B     		ldr	r3, [sp, #24]
 120              	.LBE7:
  84:Core/Src/periphs/gpio.c **** 
  85:Core/Src/periphs/gpio.c ****   /*Configure GPIO pin Output Level */
  86:Core/Src/periphs/gpio.c ****   HAL_GPIO_WritePin(GPIOC, GPIO_PIN_1|GPIO_PIN_2|GPIO_PIN_3|GPIO_PIN_11, GPIO_PIN_RESET);
 121              		.loc 1 86 0
 122 008c DFF8C091 		ldr	r9, .L3+12
 123 0090 2246     		mov	r2, r4
 124 0092 40F60E01 		movw	r1, #2062
 125 0096 4846     		mov	r0, r9
 126 0098 FFF7FEFF 		bl	HAL_GPIO_WritePin
 127              	.LVL0:
  87:Core/Src/periphs/gpio.c **** 
  88:Core/Src/periphs/gpio.c ****   /*Configure GPIO pin Output Level */
  89:Core/Src/periphs/gpio.c ****   HAL_GPIO_WritePin(GPIOA, GPIO_PIN_3|GPIO_PIN_4|GPIO_PIN_8|GPIO_PIN_15, GPIO_PIN_RESET);
 128              		.loc 1 89 0
 129 009c DFF8B4A1 		ldr	r10, .L3+16
 130 00a0 2246     		mov	r2, r4
 131 00a2 48F21811 		movw	r1, #33048
 132 00a6 5046     		mov	r0, r10
 133 00a8 FFF7FEFF 		bl	HAL_GPIO_WritePin
 134              	.LVL1:
  90:Core/Src/periphs/gpio.c **** 
  91:Core/Src/periphs/gpio.c ****   /*Configure GPIO pin Output Level */
  92:Core/Src/periphs/gpio.c ****   HAL_GPIO_WritePin(GPIOE, GPIO_PIN_8, GPIO_PIN_RESET);
 135              		.loc 1 92 0
 136 00ac DFF8A881 		ldr	r8, .L3+20
 137 00b0 2246     		mov	r2, r4
ARM GAS  C:\Users\073be\AppData\Local\Temp\cc7sieUp.s 			page 5


 138 00b2 4FF48071 		mov	r1, #256
 139 00b6 4046     		mov	r0, r8
 140 00b8 FFF7FEFF 		bl	HAL_GPIO_WritePin
 141              	.LVL2:
  93:Core/Src/periphs/gpio.c **** 
  94:Core/Src/periphs/gpio.c ****   /*Configure GPIO pin Output Level */
  95:Core/Src/periphs/gpio.c ****   HAL_GPIO_WritePin(GPIOD, GPIO_PIN_3|GPIO_PIN_4|GPIO_PIN_5|GPIO_PIN_7, GPIO_PIN_RESET);
 142              		.loc 1 95 0
 143 00bc 2246     		mov	r2, r4
 144 00be B821     		movs	r1, #184
 145 00c0 6148     		ldr	r0, .L3+4
 146 00c2 FFF7FEFF 		bl	HAL_GPIO_WritePin
 147              	.LVL3:
  96:Core/Src/periphs/gpio.c **** 
  97:Core/Src/periphs/gpio.c ****   /*Configure GPIO pin Output Level */
  98:Core/Src/periphs/gpio.c ****   HAL_GPIO_WritePin(GPIOB, GPIO_PIN_5, GPIO_PIN_RESET);
 148              		.loc 1 98 0
 149 00c6 614F     		ldr	r7, .L3+8
 150 00c8 2246     		mov	r2, r4
 151 00ca 2021     		movs	r1, #32
 152 00cc 3846     		mov	r0, r7
 153 00ce FFF7FEFF 		bl	HAL_GPIO_WritePin
 154              	.LVL4:
  99:Core/Src/periphs/gpio.c **** 
 100:Core/Src/periphs/gpio.c ****   /*Configure GPIO pins : PE2 PE4 PE6 PE7 
 101:Core/Src/periphs/gpio.c ****                            PE10 PE13 PE14 PE15 
 102:Core/Src/periphs/gpio.c ****                            PE0 */
 103:Core/Src/periphs/gpio.c ****   GPIO_InitStruct.Pin = GPIO_PIN_2|GPIO_PIN_4|GPIO_PIN_6|GPIO_PIN_7 
 155              		.loc 1 103 0
 156 00d2 4EF2D543 		movw	r3, #58581
 157 00d6 0793     		str	r3, [sp, #28]
 104:Core/Src/periphs/gpio.c ****                           |GPIO_PIN_10|GPIO_PIN_13|GPIO_PIN_14|GPIO_PIN_15 
 105:Core/Src/periphs/gpio.c ****                           |GPIO_PIN_0;
 106:Core/Src/periphs/gpio.c ****   GPIO_InitStruct.Mode = GPIO_MODE_ANALOG;
 158              		.loc 1 106 0
 159 00d8 0326     		movs	r6, #3
 160 00da 0896     		str	r6, [sp, #32]
 107:Core/Src/periphs/gpio.c ****   GPIO_InitStruct.Pull = GPIO_NOPULL;
 161              		.loc 1 107 0
 162 00dc 0994     		str	r4, [sp, #36]
 108:Core/Src/periphs/gpio.c ****   HAL_GPIO_Init(GPIOE, &GPIO_InitStruct);
 163              		.loc 1 108 0
 164 00de 07A9     		add	r1, sp, #28
 165 00e0 4046     		mov	r0, r8
 166 00e2 FFF7FEFF 		bl	HAL_GPIO_Init
 167              	.LVL5:
 109:Core/Src/periphs/gpio.c **** 
 110:Core/Src/periphs/gpio.c ****   /*Configure GPIO pins : PE3 PE5 PE12 PE1 */
 111:Core/Src/periphs/gpio.c ****   GPIO_InitStruct.Pin = GPIO_PIN_3|GPIO_PIN_5|GPIO_PIN_12|GPIO_PIN_1;
 168              		.loc 1 111 0
 169 00e6 41F22A03 		movw	r3, #4138
 170 00ea 0793     		str	r3, [sp, #28]
 112:Core/Src/periphs/gpio.c ****   GPIO_InitStruct.Mode = GPIO_MODE_IT_FALLING;
 171              		.loc 1 112 0
 172 00ec DFF86CB1 		ldr	fp, .L3+24
 173 00f0 CDF820B0 		str	fp, [sp, #32]
 113:Core/Src/periphs/gpio.c ****   GPIO_InitStruct.Pull = GPIO_PULLUP;
ARM GAS  C:\Users\073be\AppData\Local\Temp\cc7sieUp.s 			page 6


 174              		.loc 1 113 0
 175 00f4 0125     		movs	r5, #1
 176 00f6 0995     		str	r5, [sp, #36]
 114:Core/Src/periphs/gpio.c ****   HAL_GPIO_Init(GPIOE, &GPIO_InitStruct);
 177              		.loc 1 114 0
 178 00f8 07A9     		add	r1, sp, #28
 179 00fa 4046     		mov	r0, r8
 180 00fc FFF7FEFF 		bl	HAL_GPIO_Init
 181              	.LVL6:
 115:Core/Src/periphs/gpio.c **** 
 116:Core/Src/periphs/gpio.c ****   /*Configure GPIO pins : PC13 PC14 PC15 PC0 */
 117:Core/Src/periphs/gpio.c ****   GPIO_InitStruct.Pin = GPIO_PIN_13|GPIO_PIN_14|GPIO_PIN_15|GPIO_PIN_0;
 182              		.loc 1 117 0
 183 0100 4EF20103 		movw	r3, #57345
 184 0104 0793     		str	r3, [sp, #28]
 118:Core/Src/periphs/gpio.c ****   GPIO_InitStruct.Mode = GPIO_MODE_IT_FALLING;
 185              		.loc 1 118 0
 186 0106 CDF820B0 		str	fp, [sp, #32]
 119:Core/Src/periphs/gpio.c ****   GPIO_InitStruct.Pull = GPIO_PULLUP;
 187              		.loc 1 119 0
 188 010a 0995     		str	r5, [sp, #36]
 120:Core/Src/periphs/gpio.c ****   HAL_GPIO_Init(GPIOC, &GPIO_InitStruct);
 189              		.loc 1 120 0
 190 010c 07A9     		add	r1, sp, #28
 191 010e 4846     		mov	r0, r9
 192 0110 FFF7FEFF 		bl	HAL_GPIO_Init
 193              	.LVL7:
 121:Core/Src/periphs/gpio.c **** 
 122:Core/Src/periphs/gpio.c ****   /*Configure GPIO pins : PC1 PC2 PC3 PC11 */
 123:Core/Src/periphs/gpio.c ****   GPIO_InitStruct.Pin = GPIO_PIN_1|GPIO_PIN_2|GPIO_PIN_3|GPIO_PIN_11;
 194              		.loc 1 123 0
 195 0114 40F60E03 		movw	r3, #2062
 196 0118 0793     		str	r3, [sp, #28]
 124:Core/Src/periphs/gpio.c ****   GPIO_InitStruct.Mode = GPIO_MODE_OUTPUT_PP;
 197              		.loc 1 124 0
 198 011a 0895     		str	r5, [sp, #32]
 125:Core/Src/periphs/gpio.c ****   GPIO_InitStruct.Pull = GPIO_NOPULL;
 199              		.loc 1 125 0
 200 011c 0994     		str	r4, [sp, #36]
 126:Core/Src/periphs/gpio.c ****   GPIO_InitStruct.Speed = GPIO_SPEED_FREQ_LOW;
 201              		.loc 1 126 0
 202 011e 0A94     		str	r4, [sp, #40]
 127:Core/Src/periphs/gpio.c ****   HAL_GPIO_Init(GPIOC, &GPIO_InitStruct);
 203              		.loc 1 127 0
 204 0120 07A9     		add	r1, sp, #28
 205 0122 4846     		mov	r0, r9
 206 0124 FFF7FEFF 		bl	HAL_GPIO_Init
 207              	.LVL8:
 128:Core/Src/periphs/gpio.c **** 
 129:Core/Src/periphs/gpio.c ****   /*Configure GPIO pin : PA0 */
 130:Core/Src/periphs/gpio.c ****   GPIO_InitStruct.Pin = GPIO_PIN_0;
 208              		.loc 1 130 0
 209 0128 0795     		str	r5, [sp, #28]
 131:Core/Src/periphs/gpio.c ****   GPIO_InitStruct.Mode = GPIO_MODE_INPUT;
 210              		.loc 1 131 0
 211 012a 0894     		str	r4, [sp, #32]
 132:Core/Src/periphs/gpio.c ****   GPIO_InitStruct.Pull = GPIO_NOPULL;
ARM GAS  C:\Users\073be\AppData\Local\Temp\cc7sieUp.s 			page 7


 212              		.loc 1 132 0
 213 012c 0994     		str	r4, [sp, #36]
 133:Core/Src/periphs/gpio.c ****   HAL_GPIO_Init(GPIOA, &GPIO_InitStruct);
 214              		.loc 1 133 0
 215 012e 07A9     		add	r1, sp, #28
 216 0130 5046     		mov	r0, r10
 217 0132 FFF7FEFF 		bl	HAL_GPIO_Init
 218              	.LVL9:
 134:Core/Src/periphs/gpio.c **** 
 135:Core/Src/periphs/gpio.c ****   /*Configure GPIO pins : PA3 PA4 PA8 PA15 */
 136:Core/Src/periphs/gpio.c ****   GPIO_InitStruct.Pin = GPIO_PIN_3|GPIO_PIN_4|GPIO_PIN_8|GPIO_PIN_15;
 219              		.loc 1 136 0
 220 0136 48F21813 		movw	r3, #33048
 221 013a 0793     		str	r3, [sp, #28]
 137:Core/Src/periphs/gpio.c ****   GPIO_InitStruct.Mode = GPIO_MODE_OUTPUT_PP;
 222              		.loc 1 137 0
 223 013c 0895     		str	r5, [sp, #32]
 138:Core/Src/periphs/gpio.c ****   GPIO_InitStruct.Pull = GPIO_NOPULL;
 224              		.loc 1 138 0
 225 013e 0994     		str	r4, [sp, #36]
 139:Core/Src/periphs/gpio.c ****   GPIO_InitStruct.Speed = GPIO_SPEED_FREQ_LOW;
 226              		.loc 1 139 0
 227 0140 0A94     		str	r4, [sp, #40]
 140:Core/Src/periphs/gpio.c ****   HAL_GPIO_Init(GPIOA, &GPIO_InitStruct);
 228              		.loc 1 140 0
 229 0142 07A9     		add	r1, sp, #28
 230 0144 5046     		mov	r0, r10
 231 0146 FFF7FEFF 		bl	HAL_GPIO_Init
 232              	.LVL10:
 141:Core/Src/periphs/gpio.c **** 
 142:Core/Src/periphs/gpio.c ****   /*Configure GPIO pins : PA6 PA9 PA10 PA11 
 143:Core/Src/periphs/gpio.c ****                            PA12 */
 144:Core/Src/periphs/gpio.c ****   GPIO_InitStruct.Pin = GPIO_PIN_6|GPIO_PIN_9|GPIO_PIN_10|GPIO_PIN_11 
 233              		.loc 1 144 0
 234 014a 4FF4F253 		mov	r3, #7744
 235 014e 0793     		str	r3, [sp, #28]
 145:Core/Src/periphs/gpio.c ****                           |GPIO_PIN_12;
 146:Core/Src/periphs/gpio.c ****   GPIO_InitStruct.Mode = GPIO_MODE_ANALOG;
 236              		.loc 1 146 0
 237 0150 0896     		str	r6, [sp, #32]
 147:Core/Src/periphs/gpio.c ****   GPIO_InitStruct.Pull = GPIO_NOPULL;
 238              		.loc 1 147 0
 239 0152 0994     		str	r4, [sp, #36]
 148:Core/Src/periphs/gpio.c ****   HAL_GPIO_Init(GPIOA, &GPIO_InitStruct);
 240              		.loc 1 148 0
 241 0154 07A9     		add	r1, sp, #28
 242 0156 5046     		mov	r0, r10
 243 0158 FFF7FEFF 		bl	HAL_GPIO_Init
 244              	.LVL11:
 149:Core/Src/periphs/gpio.c **** 
 150:Core/Src/periphs/gpio.c ****   /*Configure GPIO pins : PC4 PC5 PC10 PC12 */
 151:Core/Src/periphs/gpio.c ****   GPIO_InitStruct.Pin = GPIO_PIN_4|GPIO_PIN_5|GPIO_PIN_10|GPIO_PIN_12;
 245              		.loc 1 151 0
 246 015c 41F23043 		movw	r3, #5168
 247 0160 0793     		str	r3, [sp, #28]
 152:Core/Src/periphs/gpio.c ****   GPIO_InitStruct.Mode = GPIO_MODE_ANALOG;
 248              		.loc 1 152 0
ARM GAS  C:\Users\073be\AppData\Local\Temp\cc7sieUp.s 			page 8


 249 0162 0896     		str	r6, [sp, #32]
 153:Core/Src/periphs/gpio.c ****   GPIO_InitStruct.Pull = GPIO_NOPULL;
 250              		.loc 1 153 0
 251 0164 0994     		str	r4, [sp, #36]
 154:Core/Src/periphs/gpio.c ****   HAL_GPIO_Init(GPIOC, &GPIO_InitStruct);
 252              		.loc 1 154 0
 253 0166 07A9     		add	r1, sp, #28
 254 0168 4846     		mov	r0, r9
 255 016a FFF7FEFF 		bl	HAL_GPIO_Init
 256              	.LVL12:
 155:Core/Src/periphs/gpio.c **** 
 156:Core/Src/periphs/gpio.c ****   /*Configure GPIO pins : PB0 PB1 PB12 PB13 
 157:Core/Src/periphs/gpio.c ****                            PB14 PB15 PB6 PB8 */
 158:Core/Src/periphs/gpio.c ****   GPIO_InitStruct.Pin = GPIO_PIN_0|GPIO_PIN_1|GPIO_PIN_12|GPIO_PIN_13 
 257              		.loc 1 158 0
 258 016e 4FF24313 		movw	r3, #61763
 259 0172 0793     		str	r3, [sp, #28]
 159:Core/Src/periphs/gpio.c ****                           |GPIO_PIN_14|GPIO_PIN_15|GPIO_PIN_6|GPIO_PIN_8;
 160:Core/Src/periphs/gpio.c ****   GPIO_InitStruct.Mode = GPIO_MODE_ANALOG;
 260              		.loc 1 160 0
 261 0174 0896     		str	r6, [sp, #32]
 161:Core/Src/periphs/gpio.c ****   GPIO_InitStruct.Pull = GPIO_NOPULL;
 262              		.loc 1 161 0
 263 0176 0994     		str	r4, [sp, #36]
 162:Core/Src/periphs/gpio.c ****   HAL_GPIO_Init(GPIOB, &GPIO_InitStruct);
 264              		.loc 1 162 0
 265 0178 07A9     		add	r1, sp, #28
 266 017a 3846     		mov	r0, r7
 267 017c FFF7FEFF 		bl	HAL_GPIO_Init
 268              	.LVL13:
 163:Core/Src/periphs/gpio.c **** 
 164:Core/Src/periphs/gpio.c ****   /*Configure GPIO pins : PB2 PB7 PB9 */
 165:Core/Src/periphs/gpio.c ****   GPIO_InitStruct.Pin = GPIO_PIN_2|GPIO_PIN_7|GPIO_PIN_9;
 269              		.loc 1 165 0
 270 0180 4FF42173 		mov	r3, #644
 271 0184 0793     		str	r3, [sp, #28]
 166:Core/Src/periphs/gpio.c ****   GPIO_InitStruct.Mode = GPIO_MODE_IT_FALLING;
 272              		.loc 1 166 0
 273 0186 CDF820B0 		str	fp, [sp, #32]
 167:Core/Src/periphs/gpio.c ****   GPIO_InitStruct.Pull = GPIO_PULLUP;
 274              		.loc 1 167 0
 275 018a 0995     		str	r5, [sp, #36]
 168:Core/Src/periphs/gpio.c ****   HAL_GPIO_Init(GPIOB, &GPIO_InitStruct);
 276              		.loc 1 168 0
 277 018c 07A9     		add	r1, sp, #28
 278 018e 3846     		mov	r0, r7
 279 0190 FFF7FEFF 		bl	HAL_GPIO_Init
 280              	.LVL14:
 169:Core/Src/periphs/gpio.c **** 
 170:Core/Src/periphs/gpio.c ****   /*Configure GPIO pin : PE8 */
 171:Core/Src/periphs/gpio.c ****   GPIO_InitStruct.Pin = GPIO_PIN_8;
 281              		.loc 1 171 0
 282 0194 4FF48073 		mov	r3, #256
 283 0198 0793     		str	r3, [sp, #28]
 172:Core/Src/periphs/gpio.c ****   GPIO_InitStruct.Mode = GPIO_MODE_OUTPUT_PP;
 284              		.loc 1 172 0
 285 019a 0895     		str	r5, [sp, #32]
ARM GAS  C:\Users\073be\AppData\Local\Temp\cc7sieUp.s 			page 9


 173:Core/Src/periphs/gpio.c ****   GPIO_InitStruct.Pull = GPIO_NOPULL;
 286              		.loc 1 173 0
 287 019c 0994     		str	r4, [sp, #36]
 174:Core/Src/periphs/gpio.c ****   GPIO_InitStruct.Speed = GPIO_SPEED_FREQ_LOW;
 288              		.loc 1 174 0
 289 019e 0A94     		str	r4, [sp, #40]
 175:Core/Src/periphs/gpio.c ****   HAL_GPIO_Init(GPIOE, &GPIO_InitStruct);
 290              		.loc 1 175 0
 291 01a0 07A9     		add	r1, sp, #28
 292 01a2 4046     		mov	r0, r8
 293 01a4 FFF7FEFF 		bl	HAL_GPIO_Init
 294              	.LVL15:
 176:Core/Src/periphs/gpio.c **** 
 177:Core/Src/periphs/gpio.c ****   /*Configure GPIO pins : PD8 PD9 PD10 PD11 
 178:Core/Src/periphs/gpio.c ****                            PD14 PD15 PD0 PD1 
 179:Core/Src/periphs/gpio.c ****                            PD2 PD6 */
 180:Core/Src/periphs/gpio.c ****   GPIO_InitStruct.Pin = GPIO_PIN_8|GPIO_PIN_9|GPIO_PIN_10|GPIO_PIN_11 
 295              		.loc 1 180 0
 296 01a8 4CF64773 		movw	r3, #53063
 297 01ac 0793     		str	r3, [sp, #28]
 181:Core/Src/periphs/gpio.c ****                           |GPIO_PIN_14|GPIO_PIN_15|GPIO_PIN_0|GPIO_PIN_1 
 182:Core/Src/periphs/gpio.c ****                           |GPIO_PIN_2|GPIO_PIN_6;
 183:Core/Src/periphs/gpio.c ****   GPIO_InitStruct.Mode = GPIO_MODE_ANALOG;
 298              		.loc 1 183 0
 299 01ae 0896     		str	r6, [sp, #32]
 184:Core/Src/periphs/gpio.c ****   GPIO_InitStruct.Pull = GPIO_NOPULL;
 300              		.loc 1 184 0
 301 01b0 0994     		str	r4, [sp, #36]
 185:Core/Src/periphs/gpio.c ****   HAL_GPIO_Init(GPIOD, &GPIO_InitStruct);
 302              		.loc 1 185 0
 303 01b2 07A9     		add	r1, sp, #28
 304 01b4 2448     		ldr	r0, .L3+4
 305 01b6 FFF7FEFF 		bl	HAL_GPIO_Init
 306              	.LVL16:
 186:Core/Src/periphs/gpio.c **** 
 187:Core/Src/periphs/gpio.c ****   /*Configure GPIO pins : PD3 PD4 PD5 PD7 */
 188:Core/Src/periphs/gpio.c ****   GPIO_InitStruct.Pin = GPIO_PIN_3|GPIO_PIN_4|GPIO_PIN_5|GPIO_PIN_7;
 307              		.loc 1 188 0
 308 01ba B823     		movs	r3, #184
 309 01bc 0793     		str	r3, [sp, #28]
 189:Core/Src/periphs/gpio.c ****   GPIO_InitStruct.Mode = GPIO_MODE_OUTPUT_PP;
 310              		.loc 1 189 0
 311 01be 0895     		str	r5, [sp, #32]
 190:Core/Src/periphs/gpio.c ****   GPIO_InitStruct.Pull = GPIO_NOPULL;
 312              		.loc 1 190 0
 313 01c0 0994     		str	r4, [sp, #36]
 191:Core/Src/periphs/gpio.c ****   GPIO_InitStruct.Speed = GPIO_SPEED_FREQ_LOW;
 314              		.loc 1 191 0
 315 01c2 0A94     		str	r4, [sp, #40]
 192:Core/Src/periphs/gpio.c ****   HAL_GPIO_Init(GPIOD, &GPIO_InitStruct);
 316              		.loc 1 192 0
 317 01c4 07A9     		add	r1, sp, #28
 318 01c6 2048     		ldr	r0, .L3+4
 319 01c8 FFF7FEFF 		bl	HAL_GPIO_Init
 320              	.LVL17:
 193:Core/Src/periphs/gpio.c **** 
 194:Core/Src/periphs/gpio.c ****   /*Configure GPIO pin : PB5 */
ARM GAS  C:\Users\073be\AppData\Local\Temp\cc7sieUp.s 			page 10


 195:Core/Src/periphs/gpio.c ****   GPIO_InitStruct.Pin = GPIO_PIN_5;
 321              		.loc 1 195 0
 322 01cc 2023     		movs	r3, #32
 323 01ce 0793     		str	r3, [sp, #28]
 196:Core/Src/periphs/gpio.c ****   GPIO_InitStruct.Mode = GPIO_MODE_OUTPUT_PP;
 324              		.loc 1 196 0
 325 01d0 0895     		str	r5, [sp, #32]
 197:Core/Src/periphs/gpio.c ****   GPIO_InitStruct.Pull = GPIO_NOPULL;
 326              		.loc 1 197 0
 327 01d2 0994     		str	r4, [sp, #36]
 198:Core/Src/periphs/gpio.c ****   GPIO_InitStruct.Speed = GPIO_SPEED_FREQ_LOW;
 328              		.loc 1 198 0
 329 01d4 0A94     		str	r4, [sp, #40]
 199:Core/Src/periphs/gpio.c ****   HAL_GPIO_Init(GPIOB, &GPIO_InitStruct);
 330              		.loc 1 199 0
 331 01d6 07A9     		add	r1, sp, #28
 332 01d8 3846     		mov	r0, r7
 333 01da FFF7FEFF 		bl	HAL_GPIO_Init
 334              	.LVL18:
 200:Core/Src/periphs/gpio.c **** 
 201:Core/Src/periphs/gpio.c ****   /* EXTI interrupt init*/
 202:Core/Src/periphs/gpio.c ****   HAL_NVIC_SetPriority(EXTI0_IRQn, 5, 0);
 335              		.loc 1 202 0
 336 01de 2246     		mov	r2, r4
 337 01e0 0521     		movs	r1, #5
 338 01e2 0620     		movs	r0, #6
 339 01e4 FFF7FEFF 		bl	HAL_NVIC_SetPriority
 340              	.LVL19:
 203:Core/Src/periphs/gpio.c ****   HAL_NVIC_EnableIRQ(EXTI0_IRQn);
 341              		.loc 1 203 0
 342 01e8 0620     		movs	r0, #6
 343 01ea FFF7FEFF 		bl	HAL_NVIC_EnableIRQ
 344              	.LVL20:
 204:Core/Src/periphs/gpio.c **** 
 205:Core/Src/periphs/gpio.c ****   HAL_NVIC_SetPriority(EXTI1_IRQn, 5, 0);
 345              		.loc 1 205 0
 346 01ee 2246     		mov	r2, r4
 347 01f0 0521     		movs	r1, #5
 348 01f2 0720     		movs	r0, #7
 349 01f4 FFF7FEFF 		bl	HAL_NVIC_SetPriority
 350              	.LVL21:
 206:Core/Src/periphs/gpio.c ****   HAL_NVIC_EnableIRQ(EXTI1_IRQn);
 351              		.loc 1 206 0
 352 01f8 0720     		movs	r0, #7
 353 01fa FFF7FEFF 		bl	HAL_NVIC_EnableIRQ
 354              	.LVL22:
 207:Core/Src/periphs/gpio.c **** 
 208:Core/Src/periphs/gpio.c ****   HAL_NVIC_SetPriority(EXTI2_IRQn, 5, 0);
 355              		.loc 1 208 0
 356 01fe 2246     		mov	r2, r4
 357 0200 0521     		movs	r1, #5
 358 0202 0820     		movs	r0, #8
 359 0204 FFF7FEFF 		bl	HAL_NVIC_SetPriority
 360              	.LVL23:
 209:Core/Src/periphs/gpio.c ****   HAL_NVIC_EnableIRQ(EXTI2_IRQn);
 361              		.loc 1 209 0
 362 0208 0820     		movs	r0, #8
ARM GAS  C:\Users\073be\AppData\Local\Temp\cc7sieUp.s 			page 11


 363 020a FFF7FEFF 		bl	HAL_NVIC_EnableIRQ
 364              	.LVL24:
 210:Core/Src/periphs/gpio.c **** 
 211:Core/Src/periphs/gpio.c ****   HAL_NVIC_SetPriority(EXTI3_IRQn, 5, 0);
 365              		.loc 1 211 0
 366 020e 2246     		mov	r2, r4
 367 0210 0521     		movs	r1, #5
 368 0212 0920     		movs	r0, #9
 369 0214 FFF7FEFF 		bl	HAL_NVIC_SetPriority
 370              	.LVL25:
 212:Core/Src/periphs/gpio.c ****   HAL_NVIC_EnableIRQ(EXTI3_IRQn);
 371              		.loc 1 212 0
 372 0218 0920     		movs	r0, #9
 373 021a FFF7FEFF 		bl	HAL_NVIC_EnableIRQ
 374              	.LVL26:
 213:Core/Src/periphs/gpio.c **** 
 214:Core/Src/periphs/gpio.c ****   HAL_NVIC_SetPriority(EXTI9_5_IRQn, 5, 0);
 375              		.loc 1 214 0
 376 021e 2246     		mov	r2, r4
 377 0220 0521     		movs	r1, #5
 378 0222 1720     		movs	r0, #23
 379 0224 FFF7FEFF 		bl	HAL_NVIC_SetPriority
 380              	.LVL27:
 215:Core/Src/periphs/gpio.c ****   HAL_NVIC_EnableIRQ(EXTI9_5_IRQn);
 381              		.loc 1 215 0
 382 0228 1720     		movs	r0, #23
 383 022a FFF7FEFF 		bl	HAL_NVIC_EnableIRQ
 384              	.LVL28:
 216:Core/Src/periphs/gpio.c **** 
 217:Core/Src/periphs/gpio.c ****   HAL_NVIC_SetPriority(EXTI15_10_IRQn, 5, 0);
 385              		.loc 1 217 0
 386 022e 2246     		mov	r2, r4
 387 0230 0521     		movs	r1, #5
 388 0232 2820     		movs	r0, #40
 389 0234 FFF7FEFF 		bl	HAL_NVIC_SetPriority
 390              	.LVL29:
 218:Core/Src/periphs/gpio.c ****   HAL_NVIC_EnableIRQ(EXTI15_10_IRQn);
 391              		.loc 1 218 0
 392 0238 2820     		movs	r0, #40
 393 023a FFF7FEFF 		bl	HAL_NVIC_EnableIRQ
 394              	.LVL30:
 219:Core/Src/periphs/gpio.c **** 
 220:Core/Src/periphs/gpio.c **** }
 395              		.loc 1 220 0
 396 023e 0DB0     		add	sp, sp, #52
 397              	.LCFI2:
 398              		.cfi_def_cfa_offset 36
 399              		@ sp needed
 400 0240 BDE8F08F 		pop	{r4, r5, r6, r7, r8, r9, r10, fp, pc}
 401              	.L4:
 402              		.align	2
 403              	.L3:
 404 0244 00380240 		.word	1073887232
 405 0248 000C0240 		.word	1073875968
 406 024c 00040240 		.word	1073873920
 407 0250 00080240 		.word	1073874944
 408 0254 00000240 		.word	1073872896
ARM GAS  C:\Users\073be\AppData\Local\Temp\cc7sieUp.s 			page 12


 409 0258 00100240 		.word	1073876992
 410 025c 00002110 		.word	270598144
 411              		.cfi_endproc
 412              	.LFE126:
 414              		.text
 415              	.Letext0:
 416              		.file 2 "c:\\program files (x86)\\gnu tools arm embedded\\7 2017-q4-major\\arm-none-eabi\\include\
 417              		.file 3 "c:\\program files (x86)\\gnu tools arm embedded\\7 2017-q4-major\\arm-none-eabi\\include\
 418              		.file 4 "C:/Users/n-is/STM32Cube/Repository/STM32Cube_FW_F4_V1.23.0/Drivers/CMSIS/Include/core_cm4
 419              		.file 5 "C:/Users/n-is/STM32Cube/Repository/STM32Cube_FW_F4_V1.23.0/Drivers/CMSIS/Device/ST/STM32F
 420              		.file 6 "C:/Users/n-is/STM32Cube/Repository/STM32Cube_FW_F4_V1.23.0/Drivers/CMSIS/Device/ST/STM32F
 421              		.file 7 "c:\\program files (x86)\\gnu tools arm embedded\\7 2017-q4-major\\arm-none-eabi\\include\
 422              		.file 8 "c:\\program files (x86)\\gnu tools arm embedded\\7 2017-q4-major\\arm-none-eabi\\include\
 423              		.file 9 "c:\\program files (x86)\\gnu tools arm embedded\\7 2017-q4-major\\lib\\gcc\\arm-none-eabi
 424              		.file 10 "c:\\program files (x86)\\gnu tools arm embedded\\7 2017-q4-major\\arm-none-eabi\\include
 425              		.file 11 "C:/Users/n-is/STM32Cube/Repository/STM32Cube_FW_F4_V1.23.0/Drivers/STM32F4xx_HAL_Driver/
 426              		.file 12 "C:/Users/n-is/STM32Cube/Repository/STM32Cube_FW_F4_V1.23.0/Drivers/STM32F4xx_HAL_Driver/
ARM GAS  C:\Users\073be\AppData\Local\Temp\cc7sieUp.s 			page 13

