ARM GAS  C:\Users\Prashant\AppData\Local\Temp\ccpo47JY.s 			page 1


   1              		.cpu cortex-m4
   2              		.eabi_attribute 27, 1
   3              		.eabi_attribute 28, 1
   4              		.eabi_attribute 20, 1
   5              		.eabi_attribute 21, 1
   6              		.eabi_attribute 23, 3
   7              		.eabi_attribute 24, 1
   8              		.eabi_attribute 25, 1
   9              		.eabi_attribute 26, 1
  10              		.eabi_attribute 30, 1
  11              		.eabi_attribute 34, 1
  12              		.eabi_attribute 18, 4
  13              		.file	"gpio.c"
  14              		.text
  15              	.Ltext0:
  16              		.cfi_sections	.debug_frame
  17              		.section	.text.MX_GPIO_Init,"ax",%progbits
  18              		.align	1
  19              		.global	MX_GPIO_Init
  20              		.syntax unified
  21              		.thumb
  22              		.thumb_func
  23              		.fpu fpv4-sp-d16
  25              	MX_GPIO_Init:
  26              	.LFB126:
  27              		.file 1 "Core/Src/periphs/gpio.c"
   1:Core/Src/periphs/gpio.c **** /**
   2:Core/Src/periphs/gpio.c ****   ******************************************************************************
   3:Core/Src/periphs/gpio.c ****   * File Name          : gpio.c
   4:Core/Src/periphs/gpio.c ****   * Description        : This file provides code for the configuration
   5:Core/Src/periphs/gpio.c ****   *                      of all used GPIO pins.
   6:Core/Src/periphs/gpio.c ****   ******************************************************************************
   7:Core/Src/periphs/gpio.c ****   ** This notice applies to any and all portions of this file
   8:Core/Src/periphs/gpio.c ****   * that are not between comment pairs USER CODE BEGIN and
   9:Core/Src/periphs/gpio.c ****   * USER CODE END. Other portions of this file, whether 
  10:Core/Src/periphs/gpio.c ****   * inserted by the user or by software development tools
  11:Core/Src/periphs/gpio.c ****   * are owned by their respective copyright owners.
  12:Core/Src/periphs/gpio.c ****   *
  13:Core/Src/periphs/gpio.c ****   * COPYRIGHT(c) 2019 STMicroelectronics
  14:Core/Src/periphs/gpio.c ****   *
  15:Core/Src/periphs/gpio.c ****   * Redistribution and use in source and binary forms, with or without modification,
  16:Core/Src/periphs/gpio.c ****   * are permitted provided that the following conditions are met:
  17:Core/Src/periphs/gpio.c ****   *   1. Redistributions of source code must retain the above copyright notice,
  18:Core/Src/periphs/gpio.c ****   *      this list of conditions and the following disclaimer.
  19:Core/Src/periphs/gpio.c ****   *   2. Redistributions in binary form must reproduce the above copyright notice,
  20:Core/Src/periphs/gpio.c ****   *      this list of conditions and the following disclaimer in the documentation
  21:Core/Src/periphs/gpio.c ****   *      and/or other materials provided with the distribution.
  22:Core/Src/periphs/gpio.c ****   *   3. Neither the name of STMicroelectronics nor the names of its contributors
  23:Core/Src/periphs/gpio.c ****   *      may be used to endorse or promote products derived from this software
  24:Core/Src/periphs/gpio.c ****   *      without specific prior written permission.
  25:Core/Src/periphs/gpio.c ****   *
  26:Core/Src/periphs/gpio.c ****   * THIS SOFTWARE IS PROVIDED BY THE COPYRIGHT HOLDERS AND CONTRIBUTORS "AS IS"
  27:Core/Src/periphs/gpio.c ****   * AND ANY EXPRESS OR IMPLIED WARRANTIES, INCLUDING, BUT NOT LIMITED TO, THE
  28:Core/Src/periphs/gpio.c ****   * IMPLIED WARRANTIES OF MERCHANTABILITY AND FITNESS FOR A PARTICULAR PURPOSE ARE
  29:Core/Src/periphs/gpio.c ****   * DISCLAIMED. IN NO EVENT SHALL THE COPYRIGHT HOLDER OR CONTRIBUTORS BE LIABLE
  30:Core/Src/periphs/gpio.c ****   * FOR ANY DIRECT, INDIRECT, INCIDENTAL, SPECIAL, EXEMPLARY, OR CONSEQUENTIAL
  31:Core/Src/periphs/gpio.c ****   * DAMAGES (INCLUDING, BUT NOT LIMITED TO, PROCUREMENT OF SUBSTITUTE GOODS OR
ARM GAS  C:\Users\Prashant\AppData\Local\Temp\ccpo47JY.s 			page 2


  32:Core/Src/periphs/gpio.c ****   * SERVICES; LOSS OF USE, DATA, OR PROFITS; OR BUSINESS INTERRUPTION) HOWEVER
  33:Core/Src/periphs/gpio.c ****   * CAUSED AND ON ANY THEORY OF LIABILITY, WHETHER IN CONTRACT, STRICT LIABILITY,
  34:Core/Src/periphs/gpio.c ****   * OR TORT (INCLUDING NEGLIGENCE OR OTHERWISE) ARISING IN ANY WAY OUT OF THE USE
  35:Core/Src/periphs/gpio.c ****   * OF THIS SOFTWARE, EVEN IF ADVISED OF THE POSSIBILITY OF SUCH DAMAGE.
  36:Core/Src/periphs/gpio.c ****   *
  37:Core/Src/periphs/gpio.c ****   ******************************************************************************
  38:Core/Src/periphs/gpio.c ****   */
  39:Core/Src/periphs/gpio.c **** 
  40:Core/Src/periphs/gpio.c **** /* Includes ------------------------------------------------------------------*/
  41:Core/Src/periphs/gpio.c **** #include "gpio.h"
  42:Core/Src/periphs/gpio.c **** /* USER CODE BEGIN 0 */
  43:Core/Src/periphs/gpio.c **** 
  44:Core/Src/periphs/gpio.c **** /* USER CODE END 0 */
  45:Core/Src/periphs/gpio.c **** 
  46:Core/Src/periphs/gpio.c **** /*----------------------------------------------------------------------------*/
  47:Core/Src/periphs/gpio.c **** /* Configure GPIO                                                             */
  48:Core/Src/periphs/gpio.c **** /*----------------------------------------------------------------------------*/
  49:Core/Src/periphs/gpio.c **** /* USER CODE BEGIN 1 */
  50:Core/Src/periphs/gpio.c **** 
  51:Core/Src/periphs/gpio.c **** /* USER CODE END 1 */
  52:Core/Src/periphs/gpio.c **** 
  53:Core/Src/periphs/gpio.c **** /** Configure pins as 
  54:Core/Src/periphs/gpio.c ****         * Analog 
  55:Core/Src/periphs/gpio.c ****         * Input 
  56:Core/Src/periphs/gpio.c ****         * Output
  57:Core/Src/periphs/gpio.c ****         * EVENT_OUT
  58:Core/Src/periphs/gpio.c ****         * EXTI
  59:Core/Src/periphs/gpio.c ****         * Free pins are configured automatically as Analog (this feature is enabled through 
  60:Core/Src/periphs/gpio.c ****         * the Code Generation settings)
  61:Core/Src/periphs/gpio.c **** */
  62:Core/Src/periphs/gpio.c **** void MX_GPIO_Init(void)
  63:Core/Src/periphs/gpio.c **** {
  28              		.loc 1 63 0
  29              		.cfi_startproc
  30              		@ args = 0, pretend = 0, frame = 48
  31              		@ frame_needed = 0, uses_anonymous_args = 0
  32 0000 2DE9F04F 		push	{r4, r5, r6, r7, r8, r9, r10, fp, lr}
  33              	.LCFI0:
  34              		.cfi_def_cfa_offset 36
  35              		.cfi_offset 4, -36
  36              		.cfi_offset 5, -32
  37              		.cfi_offset 6, -28
  38              		.cfi_offset 7, -24
  39              		.cfi_offset 8, -20
  40              		.cfi_offset 9, -16
  41              		.cfi_offset 10, -12
  42              		.cfi_offset 11, -8
  43              		.cfi_offset 14, -4
  44 0004 8DB0     		sub	sp, sp, #52
  45              	.LCFI1:
  46              		.cfi_def_cfa_offset 88
  64:Core/Src/periphs/gpio.c **** 
  65:Core/Src/periphs/gpio.c ****   GPIO_InitTypeDef GPIO_InitStruct = {0};
  47              		.loc 1 65 0
  48 0006 0024     		movs	r4, #0
  49 0008 0794     		str	r4, [sp, #28]
  50 000a 0894     		str	r4, [sp, #32]
ARM GAS  C:\Users\Prashant\AppData\Local\Temp\ccpo47JY.s 			page 3


  51 000c 0994     		str	r4, [sp, #36]
  52 000e 0A94     		str	r4, [sp, #40]
  53 0010 0B94     		str	r4, [sp, #44]
  54              	.LBB2:
  66:Core/Src/periphs/gpio.c **** 
  67:Core/Src/periphs/gpio.c ****   /* GPIO Ports Clock Enable */
  68:Core/Src/periphs/gpio.c ****   __HAL_RCC_GPIOE_CLK_ENABLE();
  55              		.loc 1 68 0
  56 0012 0194     		str	r4, [sp, #4]
  57 0014 874B     		ldr	r3, .L3
  58 0016 1A6B     		ldr	r2, [r3, #48]
  59 0018 42F01002 		orr	r2, r2, #16
  60 001c 1A63     		str	r2, [r3, #48]
  61 001e 1A6B     		ldr	r2, [r3, #48]
  62 0020 02F01002 		and	r2, r2, #16
  63 0024 0192     		str	r2, [sp, #4]
  64 0026 019A     		ldr	r2, [sp, #4]
  65              	.LBE2:
  66              	.LBB3:
  69:Core/Src/periphs/gpio.c ****   __HAL_RCC_GPIOC_CLK_ENABLE();
  67              		.loc 1 69 0
  68 0028 0294     		str	r4, [sp, #8]
  69 002a 1A6B     		ldr	r2, [r3, #48]
  70 002c 42F00402 		orr	r2, r2, #4
  71 0030 1A63     		str	r2, [r3, #48]
  72 0032 1A6B     		ldr	r2, [r3, #48]
  73 0034 02F00402 		and	r2, r2, #4
  74 0038 0292     		str	r2, [sp, #8]
  75 003a 029A     		ldr	r2, [sp, #8]
  76              	.LBE3:
  77              	.LBB4:
  70:Core/Src/periphs/gpio.c ****   __HAL_RCC_GPIOH_CLK_ENABLE();
  78              		.loc 1 70 0
  79 003c 0394     		str	r4, [sp, #12]
  80 003e 1A6B     		ldr	r2, [r3, #48]
  81 0040 42F08002 		orr	r2, r2, #128
  82 0044 1A63     		str	r2, [r3, #48]
  83 0046 1A6B     		ldr	r2, [r3, #48]
  84 0048 02F08002 		and	r2, r2, #128
  85 004c 0392     		str	r2, [sp, #12]
  86 004e 039A     		ldr	r2, [sp, #12]
  87              	.LBE4:
  88              	.LBB5:
  71:Core/Src/periphs/gpio.c ****   __HAL_RCC_GPIOA_CLK_ENABLE();
  89              		.loc 1 71 0
  90 0050 0494     		str	r4, [sp, #16]
  91 0052 1A6B     		ldr	r2, [r3, #48]
  92 0054 42F00102 		orr	r2, r2, #1
  93 0058 1A63     		str	r2, [r3, #48]
  94 005a 1A6B     		ldr	r2, [r3, #48]
  95 005c 02F00102 		and	r2, r2, #1
  96 0060 0492     		str	r2, [sp, #16]
  97 0062 049A     		ldr	r2, [sp, #16]
  98              	.LBE5:
  99              	.LBB6:
  72:Core/Src/periphs/gpio.c ****   __HAL_RCC_GPIOB_CLK_ENABLE();
 100              		.loc 1 72 0
ARM GAS  C:\Users\Prashant\AppData\Local\Temp\ccpo47JY.s 			page 4


 101 0064 0594     		str	r4, [sp, #20]
 102 0066 1A6B     		ldr	r2, [r3, #48]
 103 0068 42F00202 		orr	r2, r2, #2
 104 006c 1A63     		str	r2, [r3, #48]
 105 006e 1A6B     		ldr	r2, [r3, #48]
 106 0070 02F00202 		and	r2, r2, #2
 107 0074 0592     		str	r2, [sp, #20]
 108 0076 059A     		ldr	r2, [sp, #20]
 109              	.LBE6:
 110              	.LBB7:
  73:Core/Src/periphs/gpio.c ****   __HAL_RCC_GPIOD_CLK_ENABLE();
 111              		.loc 1 73 0
 112 0078 0694     		str	r4, [sp, #24]
 113 007a 1A6B     		ldr	r2, [r3, #48]
 114 007c 42F00802 		orr	r2, r2, #8
 115 0080 1A63     		str	r2, [r3, #48]
 116 0082 1B6B     		ldr	r3, [r3, #48]
 117 0084 03F00803 		and	r3, r3, #8
 118 0088 0693     		str	r3, [sp, #24]
 119 008a 069B     		ldr	r3, [sp, #24]
 120              	.LBE7:
  74:Core/Src/periphs/gpio.c **** 
  75:Core/Src/periphs/gpio.c ****   /*Configure GPIO pin Output Level */
  76:Core/Src/periphs/gpio.c ****   HAL_GPIO_WritePin(GPIOC, GPIO_PIN_1|GPIO_PIN_2|GPIO_PIN_3|GPIO_PIN_11, GPIO_PIN_RESET);
 121              		.loc 1 76 0
 122 008c DFF8B0A1 		ldr	r10, .L3+12
 123 0090 2246     		mov	r2, r4
 124 0092 40F60E01 		movw	r1, #2062
 125 0096 5046     		mov	r0, r10
 126 0098 FFF7FEFF 		bl	HAL_GPIO_WritePin
 127              	.LVL0:
  77:Core/Src/periphs/gpio.c **** 
  78:Core/Src/periphs/gpio.c ****   /*Configure GPIO pin Output Level */
  79:Core/Src/periphs/gpio.c ****   HAL_GPIO_WritePin(GPIOA, GPIO_PIN_3|GPIO_PIN_4|GPIO_PIN_8|GPIO_PIN_15, GPIO_PIN_RESET);
 128              		.loc 1 79 0
 129 009c DFF8A481 		ldr	r8, .L3+16
 130 00a0 2246     		mov	r2, r4
 131 00a2 48F21811 		movw	r1, #33048
 132 00a6 4046     		mov	r0, r8
 133 00a8 FFF7FEFF 		bl	HAL_GPIO_WritePin
 134              	.LVL1:
  80:Core/Src/periphs/gpio.c **** 
  81:Core/Src/periphs/gpio.c ****   /*Configure GPIO pin Output Level */
  82:Core/Src/periphs/gpio.c ****   HAL_GPIO_WritePin(GPIOB, GPIO_PIN_2|GPIO_PIN_5, GPIO_PIN_RESET);
 135              		.loc 1 82 0
 136 00ac 624F     		ldr	r7, .L3+4
 137 00ae 2246     		mov	r2, r4
 138 00b0 2421     		movs	r1, #36
 139 00b2 3846     		mov	r0, r7
 140 00b4 FFF7FEFF 		bl	HAL_GPIO_WritePin
 141              	.LVL2:
  83:Core/Src/periphs/gpio.c **** 
  84:Core/Src/periphs/gpio.c ****   /*Configure GPIO pin Output Level */
  85:Core/Src/periphs/gpio.c ****   HAL_GPIO_WritePin(GPIOE, GPIO_PIN_8, GPIO_PIN_RESET);
 142              		.loc 1 85 0
 143 00b8 DFF88C91 		ldr	r9, .L3+20
 144 00bc 2246     		mov	r2, r4
ARM GAS  C:\Users\Prashant\AppData\Local\Temp\ccpo47JY.s 			page 5


 145 00be 4FF48071 		mov	r1, #256
 146 00c2 4846     		mov	r0, r9
 147 00c4 FFF7FEFF 		bl	HAL_GPIO_WritePin
 148              	.LVL3:
  86:Core/Src/periphs/gpio.c **** 
  87:Core/Src/periphs/gpio.c ****   /*Configure GPIO pin Output Level */
  88:Core/Src/periphs/gpio.c ****   HAL_GPIO_WritePin(GPIOD, GPIO_PIN_3|GPIO_PIN_4|GPIO_PIN_5|GPIO_PIN_7, GPIO_PIN_RESET);
 149              		.loc 1 88 0
 150 00c8 2246     		mov	r2, r4
 151 00ca B821     		movs	r1, #184
 152 00cc 5B48     		ldr	r0, .L3+8
 153 00ce FFF7FEFF 		bl	HAL_GPIO_WritePin
 154              	.LVL4:
  89:Core/Src/periphs/gpio.c **** 
  90:Core/Src/periphs/gpio.c ****   /*Configure GPIO pins : PE2 PE4 PE6 PE7 
  91:Core/Src/periphs/gpio.c ****                            PE10 PE13 PE14 PE15 
  92:Core/Src/periphs/gpio.c ****                            PE0 */
  93:Core/Src/periphs/gpio.c ****   GPIO_InitStruct.Pin = GPIO_PIN_2|GPIO_PIN_4|GPIO_PIN_6|GPIO_PIN_7 
 155              		.loc 1 93 0
 156 00d2 4EF2D543 		movw	r3, #58581
 157 00d6 0793     		str	r3, [sp, #28]
  94:Core/Src/periphs/gpio.c ****                           |GPIO_PIN_10|GPIO_PIN_13|GPIO_PIN_14|GPIO_PIN_15 
  95:Core/Src/periphs/gpio.c ****                           |GPIO_PIN_0;
  96:Core/Src/periphs/gpio.c ****   GPIO_InitStruct.Mode = GPIO_MODE_ANALOG;
 158              		.loc 1 96 0
 159 00d8 0326     		movs	r6, #3
 160 00da 0896     		str	r6, [sp, #32]
  97:Core/Src/periphs/gpio.c ****   GPIO_InitStruct.Pull = GPIO_NOPULL;
 161              		.loc 1 97 0
 162 00dc 0994     		str	r4, [sp, #36]
  98:Core/Src/periphs/gpio.c ****   HAL_GPIO_Init(GPIOE, &GPIO_InitStruct);
 163              		.loc 1 98 0
 164 00de 07A9     		add	r1, sp, #28
 165 00e0 4846     		mov	r0, r9
 166 00e2 FFF7FEFF 		bl	HAL_GPIO_Init
 167              	.LVL5:
  99:Core/Src/periphs/gpio.c **** 
 100:Core/Src/periphs/gpio.c ****   /*Configure GPIO pins : PE3 PE5 PE12 PE1 */
 101:Core/Src/periphs/gpio.c ****   GPIO_InitStruct.Pin = GPIO_PIN_3|GPIO_PIN_5|GPIO_PIN_12|GPIO_PIN_1;
 168              		.loc 1 101 0
 169 00e6 41F22A03 		movw	r3, #4138
 170 00ea 0793     		str	r3, [sp, #28]
 102:Core/Src/periphs/gpio.c ****   GPIO_InitStruct.Mode = GPIO_MODE_IT_FALLING;
 171              		.loc 1 102 0
 172 00ec DFF85CB1 		ldr	fp, .L3+24
 173 00f0 CDF820B0 		str	fp, [sp, #32]
 103:Core/Src/periphs/gpio.c ****   GPIO_InitStruct.Pull = GPIO_PULLUP;
 174              		.loc 1 103 0
 175 00f4 0125     		movs	r5, #1
 176 00f6 0995     		str	r5, [sp, #36]
 104:Core/Src/periphs/gpio.c ****   HAL_GPIO_Init(GPIOE, &GPIO_InitStruct);
 177              		.loc 1 104 0
 178 00f8 07A9     		add	r1, sp, #28
 179 00fa 4846     		mov	r0, r9
 180 00fc FFF7FEFF 		bl	HAL_GPIO_Init
 181              	.LVL6:
 105:Core/Src/periphs/gpio.c **** 
ARM GAS  C:\Users\Prashant\AppData\Local\Temp\ccpo47JY.s 			page 6


 106:Core/Src/periphs/gpio.c ****   /*Configure GPIO pins : PC13 PC14 PC15 PC0 */
 107:Core/Src/periphs/gpio.c ****   GPIO_InitStruct.Pin = GPIO_PIN_13|GPIO_PIN_14|GPIO_PIN_15|GPIO_PIN_0;
 182              		.loc 1 107 0
 183 0100 4EF20103 		movw	r3, #57345
 184 0104 0793     		str	r3, [sp, #28]
 108:Core/Src/periphs/gpio.c ****   GPIO_InitStruct.Mode = GPIO_MODE_IT_FALLING;
 185              		.loc 1 108 0
 186 0106 CDF820B0 		str	fp, [sp, #32]
 109:Core/Src/periphs/gpio.c ****   GPIO_InitStruct.Pull = GPIO_PULLUP;
 187              		.loc 1 109 0
 188 010a 0995     		str	r5, [sp, #36]
 110:Core/Src/periphs/gpio.c ****   HAL_GPIO_Init(GPIOC, &GPIO_InitStruct);
 189              		.loc 1 110 0
 190 010c 07A9     		add	r1, sp, #28
 191 010e 5046     		mov	r0, r10
 192 0110 FFF7FEFF 		bl	HAL_GPIO_Init
 193              	.LVL7:
 111:Core/Src/periphs/gpio.c **** 
 112:Core/Src/periphs/gpio.c ****   /*Configure GPIO pins : PC1 PC2 PC3 PC11 */
 113:Core/Src/periphs/gpio.c ****   GPIO_InitStruct.Pin = GPIO_PIN_1|GPIO_PIN_2|GPIO_PIN_3|GPIO_PIN_11;
 194              		.loc 1 113 0
 195 0114 40F60E03 		movw	r3, #2062
 196 0118 0793     		str	r3, [sp, #28]
 114:Core/Src/periphs/gpio.c ****   GPIO_InitStruct.Mode = GPIO_MODE_OUTPUT_PP;
 197              		.loc 1 114 0
 198 011a 0895     		str	r5, [sp, #32]
 115:Core/Src/periphs/gpio.c ****   GPIO_InitStruct.Pull = GPIO_NOPULL;
 199              		.loc 1 115 0
 200 011c 0994     		str	r4, [sp, #36]
 116:Core/Src/periphs/gpio.c ****   GPIO_InitStruct.Speed = GPIO_SPEED_FREQ_LOW;
 201              		.loc 1 116 0
 202 011e 0A94     		str	r4, [sp, #40]
 117:Core/Src/periphs/gpio.c ****   HAL_GPIO_Init(GPIOC, &GPIO_InitStruct);
 203              		.loc 1 117 0
 204 0120 07A9     		add	r1, sp, #28
 205 0122 5046     		mov	r0, r10
 206 0124 FFF7FEFF 		bl	HAL_GPIO_Init
 207              	.LVL8:
 118:Core/Src/periphs/gpio.c **** 
 119:Core/Src/periphs/gpio.c ****   /*Configure GPIO pin : PA0 */
 120:Core/Src/periphs/gpio.c ****   GPIO_InitStruct.Pin = GPIO_PIN_0;
 208              		.loc 1 120 0
 209 0128 0795     		str	r5, [sp, #28]
 121:Core/Src/periphs/gpio.c ****   GPIO_InitStruct.Mode = GPIO_MODE_INPUT;
 210              		.loc 1 121 0
 211 012a 0894     		str	r4, [sp, #32]
 122:Core/Src/periphs/gpio.c ****   GPIO_InitStruct.Pull = GPIO_NOPULL;
 212              		.loc 1 122 0
 213 012c 0994     		str	r4, [sp, #36]
 123:Core/Src/periphs/gpio.c ****   HAL_GPIO_Init(GPIOA, &GPIO_InitStruct);
 214              		.loc 1 123 0
 215 012e 07A9     		add	r1, sp, #28
 216 0130 4046     		mov	r0, r8
 217 0132 FFF7FEFF 		bl	HAL_GPIO_Init
 218              	.LVL9:
 124:Core/Src/periphs/gpio.c **** 
 125:Core/Src/periphs/gpio.c ****   /*Configure GPIO pins : PA3 PA4 PA8 PA15 */
ARM GAS  C:\Users\Prashant\AppData\Local\Temp\ccpo47JY.s 			page 7


 126:Core/Src/periphs/gpio.c ****   GPIO_InitStruct.Pin = GPIO_PIN_3|GPIO_PIN_4|GPIO_PIN_8|GPIO_PIN_15;
 219              		.loc 1 126 0
 220 0136 48F21813 		movw	r3, #33048
 221 013a 0793     		str	r3, [sp, #28]
 127:Core/Src/periphs/gpio.c ****   GPIO_InitStruct.Mode = GPIO_MODE_OUTPUT_PP;
 222              		.loc 1 127 0
 223 013c 0895     		str	r5, [sp, #32]
 128:Core/Src/periphs/gpio.c ****   GPIO_InitStruct.Pull = GPIO_NOPULL;
 224              		.loc 1 128 0
 225 013e 0994     		str	r4, [sp, #36]
 129:Core/Src/periphs/gpio.c ****   GPIO_InitStruct.Speed = GPIO_SPEED_FREQ_LOW;
 226              		.loc 1 129 0
 227 0140 0A94     		str	r4, [sp, #40]
 130:Core/Src/periphs/gpio.c ****   HAL_GPIO_Init(GPIOA, &GPIO_InitStruct);
 228              		.loc 1 130 0
 229 0142 07A9     		add	r1, sp, #28
 230 0144 4046     		mov	r0, r8
 231 0146 FFF7FEFF 		bl	HAL_GPIO_Init
 232              	.LVL10:
 131:Core/Src/periphs/gpio.c **** 
 132:Core/Src/periphs/gpio.c ****   /*Configure GPIO pins : PC4 PC5 PC10 PC12 */
 133:Core/Src/periphs/gpio.c ****   GPIO_InitStruct.Pin = GPIO_PIN_4|GPIO_PIN_5|GPIO_PIN_10|GPIO_PIN_12;
 233              		.loc 1 133 0
 234 014a 41F23043 		movw	r3, #5168
 235 014e 0793     		str	r3, [sp, #28]
 134:Core/Src/periphs/gpio.c ****   GPIO_InitStruct.Mode = GPIO_MODE_ANALOG;
 236              		.loc 1 134 0
 237 0150 0896     		str	r6, [sp, #32]
 135:Core/Src/periphs/gpio.c ****   GPIO_InitStruct.Pull = GPIO_NOPULL;
 238              		.loc 1 135 0
 239 0152 0994     		str	r4, [sp, #36]
 136:Core/Src/periphs/gpio.c ****   HAL_GPIO_Init(GPIOC, &GPIO_InitStruct);
 240              		.loc 1 136 0
 241 0154 07A9     		add	r1, sp, #28
 242 0156 5046     		mov	r0, r10
 243 0158 FFF7FEFF 		bl	HAL_GPIO_Init
 244              	.LVL11:
 137:Core/Src/periphs/gpio.c **** 
 138:Core/Src/periphs/gpio.c ****   /*Configure GPIO pins : PB0 PB1 PB12 PB13 
 139:Core/Src/periphs/gpio.c ****                            PB14 PB15 PB4 PB6 
 140:Core/Src/periphs/gpio.c ****                            PB8 */
 141:Core/Src/periphs/gpio.c ****   GPIO_InitStruct.Pin = GPIO_PIN_0|GPIO_PIN_1|GPIO_PIN_12|GPIO_PIN_13 
 245              		.loc 1 141 0
 246 015c 4FF25313 		movw	r3, #61779
 247 0160 0793     		str	r3, [sp, #28]
 142:Core/Src/periphs/gpio.c ****                           |GPIO_PIN_14|GPIO_PIN_15|GPIO_PIN_4|GPIO_PIN_6 
 143:Core/Src/periphs/gpio.c ****                           |GPIO_PIN_8;
 144:Core/Src/periphs/gpio.c ****   GPIO_InitStruct.Mode = GPIO_MODE_ANALOG;
 248              		.loc 1 144 0
 249 0162 0896     		str	r6, [sp, #32]
 145:Core/Src/periphs/gpio.c ****   GPIO_InitStruct.Pull = GPIO_NOPULL;
 250              		.loc 1 145 0
 251 0164 0994     		str	r4, [sp, #36]
 146:Core/Src/periphs/gpio.c ****   HAL_GPIO_Init(GPIOB, &GPIO_InitStruct);
 252              		.loc 1 146 0
 253 0166 07A9     		add	r1, sp, #28
 254 0168 3846     		mov	r0, r7
ARM GAS  C:\Users\Prashant\AppData\Local\Temp\ccpo47JY.s 			page 8


 255 016a FFF7FEFF 		bl	HAL_GPIO_Init
 256              	.LVL12:
 147:Core/Src/periphs/gpio.c **** 
 148:Core/Src/periphs/gpio.c ****   /*Configure GPIO pins : PB2 PB5 */
 149:Core/Src/periphs/gpio.c ****   GPIO_InitStruct.Pin = GPIO_PIN_2|GPIO_PIN_5;
 257              		.loc 1 149 0
 258 016e 2423     		movs	r3, #36
 259 0170 0793     		str	r3, [sp, #28]
 150:Core/Src/periphs/gpio.c ****   GPIO_InitStruct.Mode = GPIO_MODE_OUTPUT_PP;
 260              		.loc 1 150 0
 261 0172 0895     		str	r5, [sp, #32]
 151:Core/Src/periphs/gpio.c ****   GPIO_InitStruct.Pull = GPIO_NOPULL;
 262              		.loc 1 151 0
 263 0174 0994     		str	r4, [sp, #36]
 152:Core/Src/periphs/gpio.c ****   GPIO_InitStruct.Speed = GPIO_SPEED_FREQ_LOW;
 264              		.loc 1 152 0
 265 0176 0A94     		str	r4, [sp, #40]
 153:Core/Src/periphs/gpio.c ****   HAL_GPIO_Init(GPIOB, &GPIO_InitStruct);
 266              		.loc 1 153 0
 267 0178 07A9     		add	r1, sp, #28
 268 017a 3846     		mov	r0, r7
 269 017c FFF7FEFF 		bl	HAL_GPIO_Init
 270              	.LVL13:
 154:Core/Src/periphs/gpio.c **** 
 155:Core/Src/periphs/gpio.c ****   /*Configure GPIO pin : PE8 */
 156:Core/Src/periphs/gpio.c ****   GPIO_InitStruct.Pin = GPIO_PIN_8;
 271              		.loc 1 156 0
 272 0180 4FF48073 		mov	r3, #256
 273 0184 0793     		str	r3, [sp, #28]
 157:Core/Src/periphs/gpio.c ****   GPIO_InitStruct.Mode = GPIO_MODE_OUTPUT_PP;
 274              		.loc 1 157 0
 275 0186 0895     		str	r5, [sp, #32]
 158:Core/Src/periphs/gpio.c ****   GPIO_InitStruct.Pull = GPIO_NOPULL;
 276              		.loc 1 158 0
 277 0188 0994     		str	r4, [sp, #36]
 159:Core/Src/periphs/gpio.c ****   GPIO_InitStruct.Speed = GPIO_SPEED_FREQ_LOW;
 278              		.loc 1 159 0
 279 018a 0A94     		str	r4, [sp, #40]
 160:Core/Src/periphs/gpio.c ****   HAL_GPIO_Init(GPIOE, &GPIO_InitStruct);
 280              		.loc 1 160 0
 281 018c 07A9     		add	r1, sp, #28
 282 018e 4846     		mov	r0, r9
 283 0190 FFF7FEFF 		bl	HAL_GPIO_Init
 284              	.LVL14:
 161:Core/Src/periphs/gpio.c **** 
 162:Core/Src/periphs/gpio.c ****   /*Configure GPIO pins : PD8 PD9 PD10 PD11 
 163:Core/Src/periphs/gpio.c ****                            PD14 PD15 PD0 PD1 
 164:Core/Src/periphs/gpio.c ****                            PD2 PD6 */
 165:Core/Src/periphs/gpio.c ****   GPIO_InitStruct.Pin = GPIO_PIN_8|GPIO_PIN_9|GPIO_PIN_10|GPIO_PIN_11 
 285              		.loc 1 165 0
 286 0194 4CF64773 		movw	r3, #53063
 287 0198 0793     		str	r3, [sp, #28]
 166:Core/Src/periphs/gpio.c ****                           |GPIO_PIN_14|GPIO_PIN_15|GPIO_PIN_0|GPIO_PIN_1 
 167:Core/Src/periphs/gpio.c ****                           |GPIO_PIN_2|GPIO_PIN_6;
 168:Core/Src/periphs/gpio.c ****   GPIO_InitStruct.Mode = GPIO_MODE_ANALOG;
 288              		.loc 1 168 0
 289 019a 0896     		str	r6, [sp, #32]
ARM GAS  C:\Users\Prashant\AppData\Local\Temp\ccpo47JY.s 			page 9


 169:Core/Src/periphs/gpio.c ****   GPIO_InitStruct.Pull = GPIO_NOPULL;
 290              		.loc 1 169 0
 291 019c 0994     		str	r4, [sp, #36]
 170:Core/Src/periphs/gpio.c ****   HAL_GPIO_Init(GPIOD, &GPIO_InitStruct);
 292              		.loc 1 170 0
 293 019e 07A9     		add	r1, sp, #28
 294 01a0 2648     		ldr	r0, .L3+8
 295 01a2 FFF7FEFF 		bl	HAL_GPIO_Init
 296              	.LVL15:
 171:Core/Src/periphs/gpio.c **** 
 172:Core/Src/periphs/gpio.c ****   /*Configure GPIO pins : PA9 PA10 PA11 PA12 */
 173:Core/Src/periphs/gpio.c ****   GPIO_InitStruct.Pin = GPIO_PIN_9|GPIO_PIN_10|GPIO_PIN_11|GPIO_PIN_12;
 297              		.loc 1 173 0
 298 01a6 4FF4F053 		mov	r3, #7680
 299 01aa 0793     		str	r3, [sp, #28]
 174:Core/Src/periphs/gpio.c ****   GPIO_InitStruct.Mode = GPIO_MODE_ANALOG;
 300              		.loc 1 174 0
 301 01ac 0896     		str	r6, [sp, #32]
 175:Core/Src/periphs/gpio.c ****   GPIO_InitStruct.Pull = GPIO_NOPULL;
 302              		.loc 1 175 0
 303 01ae 0994     		str	r4, [sp, #36]
 176:Core/Src/periphs/gpio.c ****   HAL_GPIO_Init(GPIOA, &GPIO_InitStruct);
 304              		.loc 1 176 0
 305 01b0 07A9     		add	r1, sp, #28
 306 01b2 4046     		mov	r0, r8
 307 01b4 FFF7FEFF 		bl	HAL_GPIO_Init
 308              	.LVL16:
 177:Core/Src/periphs/gpio.c **** 
 178:Core/Src/periphs/gpio.c ****   /*Configure GPIO pins : PD3 PD4 PD5 PD7 */
 179:Core/Src/periphs/gpio.c ****   GPIO_InitStruct.Pin = GPIO_PIN_3|GPIO_PIN_4|GPIO_PIN_5|GPIO_PIN_7;
 309              		.loc 1 179 0
 310 01b8 B823     		movs	r3, #184
 311 01ba 0793     		str	r3, [sp, #28]
 180:Core/Src/periphs/gpio.c ****   GPIO_InitStruct.Mode = GPIO_MODE_OUTPUT_PP;
 312              		.loc 1 180 0
 313 01bc 0895     		str	r5, [sp, #32]
 181:Core/Src/periphs/gpio.c ****   GPIO_InitStruct.Pull = GPIO_NOPULL;
 314              		.loc 1 181 0
 315 01be 0994     		str	r4, [sp, #36]
 182:Core/Src/periphs/gpio.c ****   GPIO_InitStruct.Speed = GPIO_SPEED_FREQ_LOW;
 316              		.loc 1 182 0
 317 01c0 0A94     		str	r4, [sp, #40]
 183:Core/Src/periphs/gpio.c ****   HAL_GPIO_Init(GPIOD, &GPIO_InitStruct);
 318              		.loc 1 183 0
 319 01c2 07A9     		add	r1, sp, #28
 320 01c4 1D48     		ldr	r0, .L3+8
 321 01c6 FFF7FEFF 		bl	HAL_GPIO_Init
 322              	.LVL17:
 184:Core/Src/periphs/gpio.c **** 
 185:Core/Src/periphs/gpio.c ****   /*Configure GPIO pins : PB7 PB9 */
 186:Core/Src/periphs/gpio.c ****   GPIO_InitStruct.Pin = GPIO_PIN_7|GPIO_PIN_9;
 323              		.loc 1 186 0
 324 01ca 4FF42073 		mov	r3, #640
 325 01ce 0793     		str	r3, [sp, #28]
 187:Core/Src/periphs/gpio.c ****   GPIO_InitStruct.Mode = GPIO_MODE_IT_FALLING;
 326              		.loc 1 187 0
 327 01d0 CDF820B0 		str	fp, [sp, #32]
ARM GAS  C:\Users\Prashant\AppData\Local\Temp\ccpo47JY.s 			page 10


 188:Core/Src/periphs/gpio.c ****   GPIO_InitStruct.Pull = GPIO_PULLUP;
 328              		.loc 1 188 0
 329 01d4 0995     		str	r5, [sp, #36]
 189:Core/Src/periphs/gpio.c ****   HAL_GPIO_Init(GPIOB, &GPIO_InitStruct);
 330              		.loc 1 189 0
 331 01d6 07A9     		add	r1, sp, #28
 332 01d8 3846     		mov	r0, r7
 333 01da FFF7FEFF 		bl	HAL_GPIO_Init
 334              	.LVL18:
 190:Core/Src/periphs/gpio.c **** 
 191:Core/Src/periphs/gpio.c ****   /* EXTI interrupt init*/
 192:Core/Src/periphs/gpio.c ****   HAL_NVIC_SetPriority(EXTI0_IRQn, 0, 0);
 335              		.loc 1 192 0
 336 01de 2246     		mov	r2, r4
 337 01e0 2146     		mov	r1, r4
 338 01e2 0620     		movs	r0, #6
 339 01e4 FFF7FEFF 		bl	HAL_NVIC_SetPriority
 340              	.LVL19:
 193:Core/Src/periphs/gpio.c ****   HAL_NVIC_EnableIRQ(EXTI0_IRQn);
 341              		.loc 1 193 0
 342 01e8 0620     		movs	r0, #6
 343 01ea FFF7FEFF 		bl	HAL_NVIC_EnableIRQ
 344              	.LVL20:
 194:Core/Src/periphs/gpio.c **** 
 195:Core/Src/periphs/gpio.c ****   HAL_NVIC_SetPriority(EXTI1_IRQn, 0, 0);
 345              		.loc 1 195 0
 346 01ee 2246     		mov	r2, r4
 347 01f0 2146     		mov	r1, r4
 348 01f2 0720     		movs	r0, #7
 349 01f4 FFF7FEFF 		bl	HAL_NVIC_SetPriority
 350              	.LVL21:
 196:Core/Src/periphs/gpio.c ****   HAL_NVIC_EnableIRQ(EXTI1_IRQn);
 351              		.loc 1 196 0
 352 01f8 0720     		movs	r0, #7
 353 01fa FFF7FEFF 		bl	HAL_NVIC_EnableIRQ
 354              	.LVL22:
 197:Core/Src/periphs/gpio.c **** 
 198:Core/Src/periphs/gpio.c ****   HAL_NVIC_SetPriority(EXTI3_IRQn, 0, 0);
 355              		.loc 1 198 0
 356 01fe 2246     		mov	r2, r4
 357 0200 2146     		mov	r1, r4
 358 0202 0920     		movs	r0, #9
 359 0204 FFF7FEFF 		bl	HAL_NVIC_SetPriority
 360              	.LVL23:
 199:Core/Src/periphs/gpio.c ****   HAL_NVIC_EnableIRQ(EXTI3_IRQn);
 361              		.loc 1 199 0
 362 0208 0920     		movs	r0, #9
 363 020a FFF7FEFF 		bl	HAL_NVIC_EnableIRQ
 364              	.LVL24:
 200:Core/Src/periphs/gpio.c **** 
 201:Core/Src/periphs/gpio.c ****   HAL_NVIC_SetPriority(EXTI9_5_IRQn, 0, 0);
 365              		.loc 1 201 0
 366 020e 2246     		mov	r2, r4
 367 0210 2146     		mov	r1, r4
 368 0212 1720     		movs	r0, #23
 369 0214 FFF7FEFF 		bl	HAL_NVIC_SetPriority
 370              	.LVL25:
ARM GAS  C:\Users\Prashant\AppData\Local\Temp\ccpo47JY.s 			page 11


 202:Core/Src/periphs/gpio.c ****   HAL_NVIC_EnableIRQ(EXTI9_5_IRQn);
 371              		.loc 1 202 0
 372 0218 1720     		movs	r0, #23
 373 021a FFF7FEFF 		bl	HAL_NVIC_EnableIRQ
 374              	.LVL26:
 203:Core/Src/periphs/gpio.c **** 
 204:Core/Src/periphs/gpio.c ****   HAL_NVIC_SetPriority(EXTI15_10_IRQn, 0, 0);
 375              		.loc 1 204 0
 376 021e 2246     		mov	r2, r4
 377 0220 2146     		mov	r1, r4
 378 0222 2820     		movs	r0, #40
 379 0224 FFF7FEFF 		bl	HAL_NVIC_SetPriority
 380              	.LVL27:
 205:Core/Src/periphs/gpio.c ****   HAL_NVIC_EnableIRQ(EXTI15_10_IRQn);
 381              		.loc 1 205 0
 382 0228 2820     		movs	r0, #40
 383 022a FFF7FEFF 		bl	HAL_NVIC_EnableIRQ
 384              	.LVL28:
 206:Core/Src/periphs/gpio.c **** 
 207:Core/Src/periphs/gpio.c **** }
 385              		.loc 1 207 0
 386 022e 0DB0     		add	sp, sp, #52
 387              	.LCFI2:
 388              		.cfi_def_cfa_offset 36
 389              		@ sp needed
 390 0230 BDE8F08F 		pop	{r4, r5, r6, r7, r8, r9, r10, fp, pc}
 391              	.L4:
 392              		.align	2
 393              	.L3:
 394 0234 00380240 		.word	1073887232
 395 0238 00040240 		.word	1073873920
 396 023c 000C0240 		.word	1073875968
 397 0240 00080240 		.word	1073874944
 398 0244 00000240 		.word	1073872896
 399 0248 00100240 		.word	1073876992
 400 024c 00002110 		.word	270598144
 401              		.cfi_endproc
 402              	.LFE126:
 404              		.text
 405              	.Letext0:
 406              		.file 2 "c:\\program files (x86)\\gnu tools arm embedded\\7 2017-q4-major\\arm-none-eabi\\include\
 407              		.file 3 "c:\\program files (x86)\\gnu tools arm embedded\\7 2017-q4-major\\arm-none-eabi\\include\
 408              		.file 4 "C:/Users/Prashant/STM32Cube/Repository/STM32Cube_FW_F4_V1.23.0/Drivers/CMSIS/Include/core
 409              		.file 5 "C:/Users/Prashant/STM32Cube/Repository/STM32Cube_FW_F4_V1.23.0/Drivers/CMSIS/Device/ST/ST
 410              		.file 6 "C:/Users/Prashant/STM32Cube/Repository/STM32Cube_FW_F4_V1.23.0/Drivers/CMSIS/Device/ST/ST
 411              		.file 7 "c:\\program files (x86)\\gnu tools arm embedded\\7 2017-q4-major\\arm-none-eabi\\include\
 412              		.file 8 "c:\\program files (x86)\\gnu tools arm embedded\\7 2017-q4-major\\arm-none-eabi\\include\
 413              		.file 9 "c:\\program files (x86)\\gnu tools arm embedded\\7 2017-q4-major\\lib\\gcc\\arm-none-eabi
 414              		.file 10 "c:\\program files (x86)\\gnu tools arm embedded\\7 2017-q4-major\\arm-none-eabi\\include
 415              		.file 11 "C:/Users/Prashant/STM32Cube/Repository/STM32Cube_FW_F4_V1.23.0/Drivers/STM32F4xx_HAL_Dri
 416              		.file 12 "C:/Users/Prashant/STM32Cube/Repository/STM32Cube_FW_F4_V1.23.0/Drivers/STM32F4xx_HAL_Dri
ARM GAS  C:\Users\Prashant\AppData\Local\Temp\ccpo47JY.s 			page 12


DEFINED SYMBOLS
                            *ABS*:00000000 gpio.c
C:\Users\Prashant\AppData\Local\Temp\ccpo47JY.s:18     .text.MX_GPIO_Init:00000000 $t
C:\Users\Prashant\AppData\Local\Temp\ccpo47JY.s:25     .text.MX_GPIO_Init:00000000 MX_GPIO_Init
C:\Users\Prashant\AppData\Local\Temp\ccpo47JY.s:394    .text.MX_GPIO_Init:00000234 $d

UNDEFINED SYMBOLS
HAL_GPIO_WritePin
HAL_GPIO_Init
HAL_NVIC_SetPriority
HAL_NVIC_EnableIRQ
