ARM GAS  C:\Users\Prashant\AppData\Local\Temp\ccsKOM5c.s 			page 1


   1              		.cpu cortex-m4
   2              		.eabi_attribute 27, 1
   3              		.eabi_attribute 28, 1
   4              		.eabi_attribute 20, 1
   5              		.eabi_attribute 21, 1
   6              		.eabi_attribute 23, 3
   7              		.eabi_attribute 24, 1
   8              		.eabi_attribute 25, 1
   9              		.eabi_attribute 26, 1
  10              		.eabi_attribute 30, 1
  11              		.eabi_attribute 34, 1
  12              		.eabi_attribute 18, 4
  13              		.file	"motor.cpp"
  14              		.text
  15              	.Ltext0:
  16              		.cfi_sections	.debug_frame
  17              		.section	.text._Z8floatAbsf,"ax",%progbits
  18              		.align	1
  19              		.global	_Z8floatAbsf
  20              		.syntax unified
  21              		.thumb
  22              		.thumb_func
  23              		.fpu fpv4-sp-d16
  25              	_Z8floatAbsf:
  26              	.LFB348:
  27              		.file 1 "Core/Src/devs/motor.cpp"
   1:Core/Src/devs/motor.cpp **** /*22-1-2019*/
   2:Core/Src/devs/motor.cpp **** 
   3:Core/Src/devs/motor.cpp **** #include <math.h>
   4:Core/Src/devs/motor.cpp **** #include "motor.h"
   5:Core/Src/devs/motor.cpp **** 
   6:Core/Src/devs/motor.cpp **** float floatAbs(float num)
   7:Core/Src/devs/motor.cpp **** {
  28              		.loc 1 7 0
  29              		.cfi_startproc
  30              		@ args = 0, pretend = 0, frame = 0
  31              		@ frame_needed = 0, uses_anonymous_args = 0
  32              		@ link register save eliminated.
  33              	.LVL0:
   8:Core/Src/devs/motor.cpp ****     if (num < 0) 
  34              		.loc 1 8 0
  35 0000 B5EEC00A 		vcmpe.f32	s0, #0
  36 0004 F1EE10FA 		vmrs	APSR_nzcv, FPSCR
  37 0008 00D4     		bmi	.L5
  38              	.LVL1:
  39              	.L2:
   9:Core/Src/devs/motor.cpp ****         return (-1) * num;
  10:Core/Src/devs/motor.cpp ****     else 
  11:Core/Src/devs/motor.cpp ****         return num;
  12:Core/Src/devs/motor.cpp **** }
  40              		.loc 1 12 0
  41 000a 7047     		bx	lr
  42              	.LVL2:
  43              	.L5:
   9:Core/Src/devs/motor.cpp ****         return (-1) * num;
  44              		.loc 1 9 0
  45 000c B1EE400A 		vneg.f32	s0, s0
ARM GAS  C:\Users\Prashant\AppData\Local\Temp\ccsKOM5c.s 			page 2


  46              	.LVL3:
  47 0010 FBE7     		b	.L2
  48              		.cfi_endproc
  49              	.LFE348:
  51              		.section	.text._Z17calculateVelocityP8motorStr,"ax",%progbits
  52              		.align	1
  53              		.global	_Z17calculateVelocityP8motorStr
  54              		.syntax unified
  55              		.thumb
  56              		.thumb_func
  57              		.fpu fpv4-sp-d16
  59              	_Z17calculateVelocityP8motorStr:
  60              	.LFB349:
  13:Core/Src/devs/motor.cpp **** 
  14:Core/Src/devs/motor.cpp **** void calculateVelocity(struct motorStr *motor)
  15:Core/Src/devs/motor.cpp **** {
  61              		.loc 1 15 0
  62              		.cfi_startproc
  63              		@ args = 0, pretend = 0, frame = 0
  64              		@ frame_needed = 0, uses_anonymous_args = 0
  65              		@ link register save eliminated.
  66              	.LVL4:
  16:Core/Src/devs/motor.cpp ****     motor->velocity = motor->omega * motor->radius;
  67              		.loc 1 16 0
  68 0000 D0ED007A 		vldr.32	s15, [r0]
  69 0004 90ED027A 		vldr.32	s14, [r0, #8]
  70 0008 67EE877A 		vmul.f32	s15, s15, s14
  71 000c C0ED037A 		vstr.32	s15, [r0, #12]
  17:Core/Src/devs/motor.cpp **** }
  72              		.loc 1 17 0
  73 0010 7047     		bx	lr
  74              		.cfi_endproc
  75              	.LFE349:
  77              		.section	.text._Z12setDirectionP8motorStr14motorDirection,"ax",%progbits
  78              		.align	1
  79              		.global	_Z12setDirectionP8motorStr14motorDirection
  80              		.syntax unified
  81              		.thumb
  82              		.thumb_func
  83              		.fpu fpv4-sp-d16
  85              	_Z12setDirectionP8motorStr14motorDirection:
  86              	.LFB350:
  18:Core/Src/devs/motor.cpp **** 
  19:Core/Src/devs/motor.cpp **** void setDirection(struct motorStr *motor, enum motorDirection d)
  20:Core/Src/devs/motor.cpp **** {
  87              		.loc 1 20 0
  88              		.cfi_startproc
  89              		@ args = 0, pretend = 0, frame = 0
  90              		@ frame_needed = 0, uses_anonymous_args = 0
  91              	.LVL5:
  92 0000 10B5     		push	{r4, lr}
  93              	.LCFI0:
  94              		.cfi_def_cfa_offset 8
  95              		.cfi_offset 4, -8
  96              		.cfi_offset 14, -4
  97 0002 0446     		mov	r4, r0
  21:Core/Src/devs/motor.cpp ****     if (d == DIR_CLOCKWISE)       
ARM GAS  C:\Users\Prashant\AppData\Local\Temp\ccsKOM5c.s 			page 3


  98              		.loc 1 21 0
  99 0004 31B1     		cbz	r1, .L13
  22:Core/Src/devs/motor.cpp ****     {
  23:Core/Src/devs/motor.cpp ****         HAL_GPIO_WritePin(motor->dir1_port, motor->dir1_pin, GPIO_PIN_SET);
  24:Core/Src/devs/motor.cpp ****         HAL_GPIO_WritePin(motor->dir2_port, motor->dir2_pin, GPIO_PIN_RESET);
  25:Core/Src/devs/motor.cpp ****     }
  26:Core/Src/devs/motor.cpp ****     else if (d == DIR_ANTICLOCKWISE)
 100              		.loc 1 26 0
 101 0006 0129     		cmp	r1, #1
 102 0008 0FD0     		beq	.L14
  27:Core/Src/devs/motor.cpp ****     {
  28:Core/Src/devs/motor.cpp ****         HAL_GPIO_WritePin(motor->dir1_port, motor->dir1_pin, GPIO_PIN_RESET);
  29:Core/Src/devs/motor.cpp ****         HAL_GPIO_WritePin(motor->dir2_port, motor->dir2_pin, GPIO_PIN_SET);
  30:Core/Src/devs/motor.cpp ****     }
  31:Core/Src/devs/motor.cpp ****     else if (d == DIR_HALT)
 103              		.loc 1 31 0
 104 000a 0229     		cmp	r1, #2
 105 000c 18D0     		beq	.L15
  32:Core/Src/devs/motor.cpp ****     {
  33:Core/Src/devs/motor.cpp ****         HAL_GPIO_WritePin(motor->dir1_port, motor->dir1_pin, GPIO_PIN_RESET);
  34:Core/Src/devs/motor.cpp ****         HAL_GPIO_WritePin(motor->dir2_port, motor->dir2_pin, GPIO_PIN_RESET);
  35:Core/Src/devs/motor.cpp ****     }
  36:Core/Src/devs/motor.cpp ****     else if (d == DIR_BRAKE)
 106              		.loc 1 36 0
 107 000e 0329     		cmp	r1, #3
 108 0010 21D0     		beq	.L16
 109              	.LVL6:
 110              	.L7:
  37:Core/Src/devs/motor.cpp ****     {
  38:Core/Src/devs/motor.cpp ****         HAL_GPIO_WritePin(motor->dir1_port, motor->dir1_pin, GPIO_PIN_SET);
  39:Core/Src/devs/motor.cpp ****         HAL_GPIO_WritePin(motor->dir2_port, motor->dir2_pin, GPIO_PIN_SET);
  40:Core/Src/devs/motor.cpp ****     }
  41:Core/Src/devs/motor.cpp ****     
  42:Core/Src/devs/motor.cpp ****     else
  43:Core/Src/devs/motor.cpp ****     {
  44:Core/Src/devs/motor.cpp ****         // error
  45:Core/Src/devs/motor.cpp ****     }
  46:Core/Src/devs/motor.cpp **** }
 111              		.loc 1 46 0
 112 0012 10BD     		pop	{r4, pc}
 113              	.LVL7:
 114              	.L13:
  23:Core/Src/devs/motor.cpp ****         HAL_GPIO_WritePin(motor->dir2_port, motor->dir2_pin, GPIO_PIN_RESET);
 115              		.loc 1 23 0
 116 0014 0122     		movs	r2, #1
 117 0016 818B     		ldrh	r1, [r0, #28]
 118              	.LVL8:
 119 0018 8069     		ldr	r0, [r0, #24]
 120              	.LVL9:
 121 001a FFF7FEFF 		bl	HAL_GPIO_WritePin
 122              	.LVL10:
  24:Core/Src/devs/motor.cpp ****     }
 123              		.loc 1 24 0
 124 001e 0022     		movs	r2, #0
 125 0020 A18C     		ldrh	r1, [r4, #36]
 126 0022 206A     		ldr	r0, [r4, #32]
 127 0024 FFF7FEFF 		bl	HAL_GPIO_WritePin
ARM GAS  C:\Users\Prashant\AppData\Local\Temp\ccsKOM5c.s 			page 4


 128              	.LVL11:
 129 0028 F3E7     		b	.L7
 130              	.LVL12:
 131              	.L14:
  28:Core/Src/devs/motor.cpp ****         HAL_GPIO_WritePin(motor->dir2_port, motor->dir2_pin, GPIO_PIN_SET);
 132              		.loc 1 28 0
 133 002a 0022     		movs	r2, #0
 134 002c 818B     		ldrh	r1, [r0, #28]
 135              	.LVL13:
 136 002e 8069     		ldr	r0, [r0, #24]
 137              	.LVL14:
 138 0030 FFF7FEFF 		bl	HAL_GPIO_WritePin
 139              	.LVL15:
  29:Core/Src/devs/motor.cpp ****     }
 140              		.loc 1 29 0
 141 0034 0122     		movs	r2, #1
 142 0036 A18C     		ldrh	r1, [r4, #36]
 143 0038 206A     		ldr	r0, [r4, #32]
 144 003a FFF7FEFF 		bl	HAL_GPIO_WritePin
 145              	.LVL16:
 146 003e E8E7     		b	.L7
 147              	.LVL17:
 148              	.L15:
  33:Core/Src/devs/motor.cpp ****         HAL_GPIO_WritePin(motor->dir2_port, motor->dir2_pin, GPIO_PIN_RESET);
 149              		.loc 1 33 0
 150 0040 0022     		movs	r2, #0
 151 0042 818B     		ldrh	r1, [r0, #28]
 152              	.LVL18:
 153 0044 8069     		ldr	r0, [r0, #24]
 154              	.LVL19:
 155 0046 FFF7FEFF 		bl	HAL_GPIO_WritePin
 156              	.LVL20:
  34:Core/Src/devs/motor.cpp ****     }
 157              		.loc 1 34 0
 158 004a 0022     		movs	r2, #0
 159 004c A18C     		ldrh	r1, [r4, #36]
 160 004e 206A     		ldr	r0, [r4, #32]
 161 0050 FFF7FEFF 		bl	HAL_GPIO_WritePin
 162              	.LVL21:
 163 0054 DDE7     		b	.L7
 164              	.LVL22:
 165              	.L16:
  38:Core/Src/devs/motor.cpp ****         HAL_GPIO_WritePin(motor->dir2_port, motor->dir2_pin, GPIO_PIN_SET);
 166              		.loc 1 38 0
 167 0056 0122     		movs	r2, #1
 168 0058 818B     		ldrh	r1, [r0, #28]
 169              	.LVL23:
 170 005a 8069     		ldr	r0, [r0, #24]
 171              	.LVL24:
 172 005c FFF7FEFF 		bl	HAL_GPIO_WritePin
 173              	.LVL25:
  39:Core/Src/devs/motor.cpp ****     }
 174              		.loc 1 39 0
 175 0060 0122     		movs	r2, #1
 176 0062 A18C     		ldrh	r1, [r4, #36]
 177 0064 206A     		ldr	r0, [r4, #32]
 178 0066 FFF7FEFF 		bl	HAL_GPIO_WritePin
ARM GAS  C:\Users\Prashant\AppData\Local\Temp\ccsKOM5c.s 			page 5


 179              	.LVL26:
 180              		.loc 1 46 0
 181 006a D2E7     		b	.L7
 182              		.cfi_endproc
 183              	.LFE350:
 185              		.section	.text._Z12setDutyCycleP8motorStrt,"ax",%progbits
 186              		.align	1
 187              		.global	_Z12setDutyCycleP8motorStrt
 188              		.syntax unified
 189              		.thumb
 190              		.thumb_func
 191              		.fpu fpv4-sp-d16
 193              	_Z12setDutyCycleP8motorStrt:
 194              	.LFB351:
  47:Core/Src/devs/motor.cpp **** 
  48:Core/Src/devs/motor.cpp **** void setDutyCycle(struct motorStr *motor, uint16_t dutyCycle)
  49:Core/Src/devs/motor.cpp **** {
 195              		.loc 1 49 0
 196              		.cfi_startproc
 197              		@ args = 0, pretend = 0, frame = 0
 198              		@ frame_needed = 0, uses_anonymous_args = 0
 199              		@ link register save eliminated.
 200              	.LVL27:
  50:Core/Src/devs/motor.cpp ****     uint16_t mapped_value;
  51:Core/Src/devs/motor.cpp ****     mapped_value = (10499 * dutyCycle) / 65535;
 201              		.loc 1 51 0
 202 0000 42F60313 		movw	r3, #10499
 203 0004 03FB01F3 		mul	r3, r3, r1
 204 0008 0649     		ldr	r1, .L18
 205              	.LVL28:
 206 000a 81FB0321 		smull	r2, r1, r1, r3
 207 000e 1944     		add	r1, r1, r3
 208              	.LVL29:
  52:Core/Src/devs/motor.cpp ****     
  53:Core/Src/devs/motor.cpp ****     __HAL_TIM_SET_COMPARE(motor->htim, motor->channel, mapped_value); 
 209              		.loc 1 53 0
 210 0010 836A     		ldr	r3, [r0, #40]
 211 0012 1B68     		ldr	r3, [r3]
 212 0014 3433     		adds	r3, r3, #52
 213 0016 C26A     		ldr	r2, [r0, #44]
 214 0018 9208     		lsrs	r2, r2, #2
 215 001a C1F3CF31 		ubfx	r1, r1, #15, #16
 216              	.LVL30:
 217 001e 43F82210 		str	r1, [r3, r2, lsl #2]
  54:Core/Src/devs/motor.cpp **** }
 218              		.loc 1 54 0
 219 0022 7047     		bx	lr
 220              	.L19:
 221              		.align	2
 222              	.L18:
 223 0024 01800080 		.word	-2147450879
 224              		.cfi_endproc
 225              	.LFE351:
 227              		.global	__aeabi_f2d
 228              		.global	__aeabi_dmul
 229              		.global	__aeabi_d2uiz
 230              		.section	.text._Z8setOmegaP8motorStrf,"ax",%progbits
ARM GAS  C:\Users\Prashant\AppData\Local\Temp\ccsKOM5c.s 			page 6


 231              		.align	1
 232              		.global	_Z8setOmegaP8motorStrf
 233              		.syntax unified
 234              		.thumb
 235              		.thumb_func
 236              		.fpu fpv4-sp-d16
 238              	_Z8setOmegaP8motorStrf:
 239              	.LFB352:
  55:Core/Src/devs/motor.cpp **** 
  56:Core/Src/devs/motor.cpp **** void setOmega(struct motorStr *motor, float omega)
  57:Core/Src/devs/motor.cpp **** {
 240              		.loc 1 57 0
 241              		.cfi_startproc
 242              		@ args = 0, pretend = 0, frame = 0
 243              		@ frame_needed = 0, uses_anonymous_args = 0
 244              	.LVL31:
 245 0000 38B5     		push	{r3, r4, r5, lr}
 246              	.LCFI1:
 247              		.cfi_def_cfa_offset 16
 248              		.cfi_offset 3, -16
 249              		.cfi_offset 4, -12
 250              		.cfi_offset 5, -8
 251              		.cfi_offset 14, -4
 252 0002 2DED028B 		vpush.64	{d8}
 253              	.LCFI2:
 254              		.cfi_def_cfa_offset 24
 255              		.cfi_offset 80, -24
 256              		.cfi_offset 81, -20
 257 0006 0446     		mov	r4, r0
 258 0008 B0EE408A 		vmov.f32	s16, s0
  58:Core/Src/devs/motor.cpp ****     uint16_t new_omega = (65535.0 / MAX_OMEGA) * fabs(omega);
 259              		.loc 1 58 0
 260 000c F0EEC07A 		vabs.f32	s15, s0
 261 0010 17EE900A 		vmov	r0, s15
 262              	.LVL32:
 263 0014 FFF7FEFF 		bl	__aeabi_f2d
 264              	.LVL33:
 265 0018 17A3     		adr	r3, .L33
 266 001a D3E90023 		ldrd	r2, [r3]
 267 001e FFF7FEFF 		bl	__aeabi_dmul
 268              	.LVL34:
 269 0022 FFF7FEFF 		bl	__aeabi_d2uiz
 270              	.LVL35:
 271 0026 85B2     		uxth	r5, r0
 272              	.LVL36:
  59:Core/Src/devs/motor.cpp ****     if (omega > 0) 
 273              		.loc 1 59 0
 274 0028 B5EEC08A 		vcmpe.f32	s16, #0
 275 002c F1EE10FA 		vmrs	APSR_nzcv, FPSCR
 276 0030 0DDC     		bgt	.L31
  60:Core/Src/devs/motor.cpp ****     {
  61:Core/Src/devs/motor.cpp ****             setDirection(motor, DIR_CLOCKWISE);
  62:Core/Src/devs/motor.cpp ****             setDutyCycle(motor, new_omega);
  63:Core/Src/devs/motor.cpp ****     }
  64:Core/Src/devs/motor.cpp ****     
  65:Core/Src/devs/motor.cpp ****     else if (omega < 0) 
 277              		.loc 1 65 0
ARM GAS  C:\Users\Prashant\AppData\Local\Temp\ccsKOM5c.s 			page 7


 278 0032 B5EEC08A 		vcmpe.f32	s16, #0
 279 0036 F1EE10FA 		vmrs	APSR_nzcv, FPSCR
 280 003a 13D4     		bmi	.L32
  66:Core/Src/devs/motor.cpp ****     {
  67:Core/Src/devs/motor.cpp ****             setDirection(motor, DIR_ANTICLOCKWISE);
  68:Core/Src/devs/motor.cpp ****             setDutyCycle(motor, new_omega);
  69:Core/Src/devs/motor.cpp ****     }
  70:Core/Src/devs/motor.cpp ****     
  71:Core/Src/devs/motor.cpp ****     else 
  72:Core/Src/devs/motor.cpp ****     {
  73:Core/Src/devs/motor.cpp ****             setDirection(motor, DIR_HALT);
 281              		.loc 1 73 0
 282 003c 0221     		movs	r1, #2
 283 003e 2046     		mov	r0, r4
 284 0040 FFF7FEFF 		bl	_Z12setDirectionP8motorStr14motorDirection
 285              	.LVL37:
  74:Core/Src/devs/motor.cpp ****             setDutyCycle(motor, 0);
 286              		.loc 1 74 0
 287 0044 0021     		movs	r1, #0
 288 0046 2046     		mov	r0, r4
 289 0048 FFF7FEFF 		bl	_Z12setDutyCycleP8motorStrt
 290              	.LVL38:
  75:Core/Src/devs/motor.cpp ****     }
  76:Core/Src/devs/motor.cpp **** }
 291              		.loc 1 76 0
 292 004c 07E0     		b	.L20
 293              	.L31:
  61:Core/Src/devs/motor.cpp ****             setDutyCycle(motor, new_omega);
 294              		.loc 1 61 0
 295 004e 0021     		movs	r1, #0
 296 0050 2046     		mov	r0, r4
 297 0052 FFF7FEFF 		bl	_Z12setDirectionP8motorStr14motorDirection
 298              	.LVL39:
  62:Core/Src/devs/motor.cpp ****     }
 299              		.loc 1 62 0
 300 0056 2946     		mov	r1, r5
 301 0058 2046     		mov	r0, r4
 302 005a FFF7FEFF 		bl	_Z12setDutyCycleP8motorStrt
 303              	.LVL40:
 304              	.L20:
 305              		.loc 1 76 0
 306 005e BDEC028B 		vldm	sp!, {d8}
 307              	.LCFI3:
 308              		.cfi_remember_state
 309              		.cfi_restore 80
 310              		.cfi_restore 81
 311              		.cfi_def_cfa_offset 16
 312              	.LVL41:
 313 0062 38BD     		pop	{r3, r4, r5, pc}
 314              	.LVL42:
 315              	.L32:
 316              	.LCFI4:
 317              		.cfi_restore_state
  67:Core/Src/devs/motor.cpp ****             setDutyCycle(motor, new_omega);
 318              		.loc 1 67 0
 319 0064 0121     		movs	r1, #1
 320 0066 2046     		mov	r0, r4
ARM GAS  C:\Users\Prashant\AppData\Local\Temp\ccsKOM5c.s 			page 8


 321 0068 FFF7FEFF 		bl	_Z12setDirectionP8motorStr14motorDirection
 322              	.LVL43:
  68:Core/Src/devs/motor.cpp ****     }
 323              		.loc 1 68 0
 324 006c 2946     		mov	r1, r5
 325 006e 2046     		mov	r0, r4
 326 0070 FFF7FEFF 		bl	_Z12setDutyCycleP8motorStrt
 327              	.LVL44:
 328 0074 F3E7     		b	.L20
 329              	.L34:
 330 0076 00BF     		.align	3
 331              	.L33:
 332 0078 00000000 		.word	0
 333 007c 001EAE40 		.word	1085152768
 334              		.cfi_endproc
 335              	.LFE352:
 337              		.section	.text._Z9setbOmegaP8motorStrf,"ax",%progbits
 338              		.align	1
 339              		.global	_Z9setbOmegaP8motorStrf
 340              		.syntax unified
 341              		.thumb
 342              		.thumb_func
 343              		.fpu fpv4-sp-d16
 345              	_Z9setbOmegaP8motorStrf:
 346              	.LFB353:
  77:Core/Src/devs/motor.cpp **** void setbOmega(struct motorStr *motor, float omega)
  78:Core/Src/devs/motor.cpp **** {
 347              		.loc 1 78 0
 348              		.cfi_startproc
 349              		@ args = 0, pretend = 0, frame = 0
 350              		@ frame_needed = 0, uses_anonymous_args = 0
 351              	.LVL45:
 352 0000 38B5     		push	{r3, r4, r5, lr}
 353              	.LCFI5:
 354              		.cfi_def_cfa_offset 16
 355              		.cfi_offset 3, -16
 356              		.cfi_offset 4, -12
 357              		.cfi_offset 5, -8
 358              		.cfi_offset 14, -4
 359 0002 2DED028B 		vpush.64	{d8}
 360              	.LCFI6:
 361              		.cfi_def_cfa_offset 24
 362              		.cfi_offset 80, -24
 363              		.cfi_offset 81, -20
 364 0006 0446     		mov	r4, r0
 365 0008 B0EE408A 		vmov.f32	s16, s0
  79:Core/Src/devs/motor.cpp ****     uint16_t new_omega = (65535.0 / 7) * fabs(omega);
 366              		.loc 1 79 0
 367 000c F0EEC07A 		vabs.f32	s15, s0
 368 0010 17EE900A 		vmov	r0, s15
 369              	.LVL46:
 370 0014 FFF7FEFF 		bl	__aeabi_f2d
 371              	.LVL47:
 372 0018 17A3     		adr	r3, .L48
 373 001a D3E90023 		ldrd	r2, [r3]
 374 001e FFF7FEFF 		bl	__aeabi_dmul
 375              	.LVL48:
ARM GAS  C:\Users\Prashant\AppData\Local\Temp\ccsKOM5c.s 			page 9


 376 0022 FFF7FEFF 		bl	__aeabi_d2uiz
 377              	.LVL49:
 378 0026 85B2     		uxth	r5, r0
 379              	.LVL50:
  80:Core/Src/devs/motor.cpp ****     if (omega > 0) 
 380              		.loc 1 80 0
 381 0028 B5EEC08A 		vcmpe.f32	s16, #0
 382 002c F1EE10FA 		vmrs	APSR_nzcv, FPSCR
 383 0030 0DDC     		bgt	.L46
  81:Core/Src/devs/motor.cpp ****     {
  82:Core/Src/devs/motor.cpp ****             setDirection(motor, DIR_CLOCKWISE);
  83:Core/Src/devs/motor.cpp ****             setDutyCycle(motor, new_omega);
  84:Core/Src/devs/motor.cpp ****     }
  85:Core/Src/devs/motor.cpp ****     
  86:Core/Src/devs/motor.cpp ****     else if (omega < 0) 
 384              		.loc 1 86 0
 385 0032 B5EEC08A 		vcmpe.f32	s16, #0
 386 0036 F1EE10FA 		vmrs	APSR_nzcv, FPSCR
 387 003a 13D4     		bmi	.L47
  87:Core/Src/devs/motor.cpp ****     {
  88:Core/Src/devs/motor.cpp ****             setDirection(motor, DIR_ANTICLOCKWISE);
  89:Core/Src/devs/motor.cpp ****             setDutyCycle(motor, new_omega);
  90:Core/Src/devs/motor.cpp ****     }
  91:Core/Src/devs/motor.cpp ****     
  92:Core/Src/devs/motor.cpp ****     else 
  93:Core/Src/devs/motor.cpp ****     {
  94:Core/Src/devs/motor.cpp ****             setDirection(motor, DIR_HALT);
 388              		.loc 1 94 0
 389 003c 0221     		movs	r1, #2
 390 003e 2046     		mov	r0, r4
 391 0040 FFF7FEFF 		bl	_Z12setDirectionP8motorStr14motorDirection
 392              	.LVL51:
  95:Core/Src/devs/motor.cpp ****             setDutyCycle(motor, 0);
 393              		.loc 1 95 0
 394 0044 0021     		movs	r1, #0
 395 0046 2046     		mov	r0, r4
 396 0048 FFF7FEFF 		bl	_Z12setDutyCycleP8motorStrt
 397              	.LVL52:
  96:Core/Src/devs/motor.cpp ****     }
  97:Core/Src/devs/motor.cpp **** }
 398              		.loc 1 97 0
 399 004c 07E0     		b	.L35
 400              	.L46:
  82:Core/Src/devs/motor.cpp ****             setDutyCycle(motor, new_omega);
 401              		.loc 1 82 0
 402 004e 0021     		movs	r1, #0
 403 0050 2046     		mov	r0, r4
 404 0052 FFF7FEFF 		bl	_Z12setDirectionP8motorStr14motorDirection
 405              	.LVL53:
  83:Core/Src/devs/motor.cpp ****     }
 406              		.loc 1 83 0
 407 0056 2946     		mov	r1, r5
 408 0058 2046     		mov	r0, r4
 409 005a FFF7FEFF 		bl	_Z12setDutyCycleP8motorStrt
 410              	.LVL54:
 411              	.L35:
 412              		.loc 1 97 0
ARM GAS  C:\Users\Prashant\AppData\Local\Temp\ccsKOM5c.s 			page 10


 413 005e BDEC028B 		vldm	sp!, {d8}
 414              	.LCFI7:
 415              		.cfi_remember_state
 416              		.cfi_restore 80
 417              		.cfi_restore 81
 418              		.cfi_def_cfa_offset 16
 419              	.LVL55:
 420 0062 38BD     		pop	{r3, r4, r5, pc}
 421              	.LVL56:
 422              	.L47:
 423              	.LCFI8:
 424              		.cfi_restore_state
  88:Core/Src/devs/motor.cpp ****             setDutyCycle(motor, new_omega);
 425              		.loc 1 88 0
 426 0064 0121     		movs	r1, #1
 427 0066 2046     		mov	r0, r4
 428 0068 FFF7FEFF 		bl	_Z12setDirectionP8motorStr14motorDirection
 429              	.LVL57:
  89:Core/Src/devs/motor.cpp ****     }
 430              		.loc 1 89 0
 431 006c 2946     		mov	r1, r5
 432 006e 2046     		mov	r0, r4
 433 0070 FFF7FEFF 		bl	_Z12setDutyCycleP8motorStrt
 434              	.LVL58:
 435 0074 F3E7     		b	.L35
 436              	.L49:
 437 0076 00BF     		.align	3
 438              	.L48:
 439 0078 49922449 		.word	1227133513
 440 007c 1249C240 		.word	1086474514
 441              		.cfi_endproc
 442              	.LFE353:
 444              		.section	.text._Z8getAngleP8motorStr,"ax",%progbits
 445              		.align	1
 446              		.global	_Z8getAngleP8motorStr
 447              		.syntax unified
 448              		.thumb
 449              		.thumb_func
 450              		.fpu fpv4-sp-d16
 452              	_Z8getAngleP8motorStr:
 453              	.LFB354:
  98:Core/Src/devs/motor.cpp **** 
  99:Core/Src/devs/motor.cpp **** 
 100:Core/Src/devs/motor.cpp **** void getAngle(struct motorStr *motor)
 101:Core/Src/devs/motor.cpp **** {
 454              		.loc 1 101 0
 455              		.cfi_startproc
 456              		@ args = 0, pretend = 0, frame = 0
 457              		@ frame_needed = 0, uses_anonymous_args = 0
 458              	.LVL59:
 459 0000 10B5     		push	{r4, lr}
 460              	.LCFI9:
 461              		.cfi_def_cfa_offset 8
 462              		.cfi_offset 4, -8
 463              		.cfi_offset 14, -4
 464 0002 0446     		mov	r4, r0
 102:Core/Src/devs/motor.cpp ****     motor->angle = calculateAngle(motor->encoder);
ARM GAS  C:\Users\Prashant\AppData\Local\Temp\ccsKOM5c.s 			page 11


 465              		.loc 1 102 0
 466 0004 006B     		ldr	r0, [r0, #48]
 467              	.LVL60:
 468 0006 FFF7FEFF 		bl	_Z14calculateAngleP10encoderStr
 469              	.LVL61:
 470 000a 84ED010A 		vstr.32	s0, [r4, #4]
 103:Core/Src/devs/motor.cpp **** }
 471              		.loc 1 103 0
 472 000e 10BD     		pop	{r4, pc}
 473              		.cfi_endproc
 474              	.LFE354:
 476              		.section	.text._Z8getOmegaP8motorStr,"ax",%progbits
 477              		.align	1
 478              		.global	_Z8getOmegaP8motorStr
 479              		.syntax unified
 480              		.thumb
 481              		.thumb_func
 482              		.fpu fpv4-sp-d16
 484              	_Z8getOmegaP8motorStr:
 485              	.LFB355:
 104:Core/Src/devs/motor.cpp **** 
 105:Core/Src/devs/motor.cpp **** void getOmega(struct motorStr *motor)
 106:Core/Src/devs/motor.cpp **** {
 486              		.loc 1 106 0
 487              		.cfi_startproc
 488              		@ args = 0, pretend = 0, frame = 0
 489              		@ frame_needed = 0, uses_anonymous_args = 0
 490              	.LVL62:
 491 0000 10B5     		push	{r4, lr}
 492              	.LCFI10:
 493              		.cfi_def_cfa_offset 8
 494              		.cfi_offset 4, -8
 495              		.cfi_offset 14, -4
 496 0002 0446     		mov	r4, r0
 107:Core/Src/devs/motor.cpp ****     motor->omega = calculateOmega(motor->encoder);
 497              		.loc 1 107 0
 498 0004 006B     		ldr	r0, [r0, #48]
 499              	.LVL63:
 500 0006 FFF7FEFF 		bl	_Z14calculateOmegaP10encoderStr
 501              	.LVL64:
 502 000a 84ED000A 		vstr.32	s0, [r4]
 108:Core/Src/devs/motor.cpp **** }
 503              		.loc 1 108 0
 504 000e 10BD     		pop	{r4, pc}
 505              		.cfi_endproc
 506              	.LFE355:
 508              		.section	.text._Z10resetAngleP8motorStr,"ax",%progbits
 509              		.align	1
 510              		.global	_Z10resetAngleP8motorStr
 511              		.syntax unified
 512              		.thumb
 513              		.thumb_func
 514              		.fpu fpv4-sp-d16
 516              	_Z10resetAngleP8motorStr:
 517              	.LFB356:
 109:Core/Src/devs/motor.cpp **** 
 110:Core/Src/devs/motor.cpp **** void resetAngle(struct motorStr *motor)
ARM GAS  C:\Users\Prashant\AppData\Local\Temp\ccsKOM5c.s 			page 12


 111:Core/Src/devs/motor.cpp **** {
 518              		.loc 1 111 0
 519              		.cfi_startproc
 520              		@ args = 0, pretend = 0, frame = 0
 521              		@ frame_needed = 0, uses_anonymous_args = 0
 522              	.LVL65:
 523 0000 08B5     		push	{r3, lr}
 524              	.LCFI11:
 525              		.cfi_def_cfa_offset 8
 526              		.cfi_offset 3, -8
 527              		.cfi_offset 14, -4
 112:Core/Src/devs/motor.cpp ****     resetEncoderAngle(motor->encoder);
 528              		.loc 1 112 0
 529 0002 006B     		ldr	r0, [r0, #48]
 530              	.LVL66:
 531 0004 FFF7FEFF 		bl	_Z17resetEncoderAngleP10encoderStr
 532              	.LVL67:
 113:Core/Src/devs/motor.cpp **** }
 533              		.loc 1 113 0
 534 0008 08BD     		pop	{r3, pc}
 535              		.cfi_endproc
 536              	.LFE356:
 538              		.text
 539              	.Letext0:
 540              		.file 2 "c:\\program files (x86)\\gnu tools arm embedded\\7 2017-q4-major\\arm-none-eabi\\include\
 541              		.file 3 "c:\\program files (x86)\\gnu tools arm embedded\\7 2017-q4-major\\arm-none-eabi\\include\
 542              		.file 4 "c:\\program files (x86)\\gnu tools arm embedded\\7 2017-q4-major\\arm-none-eabi\\include\
 543              		.file 5 "c:\\program files (x86)\\gnu tools arm embedded\\7 2017-q4-major\\arm-none-eabi\\include\
 544              		.file 6 "c:\\program files (x86)\\gnu tools arm embedded\\7 2017-q4-major\\arm-none-eabi\\include\
 545              		.file 7 "c:\\program files (x86)\\gnu tools arm embedded\\7 2017-q4-major\\lib\\gcc\\arm-none-eabi
 546              		.file 8 "c:\\program files (x86)\\gnu tools arm embedded\\7 2017-q4-major\\arm-none-eabi\\include\
 547              		.file 9 "c:\\program files (x86)\\gnu tools arm embedded\\7 2017-q4-major\\arm-none-eabi\\include\
 548              		.file 10 "c:\\program files (x86)\\gnu tools arm embedded\\7 2017-q4-major\\arm-none-eabi\\include
 549              		.file 11 "c:\\program files (x86)\\gnu tools arm embedded\\7 2017-q4-major\\arm-none-eabi\\include
 550              		.file 12 "c:\\program files (x86)\\gnu tools arm embedded\\7 2017-q4-major\\arm-none-eabi\\include
 551              		.file 13 "C:/Users/Prashant/STM32Cube/Repository/STM32Cube_FW_F4_V1.23.0/Drivers/CMSIS/Include/cor
 552              		.file 14 "C:/Users/Prashant/STM32Cube/Repository/STM32Cube_FW_F4_V1.23.0/Drivers/CMSIS/Device/ST/S
 553              		.file 15 "C:/Users/Prashant/STM32Cube/Repository/STM32Cube_FW_F4_V1.23.0/Drivers/CMSIS/Device/ST/S
 554              		.file 16 "C:/Users/Prashant/STM32Cube/Repository/STM32Cube_FW_F4_V1.23.0/Drivers/STM32F4xx_HAL_Dri
 555              		.file 17 "C:/Users/Prashant/STM32Cube/Repository/STM32Cube_FW_F4_V1.23.0/Drivers/STM32F4xx_HAL_Dri
 556              		.file 18 "C:/Users/Prashant/STM32Cube/Repository/STM32Cube_FW_F4_V1.23.0/Drivers/STM32F4xx_HAL_Dri
 557              		.file 19 "C:/Users/Prashant/STM32Cube/Repository/STM32Cube_FW_F4_V1.23.0/Drivers/STM32F4xx_HAL_Dri
 558              		.file 20 "Core/Inc/periphs/tim.h"
 559              		.file 21 "Core/Inc/devs/encoder.h"
 560              		.file 22 "Core/Inc/devs/motor.h"
 561              		.file 23 "<built-in>"
ARM GAS  C:\Users\Prashant\AppData\Local\Temp\ccsKOM5c.s 			page 13

