ARM GAS  C:\Users\Prashant\AppData\Local\Temp\ccKc2ZPg.s 			page 1


   1              		.cpu cortex-m4
   2              		.eabi_attribute 27, 1
   3              		.eabi_attribute 28, 1
   4              		.eabi_attribute 20, 1
   5              		.eabi_attribute 21, 1
   6              		.eabi_attribute 23, 3
   7              		.eabi_attribute 24, 1
   8              		.eabi_attribute 25, 1
   9              		.eabi_attribute 26, 1
  10              		.eabi_attribute 30, 1
  11              		.eabi_attribute 34, 1
  12              		.eabi_attribute 18, 4
  13              		.file	"pneumatic.cpp"
  14              		.text
  15              	.Ltext0:
  16              		.cfi_sections	.debug_frame
  17              		.section	.text._ZN9Pneumatic3setEv,"ax",%progbits
  18              		.align	1
  19              		.global	_ZN9Pneumatic3setEv
  20              		.syntax unified
  21              		.thumb
  22              		.thumb_func
  23              		.fpu fpv4-sp-d16
  25              	_ZN9Pneumatic3setEv:
  26              	.LFB140:
  27              		.file 1 "Core/Src/devs/pneumatic.cpp"
   1:Core/Src/devs/pneumatic.cpp **** #include "pneumatic.h"
   2:Core/Src/devs/pneumatic.cpp **** #include "robo_states.h"
   3:Core/Src/devs/pneumatic.cpp **** 
   4:Core/Src/devs/pneumatic.cpp **** extern State gHorse_State;
   5:Core/Src/devs/pneumatic.cpp **** extern bool gReady_To_Go;
   6:Core/Src/devs/pneumatic.cpp **** 
   7:Core/Src/devs/pneumatic.cpp **** enum class Pneu_Index
   8:Core/Src/devs/pneumatic.cpp **** {
   9:Core/Src/devs/pneumatic.cpp ****         P_1,
  10:Core/Src/devs/pneumatic.cpp ****         P_2,
  11:Core/Src/devs/pneumatic.cpp ****         P_3,
  12:Core/Src/devs/pneumatic.cpp ****         P_4,
  13:Core/Src/devs/pneumatic.cpp ****         P_NONE
  14:Core/Src/devs/pneumatic.cpp **** };
  15:Core/Src/devs/pneumatic.cpp **** 
  16:Core/Src/devs/pneumatic.cpp **** class Pneumatic
  17:Core/Src/devs/pneumatic.cpp **** {
  18:Core/Src/devs/pneumatic.cpp ****       private:
  19:Core/Src/devs/pneumatic.cpp ****         GPIO_TypeDef *pneu_port;
  20:Core/Src/devs/pneumatic.cpp ****         uint16_t pneu_pin;
  21:Core/Src/devs/pneumatic.cpp **** 
  22:Core/Src/devs/pneumatic.cpp ****       public:
  23:Core/Src/devs/pneumatic.cpp ****         Pneumatic() { }
  24:Core/Src/devs/pneumatic.cpp **** 
  25:Core/Src/devs/pneumatic.cpp ****         void init(GPIO_TypeDef *port, uint16_t pin)
  26:Core/Src/devs/pneumatic.cpp ****         {
  27:Core/Src/devs/pneumatic.cpp ****                 pneu_port = port;
  28:Core/Src/devs/pneumatic.cpp ****                 pneu_pin = pin;
  29:Core/Src/devs/pneumatic.cpp ****         }
  30:Core/Src/devs/pneumatic.cpp **** 
  31:Core/Src/devs/pneumatic.cpp ****         void set(void);
ARM GAS  C:\Users\Prashant\AppData\Local\Temp\ccKc2ZPg.s 			page 2


  32:Core/Src/devs/pneumatic.cpp ****         void reset(void);
  33:Core/Src/devs/pneumatic.cpp **** };
  34:Core/Src/devs/pneumatic.cpp **** 
  35:Core/Src/devs/pneumatic.cpp **** /*to actuate the pneumatic*/
  36:Core/Src/devs/pneumatic.cpp **** void Pneumatic::set()
  37:Core/Src/devs/pneumatic.cpp **** {
  28              		.loc 1 37 0
  29              		.cfi_startproc
  30              		@ args = 0, pretend = 0, frame = 0
  31              		@ frame_needed = 0, uses_anonymous_args = 0
  32              	.LVL0:
  33 0000 08B5     		push	{r3, lr}
  34              	.LCFI0:
  35              		.cfi_def_cfa_offset 8
  36              		.cfi_offset 3, -8
  37              		.cfi_offset 14, -4
  38:Core/Src/devs/pneumatic.cpp ****         HAL_GPIO_WritePin(pneu_port, pneu_pin, GPIO_PIN_SET);
  38              		.loc 1 38 0
  39 0002 0122     		movs	r2, #1
  40 0004 8188     		ldrh	r1, [r0, #4]
  41 0006 0068     		ldr	r0, [r0]
  42              	.LVL1:
  43 0008 FFF7FEFF 		bl	HAL_GPIO_WritePin
  44              	.LVL2:
  39:Core/Src/devs/pneumatic.cpp **** }
  45              		.loc 1 39 0
  46 000c 08BD     		pop	{r3, pc}
  47              		.cfi_endproc
  48              	.LFE140:
  50              		.section	.text._ZN9Pneumatic5resetEv,"ax",%progbits
  51              		.align	1
  52              		.global	_ZN9Pneumatic5resetEv
  53              		.syntax unified
  54              		.thumb
  55              		.thumb_func
  56              		.fpu fpv4-sp-d16
  58              	_ZN9Pneumatic5resetEv:
  59              	.LFB141:
  40:Core/Src/devs/pneumatic.cpp **** 
  41:Core/Src/devs/pneumatic.cpp **** /*to deactuate the pneumatic*/
  42:Core/Src/devs/pneumatic.cpp **** void Pneumatic::reset()
  43:Core/Src/devs/pneumatic.cpp **** {
  60              		.loc 1 43 0
  61              		.cfi_startproc
  62              		@ args = 0, pretend = 0, frame = 0
  63              		@ frame_needed = 0, uses_anonymous_args = 0
  64              	.LVL3:
  65 0000 08B5     		push	{r3, lr}
  66              	.LCFI1:
  67              		.cfi_def_cfa_offset 8
  68              		.cfi_offset 3, -8
  69              		.cfi_offset 14, -4
  44:Core/Src/devs/pneumatic.cpp ****         HAL_GPIO_WritePin(pneu_port, pneu_pin, GPIO_PIN_RESET);
  70              		.loc 1 44 0
  71 0002 0022     		movs	r2, #0
  72 0004 8188     		ldrh	r1, [r0, #4]
  73 0006 0068     		ldr	r0, [r0]
ARM GAS  C:\Users\Prashant\AppData\Local\Temp\ccKc2ZPg.s 			page 3


  74              	.LVL4:
  75 0008 FFF7FEFF 		bl	HAL_GPIO_WritePin
  76              	.LVL5:
  45:Core/Src/devs/pneumatic.cpp **** }
  77              		.loc 1 45 0
  78 000c 08BD     		pop	{r3, pc}
  79              		.cfi_endproc
  80              	.LFE141:
  82              		.section	.text._ZL9set_IndexRA4_9Pneumatic10Pneu_Index,"ax",%progbits
  83              		.align	1
  84              		.syntax unified
  85              		.thumb
  86              		.thumb_func
  87              		.fpu fpv4-sp-d16
  89              	_ZL9set_IndexRA4_9Pneumatic10Pneu_Index:
  90              	.LFB143:
  46:Core/Src/devs/pneumatic.cpp **** 
  47:Core/Src/devs/pneumatic.cpp **** Pneumatic gPneu[4];
  48:Core/Src/devs/pneumatic.cpp **** /*initialize pneumatics*/
  49:Core/Src/devs/pneumatic.cpp **** void pneu_Init()
  50:Core/Src/devs/pneumatic.cpp **** {
  51:Core/Src/devs/pneumatic.cpp ****         gPneu[(int)(Pneu_Index::P_1)].init(GPIOC, GPIO_PIN_1);
  52:Core/Src/devs/pneumatic.cpp ****         gPneu[(int)(Pneu_Index::P_2)].init(GPIOE, GPIO_PIN_8);
  53:Core/Src/devs/pneumatic.cpp ****         gPneu[(int)(Pneu_Index::P_3)].init(GPIOB, GPIO_PIN_2);
  54:Core/Src/devs/pneumatic.cpp ****         gPneu[(int)(Pneu_Index::P_4)].init(GPIOC, GPIO_PIN_3);
  55:Core/Src/devs/pneumatic.cpp **** }
  56:Core/Src/devs/pneumatic.cpp **** 
  57:Core/Src/devs/pneumatic.cpp **** static void set_Index(Pneumatic (&arr)[4], Pneu_Index index)
  58:Core/Src/devs/pneumatic.cpp **** {
  91              		.loc 1 58 0
  92              		.cfi_startproc
  93              		@ args = 0, pretend = 0, frame = 0
  94              		@ frame_needed = 0, uses_anonymous_args = 0
  95              	.LVL6:
  96 0000 70B5     		push	{r4, r5, r6, lr}
  97              	.LCFI2:
  98              		.cfi_def_cfa_offset 16
  99              		.cfi_offset 4, -16
 100              		.cfi_offset 5, -12
 101              		.cfi_offset 6, -8
 102              		.cfi_offset 14, -4
 103 0002 0646     		mov	r6, r0
 104 0004 0D46     		mov	r5, r1
  59:Core/Src/devs/pneumatic.cpp **** 	if(gReady_To_Go)
 105              		.loc 1 59 0
 106 0006 0C4B     		ldr	r3, .L12
 107 0008 1B78     		ldrb	r3, [r3]	@ zero_extendqisi2
 108 000a 0BB1     		cbz	r3, .L6
  60:Core/Src/devs/pneumatic.cpp **** 	{
  61:Core/Src/devs/pneumatic.cpp ****         	if (index != Pneu_Index::P_NONE)
 109              		.loc 1 61 0
 110 000c 0429     		cmp	r1, #4
 111 000e 01D1     		bne	.L11
 112              	.LVL7:
 113              	.L6:
  58:Core/Src/devs/pneumatic.cpp **** 	if(gReady_To_Go)
 114              		.loc 1 58 0 discriminator 1
ARM GAS  C:\Users\Prashant\AppData\Local\Temp\ccKc2ZPg.s 			page 4


 115 0010 0024     		movs	r4, #0
 116 0012 06E0     		b	.L9
 117              	.LVL8:
 118              	.L11:
  62:Core/Src/devs/pneumatic.cpp ****         	{
  63:Core/Src/devs/pneumatic.cpp ****         	        arr[(int)index].set();
 119              		.loc 1 63 0
 120 0014 00EBC100 		add	r0, r0, r1, lsl #3
 121              	.LVL9:
 122 0018 FFF7FEFF 		bl	_ZN9Pneumatic3setEv
 123              	.LVL10:
 124 001c F8E7     		b	.L6
 125              	.LVL11:
 126              	.L8:
 127              	.LBB12:
  64:Core/Src/devs/pneumatic.cpp ****         	}
  65:Core/Src/devs/pneumatic.cpp **** 	}
  66:Core/Src/devs/pneumatic.cpp ****         for (uint8_t i = 0; i < (int)(Pneu_Index::P_NONE); ++i)
 128              		.loc 1 66 0 discriminator 2
 129 001e 0134     		adds	r4, r4, #1
 130              	.LVL12:
 131 0020 E4B2     		uxtb	r4, r4
 132              	.LVL13:
 133              	.L9:
 134              		.loc 1 66 0 is_stmt 0 discriminator 1
 135 0022 032C     		cmp	r4, #3
 136 0024 06D8     		bhi	.L5
  67:Core/Src/devs/pneumatic.cpp ****         {
  68:Core/Src/devs/pneumatic.cpp ****                 if (i != (int)index)
 137              		.loc 1 68 0 is_stmt 1
 138 0026 AC42     		cmp	r4, r5
 139 0028 F9D0     		beq	.L8
  69:Core/Src/devs/pneumatic.cpp ****                 {
  70:Core/Src/devs/pneumatic.cpp ****                         arr[i].reset();
 140              		.loc 1 70 0
 141 002a 06EBC400 		add	r0, r6, r4, lsl #3
 142 002e FFF7FEFF 		bl	_ZN9Pneumatic5resetEv
 143              	.LVL14:
 144 0032 F4E7     		b	.L8
 145              	.L5:
 146              	.LBE12:
  71:Core/Src/devs/pneumatic.cpp ****                 }
  72:Core/Src/devs/pneumatic.cpp ****         }
  73:Core/Src/devs/pneumatic.cpp **** }
 147              		.loc 1 73 0
 148 0034 70BD     		pop	{r4, r5, r6, pc}
 149              	.LVL15:
 150              	.L13:
 151 0036 00BF     		.align	2
 152              	.L12:
 153 0038 00000000 		.word	gReady_To_Go
 154              		.cfi_endproc
 155              	.LFE143:
 157              		.section	.text._Z9pneu_Initv,"ax",%progbits
 158              		.align	1
 159              		.global	_Z9pneu_Initv
 160              		.syntax unified
ARM GAS  C:\Users\Prashant\AppData\Local\Temp\ccKc2ZPg.s 			page 5


 161              		.thumb
 162              		.thumb_func
 163              		.fpu fpv4-sp-d16
 165              	_Z9pneu_Initv:
 166              	.LFB142:
  50:Core/Src/devs/pneumatic.cpp ****         gPneu[(int)(Pneu_Index::P_1)].init(GPIOC, GPIO_PIN_1);
 167              		.loc 1 50 0
 168              		.cfi_startproc
 169              		@ args = 0, pretend = 0, frame = 0
 170              		@ frame_needed = 0, uses_anonymous_args = 0
 171              		@ link register save eliminated.
 172              	.LVL16:
 173              	.LBB13:
 174              	.LBB14:
  27:Core/Src/devs/pneumatic.cpp ****                 pneu_pin = pin;
 175              		.loc 1 27 0
 176 0000 084B     		ldr	r3, .L15
 177 0002 094A     		ldr	r2, .L15+4
 178 0004 1A60     		str	r2, [r3]
  28:Core/Src/devs/pneumatic.cpp ****         }
 179              		.loc 1 28 0
 180 0006 0221     		movs	r1, #2
 181 0008 9980     		strh	r1, [r3, #4]	@ movhi
 182              	.LVL17:
 183              	.LBE14:
 184              	.LBE13:
 185              	.LBB15:
 186              	.LBB16:
  27:Core/Src/devs/pneumatic.cpp ****                 pneu_pin = pin;
 187              		.loc 1 27 0
 188 000a 0849     		ldr	r1, .L15+8
 189 000c 9960     		str	r1, [r3, #8]
  28:Core/Src/devs/pneumatic.cpp ****         }
 190              		.loc 1 28 0
 191 000e 4FF48071 		mov	r1, #256
 192 0012 9981     		strh	r1, [r3, #12]	@ movhi
 193              	.LVL18:
 194              	.LBE16:
 195              	.LBE15:
 196              	.LBB17:
 197              	.LBB18:
  27:Core/Src/devs/pneumatic.cpp ****                 pneu_pin = pin;
 198              		.loc 1 27 0
 199 0014 0649     		ldr	r1, .L15+12
 200 0016 1961     		str	r1, [r3, #16]
  28:Core/Src/devs/pneumatic.cpp ****         }
 201              		.loc 1 28 0
 202 0018 0421     		movs	r1, #4
 203 001a 9982     		strh	r1, [r3, #20]	@ movhi
 204              	.LVL19:
 205              	.LBE18:
 206              	.LBE17:
 207              	.LBB19:
 208              	.LBB20:
  27:Core/Src/devs/pneumatic.cpp ****                 pneu_pin = pin;
 209              		.loc 1 27 0
 210 001c 9A61     		str	r2, [r3, #24]
ARM GAS  C:\Users\Prashant\AppData\Local\Temp\ccKc2ZPg.s 			page 6


  28:Core/Src/devs/pneumatic.cpp ****         }
 211              		.loc 1 28 0
 212 001e 0822     		movs	r2, #8
 213 0020 9A83     		strh	r2, [r3, #28]	@ movhi
 214              	.LVL20:
 215              	.LBE20:
 216              	.LBE19:
  55:Core/Src/devs/pneumatic.cpp **** 
 217              		.loc 1 55 0
 218 0022 7047     		bx	lr
 219              	.L16:
 220              		.align	2
 221              	.L15:
 222 0024 00000000 		.word	.LANCHOR0
 223 0028 00080240 		.word	1073874944
 224 002c 00100240 		.word	1073876992
 225 0030 00040240 		.word	1073873920
 226              		.cfi_endproc
 227              	.LFE142:
 229              		.section	.text._Z9pneu_Loopv,"ax",%progbits
 230              		.align	1
 231              		.global	_Z9pneu_Loopv
 232              		.syntax unified
 233              		.thumb
 234              		.thumb_func
 235              		.fpu fpv4-sp-d16
 237              	_Z9pneu_Loopv:
 238              	.LFB144:
  74:Core/Src/devs/pneumatic.cpp **** 
  75:Core/Src/devs/pneumatic.cpp **** /*read the state of the system*/
  76:Core/Src/devs/pneumatic.cpp **** void pneu_Loop()
  77:Core/Src/devs/pneumatic.cpp **** {
 239              		.loc 1 77 0
 240              		.cfi_startproc
 241              		@ args = 0, pretend = 0, frame = 0
 242              		@ frame_needed = 0, uses_anonymous_args = 0
 243 0000 08B5     		push	{r3, lr}
 244              	.LCFI3:
 245              		.cfi_def_cfa_offset 8
 246              		.cfi_offset 3, -8
 247              		.cfi_offset 14, -4
  78:Core/Src/devs/pneumatic.cpp **** 	switch (gHorse_State.get_ID())
 248              		.loc 1 78 0
 249 0002 1148     		ldr	r0, .L26
 250 0004 FFF7FEFF 		bl	_ZN5State6get_IDEv
 251              	.LVL21:
 252 0008 0428     		cmp	r0, #4
 253 000a 08D8     		bhi	.L17
 254 000c DFE800F0 		tbb	[pc, r0]
 255              	.L20:
 256 0010 03       		.byte	(.L19-.L20)/2
 257 0011 08       		.byte	(.L21-.L20)/2
 258 0012 0D       		.byte	(.L22-.L20)/2
 259 0013 12       		.byte	(.L23-.L20)/2
 260 0014 17       		.byte	(.L24-.L20)/2
 261 0015 00       		.p2align 1
 262              	.L19:
ARM GAS  C:\Users\Prashant\AppData\Local\Temp\ccKc2ZPg.s 			page 7


  79:Core/Src/devs/pneumatic.cpp **** 	{
  80:Core/Src/devs/pneumatic.cpp **** 		case State_ID::HOME:
  81:Core/Src/devs/pneumatic.cpp **** 		{
  82:Core/Src/devs/pneumatic.cpp **** 			set_Index(gPneu, Pneu_Index::P_NONE);
 263              		.loc 1 82 0
 264 0016 0421     		movs	r1, #4
 265 0018 0C48     		ldr	r0, .L26+4
 266 001a FFF7FEFF 		bl	_ZL9set_IndexRA4_9Pneumatic10Pneu_Index
 267              	.LVL22:
 268              	.L17:
  83:Core/Src/devs/pneumatic.cpp **** 		}
  84:Core/Src/devs/pneumatic.cpp **** 		break;
  85:Core/Src/devs/pneumatic.cpp **** 
  86:Core/Src/devs/pneumatic.cpp **** 		case State_ID::WS1:
  87:Core/Src/devs/pneumatic.cpp **** 		{
  88:Core/Src/devs/pneumatic.cpp **** 			set_Index(gPneu, Pneu_Index::P_1);
  89:Core/Src/devs/pneumatic.cpp **** 		}
  90:Core/Src/devs/pneumatic.cpp **** 		break;
  91:Core/Src/devs/pneumatic.cpp **** 
  92:Core/Src/devs/pneumatic.cpp **** 		case State_ID::WS2:
  93:Core/Src/devs/pneumatic.cpp **** 		{
  94:Core/Src/devs/pneumatic.cpp **** 			set_Index(gPneu, Pneu_Index::P_2);
  95:Core/Src/devs/pneumatic.cpp **** 		}
  96:Core/Src/devs/pneumatic.cpp **** 		break;
  97:Core/Src/devs/pneumatic.cpp **** 
  98:Core/Src/devs/pneumatic.cpp **** 		case State_ID::WS3:
  99:Core/Src/devs/pneumatic.cpp **** 		{
 100:Core/Src/devs/pneumatic.cpp **** 			set_Index(gPneu, Pneu_Index::P_3);
 101:Core/Src/devs/pneumatic.cpp **** 		}
 102:Core/Src/devs/pneumatic.cpp **** 		break;
 103:Core/Src/devs/pneumatic.cpp **** 
 104:Core/Src/devs/pneumatic.cpp **** 		case State_ID::WS4:
 105:Core/Src/devs/pneumatic.cpp **** 		{
 106:Core/Src/devs/pneumatic.cpp **** 			set_Index(gPneu, Pneu_Index::P_4);
 107:Core/Src/devs/pneumatic.cpp **** 		}
 108:Core/Src/devs/pneumatic.cpp **** 		break;
 109:Core/Src/devs/pneumatic.cpp **** 	}
 110:Core/Src/devs/pneumatic.cpp **** }...
 269              		.loc 1 110 0
 270 001e 08BD     		pop	{r3, pc}
 271              	.L21:
  88:Core/Src/devs/pneumatic.cpp **** 			set_Index(gPneu, Pneu_Index::P_1);
 272              		.loc 1 88 0
 273 0020 0021     		movs	r1, #0
 274 0022 0A48     		ldr	r0, .L26+4
 275 0024 FFF7FEFF 		bl	_ZL9set_IndexRA4_9Pneumatic10Pneu_Index
 276              	.LVL23:
  90:Core/Src/devs/pneumatic.cpp **** 		break;
 277              		.loc 1 90 0
 278 0028 F9E7     		b	.L17
 279              	.L22:
  94:Core/Src/devs/pneumatic.cpp **** 			set_Index(gPneu, Pneu_Index::P_2);
 280              		.loc 1 94 0
 281 002a 0121     		movs	r1, #1
 282 002c 0748     		ldr	r0, .L26+4
 283 002e FFF7FEFF 		bl	_ZL9set_IndexRA4_9Pneumatic10Pneu_Index
 284              	.LVL24:
ARM GAS  C:\Users\Prashant\AppData\Local\Temp\ccKc2ZPg.s 			page 8


  96:Core/Src/devs/pneumatic.cpp **** 		break;
 285              		.loc 1 96 0
 286 0032 F4E7     		b	.L17
 287              	.L23:
 100:Core/Src/devs/pneumatic.cpp **** 			set_Index(gPneu, Pneu_Index::P_3);
 288              		.loc 1 100 0
 289 0034 0221     		movs	r1, #2
 290 0036 0548     		ldr	r0, .L26+4
 291 0038 FFF7FEFF 		bl	_ZL9set_IndexRA4_9Pneumatic10Pneu_Index
 292              	.LVL25:
 102:Core/Src/devs/pneumatic.cpp **** 		break;
 293              		.loc 1 102 0
 294 003c EFE7     		b	.L17
 295              	.L24:
 106:Core/Src/devs/pneumatic.cpp **** 			set_Index(gPneu, Pneu_Index::P_4);
 296              		.loc 1 106 0
 297 003e 0321     		movs	r1, #3
 298 0040 0248     		ldr	r0, .L26+4
 299 0042 FFF7FEFF 		bl	_ZL9set_IndexRA4_9Pneumatic10Pneu_Index
 300              	.LVL26:
 301              		.loc 1 110 0
 302 0046 EAE7     		b	.L17
 303              	.L27:
 304              		.align	2
 305              	.L26:
 306 0048 00000000 		.word	gHorse_State
 307 004c 00000000 		.word	.LANCHOR0
 308              		.cfi_endproc
 309              	.LFE144:
 311              		.global	gPneu
 312              		.section	.bss.gPneu,"aw",%nobits
 313              		.align	2
 314              		.set	.LANCHOR0,. + 0
 317              	gPneu:
 318 0000 00000000 		.space	32
 318      00000000 
 318      00000000 
 318      00000000 
 318      00000000 
 319              		.text
 320              	.Letext0:
 321              		.file 2 "c:\\program files (x86)\\gnu tools arm embedded\\7 2017-q4-major\\arm-none-eabi\\include\
 322              		.file 3 "c:\\program files (x86)\\gnu tools arm embedded\\7 2017-q4-major\\arm-none-eabi\\include\
 323              		.file 4 "C:/Users/Prashant/STM32Cube/Repository/STM32Cube_FW_F4_V1.23.0/Drivers/CMSIS/Include/core
 324              		.file 5 "C:/Users/Prashant/STM32Cube/Repository/STM32Cube_FW_F4_V1.23.0/Drivers/CMSIS/Device/ST/ST
 325              		.file 6 "C:/Users/Prashant/STM32Cube/Repository/STM32Cube_FW_F4_V1.23.0/Drivers/CMSIS/Device/ST/ST
 326              		.file 7 "C:/Users/Prashant/STM32Cube/Repository/STM32Cube_FW_F4_V1.23.0/Drivers/CMSIS/Device/ST/ST
 327              		.file 8 "c:\\program files (x86)\\gnu tools arm embedded\\7 2017-q4-major\\arm-none-eabi\\include\
 328              		.file 9 "c:\\program files (x86)\\gnu tools arm embedded\\7 2017-q4-major\\arm-none-eabi\\include\
 329              		.file 10 "c:\\program files (x86)\\gnu tools arm embedded\\7 2017-q4-major\\lib\\gcc\\arm-none-eab
 330              		.file 11 "c:\\program files (x86)\\gnu tools arm embedded\\7 2017-q4-major\\arm-none-eabi\\include
 331              		.file 12 "C:/Users/Prashant/STM32Cube/Repository/STM32Cube_FW_F4_V1.23.0/Drivers/STM32F4xx_HAL_Dri
 332              		.file 13 "C:/Users/Prashant/STM32Cube/Repository/STM32Cube_FW_F4_V1.23.0/Drivers/STM32F4xx_HAL_Dri
 333              		.file 14 "Core/Inc/robot/robo_states.h"
ARM GAS  C:\Users\Prashant\AppData\Local\Temp\ccKc2ZPg.s 			page 9

