ARM GAS  C:\Users\Prashant\AppData\Local\Temp\cconQDSz.s 			page 1


   1              		.cpu cortex-m4
   2              		.eabi_attribute 27, 1
   3              		.eabi_attribute 28, 1
   4              		.eabi_attribute 20, 1
   5              		.eabi_attribute 21, 1
   6              		.eabi_attribute 23, 3
   7              		.eabi_attribute 24, 1
   8              		.eabi_attribute 25, 1
   9              		.eabi_attribute 26, 1
  10              		.eabi_attribute 30, 1
  11              		.eabi_attribute 34, 1
  12              		.eabi_attribute 18, 4
  13              		.file	"robo_tasks.cpp"
  14              		.text
  15              	.Ltext0:
  16              		.cfi_sections	.debug_frame
  17              		.section	.text.StartDefaultTask,"ax",%progbits
  18              		.align	1
  19              		.global	StartDefaultTask
  20              		.syntax unified
  21              		.thumb
  22              		.thumb_func
  23              		.fpu fpv4-sp-d16
  25              	StartDefaultTask:
  26              	.LFB137:
  27              		.file 1 "Core/Src/robo_tasks.cpp"
   1:Core/Src/robo_tasks.cpp **** /*
   2:Core/Src/robo_tasks.cpp ****  *
   3:Core/Src/robo_tasks.cpp ****  */
   4:Core/Src/robo_tasks.cpp **** 
   5:Core/Src/robo_tasks.cpp **** #include "FreeRTOS.h"
   6:Core/Src/robo_tasks.cpp **** #include "task.h"
   7:Core/Src/robo_tasks.cpp **** #include "main.h"
   8:Core/Src/robo_tasks.cpp **** #include "cmsis_os.h"
   9:Core/Src/robo_tasks.cpp **** #include "blnc_motor.h"
  10:Core/Src/robo_tasks.cpp **** 
  11:Core/Src/robo_tasks.cpp **** extern "C" void StartDefaultTask(void const *argument);
  12:Core/Src/robo_tasks.cpp **** extern "C" void MotorThread(void const *argument);
  13:Core/Src/robo_tasks.cpp **** extern "C" void PneumaticThread(void const *argument);
  14:Core/Src/robo_tasks.cpp **** extern "C" void MovingMassThread(void const *argument);
  15:Core/Src/robo_tasks.cpp **** 
  16:Core/Src/robo_tasks.cpp **** /* USER CODE BEGIN Header_StartDefaultTask */
  17:Core/Src/robo_tasks.cpp **** /**
  18:Core/Src/robo_tasks.cpp ****   * @brief  Function implementing the defaultTask thread.
  19:Core/Src/robo_tasks.cpp ****   * @param  argument: Not used 
  20:Core/Src/robo_tasks.cpp ****   * @retval None
  21:Core/Src/robo_tasks.cpp ****   */
  22:Core/Src/robo_tasks.cpp **** /* USER CODE END Header_StartDefaultTask */
  23:Core/Src/robo_tasks.cpp **** void StartDefaultTask(void const *argument)
  24:Core/Src/robo_tasks.cpp **** {
  28              		.loc 1 24 0
  29              		.cfi_startproc
  30              		@ Volatile: function does not return.
  31              		@ args = 0, pretend = 0, frame = 0
  32              		@ frame_needed = 0, uses_anonymous_args = 0
  33              	.LVL0:
  34 0000 08B5     		push	{r3, lr}
ARM GAS  C:\Users\Prashant\AppData\Local\Temp\cconQDSz.s 			page 2


  35              	.LCFI0:
  36              		.cfi_def_cfa_offset 8
  37              		.cfi_offset 3, -8
  38              		.cfi_offset 14, -4
  39              	.LVL1:
  40              	.L2:
  25:Core/Src/robo_tasks.cpp **** 
  26:Core/Src/robo_tasks.cpp ****         /* USER CODE BEGIN StartDefaultTask */
  27:Core/Src/robo_tasks.cpp ****         /* Infinite loop */
  28:Core/Src/robo_tasks.cpp ****         for (;;)
  29:Core/Src/robo_tasks.cpp ****         {
  30:Core/Src/robo_tasks.cpp ****                 printf("Hello from Default Thread!!\n");
  41              		.loc 1 30 0 discriminator 1
  42 0002 0348     		ldr	r0, .L4
  43 0004 FFF7FEFF 		bl	puts
  44              	.LVL2:
  31:Core/Src/robo_tasks.cpp ****                 osDelay(100);
  45              		.loc 1 31 0 discriminator 1
  46 0008 6420     		movs	r0, #100
  47 000a FFF7FEFF 		bl	osDelay
  48              	.LVL3:
  49 000e F8E7     		b	.L2
  50              	.L5:
  51              		.align	2
  52              	.L4:
  53 0010 00000000 		.word	.LC0
  54              		.cfi_endproc
  55              	.LFE137:
  57              		.section	.text.MotorThread,"ax",%progbits
  58              		.align	1
  59              		.global	MotorThread
  60              		.syntax unified
  61              		.thumb
  62              		.thumb_func
  63              		.fpu fpv4-sp-d16
  65              	MotorThread:
  66              	.LFB138:
  32:Core/Src/robo_tasks.cpp ****         }
  33:Core/Src/robo_tasks.cpp ****         /* USER CODE END StartDefaultTask */
  34:Core/Src/robo_tasks.cpp **** }
  35:Core/Src/robo_tasks.cpp **** 
  36:Core/Src/robo_tasks.cpp **** /* USER CODE BEGIN Header_MotorThread */
  37:Core/Src/robo_tasks.cpp **** /**
  38:Core/Src/robo_tasks.cpp **** * @brief Function implementing the Motor thread.
  39:Core/Src/robo_tasks.cpp **** * @param argument: Not used
  40:Core/Src/robo_tasks.cpp **** * @retval None
  41:Core/Src/robo_tasks.cpp **** */
  42:Core/Src/robo_tasks.cpp **** /* USER CODE END Header_MotorThread */
  43:Core/Src/robo_tasks.cpp **** void MotorThread(void const *argument)
  44:Core/Src/robo_tasks.cpp **** {
  67              		.loc 1 44 0
  68              		.cfi_startproc
  69              		@ Volatile: function does not return.
  70              		@ args = 0, pretend = 0, frame = 0
  71              		@ frame_needed = 0, uses_anonymous_args = 0
  72              	.LVL4:
  73 0000 08B5     		push	{r3, lr}
ARM GAS  C:\Users\Prashant\AppData\Local\Temp\cconQDSz.s 			page 3


  74              	.LCFI1:
  75              		.cfi_def_cfa_offset 8
  76              		.cfi_offset 3, -8
  77              		.cfi_offset 14, -4
  78              	.LVL5:
  79              	.L7:
  45:Core/Src/robo_tasks.cpp ****         /* USER CODE BEGIN MotorThread */
  46:Core/Src/robo_tasks.cpp **** 
  47:Core/Src/robo_tasks.cpp ****         /* Infinite loop */
  48:Core/Src/robo_tasks.cpp ****         for (;;)
  49:Core/Src/robo_tasks.cpp ****         {
  50:Core/Src/robo_tasks.cpp ****                 printf("Hello from Motor Thread!!\n");
  80              		.loc 1 50 0 discriminator 1
  81 0002 0348     		ldr	r0, .L9
  82 0004 FFF7FEFF 		bl	puts
  83              	.LVL6:
  51:Core/Src/robo_tasks.cpp ****                 osDelay(10);
  84              		.loc 1 51 0 discriminator 1
  85 0008 0A20     		movs	r0, #10
  86 000a FFF7FEFF 		bl	osDelay
  87              	.LVL7:
  88 000e F8E7     		b	.L7
  89              	.L10:
  90              		.align	2
  91              	.L9:
  92 0010 00000000 		.word	.LC1
  93              		.cfi_endproc
  94              	.LFE138:
  96              		.section	.text.PneumaticThread,"ax",%progbits
  97              		.align	1
  98              		.global	PneumaticThread
  99              		.syntax unified
 100              		.thumb
 101              		.thumb_func
 102              		.fpu fpv4-sp-d16
 104              	PneumaticThread:
 105              	.LFB139:
  52:Core/Src/robo_tasks.cpp ****         }
  53:Core/Src/robo_tasks.cpp ****         /* USER CODE END MotorThread */
  54:Core/Src/robo_tasks.cpp **** }
  55:Core/Src/robo_tasks.cpp **** 
  56:Core/Src/robo_tasks.cpp **** /* USER CODE BEGIN Header_PneumaticThread */
  57:Core/Src/robo_tasks.cpp **** /**
  58:Core/Src/robo_tasks.cpp **** * @brief Function implementing the Pnematic thread.
  59:Core/Src/robo_tasks.cpp **** * @param argument: Not used
  60:Core/Src/robo_tasks.cpp **** * @retval None
  61:Core/Src/robo_tasks.cpp **** */
  62:Core/Src/robo_tasks.cpp **** /* USER CODE END Header_PneumaticThread */
  63:Core/Src/robo_tasks.cpp **** void PneumaticThread(void const *argument)
  64:Core/Src/robo_tasks.cpp **** {
 106              		.loc 1 64 0
 107              		.cfi_startproc
 108              		@ Volatile: function does not return.
 109              		@ args = 0, pretend = 0, frame = 0
 110              		@ frame_needed = 0, uses_anonymous_args = 0
 111              	.LVL8:
 112 0000 08B5     		push	{r3, lr}
ARM GAS  C:\Users\Prashant\AppData\Local\Temp\cconQDSz.s 			page 4


 113              	.LCFI2:
 114              		.cfi_def_cfa_offset 8
 115              		.cfi_offset 3, -8
 116              		.cfi_offset 14, -4
 117              	.LVL9:
 118              	.L12:
  65:Core/Src/robo_tasks.cpp ****         /* USER CODE BEGIN PneumaticThread */
  66:Core/Src/robo_tasks.cpp **** 
  67:Core/Src/robo_tasks.cpp ****         /* Infinite loop */
  68:Core/Src/robo_tasks.cpp ****         for (;;)
  69:Core/Src/robo_tasks.cpp ****         {
  70:Core/Src/robo_tasks.cpp ****                 printf("Hello from Pnematic Thread!!\n");
 119              		.loc 1 70 0 discriminator 1
 120 0002 0348     		ldr	r0, .L14
 121 0004 FFF7FEFF 		bl	puts
 122              	.LVL10:
  71:Core/Src/robo_tasks.cpp ****                 osDelay(20);
 123              		.loc 1 71 0 discriminator 1
 124 0008 1420     		movs	r0, #20
 125 000a FFF7FEFF 		bl	osDelay
 126              	.LVL11:
 127 000e F8E7     		b	.L12
 128              	.L15:
 129              		.align	2
 130              	.L14:
 131 0010 00000000 		.word	.LC2
 132              		.cfi_endproc
 133              	.LFE139:
 135              		.section	.text.MovingMassThread,"ax",%progbits
 136              		.align	1
 137              		.global	MovingMassThread
 138              		.syntax unified
 139              		.thumb
 140              		.thumb_func
 141              		.fpu fpv4-sp-d16
 143              	MovingMassThread:
 144              	.LFB140:
  72:Core/Src/robo_tasks.cpp ****         }
  73:Core/Src/robo_tasks.cpp ****         /* USER CODE END PneumaticThread */
  74:Core/Src/robo_tasks.cpp **** }
  75:Core/Src/robo_tasks.cpp **** 
  76:Core/Src/robo_tasks.cpp **** /* USER CODE BEGIN Header_MovingMassThread */
  77:Core/Src/robo_tasks.cpp **** /**
  78:Core/Src/robo_tasks.cpp **** * @brief Function implementing the MovingMass thread.
  79:Core/Src/robo_tasks.cpp **** * @param argument: Not used
  80:Core/Src/robo_tasks.cpp **** * @retval None
  81:Core/Src/robo_tasks.cpp **** */
  82:Core/Src/robo_tasks.cpp **** /* USER CODE END Header_MovingMassThread */
  83:Core/Src/robo_tasks.cpp **** void MovingMassThread(void const *argument)
  84:Core/Src/robo_tasks.cpp **** {
 145              		.loc 1 84 0
 146              		.cfi_startproc
 147              		@ Volatile: function does not return.
 148              		@ args = 0, pretend = 0, frame = 0
 149              		@ frame_needed = 0, uses_anonymous_args = 0
 150              	.LVL12:
 151 0000 08B5     		push	{r3, lr}
ARM GAS  C:\Users\Prashant\AppData\Local\Temp\cconQDSz.s 			page 5


 152              	.LCFI3:
 153              		.cfi_def_cfa_offset 8
 154              		.cfi_offset 3, -8
 155              		.cfi_offset 14, -4
  85:Core/Src/robo_tasks.cpp ****         /* USER CODE BEGIN MovingMassThread */
  86:Core/Src/robo_tasks.cpp **** 	balance_init();
 156              		.loc 1 86 0
 157 0002 FFF7FEFF 		bl	_Z12balance_initv
 158              	.LVL13:
 159              	.L17:
  87:Core/Src/robo_tasks.cpp ****         /* Infinite loop */
  88:Core/Src/robo_tasks.cpp ****         for (;;)
  89:Core/Src/robo_tasks.cpp ****         {
  90:Core/Src/robo_tasks.cpp ****                 printf("Hello from MovingMass Thread!!\n");
 160              		.loc 1 90 0 discriminator 1
 161 0006 0448     		ldr	r0, .L19
 162 0008 FFF7FEFF 		bl	puts
 163              	.LVL14:
  91:Core/Src/robo_tasks.cpp **** 		check_N_run();
 164              		.loc 1 91 0 discriminator 1
 165 000c FFF7FEFF 		bl	_Z11check_N_runv
 166              	.LVL15:
  92:Core/Src/robo_tasks.cpp ****                 osDelay(20);
 167              		.loc 1 92 0 discriminator 1
 168 0010 1420     		movs	r0, #20
 169 0012 FFF7FEFF 		bl	osDelay
 170              	.LVL16:
 171 0016 F6E7     		b	.L17
 172              	.L20:
 173              		.align	2
 174              	.L19:
 175 0018 00000000 		.word	.LC3
 176              		.cfi_endproc
 177              	.LFE140:
 179              		.section	.rodata.MotorThread.str1.4,"aMS",%progbits,1
 180              		.align	2
 181              	.LC1:
 182 0000 48656C6C 		.ascii	"Hello from Motor Thread!!\000"
 182      6F206672 
 182      6F6D204D 
 182      6F746F72 
 182      20546872 
 183              		.section	.rodata.MovingMassThread.str1.4,"aMS",%progbits,1
 184              		.align	2
 185              	.LC3:
 186 0000 48656C6C 		.ascii	"Hello from MovingMass Thread!!\000"
 186      6F206672 
 186      6F6D204D 
 186      6F76696E 
 186      674D6173 
 187              		.section	.rodata.PneumaticThread.str1.4,"aMS",%progbits,1
 188              		.align	2
 189              	.LC2:
 190 0000 48656C6C 		.ascii	"Hello from Pnematic Thread!!\000"
 190      6F206672 
 190      6F6D2050 
 190      6E656D61 
ARM GAS  C:\Users\Prashant\AppData\Local\Temp\cconQDSz.s 			page 6


 190      74696320 
 191              		.section	.rodata.StartDefaultTask.str1.4,"aMS",%progbits,1
 192              		.align	2
 193              	.LC0:
 194 0000 48656C6C 		.ascii	"Hello from Default Thread!!\000"
 194      6F206672 
 194      6F6D2044 
 194      65666175 
 194      6C742054 
 195              		.text
 196              	.Letext0:
 197              		.file 2 "c:\\program files (x86)\\gnu tools arm embedded\\7 2017-q4-major\\arm-none-eabi\\include\
 198              		.file 3 "c:\\program files (x86)\\gnu tools arm embedded\\7 2017-q4-major\\arm-none-eabi\\include\
 199              		.file 4 "Core/Inc/sys/FreeRTOSConfig.h"
 200              		.file 5 "C:/Users/Prashant/STM32Cube/Repository/STM32Cube_FW_F4_V1.21.0/Drivers/CMSIS/Include/core
 201              		.file 6 "C:/Users/Prashant/STM32Cube/Repository/STM32Cube_FW_F4_V1.21.0/Drivers/CMSIS/Device/ST/ST
 202              		.file 7 "C:/Users/Prashant/STM32Cube/Repository/STM32Cube_FW_F4_V1.21.0/Drivers/CMSIS/Device/ST/ST
 203              		.file 8 "c:\\program files (x86)\\gnu tools arm embedded\\7 2017-q4-major\\arm-none-eabi\\include\
 204              		.file 9 "c:\\program files (x86)\\gnu tools arm embedded\\7 2017-q4-major\\arm-none-eabi\\include\
 205              		.file 10 "c:\\program files (x86)\\gnu tools arm embedded\\7 2017-q4-major\\lib\\gcc\\arm-none-eab
 206              		.file 11 "c:\\program files (x86)\\gnu tools arm embedded\\7 2017-q4-major\\arm-none-eabi\\include
 207              		.file 12 "C:/Users/Prashant/STM32Cube/Repository/STM32Cube_FW_F4_V1.21.0/Drivers/STM32F4xx_HAL_Dri
 208              		.file 13 "C:/Users/Prashant/STM32Cube/Repository/STM32Cube_FW_F4_V1.21.0/Drivers/STM32F4xx_HAL_Dri
 209              		.file 14 "C:/Users/Prashant/STM32Cube/Repository/STM32Cube_FW_F4_V1.21.0/Drivers/STM32F4xx_HAL_Dri
 210              		.file 15 "Core/Inc/periphs/tim.h"
 211              		.file 16 "Core/Inc/blnc_motor.h"
 212              		.file 17 "C:/Users/Prashant/STM32Cube/Repository/STM32Cube_FW_F4_V1.21.0/Middlewares/Third_Party/F
ARM GAS  C:\Users\Prashant\AppData\Local\Temp\cconQDSz.s 			page 7

