ARM GAS  C:\Users\Prashant\AppData\Local\Temp\ccm7pV8L.s 			page 1


   1              		.cpu cortex-m4
   2              		.eabi_attribute 27, 1
   3              		.eabi_attribute 28, 1
   4              		.eabi_attribute 20, 1
   5              		.eabi_attribute 21, 1
   6              		.eabi_attribute 23, 3
   7              		.eabi_attribute 24, 1
   8              		.eabi_attribute 25, 1
   9              		.eabi_attribute 26, 1
  10              		.eabi_attribute 30, 1
  11              		.eabi_attribute 34, 1
  12              		.eabi_attribute 18, 4
  13              		.file	"robo_init.cpp"
  14              		.text
  15              	.Ltext0:
  16              		.cfi_sections	.debug_frame
  17              		.section	.text._Z15feedForwardInitv,"ax",%progbits
  18              		.align	1
  19              		.global	_Z15feedForwardInitv
  20              		.syntax unified
  21              		.thumb
  22              		.thumb_func
  23              		.fpu fpv4-sp-d16
  25              	_Z15feedForwardInitv:
  26              	.LFB125:
  27              		.file 1 "Core/Src/robot/robo_init.cpp"
   1:Core/Src/robot/robo_init.cpp **** /*22-1-2019*/
   2:Core/Src/robot/robo_init.cpp **** 
   3:Core/Src/robot/robo_init.cpp **** #include "robo_init.h"
   4:Core/Src/robot/robo_init.cpp **** 
   5:Core/Src/robot/robo_init.cpp **** struct interruptStr blnc_int_arr[4];
   6:Core/Src/robot/robo_init.cpp **** struct encoderStr encoder_arr[4];
   7:Core/Src/robot/robo_init.cpp **** struct motorStr motor_arr[4];
   8:Core/Src/robot/robo_init.cpp **** struct interruptStr int_arr[4];
   9:Core/Src/robot/robo_init.cpp **** struct pidStr pid_arr[4];
  10:Core/Src/robot/robo_init.cpp **** struct feedStr ff_arr[4];
  11:Core/Src/robot/robo_init.cpp **** struct fsmStr fsm;
  12:Core/Src/robot/robo_init.cpp **** 
  13:Core/Src/robot/robo_init.cpp **** struct motorStr balance_motor;
  14:Core/Src/robot/robo_init.cpp **** 
  15:Core/Src/robot/robo_init.cpp **** // Motor 1 started working after changing interrupt pin from PE3 to PB9
  16:Core/Src/robot/robo_init.cpp **** 
  17:Core/Src/robot/robo_init.cpp **** void roboInit(void)
  18:Core/Src/robot/robo_init.cpp **** {
  19:Core/Src/robot/robo_init.cpp ****         pidInit();
  20:Core/Src/robot/robo_init.cpp ****         motorInit();
  21:Core/Src/robot/robo_init.cpp ****         encoderInit(); // Initialized after HOME_POSITION
  22:Core/Src/robot/robo_init.cpp ****         interruptInit();
  23:Core/Src/robot/robo_init.cpp ****         feedForwardInit();
  24:Core/Src/robot/robo_init.cpp **** }
  25:Core/Src/robot/robo_init.cpp **** 
  26:Core/Src/robot/robo_init.cpp **** void feedForwardInit(void)
  27:Core/Src/robot/robo_init.cpp **** {
  28              		.loc 1 27 0
  29              		.cfi_startproc
  30              		@ args = 0, pretend = 0, frame = 0
  31              		@ frame_needed = 0, uses_anonymous_args = 0
ARM GAS  C:\Users\Prashant\AppData\Local\Temp\ccm7pV8L.s 			page 2


  32 0000 10B5     		push	{r4, lr}
  33              	.LCFI0:
  34              		.cfi_def_cfa_offset 8
  35              		.cfi_offset 4, -8
  36              		.cfi_offset 14, -4
  37              	.LVL0:
  38              	.LBB2:
  28:Core/Src/robot/robo_init.cpp ****         for (uint8_t i = 0; i < 4; i++)
  39              		.loc 1 28 0
  40 0002 0024     		movs	r4, #0
  41              	.LVL1:
  42              	.L3:
  43              		.loc 1 28 0 is_stmt 0 discriminator 3
  44 0004 032C     		cmp	r4, #3
  45 0006 0FD8     		bhi	.L1
  29:Core/Src/robot/robo_init.cpp ****         {
  30:Core/Src/robot/robo_init.cpp ****                 ffInit(&ff_arr[i], 5, 20, dt_secs);
  46              		.loc 1 30 0 is_stmt 1 discriminator 2
  47 0008 C4EB0412 		rsb	r2, r4, r4, lsl #4
  48 000c 9300     		lsls	r3, r2, #2
  49 000e 9FED071A 		vldr.32	s2, .L5
  50 0012 F3EE040A 		vmov.f32	s1, #2.0e+1
  51 0016 B1EE040A 		vmov.f32	s0, #5.0e+0
  52 001a 0548     		ldr	r0, .L5+4
  53 001c 1844     		add	r0, r0, r3
  54 001e FFF7FEFF 		bl	_Z6ffInitP7feedStrfff
  55              	.LVL2:
  28:Core/Src/robot/robo_init.cpp ****         for (uint8_t i = 0; i < 4; i++)
  56              		.loc 1 28 0 discriminator 2
  57 0022 0134     		adds	r4, r4, #1
  58              	.LVL3:
  59 0024 E4B2     		uxtb	r4, r4
  60              	.LVL4:
  61 0026 EDE7     		b	.L3
  62              	.L1:
  63              	.LBE2:
  31:Core/Src/robot/robo_init.cpp ****         }
  32:Core/Src/robot/robo_init.cpp **** }
  64              		.loc 1 32 0
  65 0028 10BD     		pop	{r4, pc}
  66              	.LVL5:
  67              	.L6:
  68 002a 00BF     		.align	2
  69              	.L5:
  70 002c 0AD7233C 		.word	1008981770
  71 0030 00000000 		.word	.LANCHOR0
  72              		.cfi_endproc
  73              	.LFE125:
  75              		.section	.text._Z13interruptInitv,"ax",%progbits
  76              		.align	1
  77              		.global	_Z13interruptInitv
  78              		.syntax unified
  79              		.thumb
  80              		.thumb_func
  81              		.fpu fpv4-sp-d16
  83              	_Z13interruptInitv:
  84              	.LFB126:
ARM GAS  C:\Users\Prashant\AppData\Local\Temp\ccm7pV8L.s 			page 3


  33:Core/Src/robot/robo_init.cpp **** 
  34:Core/Src/robot/robo_init.cpp **** void interruptInit(void)
  35:Core/Src/robot/robo_init.cpp **** {
  85              		.loc 1 35 0
  86              		.cfi_startproc
  87              		@ args = 0, pretend = 0, frame = 0
  88              		@ frame_needed = 0, uses_anonymous_args = 0
  89              		@ link register save eliminated.
  36:Core/Src/robot/robo_init.cpp ****         // Motor interrupts
  37:Core/Src/robot/robo_init.cpp ****         int_arr[0].int_pin = GPIO_PIN_9;
  90              		.loc 1 37 0
  91 0000 154B     		ldr	r3, .L16
  92 0002 4FF40072 		mov	r2, #512
  93 0006 1A81     		strh	r2, [r3, #8]	@ movhi
  38:Core/Src/robot/robo_init.cpp ****         int_arr[1].int_pin = GPIO_PIN_13;
  94              		.loc 1 38 0
  95 0008 4FF40052 		mov	r2, #8192
  96 000c 9A82     		strh	r2, [r3, #20]	@ movhi
  39:Core/Src/robot/robo_init.cpp ****         int_arr[2].int_pin = GPIO_PIN_1;
  97              		.loc 1 39 0
  98 000e 0222     		movs	r2, #2
  99 0010 1A84     		strh	r2, [r3, #32]	@ movhi
  40:Core/Src/robot/robo_init.cpp ****         int_arr[3].int_pin = GPIO_PIN_5;
 100              		.loc 1 40 0
 101 0012 2022     		movs	r2, #32
 102 0014 9A85     		strh	r2, [r3, #44]	@ movhi
  41:Core/Src/robot/robo_init.cpp **** 
  42:Core/Src/robot/robo_init.cpp ****         // Balance interrupts
  43:Core/Src/robot/robo_init.cpp ****         blnc_int_arr[0].int_pin = GPIO_PIN_14;
 103              		.loc 1 43 0
 104 0016 114B     		ldr	r3, .L16+4
 105 0018 4FF48042 		mov	r2, #16384
 106 001c 1A81     		strh	r2, [r3, #8]	@ movhi
  44:Core/Src/robot/robo_init.cpp ****         blnc_int_arr[1].int_pin = GPIO_PIN_15;
 107              		.loc 1 44 0
 108 001e 4FF40042 		mov	r2, #32768
 109 0022 9A82     		strh	r2, [r3, #20]	@ movhi
  45:Core/Src/robot/robo_init.cpp ****         blnc_int_arr[2].int_pin = GPIO_PIN_7;
 110              		.loc 1 45 0
 111 0024 8022     		movs	r2, #128
 112 0026 1A84     		strh	r2, [r3, #32]	@ movhi
  46:Core/Src/robot/robo_init.cpp ****         blnc_int_arr[3].int_pin = GPIO_PIN_3;
 113              		.loc 1 46 0
 114 0028 0822     		movs	r2, #8
 115 002a 9A85     		strh	r2, [r3, #44]	@ movhi
 116              	.LVL6:
 117              	.LBB3:
  47:Core/Src/robot/robo_init.cpp **** 
  48:Core/Src/robot/robo_init.cpp ****         for (uint8_t i = 0; i < 4; i++)
 118              		.loc 1 48 0
 119 002c 0023     		movs	r3, #0
 120              	.LVL7:
 121 002e 032B     		cmp	r3, #3
 122 0030 10D8     		bhi	.L15
 123              	.LBE3:
  35:Core/Src/robot/robo_init.cpp ****         // Motor interrupts
 124              		.loc 1 35 0
ARM GAS  C:\Users\Prashant\AppData\Local\Temp\ccm7pV8L.s 			page 4


 125 0032 30B4     		push	{r4, r5}
 126              	.LCFI1:
 127              		.cfi_def_cfa_offset 8
 128              		.cfi_offset 4, -8
 129              		.cfi_offset 5, -4
 130              	.L13:
 131              	.LBB4:
  49:Core/Src/robot/robo_init.cpp ****         {
  50:Core/Src/robot/robo_init.cpp ****                 int_arr[i].fhome_pos = 0;
 132              		.loc 1 50 0 discriminator 2
 133 0034 084A     		ldr	r2, .L16
 134 0036 5900     		lsls	r1, r3, #1
 135 0038 CC18     		adds	r4, r1, r3
 136 003a A000     		lsls	r0, r4, #2
 137 003c 1518     		adds	r5, r2, r0
 138 003e 0024     		movs	r4, #0
 139 0040 6C70     		strb	r4, [r5, #1]
  51:Core/Src/robot/robo_init.cpp ****                 int_arr[i].fangle_reset = 0;
 140              		.loc 1 51 0 discriminator 2
 141 0042 1454     		strb	r4, [r2, r0]
  52:Core/Src/robot/robo_init.cpp ****                 int_arr[i].intState = STATE_HOME;
 142              		.loc 1 52 0 discriminator 2
 143 0044 0221     		movs	r1, #2
 144 0046 A972     		strb	r1, [r5, #10]
  48:Core/Src/robot/robo_init.cpp ****         {
 145              		.loc 1 48 0 discriminator 2
 146 0048 0133     		adds	r3, r3, #1
 147              	.LVL8:
 148 004a DBB2     		uxtb	r3, r3
 149              	.LVL9:
 150 004c 032B     		cmp	r3, #3
 151 004e F1D9     		bls	.L13
 152              	.LBE4:
  53:Core/Src/robot/robo_init.cpp ****         }
  54:Core/Src/robot/robo_init.cpp **** }
 153              		.loc 1 54 0
 154 0050 30BC     		pop	{r4, r5}
 155              	.LCFI2:
 156              		.cfi_restore 5
 157              		.cfi_restore 4
 158              		.cfi_def_cfa_offset 0
 159 0052 7047     		bx	lr
 160              	.L15:
 161 0054 7047     		bx	lr
 162              	.L17:
 163 0056 00BF     		.align	2
 164              	.L16:
 165 0058 00000000 		.word	.LANCHOR1
 166 005c 00000000 		.word	.LANCHOR2
 167              		.cfi_endproc
 168              	.LFE126:
 170              		.section	.text._Z7pidInitv,"ax",%progbits
 171              		.align	1
 172              		.global	_Z7pidInitv
 173              		.syntax unified
 174              		.thumb
 175              		.thumb_func
ARM GAS  C:\Users\Prashant\AppData\Local\Temp\ccm7pV8L.s 			page 5


 176              		.fpu fpv4-sp-d16
 178              	_Z7pidInitv:
 179              	.LFB127:
  55:Core/Src/robot/robo_init.cpp **** 
  56:Core/Src/robot/robo_init.cpp **** void pidInit(void)
  57:Core/Src/robot/robo_init.cpp **** {
 180              		.loc 1 57 0
 181              		.cfi_startproc
 182              		@ args = 0, pretend = 0, frame = 0
 183              		@ frame_needed = 0, uses_anonymous_args = 0
 184 0000 F8B5     		push	{r3, r4, r5, r6, r7, lr}
 185              	.LCFI3:
 186              		.cfi_def_cfa_offset 24
 187              		.cfi_offset 3, -24
 188              		.cfi_offset 4, -20
 189              		.cfi_offset 5, -16
 190              		.cfi_offset 6, -12
 191              		.cfi_offset 7, -8
 192              		.cfi_offset 14, -4
 193              	.LVL10:
 194              	.LBB5:
  58:Core/Src/robot/robo_init.cpp ****         for (uint8_t i = 0; i < 4; i++)
 195              		.loc 1 58 0
 196 0002 0025     		movs	r5, #0
 197              	.LVL11:
 198              	.L20:
 199              		.loc 1 58 0 is_stmt 0 discriminator 3
 200 0004 032D     		cmp	r5, #3
 201 0006 1DD8     		bhi	.L18
  59:Core/Src/robot/robo_init.cpp ****         {
  60:Core/Src/robot/robo_init.cpp ****                 PID_Init(&pid_arr[i]);
 202              		.loc 1 60 0 is_stmt 1 discriminator 2
 203 0008 134F     		ldr	r7, .L22+16
 204 000a EE00     		lsls	r6, r5, #3
 205 000c 731B     		subs	r3, r6, r5
 206 000e DC00     		lsls	r4, r3, #3
 207 0010 3C44     		add	r4, r4, r7
 208 0012 2046     		mov	r0, r4
 209 0014 FFF7FEFF 		bl	_Z8PID_InitP6pidStr
 210              	.LVL12:
  61:Core/Src/robot/robo_init.cpp **** 
  62:Core/Src/robot/robo_init.cpp ****                 pid_arr[i].max_output = 17;
 211              		.loc 1 62 0 discriminator 2
 212 0018 104B     		ldr	r3, .L22+20
 213 001a 2362     		str	r3, [r4, #32]	@ float
  63:Core/Src/robot/robo_init.cpp ****                 pid_arr[i].min_output = -17;
 214              		.loc 1 63 0 discriminator 2
 215 001c 104B     		ldr	r3, .L22+24
 216 001e 6362     		str	r3, [r4, #36]	@ float
  64:Core/Src/robot/robo_init.cpp **** 
  65:Core/Src/robot/robo_init.cpp ****                 pid_arr[i].kp = 0.3;
 217              		.loc 1 65 0 discriminator 2
 218 0020 09A3     		adr	r3, .L22
 219 0022 D3E90023 		ldrd	r2, [r3]
 220 0026 C4E90023 		strd	r2, [r4]
  66:Core/Src/robot/robo_init.cpp ****                 pid_arr[i].ki = 0.02;
 221              		.loc 1 66 0 discriminator 2
ARM GAS  C:\Users\Prashant\AppData\Local\Temp\ccm7pV8L.s 			page 6


 222 002a 09A3     		adr	r3, .L22+8
 223 002c D3E90023 		ldrd	r2, [r3]
 224 0030 C4E90223 		strd	r2, [r4, #8]
  67:Core/Src/robot/robo_init.cpp **** 
  68:Core/Src/robot/robo_init.cpp ****                 pid_arr[i].last_error = 0;
 225              		.loc 1 68 0 discriminator 2
 226 0034 0022     		movs	r2, #0
 227 0036 E262     		str	r2, [r4, #44]	@ float
  69:Core/Src/robot/robo_init.cpp ****                 pid_arr[i].output = 0;
 228              		.loc 1 69 0 discriminator 2
 229 0038 E261     		str	r2, [r4, #28]	@ float
  70:Core/Src/robot/robo_init.cpp ****                 pid_arr[i].previous_error = 0;
 230              		.loc 1 70 0 discriminator 2
 231 003a 2263     		str	r2, [r4, #48]	@ float
  71:Core/Src/robot/robo_init.cpp ****                 pid_arr[i].last_output = 0;
 232              		.loc 1 71 0 discriminator 2
 233 003c A262     		str	r2, [r4, #40]	@ float
  58:Core/Src/robot/robo_init.cpp ****         {
 234              		.loc 1 58 0 discriminator 2
 235 003e 0135     		adds	r5, r5, #1
 236              	.LVL13:
 237 0040 EDB2     		uxtb	r5, r5
 238              	.LVL14:
 239 0042 DFE7     		b	.L20
 240              	.L18:
 241              	.LBE5:
  72:Core/Src/robot/robo_init.cpp ****         }
  73:Core/Src/robot/robo_init.cpp **** }
 242              		.loc 1 73 0
 243 0044 F8BD     		pop	{r3, r4, r5, r6, r7, pc}
 244              	.LVL15:
 245              	.L23:
 246 0046 00BF     		.align	3
 247              	.L22:
 248 0048 33333333 		.word	858993459
 249 004c 3333D33F 		.word	1070805811
 250 0050 7B14AE47 		.word	1202590843
 251 0054 E17A943F 		.word	1066695393
 252 0058 00000000 		.word	.LANCHOR3
 253 005c 00008841 		.word	1099431936
 254 0060 000088C1 		.word	-1048051712
 255              		.cfi_endproc
 256              	.LFE127:
 258              		.section	.text._Z11encoderInitv,"ax",%progbits
 259              		.align	1
 260              		.global	_Z11encoderInitv
 261              		.syntax unified
 262              		.thumb
 263              		.thumb_func
 264              		.fpu fpv4-sp-d16
 266              	_Z11encoderInitv:
 267              	.LFB128:
  74:Core/Src/robot/robo_init.cpp **** 
  75:Core/Src/robot/robo_init.cpp **** void encoderInit(void)
  76:Core/Src/robot/robo_init.cpp **** {
 268              		.loc 1 76 0
 269              		.cfi_startproc
ARM GAS  C:\Users\Prashant\AppData\Local\Temp\ccm7pV8L.s 			page 7


 270              		@ args = 0, pretend = 0, frame = 0
 271              		@ frame_needed = 0, uses_anonymous_args = 0
 272 0000 10B5     		push	{r4, lr}
 273              	.LCFI4:
 274              		.cfi_def_cfa_offset 8
 275              		.cfi_offset 4, -8
 276              		.cfi_offset 14, -4
  77:Core/Src/robot/robo_init.cpp ****         encoder_arr[0].htim = &htim3;
 277              		.loc 1 77 0
 278 0002 0E4B     		ldr	r3, .L28
 279 0004 0E4A     		ldr	r2, .L28+4
 280 0006 DA60     		str	r2, [r3, #12]
  78:Core/Src/robot/robo_init.cpp ****         encoder_arr[1].htim = &htim4;
 281              		.loc 1 78 0
 282 0008 0E4A     		ldr	r2, .L28+8
 283 000a DA61     		str	r2, [r3, #28]
  79:Core/Src/robot/robo_init.cpp ****         encoder_arr[2].htim = &htim1;
 284              		.loc 1 79 0
 285 000c 0E4A     		ldr	r2, .L28+12
 286 000e DA62     		str	r2, [r3, #44]
  80:Core/Src/robot/robo_init.cpp ****         encoder_arr[3].htim = &htim2;
 287              		.loc 1 80 0
 288 0010 0E4A     		ldr	r2, .L28+16
 289 0012 DA63     		str	r2, [r3, #60]
 290              	.LVL16:
 291              	.LBB6:
  81:Core/Src/robot/robo_init.cpp **** 
  82:Core/Src/robot/robo_init.cpp ****         for (uint8_t i = 0; i < 4; i++)
 292              		.loc 1 82 0
 293 0014 0024     		movs	r4, #0
 294              	.LVL17:
 295              	.L26:
 296              		.loc 1 82 0 is_stmt 0 discriminator 3
 297 0016 032C     		cmp	r4, #3
 298 0018 0FD8     		bhi	.L24
  83:Core/Src/robot/robo_init.cpp ****         {
  84:Core/Src/robot/robo_init.cpp ****                 // Gear reduction ratio = 4 and X4_MODE
  85:Core/Src/robot/robo_init.cpp ****                 encoder_arr[i].ppr = PPR_VIET_MOTOR * 4 * 4;
 299              		.loc 1 85 0 is_stmt 1 discriminator 2
 300 001a 0849     		ldr	r1, .L28
 301 001c 2201     		lsls	r2, r4, #4
 302 001e 8B18     		adds	r3, r1, r2
 303 0020 4FF47A60 		mov	r0, #4000
 304 0024 8852     		strh	r0, [r1, r2]	@ movhi
  86:Core/Src/robot/robo_init.cpp **** 
  87:Core/Src/robot/robo_init.cpp ****                 encoder_arr[i].ref_count = 0;
 305              		.loc 1 87 0 discriminator 2
 306 0026 0022     		movs	r2, #0
 307 0028 5A80     		strh	r2, [r3, #2]	@ movhi
  88:Core/Src/robot/robo_init.cpp ****                 encoder_arr[i].last_count = 0;
 308              		.loc 1 88 0 discriminator 2
 309 002a 9A80     		strh	r2, [r3, #4]	@ movhi
  89:Core/Src/robot/robo_init.cpp **** 
  90:Core/Src/robot/robo_init.cpp ****                 // Start encoder-mode
  91:Core/Src/robot/robo_init.cpp ****                 HAL_TIM_Encoder_Start(encoder_arr[i].htim, TIM_CHANNEL_ALL);
 310              		.loc 1 91 0 discriminator 2
 311 002c 1821     		movs	r1, #24
ARM GAS  C:\Users\Prashant\AppData\Local\Temp\ccm7pV8L.s 			page 8


 312 002e D868     		ldr	r0, [r3, #12]
 313 0030 FFF7FEFF 		bl	HAL_TIM_Encoder_Start
 314              	.LVL18:
  82:Core/Src/robot/robo_init.cpp ****         {
 315              		.loc 1 82 0 discriminator 2
 316 0034 0134     		adds	r4, r4, #1
 317              	.LVL19:
 318 0036 E4B2     		uxtb	r4, r4
 319              	.LVL20:
 320 0038 EDE7     		b	.L26
 321              	.L24:
 322              	.LBE6:
  92:Core/Src/robot/robo_init.cpp ****         }
  93:Core/Src/robot/robo_init.cpp **** }
 323              		.loc 1 93 0
 324 003a 10BD     		pop	{r4, pc}
 325              	.LVL21:
 326              	.L29:
 327              		.align	2
 328              	.L28:
 329 003c 00000000 		.word	.LANCHOR4
 330 0040 00000000 		.word	htim3
 331 0044 00000000 		.word	htim4
 332 0048 00000000 		.word	htim1
 333 004c 00000000 		.word	htim2
 334              		.cfi_endproc
 335              	.LFE128:
 337              		.section	.text._Z9motorInitv,"ax",%progbits
 338              		.align	1
 339              		.global	_Z9motorInitv
 340              		.syntax unified
 341              		.thumb
 342              		.thumb_func
 343              		.fpu fpv4-sp-d16
 345              	_Z9motorInitv:
 346              	.LFB129:
  94:Core/Src/robot/robo_init.cpp **** 
  95:Core/Src/robot/robo_init.cpp **** void motorInit(void)
  96:Core/Src/robot/robo_init.cpp **** {
 347              		.loc 1 96 0
 348              		.cfi_startproc
 349              		@ args = 0, pretend = 0, frame = 0
 350              		@ frame_needed = 0, uses_anonymous_args = 0
 351 0000 70B5     		push	{r4, r5, r6, lr}
 352              	.LCFI5:
 353              		.cfi_def_cfa_offset 16
 354              		.cfi_offset 4, -16
 355              		.cfi_offset 5, -12
 356              		.cfi_offset 6, -8
 357              		.cfi_offset 14, -4
  97:Core/Src/robot/robo_init.cpp ****         // Mass balancing motor
  98:Core/Src/robot/robo_init.cpp ****         balance_motor.dir1_port = GPIOA;
 358              		.loc 1 98 0
 359 0002 2C4C     		ldr	r4, .L34
 360 0004 2C4E     		ldr	r6, .L34+4
 361 0006 A661     		str	r6, [r4, #24]
  99:Core/Src/robot/robo_init.cpp ****         balance_motor.dir2_port = GPIOA;
ARM GAS  C:\Users\Prashant\AppData\Local\Temp\ccm7pV8L.s 			page 9


 362              		.loc 1 99 0
 363 0008 2662     		str	r6, [r4, #32]
 100:Core/Src/robot/robo_init.cpp ****         balance_motor.dir1_pin = GPIO_PIN_3;
 364              		.loc 1 100 0
 365 000a 0825     		movs	r5, #8
 366 000c A583     		strh	r5, [r4, #28]	@ movhi
 101:Core/Src/robot/robo_init.cpp ****         balance_motor.dir2_pin = GPIO_PIN_3;
 367              		.loc 1 101 0
 368 000e A584     		strh	r5, [r4, #36]	@ movhi
 102:Core/Src/robot/robo_init.cpp **** 
 103:Core/Src/robot/robo_init.cpp ****         balance_motor.htim = &htim5;
 369              		.loc 1 103 0
 370 0010 2A48     		ldr	r0, .L34+8
 371 0012 A062     		str	r0, [r4, #40]
 104:Core/Src/robot/robo_init.cpp ****         balance_motor.channel = TIM_CHANNEL_3;
 372              		.loc 1 104 0
 373 0014 E562     		str	r5, [r4, #44]
 105:Core/Src/robot/robo_init.cpp ****         HAL_TIM_Base_Start(balance_motor.htim);
 374              		.loc 1 105 0
 375 0016 FFF7FEFF 		bl	HAL_TIM_Base_Start
 376              	.LVL22:
 106:Core/Src/robot/robo_init.cpp ****         HAL_TIM_PWM_Start(balance_motor.htim, balance_motor.channel);
 377              		.loc 1 106 0
 378 001a E16A     		ldr	r1, [r4, #44]
 379 001c A06A     		ldr	r0, [r4, #40]
 380 001e FFF7FEFF 		bl	HAL_TIM_PWM_Start
 381              	.LVL23:
 107:Core/Src/robot/robo_init.cpp **** 
 108:Core/Src/robot/robo_init.cpp ****         // Motors for gait
 109:Core/Src/robot/robo_init.cpp ****         // motor1
 110:Core/Src/robot/robo_init.cpp ****         motor_arr[0].dir1_port = GPIOA;
 382              		.loc 1 110 0
 383 0022 274B     		ldr	r3, .L34+12
 384 0024 9E61     		str	r6, [r3, #24]
 111:Core/Src/robot/robo_init.cpp ****         motor_arr[0].dir1_pin = GPIO_PIN_15;
 385              		.loc 1 111 0
 386 0026 4FF40042 		mov	r2, #32768
 387 002a 9A83     		strh	r2, [r3, #28]	@ movhi
 112:Core/Src/robot/robo_init.cpp ****         motor_arr[0].dir2_port = GPIOA;
 388              		.loc 1 112 0
 389 002c 1E62     		str	r6, [r3, #32]
 113:Core/Src/robot/robo_init.cpp ****         motor_arr[0].dir2_pin = GPIO_PIN_8;
 390              		.loc 1 113 0
 391 002e 4FF48072 		mov	r2, #256
 392 0032 9A84     		strh	r2, [r3, #36]	@ movhi
 114:Core/Src/robot/robo_init.cpp ****         motor_arr[0].channel = TIM_CHANNEL_1;
 393              		.loc 1 114 0
 394 0034 0024     		movs	r4, #0
 395 0036 DC62     		str	r4, [r3, #44]
 115:Core/Src/robot/robo_init.cpp **** 
 116:Core/Src/robot/robo_init.cpp ****         // motor2
 117:Core/Src/robot/robo_init.cpp ****         motor_arr[1].dir1_port = GPIOC;
 396              		.loc 1 117 0
 397 0038 224A     		ldr	r2, .L34+16
 398 003a DA64     		str	r2, [r3, #76]
 118:Core/Src/robot/robo_init.cpp ****         motor_arr[1].dir1_pin = GPIO_PIN_11;
 399              		.loc 1 118 0
ARM GAS  C:\Users\Prashant\AppData\Local\Temp\ccm7pV8L.s 			page 10


 400 003c 4FF40062 		mov	r2, #2048
 401 0040 A3F85020 		strh	r2, [r3, #80]	@ movhi
 119:Core/Src/robot/robo_init.cpp ****         motor_arr[1].dir2_port = GPIOD;
 402              		.loc 1 119 0
 403 0044 204A     		ldr	r2, .L34+20
 404 0046 5A65     		str	r2, [r3, #84]
 120:Core/Src/robot/robo_init.cpp ****         motor_arr[1].dir2_pin = GPIO_PIN_3;
 405              		.loc 1 120 0
 406 0048 A3F85850 		strh	r5, [r3, #88]	@ movhi
 121:Core/Src/robot/robo_init.cpp ****         motor_arr[1].channel = TIM_CHANNEL_2;
 407              		.loc 1 121 0
 408 004c 0421     		movs	r1, #4
 409 004e 1966     		str	r1, [r3, #96]
 122:Core/Src/robot/robo_init.cpp **** 
 123:Core/Src/robot/robo_init.cpp ****         // motor3
 124:Core/Src/robot/robo_init.cpp ****         motor_arr[2].dir1_port = GPIOD;
 410              		.loc 1 124 0
 411 0050 C3F88020 		str	r2, [r3, #128]
 125:Core/Src/robot/robo_init.cpp ****         motor_arr[2].dir1_pin = GPIO_PIN_5;
 412              		.loc 1 125 0
 413 0054 2021     		movs	r1, #32
 414 0056 A3F88410 		strh	r1, [r3, #132]	@ movhi
 126:Core/Src/robot/robo_init.cpp ****         motor_arr[2].dir2_port = GPIOD;
 415              		.loc 1 126 0
 416 005a C3F88820 		str	r2, [r3, #136]
 127:Core/Src/robot/robo_init.cpp ****         motor_arr[2].dir2_pin = GPIO_PIN_4;
 417              		.loc 1 127 0
 418 005e 1020     		movs	r0, #16
 419 0060 A3F88C00 		strh	r0, [r3, #140]	@ movhi
 128:Core/Src/robot/robo_init.cpp ****         motor_arr[2].channel = TIM_CHANNEL_3;
 420              		.loc 1 128 0
 421 0064 C3F89450 		str	r5, [r3, #148]
 129:Core/Src/robot/robo_init.cpp **** 
 130:Core/Src/robot/robo_init.cpp ****         // motor4
 131:Core/Src/robot/robo_init.cpp ****         motor_arr[3].dir1_port = GPIOD;
 422              		.loc 1 131 0
 423 0068 C3F8B420 		str	r2, [r3, #180]
 132:Core/Src/robot/robo_init.cpp ****         motor_arr[3].dir1_pin = GPIO_PIN_7;
 424              		.loc 1 132 0
 425 006c 8022     		movs	r2, #128
 426 006e A3F8B820 		strh	r2, [r3, #184]	@ movhi
 133:Core/Src/robot/robo_init.cpp ****         motor_arr[3].dir2_port = GPIOB;
 427              		.loc 1 133 0
 428 0072 164A     		ldr	r2, .L34+24
 429 0074 C3F8BC20 		str	r2, [r3, #188]
 134:Core/Src/robot/robo_init.cpp ****         motor_arr[3].dir2_pin = GPIO_PIN_5;
 430              		.loc 1 134 0
 431 0078 A3F8C010 		strh	r1, [r3, #192]	@ movhi
 135:Core/Src/robot/robo_init.cpp ****         motor_arr[3].channel = TIM_CHANNEL_4;
 432              		.loc 1 135 0
 433 007c 0C22     		movs	r2, #12
 434 007e C3F8C820 		str	r2, [r3, #200]
 435              	.LVL24:
 436              	.L32:
 437              	.LBB7:
 136:Core/Src/robot/robo_init.cpp **** 
 137:Core/Src/robot/robo_init.cpp ****         for (uint8_t i = 0; i < 4; i++)
ARM GAS  C:\Users\Prashant\AppData\Local\Temp\ccm7pV8L.s 			page 11


 438              		.loc 1 137 0 discriminator 3
 439 0082 032C     		cmp	r4, #3
 440 0084 14D8     		bhi	.L30
 138:Core/Src/robot/robo_init.cpp ****         {
 139:Core/Src/robot/robo_init.cpp ****                 motor_arr[i].update_omega = 0;
 441              		.loc 1 139 0 discriminator 2
 442 0086 0E4B     		ldr	r3, .L34+12
 443 0088 3425     		movs	r5, #52
 444 008a 05FB0435 		mla	r5, r5, r4, r3
 445 008e 0023     		movs	r3, #0
 446 0090 2B61     		str	r3, [r5, #16]	@ float
 140:Core/Src/robot/robo_init.cpp ****                 motor_arr[i].htim = &htim8;
 447              		.loc 1 140 0 discriminator 2
 448 0092 0F48     		ldr	r0, .L34+28
 449 0094 A862     		str	r0, [r5, #40]
 141:Core/Src/robot/robo_init.cpp ****                 motor_arr[i].encoder = &encoder_arr[i];
 450              		.loc 1 141 0 discriminator 2
 451 0096 0F4B     		ldr	r3, .L34+32
 452 0098 03EB0413 		add	r3, r3, r4, lsl #4
 453 009c 2B63     		str	r3, [r5, #48]
 142:Core/Src/robot/robo_init.cpp **** 
 143:Core/Src/robot/robo_init.cpp ****                 HAL_TIM_Base_Start(motor_arr[i].htim);
 454              		.loc 1 143 0 discriminator 2
 455 009e FFF7FEFF 		bl	HAL_TIM_Base_Start
 456              	.LVL25:
 144:Core/Src/robot/robo_init.cpp ****                 HAL_TIM_PWM_Start(motor_arr[i].htim, motor_arr[i].channel);
 457              		.loc 1 144 0 discriminator 2
 458 00a2 E96A     		ldr	r1, [r5, #44]
 459 00a4 A86A     		ldr	r0, [r5, #40]
 460 00a6 FFF7FEFF 		bl	HAL_TIM_PWM_Start
 461              	.LVL26:
 137:Core/Src/robot/robo_init.cpp ****         {
 462              		.loc 1 137 0 discriminator 2
 463 00aa 0134     		adds	r4, r4, #1
 464              	.LVL27:
 465 00ac E4B2     		uxtb	r4, r4
 466              	.LVL28:
 467 00ae E8E7     		b	.L32
 468              	.L30:
 469              	.LBE7:
 145:Core/Src/robot/robo_init.cpp ****         }
 146:Core/Src/robot/robo_init.cpp **** }
 470              		.loc 1 146 0
 471 00b0 70BD     		pop	{r4, r5, r6, pc}
 472              	.LVL29:
 473              	.L35:
 474 00b2 00BF     		.align	2
 475              	.L34:
 476 00b4 00000000 		.word	.LANCHOR5
 477 00b8 00000240 		.word	1073872896
 478 00bc 00000000 		.word	htim5
 479 00c0 00000000 		.word	.LANCHOR6
 480 00c4 00080240 		.word	1073874944
 481 00c8 000C0240 		.word	1073875968
 482 00cc 00040240 		.word	1073873920
 483 00d0 00000000 		.word	htim8
 484 00d4 00000000 		.word	.LANCHOR4
ARM GAS  C:\Users\Prashant\AppData\Local\Temp\ccm7pV8L.s 			page 12


 485              		.cfi_endproc
 486              	.LFE129:
 488              		.section	.text._Z8roboInitv,"ax",%progbits
 489              		.align	1
 490              		.global	_Z8roboInitv
 491              		.syntax unified
 492              		.thumb
 493              		.thumb_func
 494              		.fpu fpv4-sp-d16
 496              	_Z8roboInitv:
 497              	.LFB124:
  18:Core/Src/robot/robo_init.cpp ****         pidInit();
 498              		.loc 1 18 0
 499              		.cfi_startproc
 500              		@ args = 0, pretend = 0, frame = 0
 501              		@ frame_needed = 0, uses_anonymous_args = 0
 502 0000 08B5     		push	{r3, lr}
 503              	.LCFI6:
 504              		.cfi_def_cfa_offset 8
 505              		.cfi_offset 3, -8
 506              		.cfi_offset 14, -4
  19:Core/Src/robot/robo_init.cpp ****         motorInit();
 507              		.loc 1 19 0
 508 0002 FFF7FEFF 		bl	_Z7pidInitv
 509              	.LVL30:
  20:Core/Src/robot/robo_init.cpp ****         encoderInit(); // Initialized after HOME_POSITION
 510              		.loc 1 20 0
 511 0006 FFF7FEFF 		bl	_Z9motorInitv
 512              	.LVL31:
  21:Core/Src/robot/robo_init.cpp ****         interruptInit();
 513              		.loc 1 21 0
 514 000a FFF7FEFF 		bl	_Z11encoderInitv
 515              	.LVL32:
  22:Core/Src/robot/robo_init.cpp ****         feedForwardInit();
 516              		.loc 1 22 0
 517 000e FFF7FEFF 		bl	_Z13interruptInitv
 518              	.LVL33:
  23:Core/Src/robot/robo_init.cpp **** }
 519              		.loc 1 23 0
 520 0012 FFF7FEFF 		bl	_Z15feedForwardInitv
 521              	.LVL34:
  24:Core/Src/robot/robo_init.cpp **** 
 522              		.loc 1 24 0
 523 0016 08BD     		pop	{r3, pc}
 524              		.cfi_endproc
 525              	.LFE124:
 527              		.section	.text._Z7fsmInitv,"ax",%progbits
 528              		.align	1
 529              		.global	_Z7fsmInitv
 530              		.syntax unified
 531              		.thumb
 532              		.thumb_func
 533              		.fpu fpv4-sp-d16
 535              	_Z7fsmInitv:
 536              	.LFB130:
 147:Core/Src/robot/robo_init.cpp **** void fsmInit(void)
 148:Core/Src/robot/robo_init.cpp **** {
ARM GAS  C:\Users\Prashant\AppData\Local\Temp\ccm7pV8L.s 			page 13


 537              		.loc 1 148 0
 538              		.cfi_startproc
 539              		@ args = 0, pretend = 0, frame = 0
 540              		@ frame_needed = 0, uses_anonymous_args = 0
 541              		@ link register save eliminated.
 149:Core/Src/robot/robo_init.cpp ****         fsm.loop_cnt = 0;
 542              		.loc 1 149 0
 543 0000 014B     		ldr	r3, .L39
 544 0002 0022     		movs	r2, #0
 545 0004 1A70     		strb	r2, [r3]
 150:Core/Src/robot/robo_init.cpp **** }
 546              		.loc 1 150 0
 547 0006 7047     		bx	lr
 548              	.L40:
 549              		.align	2
 550              	.L39:
 551 0008 00000000 		.word	.LANCHOR7
 552              		.cfi_endproc
 553              	.LFE130:
 555              		.global	balance_motor
 556              		.global	fsm
 557              		.global	ff_arr
 558              		.global	pid_arr
 559              		.global	int_arr
 560              		.global	motor_arr
 561              		.global	encoder_arr
 562              		.global	blnc_int_arr
 563              		.section	.bss.balance_motor,"aw",%nobits
 564              		.align	2
 565              		.set	.LANCHOR5,. + 0
 568              	balance_motor:
 569 0000 00000000 		.space	52
 569      00000000 
 569      00000000 
 569      00000000 
 569      00000000 
 570              		.section	.bss.blnc_int_arr,"aw",%nobits
 571              		.align	2
 572              		.set	.LANCHOR2,. + 0
 575              	blnc_int_arr:
 576 0000 00000000 		.space	48
 576      00000000 
 576      00000000 
 576      00000000 
 576      00000000 
 577              		.section	.bss.encoder_arr,"aw",%nobits
 578              		.align	2
 579              		.set	.LANCHOR4,. + 0
 582              	encoder_arr:
 583 0000 00000000 		.space	64
 583      00000000 
 583      00000000 
 583      00000000 
 583      00000000 
 584              		.section	.bss.ff_arr,"aw",%nobits
 585              		.align	2
 586              		.set	.LANCHOR0,. + 0
ARM GAS  C:\Users\Prashant\AppData\Local\Temp\ccm7pV8L.s 			page 14


 589              	ff_arr:
 590 0000 00000000 		.space	240
 590      00000000 
 590      00000000 
 590      00000000 
 590      00000000 
 591              		.section	.bss.fsm,"aw",%nobits
 592              		.align	2
 593              		.set	.LANCHOR7,. + 0
 596              	fsm:
 597 0000 00       		.space	1
 598              		.section	.bss.int_arr,"aw",%nobits
 599              		.align	2
 600              		.set	.LANCHOR1,. + 0
 603              	int_arr:
 604 0000 00000000 		.space	48
 604      00000000 
 604      00000000 
 604      00000000 
 604      00000000 
 605              		.section	.bss.motor_arr,"aw",%nobits
 606              		.align	2
 607              		.set	.LANCHOR6,. + 0
 610              	motor_arr:
 611 0000 00000000 		.space	208
 611      00000000 
 611      00000000 
 611      00000000 
 611      00000000 
 612              		.section	.bss.pid_arr,"aw",%nobits
 613              		.align	3
 614              		.set	.LANCHOR3,. + 0
 617              	pid_arr:
 618 0000 00000000 		.space	224
 618      00000000 
 618      00000000 
 618      00000000 
 618      00000000 
 619              		.text
 620              	.Letext0:
 621              		.file 2 "c:\\program files (x86)\\gnu tools arm embedded\\7 2017-q4-major\\arm-none-eabi\\include\
 622              		.file 3 "c:\\program files (x86)\\gnu tools arm embedded\\7 2017-q4-major\\arm-none-eabi\\include\
 623              		.file 4 "C:/Users/Prashant/STM32Cube/Repository/STM32Cube_FW_F4_V1.23.0/Drivers/CMSIS/Include/core
 624              		.file 5 "C:/Users/Prashant/STM32Cube/Repository/STM32Cube_FW_F4_V1.23.0/Drivers/CMSIS/Device/ST/ST
 625              		.file 6 "C:/Users/Prashant/STM32Cube/Repository/STM32Cube_FW_F4_V1.23.0/Drivers/CMSIS/Device/ST/ST
 626              		.file 7 "C:/Users/Prashant/STM32Cube/Repository/STM32Cube_FW_F4_V1.23.0/Drivers/CMSIS/Device/ST/ST
 627              		.file 8 "c:\\program files (x86)\\gnu tools arm embedded\\7 2017-q4-major\\arm-none-eabi\\include\
 628              		.file 9 "c:\\program files (x86)\\gnu tools arm embedded\\7 2017-q4-major\\arm-none-eabi\\include\
 629              		.file 10 "c:\\program files (x86)\\gnu tools arm embedded\\7 2017-q4-major\\lib\\gcc\\arm-none-eab
 630              		.file 11 "c:\\program files (x86)\\gnu tools arm embedded\\7 2017-q4-major\\arm-none-eabi\\include
 631              		.file 12 "C:/Users/Prashant/STM32Cube/Repository/STM32Cube_FW_F4_V1.23.0/Drivers/STM32F4xx_HAL_Dri
 632              		.file 13 "C:/Users/Prashant/STM32Cube/Repository/STM32Cube_FW_F4_V1.23.0/Drivers/STM32F4xx_HAL_Dri
 633              		.file 14 "C:/Users/Prashant/STM32Cube/Repository/STM32Cube_FW_F4_V1.23.0/Drivers/STM32F4xx_HAL_Dri
 634              		.file 15 "C:/Users/Prashant/STM32Cube/Repository/STM32Cube_FW_F4_V1.23.0/Drivers/STM32F4xx_HAL_Dri
 635              		.file 16 "Core/Inc/periphs/tim.h"
 636              		.file 17 "Core/Inc/robot/feed_forward.h"
 637              		.file 18 "Core/Inc/robot/interrupt.h"
ARM GAS  C:\Users\Prashant\AppData\Local\Temp\ccm7pV8L.s 			page 15


 638              		.file 19 "Core/Inc/devs/encoder.h"
 639              		.file 20 "Core/Inc/devs/motor.h"
 640              		.file 21 "Core/Inc/utils/pid.h"
 641              		.file 22 "Core/Inc/robot/fsm.h"
 642              		.file 23 "Core/Inc/robot/robo_init.h"
ARM GAS  C:\Users\Prashant\AppData\Local\Temp\ccm7pV8L.s 			page 16

