ARM GAS  C:\Users\Prashant\AppData\Local\Temp\ccFANnEI.s 			page 1


   1              		.cpu cortex-m4
   2              		.eabi_attribute 27, 1
   3              		.eabi_attribute 28, 1
   4              		.eabi_attribute 20, 1
   5              		.eabi_attribute 21, 1
   6              		.eabi_attribute 23, 3
   7              		.eabi_attribute 24, 1
   8              		.eabi_attribute 25, 1
   9              		.eabi_attribute 26, 1
  10              		.eabi_attribute 30, 1
  11              		.eabi_attribute 34, 1
  12              		.eabi_attribute 18, 4
  13              		.file	"robo_states.cpp"
  14              		.text
  15              	.Ltext0:
  16              		.cfi_sections	.debug_frame
  17              		.section	.text._ZN5StateD2Ev,"axG",%progbits,_ZN5StateD5Ev,comdat
  18              		.align	1
  19              		.weak	_ZN5StateD2Ev
  20              		.syntax unified
  21              		.thumb
  22              		.thumb_func
  23              		.fpu fpv4-sp-d16
  25              	_ZN5StateD2Ev:
  26              	.LFB7:
  27              		.file 1 "Core/Inc/robot/robo_states.h"
   1:Core/Inc/robot/robo_states.h **** /*
   2:Core/Inc/robot/robo_states.h ****  * robo_states.h
   3:Core/Inc/robot/robo_states.h ****  * 
   4:Core/Inc/robot/robo_states.h ****  * Created : 02/18/2019
   5:Core/Inc/robot/robo_states.h ****  *  Author : n-is
   6:Core/Inc/robot/robo_states.h ****  *   email : 073bex422.nischal@pcampus.edu.np
   7:Core/Inc/robot/robo_states.h ****  */
   8:Core/Inc/robot/robo_states.h **** 
   9:Core/Inc/robot/robo_states.h **** #ifndef _ROBO_STATES_H_
  10:Core/Inc/robot/robo_states.h **** #define _ROBO_STATES_H_
  11:Core/Inc/robot/robo_states.h **** 
  12:Core/Inc/robot/robo_states.h **** #include "node.h"
  13:Core/Inc/robot/robo_states.h **** 
  14:Core/Inc/robot/robo_states.h **** enum class State_ID
  15:Core/Inc/robot/robo_states.h **** {
  16:Core/Inc/robot/robo_states.h ****         HOME,
  17:Core/Inc/robot/robo_states.h ****         WS1,
  18:Core/Inc/robot/robo_states.h ****         WS2,
  19:Core/Inc/robot/robo_states.h ****         WS3,
  20:Core/Inc/robot/robo_states.h ****         WS4
  21:Core/Inc/robot/robo_states.h **** };
  22:Core/Inc/robot/robo_states.h **** 
  23:Core/Inc/robot/robo_states.h **** 
  24:Core/Inc/robot/robo_states.h **** class State
  25:Core/Inc/robot/robo_states.h **** {
  26:Core/Inc/robot/robo_states.h **** public:
  27:Core/Inc/robot/robo_states.h ****         State(State &&) = default;
  28:Core/Inc/robot/robo_states.h ****         State(const State &) = default;
  29:Core/Inc/robot/robo_states.h ****         State &operator=(State &&) = default;
  30:Core/Inc/robot/robo_states.h ****         State &operator=(const State &) = default;
  31:Core/Inc/robot/robo_states.h ****         ~State() { }
ARM GAS  C:\Users\Prashant\AppData\Local\Temp\ccFANnEI.s 			page 2


  28              		.loc 1 31 0
  29              		.cfi_startproc
  30              		@ args = 0, pretend = 0, frame = 0
  31              		@ frame_needed = 0, uses_anonymous_args = 0
  32              		@ link register save eliminated.
  33              	.LVL0:
  34              		.loc 1 31 0
  35 0000 7047     		bx	lr
  36              		.cfi_endproc
  37              	.LFE7:
  39              		.weak	_ZN5StateD1Ev
  40              		.thumb_set _ZN5StateD1Ev,_ZN5StateD2Ev
  41              		.section	.text._ZN4NodeI8State_IDED2Ev,"axG",%progbits,_ZN4NodeI8State_IDED5Ev,comdat
  42              		.align	1
  43              		.weak	_ZN4NodeI8State_IDED2Ev
  44              		.syntax unified
  45              		.thumb
  46              		.thumb_func
  47              		.fpu fpv4-sp-d16
  49              	_ZN4NodeI8State_IDED2Ev:
  50              	.LFB25:
  51              		.file 2 "Core/Inc/utils/container/node.h"
   1:Core/Inc/utils/container/node.h **** /*
   2:Core/Inc/utils/container/node.h ****  * node.h
   3:Core/Inc/utils/container/node.h ****  * 
   4:Core/Inc/utils/container/node.h ****  * Created : 02/18/2019
   5:Core/Inc/utils/container/node.h ****  *  Author : n-is
   6:Core/Inc/utils/container/node.h ****  *   email : 073bex422.nischal@pcampus.edu.np
   7:Core/Inc/utils/container/node.h ****  */
   8:Core/Inc/utils/container/node.h **** 
   9:Core/Inc/utils/container/node.h **** #ifndef _NODE_H_
  10:Core/Inc/utils/container/node.h **** #define _NODE_H_
  11:Core/Inc/utils/container/node.h **** 
  12:Core/Inc/utils/container/node.h **** template <typename T>
  13:Core/Inc/utils/container/node.h **** class Node
  14:Core/Inc/utils/container/node.h **** {
  15:Core/Inc/utils/container/node.h **** public:
  16:Core/Inc/utils/container/node.h ****         Node(T elem, Node *next = nullptr) {
  17:Core/Inc/utils/container/node.h ****                 set_Next(next);
  18:Core/Inc/utils/container/node.h ****                 set_Element(elem);
  19:Core/Inc/utils/container/node.h ****         }
  20:Core/Inc/utils/container/node.h **** 
  21:Core/Inc/utils/container/node.h ****         Node(Node &&) = default;
  22:Core/Inc/utils/container/node.h ****         Node(const Node &) = default;
  23:Core/Inc/utils/container/node.h ****         Node &operator=(Node &&) = default;
  24:Core/Inc/utils/container/node.h ****         Node &operator=(const Node &) = default;
  25:Core/Inc/utils/container/node.h ****         ~Node() { }
  52              		.loc 2 25 0
  53              		.cfi_startproc
  54              		@ args = 0, pretend = 0, frame = 0
  55              		@ frame_needed = 0, uses_anonymous_args = 0
  56              		@ link register save eliminated.
  57              	.LVL1:
  58              		.loc 2 25 0
  59 0000 7047     		bx	lr
  60              		.cfi_endproc
  61              	.LFE25:
ARM GAS  C:\Users\Prashant\AppData\Local\Temp\ccFANnEI.s 			page 3


  63              		.weak	_ZN4NodeI8State_IDED1Ev
  64              		.thumb_set _ZN4NodeI8State_IDED1Ev,_ZN4NodeI8State_IDED2Ev
  65              		.section	.text._Z41__static_initialization_and_destruction_0ii,"ax",%progbits
  66              		.align	1
  67              		.syntax unified
  68              		.thumb
  69              		.thumb_func
  70              		.fpu fpv4-sp-d16
  72              	_Z41__static_initialization_and_destruction_0ii:
  73              	.LFB23:
  74              		.file 3 "Core/Src/robot/robo_states.cpp"
   1:Core/Src/robot/robo_states.cpp **** /*
   2:Core/Src/robot/robo_states.cpp ****  * robo_states.cpp
   3:Core/Src/robot/robo_states.cpp ****  * 
   4:Core/Src/robot/robo_states.cpp ****  * Created : 02/18/2019
   5:Core/Src/robot/robo_states.cpp ****  *  Author : n-is
   6:Core/Src/robot/robo_states.cpp ****  *   email : 073bex422.nischal@pcampus.edu.np
   7:Core/Src/robot/robo_states.cpp ****  */
   8:Core/Src/robot/robo_states.cpp **** 
   9:Core/Src/robot/robo_states.cpp **** #include "robo_states.h"
  10:Core/Src/robot/robo_states.cpp **** 
  11:Core/Src/robot/robo_states.cpp **** extern Node<State_ID> gHomeState;
  12:Core/Src/robot/robo_states.cpp **** extern Node<State_ID> gWalkState1;
  13:Core/Src/robot/robo_states.cpp **** extern Node<State_ID> gWalkState2;
  14:Core/Src/robot/robo_states.cpp **** extern Node<State_ID> gWalkState3;
  15:Core/Src/robot/robo_states.cpp **** extern Node<State_ID> gWalkState4;
  16:Core/Src/robot/robo_states.cpp **** 
  17:Core/Src/robot/robo_states.cpp **** Node<State_ID> gHomeState(State_ID::HOME, &gWalkState1);
  18:Core/Src/robot/robo_states.cpp **** Node<State_ID> gWalkState1(State_ID::WS1, &gWalkState2);
  19:Core/Src/robot/robo_states.cpp **** Node<State_ID> gWalkState2(State_ID::WS2, &gWalkState3);
  20:Core/Src/robot/robo_states.cpp **** Node<State_ID> gWalkState3(State_ID::WS3, &gWalkState4);
  21:Core/Src/robot/robo_states.cpp **** Node<State_ID> gWalkState4(State_ID::WS4, &gWalkState1);
  22:Core/Src/robot/robo_states.cpp **** 
  23:Core/Src/robot/robo_states.cpp **** 
  24:Core/Src/robot/robo_states.cpp **** State& State::get_Instance()
  25:Core/Src/robot/robo_states.cpp **** {
  26:Core/Src/robot/robo_states.cpp ****         static State sRobo_State;
  27:Core/Src/robot/robo_states.cpp **** 
  28:Core/Src/robot/robo_states.cpp ****         sRobo_State.state_node_ = &gHomeState;
  29:Core/Src/robot/robo_states.cpp **** 
  30:Core/Src/robot/robo_states.cpp ****         return sRobo_State;
  31:Core/Src/robot/robo_states.cpp **** }
  32:Core/Src/robot/robo_states.cpp **** 
  33:Core/Src/robot/robo_states.cpp **** void State::update_State()
  34:Core/Src/robot/robo_states.cpp **** {
  35:Core/Src/robot/robo_states.cpp ****         state_node_ = state_node_->get_Next();
  36:Core/Src/robot/robo_states.cpp **** }
  37:Core/Src/robot/robo_states.cpp **** 
  38:Core/Src/robot/robo_states.cpp **** State_ID State::get_ID()
  39:Core/Src/robot/robo_states.cpp **** {
  40:Core/Src/robot/robo_states.cpp ****         return state_node_->get_Element();
  41:Core/Src/robot/robo_states.cpp **** }
  42:Core/Src/robot/robo_states.cpp **** 
  43:Core/Src/robot/robo_states.cpp **** State_ID State::get_NextID()
  44:Core/Src/robot/robo_states.cpp **** {
  45:Core/Src/robot/robo_states.cpp ****         return state_node_->get_Next()->get_Element();
  46:Core/Src/robot/robo_states.cpp **** }
ARM GAS  C:\Users\Prashant\AppData\Local\Temp\ccFANnEI.s 			page 4


  75              		.loc 3 46 0
  76              		.cfi_startproc
  77              		@ args = 0, pretend = 0, frame = 0
  78              		@ frame_needed = 0, uses_anonymous_args = 0
  79              	.LVL2:
  80 0000 0128     		cmp	r0, #1
  81 0002 00D0     		beq	.L9
  82              	.L6:
  83 0004 7047     		bx	lr
  84              	.L9:
  85              		.loc 3 46 0 is_stmt 0 discriminator 1
  86 0006 4FF6FF73 		movw	r3, #65535
  87 000a 9942     		cmp	r1, r3
  88 000c FAD1     		bne	.L6
  89              		.loc 3 46 0
  90 000e 2DE9F041 		push	{r4, r5, r6, r7, r8, lr}
  91              	.LCFI0:
  92              		.cfi_def_cfa_offset 24
  93              		.cfi_offset 4, -24
  94              		.cfi_offset 5, -20
  95              		.cfi_offset 6, -16
  96              		.cfi_offset 7, -12
  97              		.cfi_offset 8, -8
  98              		.cfi_offset 14, -4
  99              	.LVL3:
 100              	.LBB47:
 101              	.LBB48:
 102              	.LBB49:
 103              	.LBB50:
  26:Core/Inc/utils/container/node.h **** 
  27:Core/Inc/utils/container/node.h ****         void set_Next(Node *next) { next_ = next; }
 104              		.loc 2 27 0 is_stmt 1
 105 0012 1A48     		ldr	r0, .L10
 106              	.LVL4:
 107 0014 1A4E     		ldr	r6, .L10+4
 108 0016 0660     		str	r6, [r0]
 109              	.LVL5:
 110              	.LBE50:
 111              	.LBE49:
 112              	.LBB51:
 113              	.LBB52:
  28:Core/Inc/utils/container/node.h ****         Node* get_Next() { return next_; }
  29:Core/Inc/utils/container/node.h ****         T get_Element() { return elem_; }
  30:Core/Inc/utils/container/node.h ****         void set_Element(T elem) { elem_ = elem; }
 114              		.loc 2 30 0
 115 0018 0023     		movs	r3, #0
 116 001a 4360     		str	r3, [r0, #4]
 117              	.LVL6:
 118              	.LBE52:
 119              	.LBE51:
 120              	.LBE48:
 121              	.LBE47:
  17:Core/Src/robot/robo_states.cpp **** Node<State_ID> gWalkState1(State_ID::WS1, &gWalkState2);
 122              		.loc 3 17 0
 123 001c 194D     		ldr	r5, .L10+8
 124 001e 1A4C     		ldr	r4, .L10+12
 125 0020 2A46     		mov	r2, r5
ARM GAS  C:\Users\Prashant\AppData\Local\Temp\ccFANnEI.s 			page 5


 126 0022 2146     		mov	r1, r4
 127              	.LVL7:
 128 0024 FFF7FEFF 		bl	__aeabi_atexit
 129              	.LVL8:
 130              	.LBB53:
 131              	.LBB54:
 132              	.LBB55:
 133              	.LBB56:
  27:Core/Inc/utils/container/node.h ****         Node* get_Next() { return next_; }
 134              		.loc 2 27 0
 135 0028 184F     		ldr	r7, .L10+16
 136 002a 3760     		str	r7, [r6]
 137              	.LVL9:
 138              	.LBE56:
 139              	.LBE55:
 140              	.LBB57:
 141              	.LBB58:
 142              		.loc 2 30 0
 143 002c 0123     		movs	r3, #1
 144 002e 7360     		str	r3, [r6, #4]
 145              	.LVL10:
 146              	.LBE58:
 147              	.LBE57:
 148              	.LBE54:
 149              	.LBE53:
  18:Core/Src/robot/robo_states.cpp **** Node<State_ID> gWalkState2(State_ID::WS2, &gWalkState3);
 150              		.loc 3 18 0
 151 0030 2A46     		mov	r2, r5
 152 0032 2146     		mov	r1, r4
 153 0034 3046     		mov	r0, r6
 154 0036 FFF7FEFF 		bl	__aeabi_atexit
 155              	.LVL11:
 156              	.LBB59:
 157              	.LBB60:
 158              	.LBB61:
 159              	.LBB62:
  27:Core/Inc/utils/container/node.h ****         Node* get_Next() { return next_; }
 160              		.loc 2 27 0
 161 003a DFF85880 		ldr	r8, .L10+24
 162 003e C7F80080 		str	r8, [r7]
 163              	.LVL12:
 164              	.LBE62:
 165              	.LBE61:
 166              	.LBB63:
 167              	.LBB64:
 168              		.loc 2 30 0
 169 0042 0223     		movs	r3, #2
 170 0044 7B60     		str	r3, [r7, #4]
 171              	.LVL13:
 172              	.LBE64:
 173              	.LBE63:
 174              	.LBE60:
 175              	.LBE59:
  19:Core/Src/robot/robo_states.cpp **** Node<State_ID> gWalkState3(State_ID::WS3, &gWalkState4);
 176              		.loc 3 19 0
 177 0046 2A46     		mov	r2, r5
 178 0048 2146     		mov	r1, r4
ARM GAS  C:\Users\Prashant\AppData\Local\Temp\ccFANnEI.s 			page 6


 179 004a 3846     		mov	r0, r7
 180 004c FFF7FEFF 		bl	__aeabi_atexit
 181              	.LVL14:
 182              	.LBB65:
 183              	.LBB66:
 184              	.LBB67:
 185              	.LBB68:
  27:Core/Inc/utils/container/node.h ****         Node* get_Next() { return next_; }
 186              		.loc 2 27 0
 187 0050 0F4F     		ldr	r7, .L10+20
 188 0052 C8F80070 		str	r7, [r8]
 189              	.LVL15:
 190              	.LBE68:
 191              	.LBE67:
 192              	.LBB69:
 193              	.LBB70:
 194              		.loc 2 30 0
 195 0056 0323     		movs	r3, #3
 196 0058 C8F80430 		str	r3, [r8, #4]
 197              	.LVL16:
 198              	.LBE70:
 199              	.LBE69:
 200              	.LBE66:
 201              	.LBE65:
  20:Core/Src/robot/robo_states.cpp **** Node<State_ID> gWalkState4(State_ID::WS4, &gWalkState1);
 202              		.loc 3 20 0
 203 005c 2A46     		mov	r2, r5
 204 005e 2146     		mov	r1, r4
 205 0060 4046     		mov	r0, r8
 206 0062 FFF7FEFF 		bl	__aeabi_atexit
 207              	.LVL17:
 208              	.LBB71:
 209              	.LBB72:
 210              	.LBB73:
 211              	.LBB74:
  27:Core/Inc/utils/container/node.h ****         Node* get_Next() { return next_; }
 212              		.loc 2 27 0
 213 0066 3E60     		str	r6, [r7]
 214              	.LVL18:
 215              	.LBE74:
 216              	.LBE73:
 217              	.LBB75:
 218              	.LBB76:
 219              		.loc 2 30 0
 220 0068 0423     		movs	r3, #4
 221 006a 7B60     		str	r3, [r7, #4]
 222              	.LVL19:
 223              	.LBE76:
 224              	.LBE75:
 225              	.LBE72:
 226              	.LBE71:
  21:Core/Src/robot/robo_states.cpp **** 
 227              		.loc 3 21 0
 228 006c 2A46     		mov	r2, r5
 229 006e 2146     		mov	r1, r4
 230 0070 3846     		mov	r0, r7
 231 0072 FFF7FEFF 		bl	__aeabi_atexit
ARM GAS  C:\Users\Prashant\AppData\Local\Temp\ccFANnEI.s 			page 7


 232              	.LVL20:
 233              		.loc 3 46 0
 234 0076 BDE8F081 		pop	{r4, r5, r6, r7, r8, pc}
 235              	.L11:
 236 007a 00BF     		.align	2
 237              	.L10:
 238 007c 00000000 		.word	.LANCHOR0
 239 0080 00000000 		.word	.LANCHOR1
 240 0084 00000000 		.word	__dso_handle
 241 0088 00000000 		.word	_ZN4NodeI8State_IDED1Ev
 242 008c 00000000 		.word	.LANCHOR2
 243 0090 00000000 		.word	.LANCHOR4
 244 0094 00000000 		.word	.LANCHOR3
 245              		.cfi_endproc
 246              	.LFE23:
 248              		.section	.text._ZN5State12get_InstanceEv,"ax",%progbits
 249              		.align	1
 250              		.global	_ZN5State12get_InstanceEv
 251              		.syntax unified
 252              		.thumb
 253              		.thumb_func
 254              		.fpu fpv4-sp-d16
 256              	_ZN5State12get_InstanceEv:
 257              	.LFB12:
  25:Core/Src/robot/robo_states.cpp ****         static State sRobo_State;
 258              		.loc 3 25 0
 259              		.cfi_startproc
 260              		@ args = 0, pretend = 0, frame = 0
 261              		@ frame_needed = 0, uses_anonymous_args = 0
 262 0000 08B5     		push	{r3, lr}
 263              	.LCFI1:
 264              		.cfi_def_cfa_offset 8
 265              		.cfi_offset 3, -8
 266              		.cfi_offset 14, -4
  26:Core/Src/robot/robo_states.cpp **** 
 267              		.loc 3 26 0
 268 0002 0C4B     		ldr	r3, .L16
 269 0004 1B78     		ldrb	r3, [r3]	@ zero_extendqisi2
 270 0006 BFF35B8F 		dmb	ish
 271 000a 13F0010F 		tst	r3, #1
 272 000e 03D0     		beq	.L15
 273              	.L13:
  28:Core/Src/robot/robo_states.cpp **** 
 274              		.loc 3 28 0
 275 0010 0948     		ldr	r0, .L16+4
 276 0012 0A4B     		ldr	r3, .L16+8
 277 0014 0360     		str	r3, [r0]
  31:Core/Src/robot/robo_states.cpp **** 
 278              		.loc 3 31 0
 279 0016 08BD     		pop	{r3, pc}
 280              	.L15:
  26:Core/Src/robot/robo_states.cpp **** 
 281              		.loc 3 26 0 discriminator 1
 282 0018 0648     		ldr	r0, .L16
 283 001a FFF7FEFF 		bl	__cxa_guard_acquire
 284              	.LVL21:
 285 001e 0028     		cmp	r0, #0
ARM GAS  C:\Users\Prashant\AppData\Local\Temp\ccFANnEI.s 			page 8


 286 0020 F6D0     		beq	.L13
  26:Core/Src/robot/robo_states.cpp **** 
 287              		.loc 3 26 0 is_stmt 0 discriminator 2
 288 0022 0448     		ldr	r0, .L16
 289 0024 FFF7FEFF 		bl	__cxa_guard_release
 290              	.LVL22:
 291 0028 054A     		ldr	r2, .L16+12
 292 002a 0649     		ldr	r1, .L16+16
 293 002c 0248     		ldr	r0, .L16+4
 294 002e FFF7FEFF 		bl	__aeabi_atexit
 295              	.LVL23:
 296 0032 EDE7     		b	.L13
 297              	.L17:
 298              		.align	2
 299              	.L16:
 300 0034 00000000 		.word	.LANCHOR5
 301 0038 00000000 		.word	.LANCHOR6
 302 003c 00000000 		.word	.LANCHOR0
 303 0040 00000000 		.word	__dso_handle
 304 0044 00000000 		.word	_ZN5StateD1Ev
 305              		.cfi_endproc
 306              	.LFE12:
 308              		.section	.text._ZN5State12update_StateEv,"ax",%progbits
 309              		.align	1
 310              		.global	_ZN5State12update_StateEv
 311              		.syntax unified
 312              		.thumb
 313              		.thumb_func
 314              		.fpu fpv4-sp-d16
 316              	_ZN5State12update_StateEv:
 317              	.LFB13:
  34:Core/Src/robot/robo_states.cpp ****         state_node_ = state_node_->get_Next();
 318              		.loc 3 34 0 is_stmt 1
 319              		.cfi_startproc
 320              		@ args = 0, pretend = 0, frame = 0
 321              		@ frame_needed = 0, uses_anonymous_args = 0
 322              		@ link register save eliminated.
 323              	.LVL24:
  35:Core/Src/robot/robo_states.cpp **** }
 324              		.loc 3 35 0
 325 0000 0368     		ldr	r3, [r0]
 326              	.LVL25:
 327              	.LBB77:
 328              	.LBB78:
  28:Core/Inc/utils/container/node.h ****         T get_Element() { return elem_; }
 329              		.loc 2 28 0
 330 0002 1B68     		ldr	r3, [r3]
 331              	.LVL26:
 332              	.LBE78:
 333              	.LBE77:
  35:Core/Src/robot/robo_states.cpp **** }
 334              		.loc 3 35 0
 335 0004 0360     		str	r3, [r0]
  36:Core/Src/robot/robo_states.cpp **** 
 336              		.loc 3 36 0
 337 0006 7047     		bx	lr
 338              		.cfi_endproc
ARM GAS  C:\Users\Prashant\AppData\Local\Temp\ccFANnEI.s 			page 9


 339              	.LFE13:
 341              		.section	.text._ZN5State6get_IDEv,"ax",%progbits
 342              		.align	1
 343              		.global	_ZN5State6get_IDEv
 344              		.syntax unified
 345              		.thumb
 346              		.thumb_func
 347              		.fpu fpv4-sp-d16
 349              	_ZN5State6get_IDEv:
 350              	.LFB14:
  39:Core/Src/robot/robo_states.cpp ****         return state_node_->get_Element();
 351              		.loc 3 39 0
 352              		.cfi_startproc
 353              		@ args = 0, pretend = 0, frame = 0
 354              		@ frame_needed = 0, uses_anonymous_args = 0
 355              		@ link register save eliminated.
 356              	.LVL27:
  40:Core/Src/robot/robo_states.cpp **** }
 357              		.loc 3 40 0
 358 0000 0368     		ldr	r3, [r0]
  41:Core/Src/robot/robo_states.cpp **** 
 359              		.loc 3 41 0
 360 0002 5868     		ldr	r0, [r3, #4]
 361              	.LVL28:
 362 0004 7047     		bx	lr
 363              		.cfi_endproc
 364              	.LFE14:
 366              		.section	.text._ZN5State10get_NextIDEv,"ax",%progbits
 367              		.align	1
 368              		.global	_ZN5State10get_NextIDEv
 369              		.syntax unified
 370              		.thumb
 371              		.thumb_func
 372              		.fpu fpv4-sp-d16
 374              	_ZN5State10get_NextIDEv:
 375              	.LFB15:
  44:Core/Src/robot/robo_states.cpp ****         return state_node_->get_Next()->get_Element();
 376              		.loc 3 44 0
 377              		.cfi_startproc
 378              		@ args = 0, pretend = 0, frame = 0
 379              		@ frame_needed = 0, uses_anonymous_args = 0
 380              		@ link register save eliminated.
 381              	.LVL29:
  45:Core/Src/robot/robo_states.cpp **** }
 382              		.loc 3 45 0
 383 0000 0368     		ldr	r3, [r0]
 384              	.LVL30:
 385              	.LBB79:
 386              	.LBB80:
  28:Core/Inc/utils/container/node.h ****         T get_Element() { return elem_; }
 387              		.loc 2 28 0
 388 0002 1B68     		ldr	r3, [r3]
 389              	.LVL31:
 390              	.LBE80:
 391              	.LBE79:
 392              		.loc 3 46 0
 393 0004 5868     		ldr	r0, [r3, #4]
ARM GAS  C:\Users\Prashant\AppData\Local\Temp\ccFANnEI.s 			page 10


 394              	.LVL32:
 395 0006 7047     		bx	lr
 396              		.cfi_endproc
 397              	.LFE15:
 399              		.section	.text._GLOBAL__sub_I_gHomeState,"ax",%progbits
 400              		.align	1
 401              		.syntax unified
 402              		.thumb
 403              		.thumb_func
 404              		.fpu fpv4-sp-d16
 406              	_GLOBAL__sub_I_gHomeState:
 407              	.LFB27:
 408              		.loc 3 46 0
 409              		.cfi_startproc
 410              		@ args = 0, pretend = 0, frame = 0
 411              		@ frame_needed = 0, uses_anonymous_args = 0
 412 0000 08B5     		push	{r3, lr}
 413              	.LCFI2:
 414              		.cfi_def_cfa_offset 8
 415              		.cfi_offset 3, -8
 416              		.cfi_offset 14, -4
 417              		.loc 3 46 0
 418 0002 4FF6FF71 		movw	r1, #65535
 419 0006 0120     		movs	r0, #1
 420 0008 FFF7FEFF 		bl	_Z41__static_initialization_and_destruction_0ii
 421              	.LVL33:
 422 000c 08BD     		pop	{r3, pc}
 423              		.cfi_endproc
 424              	.LFE27:
 426              		.section	.init_array,"aw",%init_array
 427              		.align	2
 428 0000 00000000 		.word	_GLOBAL__sub_I_gHomeState(target1)
 429              		.global	gWalkState4
 430              		.global	gWalkState3
 431              		.global	gWalkState2
 432              		.global	gWalkState1
 433              		.global	gHomeState
 434              		.section	.bss._ZGVZN5State12get_InstanceEvE11sRobo_State,"aw",%nobits
 435              		.align	2
 436              		.set	.LANCHOR5,. + 0
 439              	_ZGVZN5State12get_InstanceEvE11sRobo_State:
 440 0000 00000000 		.space	4
 441              		.section	.bss._ZZN5State12get_InstanceEvE11sRobo_State,"aw",%nobits
 442              		.align	2
 443              		.set	.LANCHOR6,. + 0
 446              	_ZZN5State12get_InstanceEvE11sRobo_State:
 447 0000 00000000 		.space	4
 448              		.section	.bss.gHomeState,"aw",%nobits
 449              		.align	2
 450              		.set	.LANCHOR0,. + 0
 453              	gHomeState:
 454 0000 00000000 		.space	8
 454      00000000 
 455              		.section	.bss.gWalkState1,"aw",%nobits
 456              		.align	2
 457              		.set	.LANCHOR1,. + 0
 460              	gWalkState1:
ARM GAS  C:\Users\Prashant\AppData\Local\Temp\ccFANnEI.s 			page 11


 461 0000 00000000 		.space	8
 461      00000000 
 462              		.section	.bss.gWalkState2,"aw",%nobits
 463              		.align	2
 464              		.set	.LANCHOR2,. + 0
 467              	gWalkState2:
 468 0000 00000000 		.space	8
 468      00000000 
 469              		.section	.bss.gWalkState3,"aw",%nobits
 470              		.align	2
 471              		.set	.LANCHOR3,. + 0
 474              	gWalkState3:
 475 0000 00000000 		.space	8
 475      00000000 
 476              		.section	.bss.gWalkState4,"aw",%nobits
 477              		.align	2
 478              		.set	.LANCHOR4,. + 0
 481              	gWalkState4:
 482 0000 00000000 		.space	8
 482      00000000 
 483              		.text
 484              	.Letext0:
ARM GAS  C:\Users\Prashant\AppData\Local\Temp\ccFANnEI.s 			page 12

