ARM GAS  C:\Users\073be\AppData\Local\Temp\ccas8rEU.s 			page 1


   1              		.cpu cortex-m4
   2              		.eabi_attribute 27, 1
   3              		.eabi_attribute 28, 1
   4              		.eabi_attribute 20, 1
   5              		.eabi_attribute 21, 1
   6              		.eabi_attribute 23, 3
   7              		.eabi_attribute 24, 1
   8              		.eabi_attribute 25, 1
   9              		.eabi_attribute 26, 1
  10              		.eabi_attribute 30, 1
  11              		.eabi_attribute 34, 1
  12              		.eabi_attribute 18, 4
  13              		.file	"robo_tasks.cpp"
  14              		.text
  15              	.Ltext0:
  16              		.cfi_sections	.debug_frame
  17              		.section	.text.StartDefaultTask,"ax",%progbits
  18              		.align	1
  19              		.global	StartDefaultTask
  20              		.syntax unified
  21              		.thumb
  22              		.thumb_func
  23              		.fpu fpv4-sp-d16
  25              	StartDefaultTask:
  26              	.LFB129:
  27              		.file 1 "Core/Src/robo_tasks.cpp"
   1:Core/Src/robo_tasks.cpp **** /*
   2:Core/Src/robo_tasks.cpp ****  *
   3:Core/Src/robo_tasks.cpp ****  */
   4:Core/Src/robo_tasks.cpp **** 
   5:Core/Src/robo_tasks.cpp **** #include "FreeRTOS.h"
   6:Core/Src/robo_tasks.cpp **** #include "task.h"
   7:Core/Src/robo_tasks.cpp **** #include "main.h"
   8:Core/Src/robo_tasks.cpp **** #include "cmsis_os.h"
   9:Core/Src/robo_tasks.cpp **** 
  10:Core/Src/robo_tasks.cpp **** extern "C" void StartDefaultTask(void const *argument);
  11:Core/Src/robo_tasks.cpp **** extern "C" void MotorThread(void const *argument);
  12:Core/Src/robo_tasks.cpp **** extern "C" void PneumaticThread(void const *argument);
  13:Core/Src/robo_tasks.cpp **** extern "C" void MovingMassThread(void const *argument);
  14:Core/Src/robo_tasks.cpp **** 
  15:Core/Src/robo_tasks.cpp **** /* USER CODE BEGIN Header_StartDefaultTask */
  16:Core/Src/robo_tasks.cpp **** /**
  17:Core/Src/robo_tasks.cpp ****   * @brief  Function implementing the defaultTask thread.
  18:Core/Src/robo_tasks.cpp ****   * @param  argument: Not used 
  19:Core/Src/robo_tasks.cpp ****   * @retval None
  20:Core/Src/robo_tasks.cpp ****   */
  21:Core/Src/robo_tasks.cpp **** /* USER CODE END Header_StartDefaultTask */
  22:Core/Src/robo_tasks.cpp **** void StartDefaultTask(void const *argument)
  23:Core/Src/robo_tasks.cpp **** {
  28              		.loc 1 23 0
  29              		.cfi_startproc
  30              		@ Volatile: function does not return.
  31              		@ args = 0, pretend = 0, frame = 0
  32              		@ frame_needed = 0, uses_anonymous_args = 0
  33              	.LVL0:
  34 0000 08B5     		push	{r3, lr}
  35              	.LCFI0:
ARM GAS  C:\Users\073be\AppData\Local\Temp\ccas8rEU.s 			page 2


  36              		.cfi_def_cfa_offset 8
  37              		.cfi_offset 3, -8
  38              		.cfi_offset 14, -4
  39              	.LVL1:
  40              	.L2:
  24:Core/Src/robo_tasks.cpp **** 
  25:Core/Src/robo_tasks.cpp ****         /* USER CODE BEGIN StartDefaultTask */
  26:Core/Src/robo_tasks.cpp ****         /* Infinite loop */
  27:Core/Src/robo_tasks.cpp ****         for (;;)
  28:Core/Src/robo_tasks.cpp ****         {
  29:Core/Src/robo_tasks.cpp ****                 printf("Hello from Default Thread!!\n");
  41              		.loc 1 29 0 discriminator 1
  42 0002 0348     		ldr	r0, .L4
  43 0004 FFF7FEFF 		bl	puts
  44              	.LVL2:
  30:Core/Src/robo_tasks.cpp ****                 osDelay(100);
  45              		.loc 1 30 0 discriminator 1
  46 0008 6420     		movs	r0, #100
  47 000a FFF7FEFF 		bl	osDelay
  48              	.LVL3:
  49 000e F8E7     		b	.L2
  50              	.L5:
  51              		.align	2
  52              	.L4:
  53 0010 00000000 		.word	.LC0
  54              		.cfi_endproc
  55              	.LFE129:
  57              		.section	.text.MotorThread,"ax",%progbits
  58              		.align	1
  59              		.global	MotorThread
  60              		.syntax unified
  61              		.thumb
  62              		.thumb_func
  63              		.fpu fpv4-sp-d16
  65              	MotorThread:
  66              	.LFB130:
  31:Core/Src/robo_tasks.cpp ****         }
  32:Core/Src/robo_tasks.cpp ****         /* USER CODE END StartDefaultTask */
  33:Core/Src/robo_tasks.cpp **** }
  34:Core/Src/robo_tasks.cpp **** 
  35:Core/Src/robo_tasks.cpp **** /* USER CODE BEGIN Header_MotorThread */
  36:Core/Src/robo_tasks.cpp **** /**
  37:Core/Src/robo_tasks.cpp **** * @brief Function implementing the Motor thread.
  38:Core/Src/robo_tasks.cpp **** * @param argument: Not used
  39:Core/Src/robo_tasks.cpp **** * @retval None
  40:Core/Src/robo_tasks.cpp **** */
  41:Core/Src/robo_tasks.cpp **** /* USER CODE END Header_MotorThread */
  42:Core/Src/robo_tasks.cpp **** void MotorThread(void const *argument)
  43:Core/Src/robo_tasks.cpp **** {
  67              		.loc 1 43 0
  68              		.cfi_startproc
  69              		@ Volatile: function does not return.
  70              		@ args = 0, pretend = 0, frame = 0
  71              		@ frame_needed = 0, uses_anonymous_args = 0
  72              	.LVL4:
  73 0000 08B5     		push	{r3, lr}
  74              	.LCFI1:
ARM GAS  C:\Users\073be\AppData\Local\Temp\ccas8rEU.s 			page 3


  75              		.cfi_def_cfa_offset 8
  76              		.cfi_offset 3, -8
  77              		.cfi_offset 14, -4
  78              	.LVL5:
  79              	.L7:
  44:Core/Src/robo_tasks.cpp ****         /* USER CODE BEGIN MotorThread */
  45:Core/Src/robo_tasks.cpp **** 
  46:Core/Src/robo_tasks.cpp ****         /* Infinite loop */
  47:Core/Src/robo_tasks.cpp ****         for (;;)
  48:Core/Src/robo_tasks.cpp ****         {
  49:Core/Src/robo_tasks.cpp ****                 printf("Hello from Motor Thread!!\n");
  80              		.loc 1 49 0 discriminator 1
  81 0002 0348     		ldr	r0, .L9
  82 0004 FFF7FEFF 		bl	puts
  83              	.LVL6:
  50:Core/Src/robo_tasks.cpp ****                 osDelay(10);
  84              		.loc 1 50 0 discriminator 1
  85 0008 0A20     		movs	r0, #10
  86 000a FFF7FEFF 		bl	osDelay
  87              	.LVL7:
  88 000e F8E7     		b	.L7
  89              	.L10:
  90              		.align	2
  91              	.L9:
  92 0010 00000000 		.word	.LC1
  93              		.cfi_endproc
  94              	.LFE130:
  96              		.section	.text.PneumaticThread,"ax",%progbits
  97              		.align	1
  98              		.global	PneumaticThread
  99              		.syntax unified
 100              		.thumb
 101              		.thumb_func
 102              		.fpu fpv4-sp-d16
 104              	PneumaticThread:
 105              	.LFB131:
  51:Core/Src/robo_tasks.cpp ****         }
  52:Core/Src/robo_tasks.cpp ****         /* USER CODE END MotorThread */
  53:Core/Src/robo_tasks.cpp **** }
  54:Core/Src/robo_tasks.cpp **** 
  55:Core/Src/robo_tasks.cpp **** /* USER CODE BEGIN Header_PneumaticThread */
  56:Core/Src/robo_tasks.cpp **** /**
  57:Core/Src/robo_tasks.cpp **** * @brief Function implementing the Pnematic thread.
  58:Core/Src/robo_tasks.cpp **** * @param argument: Not used
  59:Core/Src/robo_tasks.cpp **** * @retval None
  60:Core/Src/robo_tasks.cpp **** */
  61:Core/Src/robo_tasks.cpp **** /* USER CODE END Header_PneumaticThread */
  62:Core/Src/robo_tasks.cpp **** void PneumaticThread(void const *argument)
  63:Core/Src/robo_tasks.cpp **** {
 106              		.loc 1 63 0
 107              		.cfi_startproc
 108              		@ Volatile: function does not return.
 109              		@ args = 0, pretend = 0, frame = 0
 110              		@ frame_needed = 0, uses_anonymous_args = 0
 111              	.LVL8:
 112 0000 08B5     		push	{r3, lr}
 113              	.LCFI2:
ARM GAS  C:\Users\073be\AppData\Local\Temp\ccas8rEU.s 			page 4


 114              		.cfi_def_cfa_offset 8
 115              		.cfi_offset 3, -8
 116              		.cfi_offset 14, -4
 117              	.LVL9:
 118              	.L12:
  64:Core/Src/robo_tasks.cpp ****         /* USER CODE BEGIN PneumaticThread */
  65:Core/Src/robo_tasks.cpp **** 
  66:Core/Src/robo_tasks.cpp ****         /* Infinite loop */
  67:Core/Src/robo_tasks.cpp ****         for (;;)
  68:Core/Src/robo_tasks.cpp ****         {
  69:Core/Src/robo_tasks.cpp ****                 printf("Hello from Pnematic Thread!!\n");
 119              		.loc 1 69 0 discriminator 1
 120 0002 0348     		ldr	r0, .L14
 121 0004 FFF7FEFF 		bl	puts
 122              	.LVL10:
  70:Core/Src/robo_tasks.cpp ****                 osDelay(20);
 123              		.loc 1 70 0 discriminator 1
 124 0008 1420     		movs	r0, #20
 125 000a FFF7FEFF 		bl	osDelay
 126              	.LVL11:
 127 000e F8E7     		b	.L12
 128              	.L15:
 129              		.align	2
 130              	.L14:
 131 0010 00000000 		.word	.LC2
 132              		.cfi_endproc
 133              	.LFE131:
 135              		.section	.text.MovingMassThread,"ax",%progbits
 136              		.align	1
 137              		.global	MovingMassThread
 138              		.syntax unified
 139              		.thumb
 140              		.thumb_func
 141              		.fpu fpv4-sp-d16
 143              	MovingMassThread:
 144              	.LFB132:
  71:Core/Src/robo_tasks.cpp ****         }
  72:Core/Src/robo_tasks.cpp ****         /* USER CODE END PneumaticThread */
  73:Core/Src/robo_tasks.cpp **** }
  74:Core/Src/robo_tasks.cpp **** 
  75:Core/Src/robo_tasks.cpp **** /* USER CODE BEGIN Header_MovingMassThread */
  76:Core/Src/robo_tasks.cpp **** /**
  77:Core/Src/robo_tasks.cpp **** * @brief Function implementing the MovingMass thread.
  78:Core/Src/robo_tasks.cpp **** * @param argument: Not used
  79:Core/Src/robo_tasks.cpp **** * @retval None
  80:Core/Src/robo_tasks.cpp **** */
  81:Core/Src/robo_tasks.cpp **** /* USER CODE END Header_MovingMassThread */
  82:Core/Src/robo_tasks.cpp **** void MovingMassThread(void const *argument)
  83:Core/Src/robo_tasks.cpp **** {
 145              		.loc 1 83 0
 146              		.cfi_startproc
 147              		@ Volatile: function does not return.
 148              		@ args = 0, pretend = 0, frame = 0
 149              		@ frame_needed = 0, uses_anonymous_args = 0
 150              	.LVL12:
 151 0000 08B5     		push	{r3, lr}
 152              	.LCFI3:
ARM GAS  C:\Users\073be\AppData\Local\Temp\ccas8rEU.s 			page 5


 153              		.cfi_def_cfa_offset 8
 154              		.cfi_offset 3, -8
 155              		.cfi_offset 14, -4
 156              	.LVL13:
 157              	.L17:
  84:Core/Src/robo_tasks.cpp ****         /* USER CODE BEGIN MovingMassThread */
  85:Core/Src/robo_tasks.cpp **** 
  86:Core/Src/robo_tasks.cpp ****         /* Infinite loop */
  87:Core/Src/robo_tasks.cpp ****         for (;;)
  88:Core/Src/robo_tasks.cpp ****         {
  89:Core/Src/robo_tasks.cpp ****                 printf("Hello from MovingMass Thread!!\n");
 158              		.loc 1 89 0 discriminator 1
 159 0002 0348     		ldr	r0, .L19
 160 0004 FFF7FEFF 		bl	puts
 161              	.LVL14:
  90:Core/Src/robo_tasks.cpp ****                 osDelay(20);
 162              		.loc 1 90 0 discriminator 1
 163 0008 1420     		movs	r0, #20
 164 000a FFF7FEFF 		bl	osDelay
 165              	.LVL15:
 166 000e F8E7     		b	.L17
 167              	.L20:
 168              		.align	2
 169              	.L19:
 170 0010 00000000 		.word	.LC3
 171              		.cfi_endproc
 172              	.LFE132:
 174              		.section	.rodata.MotorThread.str1.4,"aMS",%progbits,1
 175              		.align	2
 176              	.LC1:
 177 0000 48656C6C 		.ascii	"Hello from Motor Thread!!\000"
 177      6F206672 
 177      6F6D204D 
 177      6F746F72 
 177      20546872 
 178              		.section	.rodata.MovingMassThread.str1.4,"aMS",%progbits,1
 179              		.align	2
 180              	.LC3:
 181 0000 48656C6C 		.ascii	"Hello from MovingMass Thread!!\000"
 181      6F206672 
 181      6F6D204D 
 181      6F76696E 
 181      674D6173 
 182              		.section	.rodata.PneumaticThread.str1.4,"aMS",%progbits,1
 183              		.align	2
 184              	.LC2:
 185 0000 48656C6C 		.ascii	"Hello from Pnematic Thread!!\000"
 185      6F206672 
 185      6F6D2050 
 185      6E656D61 
 185      74696320 
 186              		.section	.rodata.StartDefaultTask.str1.4,"aMS",%progbits,1
 187              		.align	2
 188              	.LC0:
 189 0000 48656C6C 		.ascii	"Hello from Default Thread!!\000"
 189      6F206672 
 189      6F6D2044 
ARM GAS  C:\Users\073be\AppData\Local\Temp\ccas8rEU.s 			page 6


 189      65666175 
 189      6C742054 
 190              		.text
 191              	.Letext0:
 192              		.file 2 "c:\\program files (x86)\\gnu tools arm embedded\\7 2017-q4-major\\arm-none-eabi\\include\
 193              		.file 3 "c:\\program files (x86)\\gnu tools arm embedded\\7 2017-q4-major\\arm-none-eabi\\include\
 194              		.file 4 "Core/Inc/sys/FreeRTOSConfig.h"
 195              		.file 5 "C:/Users/n-is/STM32Cube/Repository/STM32Cube_FW_F4_V1.23.0/Drivers/CMSIS/Include/core_cm4
 196              		.file 6 "C:/Users/n-is/STM32Cube/Repository/STM32Cube_FW_F4_V1.23.0/Drivers/CMSIS/Device/ST/STM32F
 197              		.file 7 "c:\\program files (x86)\\gnu tools arm embedded\\7 2017-q4-major\\arm-none-eabi\\include\
 198              		.file 8 "c:\\program files (x86)\\gnu tools arm embedded\\7 2017-q4-major\\arm-none-eabi\\include\
 199              		.file 9 "c:\\program files (x86)\\gnu tools arm embedded\\7 2017-q4-major\\lib\\gcc\\arm-none-eabi
 200              		.file 10 "c:\\program files (x86)\\gnu tools arm embedded\\7 2017-q4-major\\arm-none-eabi\\include
 201              		.file 11 "C:/Users/n-is/STM32Cube/Repository/STM32Cube_FW_F4_V1.23.0/Middlewares/Third_Party/FreeR
ARM GAS  C:\Users\073be\AppData\Local\Temp\ccas8rEU.s 			page 7


DEFINED SYMBOLS
                            *ABS*:00000000 robo_tasks.cpp
C:\Users\073be\AppData\Local\Temp\ccas8rEU.s:18     .text.StartDefaultTask:00000000 $t
C:\Users\073be\AppData\Local\Temp\ccas8rEU.s:25     .text.StartDefaultTask:00000000 StartDefaultTask
C:\Users\073be\AppData\Local\Temp\ccas8rEU.s:53     .text.StartDefaultTask:00000010 $d
C:\Users\073be\AppData\Local\Temp\ccas8rEU.s:58     .text.MotorThread:00000000 $t
C:\Users\073be\AppData\Local\Temp\ccas8rEU.s:65     .text.MotorThread:00000000 MotorThread
C:\Users\073be\AppData\Local\Temp\ccas8rEU.s:92     .text.MotorThread:00000010 $d
C:\Users\073be\AppData\Local\Temp\ccas8rEU.s:97     .text.PneumaticThread:00000000 $t
C:\Users\073be\AppData\Local\Temp\ccas8rEU.s:104    .text.PneumaticThread:00000000 PneumaticThread
C:\Users\073be\AppData\Local\Temp\ccas8rEU.s:131    .text.PneumaticThread:00000010 $d
C:\Users\073be\AppData\Local\Temp\ccas8rEU.s:136    .text.MovingMassThread:00000000 $t
C:\Users\073be\AppData\Local\Temp\ccas8rEU.s:143    .text.MovingMassThread:00000000 MovingMassThread
C:\Users\073be\AppData\Local\Temp\ccas8rEU.s:170    .text.MovingMassThread:00000010 $d
C:\Users\073be\AppData\Local\Temp\ccas8rEU.s:175    .rodata.MotorThread.str1.4:00000000 $d
C:\Users\073be\AppData\Local\Temp\ccas8rEU.s:179    .rodata.MovingMassThread.str1.4:00000000 $d
C:\Users\073be\AppData\Local\Temp\ccas8rEU.s:183    .rodata.PneumaticThread.str1.4:00000000 $d
C:\Users\073be\AppData\Local\Temp\ccas8rEU.s:187    .rodata.StartDefaultTask.str1.4:00000000 $d

UNDEFINED SYMBOLS
puts
osDelay
