ARM GAS  C:\Users\Prashant\AppData\Local\Temp\cc3LxChE.s 			page 1


   1              		.cpu cortex-m4
   2              		.eabi_attribute 27, 1
   3              		.eabi_attribute 28, 1
   4              		.eabi_attribute 20, 1
   5              		.eabi_attribute 21, 1
   6              		.eabi_attribute 23, 3
   7              		.eabi_attribute 24, 1
   8              		.eabi_attribute 25, 1
   9              		.eabi_attribute 26, 1
  10              		.eabi_attribute 30, 1
  11              		.eabi_attribute 34, 1
  12              		.eabi_attribute 18, 4
  13              		.file	"robo_tasks.cpp"
  14              		.text
  15              	.Ltext0:
  16              		.cfi_sections	.debug_frame
  17              		.section	.text.StartDefaultTask,"ax",%progbits
  18              		.align	1
  19              		.global	StartDefaultTask
  20              		.syntax unified
  21              		.thumb
  22              		.thumb_func
  23              		.fpu fpv4-sp-d16
  25              	StartDefaultTask:
  26              	.LFB137:
  27              		.file 1 "Core/Src/robo_tasks.cpp"
   1:Core/Src/robo_tasks.cpp **** /*
   2:Core/Src/robo_tasks.cpp ****  *
   3:Core/Src/robo_tasks.cpp ****  */
   4:Core/Src/robo_tasks.cpp **** 
   5:Core/Src/robo_tasks.cpp **** #include "FreeRTOS.h"
   6:Core/Src/robo_tasks.cpp **** #include "task.h"
   7:Core/Src/robo_tasks.cpp **** #include "main.h"
   8:Core/Src/robo_tasks.cpp **** #include "cmsis_os.h"
   9:Core/Src/robo_tasks.cpp **** #include "blnc_motor.h"
  10:Core/Src/robo_tasks.cpp **** 
  11:Core/Src/robo_tasks.cpp **** extern "C" void StartDefaultTask(void const *argument);
  12:Core/Src/robo_tasks.cpp **** extern "C" void MotorThread(void const *argument);
  13:Core/Src/robo_tasks.cpp **** extern "C" void PneumaticThread(void const *argument);
  14:Core/Src/robo_tasks.cpp **** extern "C" void MovingMassThread(void const *argument);
  15:Core/Src/robo_tasks.cpp **** extern struct Blnc balance;
  16:Core/Src/robo_tasks.cpp **** /* USER CODE BEGIN Header_StartDefaultTask */
  17:Core/Src/robo_tasks.cpp **** /**
  18:Core/Src/robo_tasks.cpp ****  * 
  19:Core/Src/robo_tasks.cpp ****   * @brief  Function implementing the defaultTask thread.
  20:Core/Src/robo_tasks.cpp ****   * @param  argument: Not used 
  21:Core/Src/robo_tasks.cpp ****   * @retval None
  22:Core/Src/robo_tasks.cpp ****   */
  23:Core/Src/robo_tasks.cpp **** /* USER CODE END Header_StartDefaultTask */
  24:Core/Src/robo_tasks.cpp **** void StartDefaultTask(void const *argument)
  25:Core/Src/robo_tasks.cpp **** {
  28              		.loc 1 25 0
  29              		.cfi_startproc
  30              		@ Volatile: function does not return.
  31              		@ args = 0, pretend = 0, frame = 0
  32              		@ frame_needed = 0, uses_anonymous_args = 0
  33              	.LVL0:
ARM GAS  C:\Users\Prashant\AppData\Local\Temp\cc3LxChE.s 			page 2


  34 0000 08B5     		push	{r3, lr}
  35              	.LCFI0:
  36              		.cfi_def_cfa_offset 8
  37              		.cfi_offset 3, -8
  38              		.cfi_offset 14, -4
  39              	.LVL1:
  40              	.L2:
  26:Core/Src/robo_tasks.cpp **** 
  27:Core/Src/robo_tasks.cpp ****         /* USER CODE BEGIN StartDefaultTask */
  28:Core/Src/robo_tasks.cpp ****         /* Infinite loop */
  29:Core/Src/robo_tasks.cpp ****         for (;;)
  30:Core/Src/robo_tasks.cpp ****         {
  31:Core/Src/robo_tasks.cpp ****         //        printf("Hello from Default Thread!!\n");
  32:Core/Src/robo_tasks.cpp ****                 osDelay(200);
  41              		.loc 1 32 0 discriminator 1
  42 0002 C820     		movs	r0, #200
  43 0004 FFF7FEFF 		bl	osDelay
  44              	.LVL2:
  45 0008 FBE7     		b	.L2
  46              		.cfi_endproc
  47              	.LFE137:
  49              		.section	.text.MotorThread,"ax",%progbits
  50              		.align	1
  51              		.global	MotorThread
  52              		.syntax unified
  53              		.thumb
  54              		.thumb_func
  55              		.fpu fpv4-sp-d16
  57              	MotorThread:
  58              	.LFB138:
  33:Core/Src/robo_tasks.cpp ****         }
  34:Core/Src/robo_tasks.cpp ****         /* USER CODE END StartDefaultTask */
  35:Core/Src/robo_tasks.cpp **** }
  36:Core/Src/robo_tasks.cpp **** 
  37:Core/Src/robo_tasks.cpp **** /* USER CODE BEGIN Header_MotorThread */
  38:Core/Src/robo_tasks.cpp **** /**
  39:Core/Src/robo_tasks.cpp **** * @brief Function implementing the Motor thread.
  40:Core/Src/robo_tasks.cpp **** * @param argument: Not used
  41:Core/Src/robo_tasks.cpp **** * @retval None
  42:Core/Src/robo_tasks.cpp **** */
  43:Core/Src/robo_tasks.cpp **** /* USER CODE END Header_MotorThread */
  44:Core/Src/robo_tasks.cpp **** void MotorThread(void const *argument)
  45:Core/Src/robo_tasks.cpp **** {
  59              		.loc 1 45 0
  60              		.cfi_startproc
  61              		@ Volatile: function does not return.
  62              		@ args = 0, pretend = 0, frame = 0
  63              		@ frame_needed = 0, uses_anonymous_args = 0
  64              	.LVL3:
  65 0000 08B5     		push	{r3, lr}
  66              	.LCFI1:
  67              		.cfi_def_cfa_offset 8
  68              		.cfi_offset 3, -8
  69              		.cfi_offset 14, -4
  70              	.LVL4:
  71              	.L5:
  46:Core/Src/robo_tasks.cpp ****         /* USER CODE BEGIN MotorThread */
ARM GAS  C:\Users\Prashant\AppData\Local\Temp\cc3LxChE.s 			page 3


  47:Core/Src/robo_tasks.cpp **** 
  48:Core/Src/robo_tasks.cpp ****         /* Infinite loop */
  49:Core/Src/robo_tasks.cpp ****         for (;;)
  50:Core/Src/robo_tasks.cpp ****         {
  51:Core/Src/robo_tasks.cpp ****                 //printf("Hello from Motor Thread!!\n");
  52:Core/Src/robo_tasks.cpp ****                 osDelay(200);
  72              		.loc 1 52 0 discriminator 1
  73 0002 C820     		movs	r0, #200
  74 0004 FFF7FEFF 		bl	osDelay
  75              	.LVL5:
  76 0008 FBE7     		b	.L5
  77              		.cfi_endproc
  78              	.LFE138:
  80              		.section	.text.PneumaticThread,"ax",%progbits
  81              		.align	1
  82              		.global	PneumaticThread
  83              		.syntax unified
  84              		.thumb
  85              		.thumb_func
  86              		.fpu fpv4-sp-d16
  88              	PneumaticThread:
  89              	.LFB139:
  53:Core/Src/robo_tasks.cpp ****         }
  54:Core/Src/robo_tasks.cpp ****         /* USER CODE END MotorThread */
  55:Core/Src/robo_tasks.cpp **** }
  56:Core/Src/robo_tasks.cpp **** 
  57:Core/Src/robo_tasks.cpp **** /* USER CODE BEGIN Header_PneumaticThread */
  58:Core/Src/robo_tasks.cpp **** /**
  59:Core/Src/robo_tasks.cpp **** * @brief Function implementing the Pnematic thread.
  60:Core/Src/robo_tasks.cpp **** * @param argument: Not used
  61:Core/Src/robo_tasks.cpp **** * @retval None
  62:Core/Src/robo_tasks.cpp **** */
  63:Core/Src/robo_tasks.cpp **** /* USER CODE END Header_PneumaticThread */
  64:Core/Src/robo_tasks.cpp **** void PneumaticThread(void const *argument)
  65:Core/Src/robo_tasks.cpp **** {
  90              		.loc 1 65 0
  91              		.cfi_startproc
  92              		@ Volatile: function does not return.
  93              		@ args = 0, pretend = 0, frame = 0
  94              		@ frame_needed = 0, uses_anonymous_args = 0
  95              	.LVL6:
  96 0000 08B5     		push	{r3, lr}
  97              	.LCFI2:
  98              		.cfi_def_cfa_offset 8
  99              		.cfi_offset 3, -8
 100              		.cfi_offset 14, -4
 101              	.LVL7:
 102              	.L8:
  66:Core/Src/robo_tasks.cpp ****         /* USER CODE BEGIN PneumaticThread */
  67:Core/Src/robo_tasks.cpp **** 
  68:Core/Src/robo_tasks.cpp ****         /* Infinite loop */
  69:Core/Src/robo_tasks.cpp ****         for (;;)
  70:Core/Src/robo_tasks.cpp ****         {
  71:Core/Src/robo_tasks.cpp ****                 //printf("Hello from Pnematic Thread!!\n");
  72:Core/Src/robo_tasks.cpp ****                 osDelay(200);
 103              		.loc 1 72 0 discriminator 1
 104 0002 C820     		movs	r0, #200
ARM GAS  C:\Users\Prashant\AppData\Local\Temp\cc3LxChE.s 			page 4


 105 0004 FFF7FEFF 		bl	osDelay
 106              	.LVL8:
 107 0008 FBE7     		b	.L8
 108              		.cfi_endproc
 109              	.LFE139:
 111              		.section	.text.MovingMassThread,"ax",%progbits
 112              		.align	1
 113              		.global	MovingMassThread
 114              		.syntax unified
 115              		.thumb
 116              		.thumb_func
 117              		.fpu fpv4-sp-d16
 119              	MovingMassThread:
 120              	.LFB140:
  73:Core/Src/robo_tasks.cpp ****         }
  74:Core/Src/robo_tasks.cpp ****         /* USER CODE END PneumaticThread */
  75:Core/Src/robo_tasks.cpp **** }
  76:Core/Src/robo_tasks.cpp **** 
  77:Core/Src/robo_tasks.cpp **** /* USER CODE BEGIN Header_MovingMassThread */
  78:Core/Src/robo_tasks.cpp **** /**
  79:Core/Src/robo_tasks.cpp **** * @brief Function implementing the MovingMass thread.
  80:Core/Src/robo_tasks.cpp **** * @param argument: Not used
  81:Core/Src/robo_tasks.cpp **** * @retval None
  82:Core/Src/robo_tasks.cpp **** */
  83:Core/Src/robo_tasks.cpp **** /* USER CODE END Header_MovingMassThread */
  84:Core/Src/robo_tasks.cpp **** void MovingMassThread(void const *argument)
  85:Core/Src/robo_tasks.cpp **** {
 121              		.loc 1 85 0
 122              		.cfi_startproc
 123              		@ Volatile: function does not return.
 124              		@ args = 0, pretend = 0, frame = 0
 125              		@ frame_needed = 0, uses_anonymous_args = 0
 126              	.LVL9:
 127 0000 08B5     		push	{r3, lr}
 128              	.LCFI3:
 129              		.cfi_def_cfa_offset 8
 130              		.cfi_offset 3, -8
 131              		.cfi_offset 14, -4
  86:Core/Src/robo_tasks.cpp ****         /* USER CODE BEGIN MovingMassThread */
  87:Core/Src/robo_tasks.cpp **** 	balance_init();
 132              		.loc 1 87 0
 133 0002 FFF7FEFF 		bl	_Z12balance_initv
 134              	.LVL10:
 135              	.L11:
  88:Core/Src/robo_tasks.cpp ****         /* Infinite loop */
  89:Core/Src/robo_tasks.cpp ****         for (;;)
  90:Core/Src/robo_tasks.cpp ****         {
  91:Core/Src/robo_tasks.cpp ****                 printf("Hello from MovingMass Thread!!\t");
 136              		.loc 1 91 0 discriminator 1
 137 0006 0448     		ldr	r0, .L13
 138 0008 FFF7FEFF 		bl	printf
 139              	.LVL11:
  92:Core/Src/robo_tasks.cpp **** 		check_N_run();
 140              		.loc 1 92 0 discriminator 1
 141 000c FFF7FEFF 		bl	_Z11check_N_runv
 142              	.LVL12:
  93:Core/Src/robo_tasks.cpp ****                 // setDutyCycle(&balance.motor, 40000);	
ARM GAS  C:\Users\Prashant\AppData\Local\Temp\cc3LxChE.s 			page 5


  94:Core/Src/robo_tasks.cpp **** 		// setDirection(&balance.motor, DIR_CLOCKWISE);
  95:Core/Src/robo_tasks.cpp **** 		osDelay(200);
 143              		.loc 1 95 0 discriminator 1
 144 0010 C820     		movs	r0, #200
 145 0012 FFF7FEFF 		bl	osDelay
 146              	.LVL13:
 147 0016 F6E7     		b	.L11
 148              	.L14:
 149              		.align	2
 150              	.L13:
 151 0018 00000000 		.word	.LC0
 152              		.cfi_endproc
 153              	.LFE140:
 155              		.section	.rodata.MovingMassThread.str1.4,"aMS",%progbits,1
 156              		.align	2
 157              	.LC0:
 158 0000 48656C6C 		.ascii	"Hello from MovingMass Thread!!\011\000"
 158      6F206672 
 158      6F6D204D 
 158      6F76696E 
 158      674D6173 
 159              		.text
 160              	.Letext0:
 161              		.file 2 "c:\\program files (x86)\\gnu tools arm embedded\\7 2017-q4-major\\arm-none-eabi\\include\
 162              		.file 3 "c:\\program files (x86)\\gnu tools arm embedded\\7 2017-q4-major\\arm-none-eabi\\include\
 163              		.file 4 "Core/Inc/sys/FreeRTOSConfig.h"
 164              		.file 5 "C:/Users/Prashant/STM32Cube/Repository/STM32Cube_FW_F4_V1.21.0/Drivers/CMSIS/Include/core
 165              		.file 6 "C:/Users/Prashant/STM32Cube/Repository/STM32Cube_FW_F4_V1.21.0/Drivers/CMSIS/Device/ST/ST
 166              		.file 7 "C:/Users/Prashant/STM32Cube/Repository/STM32Cube_FW_F4_V1.21.0/Drivers/CMSIS/Device/ST/ST
 167              		.file 8 "c:\\program files (x86)\\gnu tools arm embedded\\7 2017-q4-major\\arm-none-eabi\\include\
 168              		.file 9 "c:\\program files (x86)\\gnu tools arm embedded\\7 2017-q4-major\\arm-none-eabi\\include\
 169              		.file 10 "c:\\program files (x86)\\gnu tools arm embedded\\7 2017-q4-major\\lib\\gcc\\arm-none-eab
 170              		.file 11 "c:\\program files (x86)\\gnu tools arm embedded\\7 2017-q4-major\\arm-none-eabi\\include
 171              		.file 12 "C:/Users/Prashant/STM32Cube/Repository/STM32Cube_FW_F4_V1.21.0/Drivers/STM32F4xx_HAL_Dri
 172              		.file 13 "C:/Users/Prashant/STM32Cube/Repository/STM32Cube_FW_F4_V1.21.0/Drivers/STM32F4xx_HAL_Dri
 173              		.file 14 "C:/Users/Prashant/STM32Cube/Repository/STM32Cube_FW_F4_V1.21.0/Drivers/STM32F4xx_HAL_Dri
 174              		.file 15 "Core/Inc/periphs/tim.h"
 175              		.file 16 "Core/Inc/encoder.h"
 176              		.file 17 "Core/Inc/motor.h"
 177              		.file 18 "Core/Inc/pid.h"
 178              		.file 19 "Core/Inc/interrupt.h"
 179              		.file 20 "Core/Inc/blnc_motor.h"
 180              		.file 21 "c:\\program files (x86)\\gnu tools arm embedded\\7 2017-q4-major\\arm-none-eabi\\include
 181              		.file 22 "C:/Users/Prashant/STM32Cube/Repository/STM32Cube_FW_F4_V1.21.0/Middlewares/Third_Party/F
ARM GAS  C:\Users\Prashant\AppData\Local\Temp\cc3LxChE.s 			page 6


DEFINED SYMBOLS
                            *ABS*:00000000 robo_tasks.cpp
C:\Users\Prashant\AppData\Local\Temp\cc3LxChE.s:18     .text.StartDefaultTask:00000000 $t
C:\Users\Prashant\AppData\Local\Temp\cc3LxChE.s:25     .text.StartDefaultTask:00000000 StartDefaultTask
C:\Users\Prashant\AppData\Local\Temp\cc3LxChE.s:50     .text.MotorThread:00000000 $t
C:\Users\Prashant\AppData\Local\Temp\cc3LxChE.s:57     .text.MotorThread:00000000 MotorThread
C:\Users\Prashant\AppData\Local\Temp\cc3LxChE.s:81     .text.PneumaticThread:00000000 $t
C:\Users\Prashant\AppData\Local\Temp\cc3LxChE.s:88     .text.PneumaticThread:00000000 PneumaticThread
C:\Users\Prashant\AppData\Local\Temp\cc3LxChE.s:112    .text.MovingMassThread:00000000 $t
C:\Users\Prashant\AppData\Local\Temp\cc3LxChE.s:119    .text.MovingMassThread:00000000 MovingMassThread
C:\Users\Prashant\AppData\Local\Temp\cc3LxChE.s:151    .text.MovingMassThread:00000018 $d
C:\Users\Prashant\AppData\Local\Temp\cc3LxChE.s:156    .rodata.MovingMassThread.str1.4:00000000 $d

UNDEFINED SYMBOLS
osDelay
_Z12balance_initv
printf
_Z11check_N_runv
