ARM GAS  C:\Users\DELL\AppData\Local\Temp\cc8Fycp3.s 			page 1


   1              		.cpu cortex-m4
   2              		.eabi_attribute 27, 1
   3              		.eabi_attribute 28, 1
   4              		.eabi_attribute 20, 1
   5              		.eabi_attribute 21, 1
   6              		.eabi_attribute 23, 3
   7              		.eabi_attribute 24, 1
   8              		.eabi_attribute 25, 1
   9              		.eabi_attribute 26, 1
  10              		.eabi_attribute 30, 1
  11              		.eabi_attribute 34, 1
  12              		.eabi_attribute 18, 4
  13              		.file	"filter.cpp"
  14              		.text
  15              	.Ltext0:
  16              		.cfi_sections	.debug_frame
  17              		.section	.text._ZN20Complementary_FilterD2Ev,"axG",%progbits,_ZN20Complementary_FilterD5Ev,comdat
  18              		.align	1
  19              		.weak	_ZN20Complementary_FilterD2Ev
  20              		.syntax unified
  21              		.thumb
  22              		.thumb_func
  23              		.fpu fpv4-sp-d16
  25              	_ZN20Complementary_FilterD2Ev:
  26              	.LFB413:
  27              		.file 1 "Core/Inc/utils/filter_algorithm.h"
   1:Core/Inc/utils/filter_algorithm.h **** /*
   2:Core/Inc/utils/filter_algorithm.h ****  * filter_algorithm.h
   3:Core/Inc/utils/filter_algorithm.h ****  * 
   4:Core/Inc/utils/filter_algorithm.h ****  * Created : 11/9/2018
   5:Core/Inc/utils/filter_algorithm.h ****  *  Author : n-is
   6:Core/Inc/utils/filter_algorithm.h ****  *   email : 073bex422.nischal@pcampus.edu.np
   7:Core/Inc/utils/filter_algorithm.h ****  */
   8:Core/Inc/utils/filter_algorithm.h **** 
   9:Core/Inc/utils/filter_algorithm.h **** #ifndef _FILTER_ALGORITHM_H_
  10:Core/Inc/utils/filter_algorithm.h **** #define _FILTER_ALGORITHM_H_
  11:Core/Inc/utils/filter_algorithm.h **** 
  12:Core/Inc/utils/filter_algorithm.h **** #include "vec3.h"
  13:Core/Inc/utils/filter_algorithm.h **** #include "mat.h"
  14:Core/Inc/utils/filter_algorithm.h **** 
  15:Core/Inc/utils/filter_algorithm.h **** class Filter_Algorithm
  16:Core/Inc/utils/filter_algorithm.h **** {
  17:Core/Inc/utils/filter_algorithm.h **** public:
  18:Core/Inc/utils/filter_algorithm.h ****         virtual float filter(float low_pass, float rate, uint32_t dt_millis) = 0;
  19:Core/Inc/utils/filter_algorithm.h ****         virtual ~Filter_Algorithm() { }
  20:Core/Inc/utils/filter_algorithm.h ****         
  21:Core/Inc/utils/filter_algorithm.h **** };
  22:Core/Inc/utils/filter_algorithm.h **** 
  23:Core/Inc/utils/filter_algorithm.h **** // filtered_data = lambda * (theta + rate*dt) + (1 - lambda) * (low_pass_data)
  24:Core/Inc/utils/filter_algorithm.h **** class Complementary_Filter : public Filter_Algorithm
  25:Core/Inc/utils/filter_algorithm.h **** {
  26:Core/Inc/utils/filter_algorithm.h **** public:
  27:Core/Inc/utils/filter_algorithm.h ****         Complementary_Filter() {
  28:Core/Inc/utils/filter_algorithm.h ****                 set_Lambda(1);
  29:Core/Inc/utils/filter_algorithm.h ****         }
  30:Core/Inc/utils/filter_algorithm.h ****         Complementary_Filter(float lambda) : Complementary_Filter() {
  31:Core/Inc/utils/filter_algorithm.h ****                 set_Lambda(lambda);
ARM GAS  C:\Users\DELL\AppData\Local\Temp\cc8Fycp3.s 			page 2


  32:Core/Inc/utils/filter_algorithm.h ****         }
  33:Core/Inc/utils/filter_algorithm.h ****         Complementary_Filter(Complementary_Filter &&) = default;
  34:Core/Inc/utils/filter_algorithm.h ****         Complementary_Filter(const Complementary_Filter &) = default;
  35:Core/Inc/utils/filter_algorithm.h ****         Complementary_Filter &operator=(Complementary_Filter &&) = default;
  36:Core/Inc/utils/filter_algorithm.h ****         Complementary_Filter &operator=(const Complementary_Filter &) = default;
  37:Core/Inc/utils/filter_algorithm.h ****         ~Complementary_Filter() { }
  28              		.loc 1 37 0
  29              		.cfi_startproc
  30              		@ args = 0, pretend = 0, frame = 0
  31              		@ frame_needed = 0, uses_anonymous_args = 0
  32              		@ link register save eliminated.
  33              	.LVL0:
  34              		.loc 1 37 0
  35 0000 7047     		bx	lr
  36              		.cfi_endproc
  37              	.LFE413:
  39              		.weak	_ZN20Complementary_FilterD1Ev
  40              		.thumb_set _ZN20Complementary_FilterD1Ev,_ZN20Complementary_FilterD2Ev
  41              		.section	.text._ZN21Complementary_Filter2D2Ev,"axG",%progbits,_ZN21Complementary_Filter2D5Ev,comda
  42              		.align	1
  43              		.weak	_ZN21Complementary_Filter2D2Ev
  44              		.syntax unified
  45              		.thumb
  46              		.thumb_func
  47              		.fpu fpv4-sp-d16
  49              	_ZN21Complementary_Filter2D2Ev:
  50              	.LFB424:
  38:Core/Inc/utils/filter_algorithm.h **** 
  39:Core/Inc/utils/filter_algorithm.h ****         void set_Lambda(float lambda) { lambda_ = lambda; }
  40:Core/Inc/utils/filter_algorithm.h ****         float filter(float low_pass, float rate, uint32_t dt_millis);
  41:Core/Inc/utils/filter_algorithm.h **** 
  42:Core/Inc/utils/filter_algorithm.h **** private:
  43:Core/Inc/utils/filter_algorithm.h ****         float lambda_;
  44:Core/Inc/utils/filter_algorithm.h ****         float filtered_;
  45:Core/Inc/utils/filter_algorithm.h **** 
  46:Core/Inc/utils/filter_algorithm.h **** };
  47:Core/Inc/utils/filter_algorithm.h **** 
  48:Core/Inc/utils/filter_algorithm.h **** 
  49:Core/Inc/utils/filter_algorithm.h **** class Complementary_Filter2 : public Filter_Algorithm
  50:Core/Inc/utils/filter_algorithm.h **** {
  51:Core/Inc/utils/filter_algorithm.h **** public:
  52:Core/Inc/utils/filter_algorithm.h ****         Complementary_Filter2() {
  53:Core/Inc/utils/filter_algorithm.h ****                 setK(0);
  54:Core/Inc/utils/filter_algorithm.h ****                 last_acc_sum_ = 0;
  55:Core/Inc/utils/filter_algorithm.h ****         }
  56:Core/Inc/utils/filter_algorithm.h ****         Complementary_Filter2(float k) : Complementary_Filter2() {
  57:Core/Inc/utils/filter_algorithm.h ****                 setK(k);
  58:Core/Inc/utils/filter_algorithm.h ****         }
  59:Core/Inc/utils/filter_algorithm.h ****         Complementary_Filter2(Complementary_Filter2 &&) = default;
  60:Core/Inc/utils/filter_algorithm.h ****         Complementary_Filter2(const Complementary_Filter2 &) = default;
  61:Core/Inc/utils/filter_algorithm.h ****         Complementary_Filter2 &operator=(Complementary_Filter2 &&) = default;
  62:Core/Inc/utils/filter_algorithm.h ****         Complementary_Filter2 &operator=(const Complementary_Filter2 &) = default;
  63:Core/Inc/utils/filter_algorithm.h ****         ~Complementary_Filter2() { }
  51              		.loc 1 63 0
  52              		.cfi_startproc
  53              		@ args = 0, pretend = 0, frame = 0
  54              		@ frame_needed = 0, uses_anonymous_args = 0
ARM GAS  C:\Users\DELL\AppData\Local\Temp\cc8Fycp3.s 			page 3


  55              		@ link register save eliminated.
  56              	.LVL1:
  57              		.loc 1 63 0
  58 0000 7047     		bx	lr
  59              		.cfi_endproc
  60              	.LFE424:
  62              		.weak	_ZN21Complementary_Filter2D1Ev
  63              		.thumb_set _ZN21Complementary_Filter2D1Ev,_ZN21Complementary_Filter2D2Ev
  64              		.section	.text._ZN20Complementary_Filter6filterEffm,"ax",%progbits
  65              		.align	1
  66              		.global	_ZN20Complementary_Filter6filterEffm
  67              		.syntax unified
  68              		.thumb
  69              		.thumb_func
  70              		.fpu fpv4-sp-d16
  72              	_ZN20Complementary_Filter6filterEffm:
  73              	.LFB439:
  74              		.file 2 "Core/Src/utils/filter.cpp"
   1:Core/Src/utils/filter.cpp **** /*
   2:Core/Src/utils/filter.cpp ****  * filter.cpp
   3:Core/Src/utils/filter.cpp ****  * 
   4:Core/Src/utils/filter.cpp ****  * Created : 11/9/2018
   5:Core/Src/utils/filter.cpp ****  *  Author : n-is
   6:Core/Src/utils/filter.cpp ****  *   email : 073bex422.nischal@pcampus.edu.np
   7:Core/Src/utils/filter.cpp ****  */
   8:Core/Src/utils/filter.cpp **** 
   9:Core/Src/utils/filter.cpp **** #include "utils/filter.h"
  10:Core/Src/utils/filter.cpp **** 
  11:Core/Src/utils/filter.cpp **** //* First Order Complementary Filter Implementation
  12:Core/Src/utils/filter.cpp **** float Complementary_Filter::filter(float low_pass, float rate, uint32_t dt_millis)
  13:Core/Src/utils/filter.cpp **** {
  75              		.loc 2 13 0
  76              		.cfi_startproc
  77              		@ args = 0, pretend = 0, frame = 0
  78              		@ frame_needed = 0, uses_anonymous_args = 0
  79              		@ link register save eliminated.
  80              	.LVL2:
  14:Core/Src/utils/filter.cpp ****         float dt = (float)dt_millis / 1000.0;
  81              		.loc 2 14 0
  82 0000 07EE901A 		vmov	s15, r1	@ int
  83 0004 B8EE677A 		vcvt.f32.u32	s14, s15
  84 0008 DFED0C7A 		vldr.32	s15, .L4
  85 000c C7EE276A 		vdiv.f32	s13, s14, s15
  86              	.LVL3:
  15:Core/Src/utils/filter.cpp ****         filtered_ = lambda_ * (filtered_ + rate*dt) + (1 - lambda_) * low_pass;
  87              		.loc 2 15 0
  88 0010 90ED016A 		vldr.32	s12, [r0, #4]
  89 0014 D0ED027A 		vldr.32	s15, [r0, #8]
  90 0018 66EEA00A 		vmul.f32	s1, s13, s1
  91              	.LVL4:
  92 001c 77EEA07A 		vadd.f32	s15, s15, s1
  93 0020 66EE277A 		vmul.f32	s15, s12, s15
  94 0024 B7EE007A 		vmov.f32	s14, #1.0e+0
  95 0028 37EE467A 		vsub.f32	s14, s14, s12
  96 002c 27EE000A 		vmul.f32	s0, s14, s0
  97              	.LVL5:
  98 0030 37EE800A 		vadd.f32	s0, s15, s0
ARM GAS  C:\Users\DELL\AppData\Local\Temp\cc8Fycp3.s 			page 4


  99 0034 80ED020A 		vstr.32	s0, [r0, #8]
  16:Core/Src/utils/filter.cpp ****         return filtered_;
  17:Core/Src/utils/filter.cpp **** }
 100              		.loc 2 17 0
 101 0038 7047     		bx	lr
 102              	.L5:
 103 003a 00BF     		.align	2
 104              	.L4:
 105 003c 00007A44 		.word	1148846080
 106              		.cfi_endproc
 107              	.LFE439:
 109              		.section	.text._ZN21Complementary_Filter26filterEffm,"ax",%progbits
 110              		.align	1
 111              		.global	_ZN21Complementary_Filter26filterEffm
 112              		.syntax unified
 113              		.thumb
 114              		.thumb_func
 115              		.fpu fpv4-sp-d16
 117              	_ZN21Complementary_Filter26filterEffm:
 118              	.LFB440:
  18:Core/Src/utils/filter.cpp **** 
  19:Core/Src/utils/filter.cpp **** //*
  20:Core/Src/utils/filter.cpp **** //* Second-Order Complementary FIlter Implementation
  21:Core/Src/utils/filter.cpp **** float Complementary_Filter2::filter(float low_pass, float rate, uint32_t dt_millis)
  22:Core/Src/utils/filter.cpp **** {
 119              		.loc 2 22 0
 120              		.cfi_startproc
 121              		@ args = 0, pretend = 0, frame = 0
 122              		@ frame_needed = 0, uses_anonymous_args = 0
 123              		@ link register save eliminated.
 124              	.LVL6:
  23:Core/Src/utils/filter.cpp ****         float dt = (float)dt_millis / 1000.0;
 125              		.loc 2 23 0
 126 0000 07EE901A 		vmov	s15, r1	@ int
 127 0004 B8EE677A 		vcvt.f32.u32	s14, s15
 128 0008 DFED127A 		vldr.32	s15, .L7
 129 000c 87EE276A 		vdiv.f32	s12, s14, s15
 130              	.LVL7:
  24:Core/Src/utils/filter.cpp **** 
  25:Core/Src/utils/filter.cpp ****         float x1 = low_pass - filtered_;
 131              		.loc 2 25 0
 132 0010 D0ED036A 		vldr.32	s13, [r0, #12]
 133 0014 30EE660A 		vsub.f32	s0, s0, s13
 134              	.LVL8:
  26:Core/Src/utils/filter.cpp ****         last_acc_sum_ += x1 * k_ * k_ * dt;
 135              		.loc 2 26 0
 136 0018 90ED017A 		vldr.32	s14, [r0, #4]
 137 001c 67EE007A 		vmul.f32	s15, s14, s0
 138 0020 67EE277A 		vmul.f32	s15, s14, s15
 139 0024 67EE867A 		vmul.f32	s15, s15, s12
 140 0028 D0ED025A 		vldr.32	s11, [r0, #8]
 141 002c 77EEA57A 		vadd.f32	s15, s15, s11
 142 0030 C0ED027A 		vstr.32	s15, [r0, #8]
  27:Core/Src/utils/filter.cpp ****         filtered_ += (rate + x1 * 2 * k_ + last_acc_sum_) * dt;
 143              		.loc 2 27 0
 144 0034 30EE000A 		vadd.f32	s0, s0, s0
 145              	.LVL9:
ARM GAS  C:\Users\DELL\AppData\Local\Temp\cc8Fycp3.s 			page 5


 146 0038 27EE007A 		vmul.f32	s14, s14, s0
 147 003c 37EE207A 		vadd.f32	s14, s14, s1
 148 0040 77EE877A 		vadd.f32	s15, s15, s14
 149 0044 67EE867A 		vmul.f32	s15, s15, s12
 150 0048 36EEA70A 		vadd.f32	s0, s13, s15
 151 004c 80ED030A 		vstr.32	s0, [r0, #12]
  28:Core/Src/utils/filter.cpp **** 
  29:Core/Src/utils/filter.cpp ****         return filtered_;
  30:Core/Src/utils/filter.cpp **** }
 152              		.loc 2 30 0
 153 0050 7047     		bx	lr
 154              	.L8:
 155 0052 00BF     		.align	2
 156              	.L7:
 157 0054 00007A44 		.word	1148846080
 158              		.cfi_endproc
 159              	.LFE440:
 161              		.section	.text._ZN21Complementary_Filter2D0Ev,"axG",%progbits,_ZN21Complementary_Filter2D5Ev,comda
 162              		.align	1
 163              		.weak	_ZN21Complementary_Filter2D0Ev
 164              		.syntax unified
 165              		.thumb
 166              		.thumb_func
 167              		.fpu fpv4-sp-d16
 169              	_ZN21Complementary_Filter2D0Ev:
 170              	.LFB426:
 171              		.loc 1 63 0
 172              		.cfi_startproc
 173              		@ args = 0, pretend = 0, frame = 0
 174              		@ frame_needed = 0, uses_anonymous_args = 0
 175              	.LVL10:
 176 0000 10B5     		push	{r4, lr}
 177              	.LCFI0:
 178              		.cfi_def_cfa_offset 8
 179              		.cfi_offset 4, -8
 180              		.cfi_offset 14, -4
 181 0002 0446     		mov	r4, r0
 182              		.loc 1 63 0
 183 0004 1021     		movs	r1, #16
 184 0006 FFF7FEFF 		bl	_ZdlPvj
 185              	.LVL11:
 186 000a 2046     		mov	r0, r4
 187 000c 10BD     		pop	{r4, pc}
 188              		.cfi_endproc
 189              	.LFE426:
 191              		.section	.text._ZN20Complementary_FilterD0Ev,"axG",%progbits,_ZN20Complementary_FilterD5Ev,comdat
 192              		.align	1
 193              		.weak	_ZN20Complementary_FilterD0Ev
 194              		.syntax unified
 195              		.thumb
 196              		.thumb_func
 197              		.fpu fpv4-sp-d16
 199              	_ZN20Complementary_FilterD0Ev:
 200              	.LFB415:
  37:Core/Inc/utils/filter_algorithm.h **** 
 201              		.loc 1 37 0
 202              		.cfi_startproc
ARM GAS  C:\Users\DELL\AppData\Local\Temp\cc8Fycp3.s 			page 6


 203              		@ args = 0, pretend = 0, frame = 0
 204              		@ frame_needed = 0, uses_anonymous_args = 0
 205              	.LVL12:
 206 0000 10B5     		push	{r4, lr}
 207              	.LCFI1:
 208              		.cfi_def_cfa_offset 8
 209              		.cfi_offset 4, -8
 210              		.cfi_offset 14, -4
 211 0002 0446     		mov	r4, r0
  37:Core/Inc/utils/filter_algorithm.h **** 
 212              		.loc 1 37 0
 213 0004 0C21     		movs	r1, #12
 214 0006 FFF7FEFF 		bl	_ZdlPvj
 215              	.LVL13:
 216 000a 2046     		mov	r0, r4
 217 000c 10BD     		pop	{r4, pc}
 218              		.cfi_endproc
 219              	.LFE415:
 221              		.weak	_ZTS16Filter_Algorithm
 222              		.section	.rodata._ZTS16Filter_Algorithm,"aG",%progbits,_ZTS16Filter_Algorithm,comdat
 223              		.align	2
 226              	_ZTS16Filter_Algorithm:
 227 0000 31364669 		.ascii	"16Filter_Algorithm\000"
 227      6C746572 
 227      5F416C67 
 227      6F726974 
 227      686D00
 228              		.weak	_ZTI16Filter_Algorithm
 229              		.section	.rodata._ZTI16Filter_Algorithm,"aG",%progbits,_ZTI16Filter_Algorithm,comdat
 230              		.align	2
 233              	_ZTI16Filter_Algorithm:
 234 0000 08000000 		.word	_ZTVN10__cxxabiv117__class_type_infoE+8
 235 0004 00000000 		.word	_ZTS16Filter_Algorithm
 236              		.global	_ZTS20Complementary_Filter
 237              		.global	_ZTI20Complementary_Filter
 238              		.global	_ZTS21Complementary_Filter2
 239              		.global	_ZTI21Complementary_Filter2
 240              		.global	_ZTV20Complementary_Filter
 241              		.global	_ZTV21Complementary_Filter2
 242              		.section	.rodata._ZTI20Complementary_Filter,"a",%progbits
 243              		.align	2
 246              	_ZTI20Complementary_Filter:
 247 0000 08000000 		.word	_ZTVN10__cxxabiv120__si_class_type_infoE+8
 248 0004 00000000 		.word	_ZTS20Complementary_Filter
 249 0008 00000000 		.word	_ZTI16Filter_Algorithm
 250              		.section	.rodata._ZTI21Complementary_Filter2,"a",%progbits
 251              		.align	2
 254              	_ZTI21Complementary_Filter2:
 255 0000 08000000 		.word	_ZTVN10__cxxabiv120__si_class_type_infoE+8
 256 0004 00000000 		.word	_ZTS21Complementary_Filter2
 257 0008 00000000 		.word	_ZTI16Filter_Algorithm
 258              		.section	.rodata._ZTS20Complementary_Filter,"a",%progbits
 259              		.align	2
 262              	_ZTS20Complementary_Filter:
 263 0000 3230436F 		.ascii	"20Complementary_Filter\000"
 263      6D706C65 
 263      6D656E74 
ARM GAS  C:\Users\DELL\AppData\Local\Temp\cc8Fycp3.s 			page 7


 263      6172795F 
 263      46696C74 
 264              		.section	.rodata._ZTS21Complementary_Filter2,"a",%progbits
 265              		.align	2
 268              	_ZTS21Complementary_Filter2:
 269 0000 3231436F 		.ascii	"21Complementary_Filter2\000"
 269      6D706C65 
 269      6D656E74 
 269      6172795F 
 269      46696C74 
 270              		.section	.rodata._ZTV20Complementary_Filter,"a",%progbits
 271              		.align	2
 274              	_ZTV20Complementary_Filter:
 275 0000 00000000 		.word	0
 276 0004 00000000 		.word	_ZTI20Complementary_Filter
 277 0008 00000000 		.word	_ZN20Complementary_Filter6filterEffm
 278 000c 00000000 		.word	_ZN20Complementary_FilterD1Ev
 279 0010 00000000 		.word	_ZN20Complementary_FilterD0Ev
 280              		.section	.rodata._ZTV21Complementary_Filter2,"a",%progbits
 281              		.align	2
 284              	_ZTV21Complementary_Filter2:
 285 0000 00000000 		.word	0
 286 0004 00000000 		.word	_ZTI21Complementary_Filter2
 287 0008 00000000 		.word	_ZN21Complementary_Filter26filterEffm
 288 000c 00000000 		.word	_ZN21Complementary_Filter2D1Ev
 289 0010 00000000 		.word	_ZN21Complementary_Filter2D0Ev
 290              		.text
 291              	.Letext0:
 292              		.file 3 "c:\\program files (x86)\\gnu tools arm embedded\\7 2017-q4-major\\arm-none-eabi\\include\
 293              		.file 4 "c:\\program files (x86)\\gnu tools arm embedded\\7 2017-q4-major\\arm-none-eabi\\include\
 294              		.file 5 "C:/Users/DELL/STM32Cube/Repository/STM32Cube_FW_F4_V1.21.0/Drivers/CMSIS/Include/core_cm4
 295              		.file 6 "C:/Users/DELL/STM32Cube/Repository/STM32Cube_FW_F4_V1.21.0/Drivers/CMSIS/Device/ST/STM32F
 296              		.file 7 "C:/Users/DELL/STM32Cube/Repository/STM32Cube_FW_F4_V1.21.0/Drivers/CMSIS/Device/ST/STM32F
 297              		.file 8 "c:\\program files (x86)\\gnu tools arm embedded\\7 2017-q4-major\\arm-none-eabi\\include\
 298              		.file 9 "c:\\program files (x86)\\gnu tools arm embedded\\7 2017-q4-major\\arm-none-eabi\\include\
 299              		.file 10 "c:\\program files (x86)\\gnu tools arm embedded\\7 2017-q4-major\\lib\\gcc\\arm-none-eab
 300              		.file 11 "c:\\program files (x86)\\gnu tools arm embedded\\7 2017-q4-major\\arm-none-eabi\\include
 301              		.file 12 "C:/Users/DELL/STM32Cube/Repository/STM32Cube_FW_F4_V1.21.0/Drivers/STM32F4xx_HAL_Driver/
 302              		.file 13 "c:\\program files (x86)\\gnu tools arm embedded\\7 2017-q4-major\\arm-none-eabi\\include
 303              		.file 14 "c:\\program files (x86)\\gnu tools arm embedded\\7 2017-q4-major\\arm-none-eabi\\include
 304              		.file 15 "c:\\program files (x86)\\gnu tools arm embedded\\7 2017-q4-major\\arm-none-eabi\\include
 305              		.file 16 "c:\\program files (x86)\\gnu tools arm embedded\\7 2017-q4-major\\arm-none-eabi\\include
 306              		.file 17 "c:\\program files (x86)\\gnu tools arm embedded\\7 2017-q4-major\\arm-none-eabi\\include
 307              		.file 18 "c:\\program files (x86)\\gnu tools arm embedded\\7 2017-q4-major\\arm-none-eabi\\include
 308              		.file 19 "<built-in>"
ARM GAS  C:\Users\DELL\AppData\Local\Temp\cc8Fycp3.s 			page 8

