ARM GAS  C:\Users\DELL\AppData\Local\Temp\cc1XbaSg.s 			page 1


   1              		.cpu cortex-m4
   2              		.eabi_attribute 27, 1
   3              		.eabi_attribute 28, 1
   4              		.eabi_attribute 20, 1
   5              		.eabi_attribute 21, 1
   6              		.eabi_attribute 23, 3
   7              		.eabi_attribute 24, 1
   8              		.eabi_attribute 25, 1
   9              		.eabi_attribute 26, 1
  10              		.eabi_attribute 30, 1
  11              		.eabi_attribute 34, 1
  12              		.eabi_attribute 18, 4
  13              		.file	"i2c.c"
  14              		.text
  15              	.Ltext0:
  16              		.cfi_sections	.debug_frame
  17              		.section	.text.MX_I2C1_Init,"ax",%progbits
  18              		.align	1
  19              		.global	MX_I2C1_Init
  20              		.syntax unified
  21              		.thumb
  22              		.thumb_func
  23              		.fpu fpv4-sp-d16
  25              	MX_I2C1_Init:
  26              	.LFB126:
  27              		.file 1 "Core/Src/periphs/i2c.c"
   1:Core/Src/periphs/i2c.c **** /**
   2:Core/Src/periphs/i2c.c ****   ******************************************************************************
   3:Core/Src/periphs/i2c.c ****   * File Name          : I2C.c
   4:Core/Src/periphs/i2c.c ****   * Description        : This file provides code for the configuration
   5:Core/Src/periphs/i2c.c ****   *                      of the I2C instances.
   6:Core/Src/periphs/i2c.c ****   ******************************************************************************
   7:Core/Src/periphs/i2c.c ****   ** This notice applies to any and all portions of this file
   8:Core/Src/periphs/i2c.c ****   * that are not between comment pairs USER CODE BEGIN and
   9:Core/Src/periphs/i2c.c ****   * USER CODE END. Other portions of this file, whether 
  10:Core/Src/periphs/i2c.c ****   * inserted by the user or by software development tools
  11:Core/Src/periphs/i2c.c ****   * are owned by their respective copyright owners.
  12:Core/Src/periphs/i2c.c ****   *
  13:Core/Src/periphs/i2c.c ****   * COPYRIGHT(c) 2018 STMicroelectronics
  14:Core/Src/periphs/i2c.c ****   *
  15:Core/Src/periphs/i2c.c ****   * Redistribution and use in source and binary forms, with or without modification,
  16:Core/Src/periphs/i2c.c ****   * are permitted provided that the following conditions are met:
  17:Core/Src/periphs/i2c.c ****   *   1. Redistributions of source code must retain the above copyright notice,
  18:Core/Src/periphs/i2c.c ****   *      this list of conditions and the following disclaimer.
  19:Core/Src/periphs/i2c.c ****   *   2. Redistributions in binary form must reproduce the above copyright notice,
  20:Core/Src/periphs/i2c.c ****   *      this list of conditions and the following disclaimer in the documentation
  21:Core/Src/periphs/i2c.c ****   *      and/or other materials provided with the distribution.
  22:Core/Src/periphs/i2c.c ****   *   3. Neither the name of STMicroelectronics nor the names of its contributors
  23:Core/Src/periphs/i2c.c ****   *      may be used to endorse or promote products derived from this software
  24:Core/Src/periphs/i2c.c ****   *      without specific prior written permission.
  25:Core/Src/periphs/i2c.c ****   *
  26:Core/Src/periphs/i2c.c ****   * THIS SOFTWARE IS PROVIDED BY THE COPYRIGHT HOLDERS AND CONTRIBUTORS "AS IS"
  27:Core/Src/periphs/i2c.c ****   * AND ANY EXPRESS OR IMPLIED WARRANTIES, INCLUDING, BUT NOT LIMITED TO, THE
  28:Core/Src/periphs/i2c.c ****   * IMPLIED WARRANTIES OF MERCHANTABILITY AND FITNESS FOR A PARTICULAR PURPOSE ARE
  29:Core/Src/periphs/i2c.c ****   * DISCLAIMED. IN NO EVENT SHALL THE COPYRIGHT HOLDER OR CONTRIBUTORS BE LIABLE
  30:Core/Src/periphs/i2c.c ****   * FOR ANY DIRECT, INDIRECT, INCIDENTAL, SPECIAL, EXEMPLARY, OR CONSEQUENTIAL
  31:Core/Src/periphs/i2c.c ****   * DAMAGES (INCLUDING, BUT NOT LIMITED TO, PROCUREMENT OF SUBSTITUTE GOODS OR
ARM GAS  C:\Users\DELL\AppData\Local\Temp\cc1XbaSg.s 			page 2


  32:Core/Src/periphs/i2c.c ****   * SERVICES; LOSS OF USE, DATA, OR PROFITS; OR BUSINESS INTERRUPTION) HOWEVER
  33:Core/Src/periphs/i2c.c ****   * CAUSED AND ON ANY THEORY OF LIABILITY, WHETHER IN CONTRACT, STRICT LIABILITY,
  34:Core/Src/periphs/i2c.c ****   * OR TORT (INCLUDING NEGLIGENCE OR OTHERWISE) ARISING IN ANY WAY OUT OF THE USE
  35:Core/Src/periphs/i2c.c ****   * OF THIS SOFTWARE, EVEN IF ADVISED OF THE POSSIBILITY OF SUCH DAMAGE.
  36:Core/Src/periphs/i2c.c ****   *
  37:Core/Src/periphs/i2c.c ****   ******************************************************************************
  38:Core/Src/periphs/i2c.c ****   */
  39:Core/Src/periphs/i2c.c **** 
  40:Core/Src/periphs/i2c.c **** /* Includes ------------------------------------------------------------------*/
  41:Core/Src/periphs/i2c.c **** #include "i2c.h"
  42:Core/Src/periphs/i2c.c **** 
  43:Core/Src/periphs/i2c.c **** #include "gpio.h"
  44:Core/Src/periphs/i2c.c **** 
  45:Core/Src/periphs/i2c.c **** /* USER CODE BEGIN 0 */
  46:Core/Src/periphs/i2c.c **** 
  47:Core/Src/periphs/i2c.c **** /* USER CODE END 0 */
  48:Core/Src/periphs/i2c.c **** 
  49:Core/Src/periphs/i2c.c **** I2C_HandleTypeDef hi2c1;
  50:Core/Src/periphs/i2c.c **** I2C_HandleTypeDef hi2c2;
  51:Core/Src/periphs/i2c.c **** I2C_HandleTypeDef hi2c3;
  52:Core/Src/periphs/i2c.c **** 
  53:Core/Src/periphs/i2c.c **** /* I2C1 init function */
  54:Core/Src/periphs/i2c.c **** void MX_I2C1_Init(void)
  55:Core/Src/periphs/i2c.c **** {
  28              		.loc 1 55 0
  29              		.cfi_startproc
  30              		@ args = 0, pretend = 0, frame = 0
  31              		@ frame_needed = 0, uses_anonymous_args = 0
  32 0000 08B5     		push	{r3, lr}
  33              	.LCFI0:
  34              		.cfi_def_cfa_offset 8
  35              		.cfi_offset 3, -8
  36              		.cfi_offset 14, -4
  56:Core/Src/periphs/i2c.c **** 
  57:Core/Src/periphs/i2c.c ****   hi2c1.Instance = I2C1;
  37              		.loc 1 57 0
  38 0002 0C48     		ldr	r0, .L5
  39 0004 0C4B     		ldr	r3, .L5+4
  40 0006 0360     		str	r3, [r0]
  58:Core/Src/periphs/i2c.c ****   hi2c1.Init.ClockSpeed = 100000;
  41              		.loc 1 58 0
  42 0008 0C4B     		ldr	r3, .L5+8
  43 000a 4360     		str	r3, [r0, #4]
  59:Core/Src/periphs/i2c.c ****   hi2c1.Init.DutyCycle = I2C_DUTYCYCLE_2;
  44              		.loc 1 59 0
  45 000c 0023     		movs	r3, #0
  46 000e 8360     		str	r3, [r0, #8]
  60:Core/Src/periphs/i2c.c ****   hi2c1.Init.OwnAddress1 = 0;
  47              		.loc 1 60 0
  48 0010 C360     		str	r3, [r0, #12]
  61:Core/Src/periphs/i2c.c ****   hi2c1.Init.AddressingMode = I2C_ADDRESSINGMODE_7BIT;
  49              		.loc 1 61 0
  50 0012 4FF48042 		mov	r2, #16384
  51 0016 0261     		str	r2, [r0, #16]
  62:Core/Src/periphs/i2c.c ****   hi2c1.Init.DualAddressMode = I2C_DUALADDRESS_DISABLE;
  52              		.loc 1 62 0
  53 0018 4361     		str	r3, [r0, #20]
ARM GAS  C:\Users\DELL\AppData\Local\Temp\cc1XbaSg.s 			page 3


  63:Core/Src/periphs/i2c.c ****   hi2c1.Init.OwnAddress2 = 0;
  54              		.loc 1 63 0
  55 001a 8361     		str	r3, [r0, #24]
  64:Core/Src/periphs/i2c.c ****   hi2c1.Init.GeneralCallMode = I2C_GENERALCALL_DISABLE;
  56              		.loc 1 64 0
  57 001c C361     		str	r3, [r0, #28]
  65:Core/Src/periphs/i2c.c ****   hi2c1.Init.NoStretchMode = I2C_NOSTRETCH_DISABLE;
  58              		.loc 1 65 0
  59 001e 0362     		str	r3, [r0, #32]
  66:Core/Src/periphs/i2c.c ****   if (HAL_I2C_Init(&hi2c1) != HAL_OK)
  60              		.loc 1 66 0
  61 0020 FFF7FEFF 		bl	HAL_I2C_Init
  62              	.LVL0:
  63 0024 00B9     		cbnz	r0, .L4
  64              	.L1:
  67:Core/Src/periphs/i2c.c ****   {
  68:Core/Src/periphs/i2c.c ****     _Error_Handler(__FILE__, __LINE__);
  69:Core/Src/periphs/i2c.c ****   }
  70:Core/Src/periphs/i2c.c **** 
  71:Core/Src/periphs/i2c.c **** }
  65              		.loc 1 71 0
  66 0026 08BD     		pop	{r3, pc}
  67              	.L4:
  68:Core/Src/periphs/i2c.c ****   }
  68              		.loc 1 68 0
  69 0028 4421     		movs	r1, #68
  70 002a 0548     		ldr	r0, .L5+12
  71 002c FFF7FEFF 		bl	_Error_Handler
  72              	.LVL1:
  73              		.loc 1 71 0
  74 0030 F9E7     		b	.L1
  75              	.L6:
  76 0032 00BF     		.align	2
  77              	.L5:
  78 0034 00000000 		.word	hi2c1
  79 0038 00540040 		.word	1073763328
  80 003c A0860100 		.word	100000
  81 0040 00000000 		.word	.LC0
  82              		.cfi_endproc
  83              	.LFE126:
  85              		.section	.text.MX_I2C2_Init,"ax",%progbits
  86              		.align	1
  87              		.global	MX_I2C2_Init
  88              		.syntax unified
  89              		.thumb
  90              		.thumb_func
  91              		.fpu fpv4-sp-d16
  93              	MX_I2C2_Init:
  94              	.LFB127:
  72:Core/Src/periphs/i2c.c **** /* I2C2 init function */
  73:Core/Src/periphs/i2c.c **** void MX_I2C2_Init(void)
  74:Core/Src/periphs/i2c.c **** {
  95              		.loc 1 74 0
  96              		.cfi_startproc
  97              		@ args = 0, pretend = 0, frame = 0
  98              		@ frame_needed = 0, uses_anonymous_args = 0
  99 0000 08B5     		push	{r3, lr}
ARM GAS  C:\Users\DELL\AppData\Local\Temp\cc1XbaSg.s 			page 4


 100              	.LCFI1:
 101              		.cfi_def_cfa_offset 8
 102              		.cfi_offset 3, -8
 103              		.cfi_offset 14, -4
  75:Core/Src/periphs/i2c.c **** 
  76:Core/Src/periphs/i2c.c ****   hi2c2.Instance = I2C2;
 104              		.loc 1 76 0
 105 0002 0C48     		ldr	r0, .L11
 106 0004 0C4B     		ldr	r3, .L11+4
 107 0006 0360     		str	r3, [r0]
  77:Core/Src/periphs/i2c.c ****   hi2c2.Init.ClockSpeed = 100000;
 108              		.loc 1 77 0
 109 0008 0C4B     		ldr	r3, .L11+8
 110 000a 4360     		str	r3, [r0, #4]
  78:Core/Src/periphs/i2c.c ****   hi2c2.Init.DutyCycle = I2C_DUTYCYCLE_2;
 111              		.loc 1 78 0
 112 000c 0023     		movs	r3, #0
 113 000e 8360     		str	r3, [r0, #8]
  79:Core/Src/periphs/i2c.c ****   hi2c2.Init.OwnAddress1 = 0;
 114              		.loc 1 79 0
 115 0010 C360     		str	r3, [r0, #12]
  80:Core/Src/periphs/i2c.c ****   hi2c2.Init.AddressingMode = I2C_ADDRESSINGMODE_7BIT;
 116              		.loc 1 80 0
 117 0012 4FF48042 		mov	r2, #16384
 118 0016 0261     		str	r2, [r0, #16]
  81:Core/Src/periphs/i2c.c ****   hi2c2.Init.DualAddressMode = I2C_DUALADDRESS_DISABLE;
 119              		.loc 1 81 0
 120 0018 4361     		str	r3, [r0, #20]
  82:Core/Src/periphs/i2c.c ****   hi2c2.Init.OwnAddress2 = 0;
 121              		.loc 1 82 0
 122 001a 8361     		str	r3, [r0, #24]
  83:Core/Src/periphs/i2c.c ****   hi2c2.Init.GeneralCallMode = I2C_GENERALCALL_DISABLE;
 123              		.loc 1 83 0
 124 001c C361     		str	r3, [r0, #28]
  84:Core/Src/periphs/i2c.c ****   hi2c2.Init.NoStretchMode = I2C_NOSTRETCH_DISABLE;
 125              		.loc 1 84 0
 126 001e 0362     		str	r3, [r0, #32]
  85:Core/Src/periphs/i2c.c ****   if (HAL_I2C_Init(&hi2c2) != HAL_OK)
 127              		.loc 1 85 0
 128 0020 FFF7FEFF 		bl	HAL_I2C_Init
 129              	.LVL2:
 130 0024 00B9     		cbnz	r0, .L10
 131              	.L7:
  86:Core/Src/periphs/i2c.c ****   {
  87:Core/Src/periphs/i2c.c ****     _Error_Handler(__FILE__, __LINE__);
  88:Core/Src/periphs/i2c.c ****   }
  89:Core/Src/periphs/i2c.c **** 
  90:Core/Src/periphs/i2c.c **** }
 132              		.loc 1 90 0
 133 0026 08BD     		pop	{r3, pc}
 134              	.L10:
  87:Core/Src/periphs/i2c.c ****   }
 135              		.loc 1 87 0
 136 0028 5721     		movs	r1, #87
 137 002a 0548     		ldr	r0, .L11+12
 138 002c FFF7FEFF 		bl	_Error_Handler
 139              	.LVL3:
ARM GAS  C:\Users\DELL\AppData\Local\Temp\cc1XbaSg.s 			page 5


 140              		.loc 1 90 0
 141 0030 F9E7     		b	.L7
 142              	.L12:
 143 0032 00BF     		.align	2
 144              	.L11:
 145 0034 00000000 		.word	hi2c2
 146 0038 00580040 		.word	1073764352
 147 003c A0860100 		.word	100000
 148 0040 00000000 		.word	.LC0
 149              		.cfi_endproc
 150              	.LFE127:
 152              		.section	.text.MX_I2C3_Init,"ax",%progbits
 153              		.align	1
 154              		.global	MX_I2C3_Init
 155              		.syntax unified
 156              		.thumb
 157              		.thumb_func
 158              		.fpu fpv4-sp-d16
 160              	MX_I2C3_Init:
 161              	.LFB128:
  91:Core/Src/periphs/i2c.c **** /* I2C3 init function */
  92:Core/Src/periphs/i2c.c **** void MX_I2C3_Init(void)
  93:Core/Src/periphs/i2c.c **** {
 162              		.loc 1 93 0
 163              		.cfi_startproc
 164              		@ args = 0, pretend = 0, frame = 0
 165              		@ frame_needed = 0, uses_anonymous_args = 0
 166 0000 08B5     		push	{r3, lr}
 167              	.LCFI2:
 168              		.cfi_def_cfa_offset 8
 169              		.cfi_offset 3, -8
 170              		.cfi_offset 14, -4
  94:Core/Src/periphs/i2c.c **** 
  95:Core/Src/periphs/i2c.c ****   hi2c3.Instance = I2C3;
 171              		.loc 1 95 0
 172 0002 0C48     		ldr	r0, .L17
 173 0004 0C4B     		ldr	r3, .L17+4
 174 0006 0360     		str	r3, [r0]
  96:Core/Src/periphs/i2c.c ****   hi2c3.Init.ClockSpeed = 100000;
 175              		.loc 1 96 0
 176 0008 0C4B     		ldr	r3, .L17+8
 177 000a 4360     		str	r3, [r0, #4]
  97:Core/Src/periphs/i2c.c ****   hi2c3.Init.DutyCycle = I2C_DUTYCYCLE_2;
 178              		.loc 1 97 0
 179 000c 0023     		movs	r3, #0
 180 000e 8360     		str	r3, [r0, #8]
  98:Core/Src/periphs/i2c.c ****   hi2c3.Init.OwnAddress1 = 0;
 181              		.loc 1 98 0
 182 0010 C360     		str	r3, [r0, #12]
  99:Core/Src/periphs/i2c.c ****   hi2c3.Init.AddressingMode = I2C_ADDRESSINGMODE_7BIT;
 183              		.loc 1 99 0
 184 0012 4FF48042 		mov	r2, #16384
 185 0016 0261     		str	r2, [r0, #16]
 100:Core/Src/periphs/i2c.c ****   hi2c3.Init.DualAddressMode = I2C_DUALADDRESS_DISABLE;
 186              		.loc 1 100 0
 187 0018 4361     		str	r3, [r0, #20]
 101:Core/Src/periphs/i2c.c ****   hi2c3.Init.OwnAddress2 = 0;
ARM GAS  C:\Users\DELL\AppData\Local\Temp\cc1XbaSg.s 			page 6


 188              		.loc 1 101 0
 189 001a 8361     		str	r3, [r0, #24]
 102:Core/Src/periphs/i2c.c ****   hi2c3.Init.GeneralCallMode = I2C_GENERALCALL_DISABLE;
 190              		.loc 1 102 0
 191 001c C361     		str	r3, [r0, #28]
 103:Core/Src/periphs/i2c.c ****   hi2c3.Init.NoStretchMode = I2C_NOSTRETCH_DISABLE;
 192              		.loc 1 103 0
 193 001e 0362     		str	r3, [r0, #32]
 104:Core/Src/periphs/i2c.c ****   if (HAL_I2C_Init(&hi2c3) != HAL_OK)
 194              		.loc 1 104 0
 195 0020 FFF7FEFF 		bl	HAL_I2C_Init
 196              	.LVL4:
 197 0024 00B9     		cbnz	r0, .L16
 198              	.L13:
 105:Core/Src/periphs/i2c.c ****   {
 106:Core/Src/periphs/i2c.c ****     _Error_Handler(__FILE__, __LINE__);
 107:Core/Src/periphs/i2c.c ****   }
 108:Core/Src/periphs/i2c.c **** 
 109:Core/Src/periphs/i2c.c **** }
 199              		.loc 1 109 0
 200 0026 08BD     		pop	{r3, pc}
 201              	.L16:
 106:Core/Src/periphs/i2c.c ****   }
 202              		.loc 1 106 0
 203 0028 6A21     		movs	r1, #106
 204 002a 0548     		ldr	r0, .L17+12
 205 002c FFF7FEFF 		bl	_Error_Handler
 206              	.LVL5:
 207              		.loc 1 109 0
 208 0030 F9E7     		b	.L13
 209              	.L18:
 210 0032 00BF     		.align	2
 211              	.L17:
 212 0034 00000000 		.word	hi2c3
 213 0038 005C0040 		.word	1073765376
 214 003c A0860100 		.word	100000
 215 0040 00000000 		.word	.LC0
 216              		.cfi_endproc
 217              	.LFE128:
 219              		.section	.text.HAL_I2C_MspInit,"ax",%progbits
 220              		.align	1
 221              		.global	HAL_I2C_MspInit
 222              		.syntax unified
 223              		.thumb
 224              		.thumb_func
 225              		.fpu fpv4-sp-d16
 227              	HAL_I2C_MspInit:
 228              	.LFB129:
 110:Core/Src/periphs/i2c.c **** 
 111:Core/Src/periphs/i2c.c **** void HAL_I2C_MspInit(I2C_HandleTypeDef* i2cHandle)
 112:Core/Src/periphs/i2c.c **** {
 229              		.loc 1 112 0
 230              		.cfi_startproc
 231              		@ args = 0, pretend = 0, frame = 32
 232              		@ frame_needed = 0, uses_anonymous_args = 0
 233              	.LVL6:
 234 0000 F0B5     		push	{r4, r5, r6, r7, lr}
ARM GAS  C:\Users\DELL\AppData\Local\Temp\cc1XbaSg.s 			page 7


 235              	.LCFI3:
 236              		.cfi_def_cfa_offset 20
 237              		.cfi_offset 4, -20
 238              		.cfi_offset 5, -16
 239              		.cfi_offset 6, -12
 240              		.cfi_offset 7, -8
 241              		.cfi_offset 14, -4
 242 0002 89B0     		sub	sp, sp, #36
 243              	.LCFI4:
 244              		.cfi_def_cfa_offset 56
 113:Core/Src/periphs/i2c.c **** 
 114:Core/Src/periphs/i2c.c ****   GPIO_InitTypeDef GPIO_InitStruct;
 115:Core/Src/periphs/i2c.c ****   if(i2cHandle->Instance==I2C1)
 245              		.loc 1 115 0
 246 0004 0368     		ldr	r3, [r0]
 247 0006 344A     		ldr	r2, .L27
 248 0008 9342     		cmp	r3, r2
 249 000a 07D0     		beq	.L24
 116:Core/Src/periphs/i2c.c ****   {
 117:Core/Src/periphs/i2c.c ****   /* USER CODE BEGIN I2C1_MspInit 0 */
 118:Core/Src/periphs/i2c.c **** 
 119:Core/Src/periphs/i2c.c ****   /* USER CODE END I2C1_MspInit 0 */
 120:Core/Src/periphs/i2c.c ****   
 121:Core/Src/periphs/i2c.c ****     /**I2C1 GPIO Configuration    
 122:Core/Src/periphs/i2c.c ****     PB6     ------> I2C1_SCL
 123:Core/Src/periphs/i2c.c ****     PB7     ------> I2C1_SDA 
 124:Core/Src/periphs/i2c.c ****     */
 125:Core/Src/periphs/i2c.c ****     GPIO_InitStruct.Pin = GPIO_PIN_6|GPIO_PIN_7;
 126:Core/Src/periphs/i2c.c ****     GPIO_InitStruct.Mode = GPIO_MODE_AF_OD;
 127:Core/Src/periphs/i2c.c ****     GPIO_InitStruct.Pull = GPIO_PULLUP;
 128:Core/Src/periphs/i2c.c ****     GPIO_InitStruct.Speed = GPIO_SPEED_FREQ_VERY_HIGH;
 129:Core/Src/periphs/i2c.c ****     GPIO_InitStruct.Alternate = GPIO_AF4_I2C1;
 130:Core/Src/periphs/i2c.c ****     HAL_GPIO_Init(GPIOB, &GPIO_InitStruct);
 131:Core/Src/periphs/i2c.c **** 
 132:Core/Src/periphs/i2c.c ****     /* I2C1 clock enable */
 133:Core/Src/periphs/i2c.c ****     __HAL_RCC_I2C1_CLK_ENABLE();
 134:Core/Src/periphs/i2c.c ****   /* USER CODE BEGIN I2C1_MspInit 1 */
 135:Core/Src/periphs/i2c.c **** 
 136:Core/Src/periphs/i2c.c ****   /* USER CODE END I2C1_MspInit 1 */
 137:Core/Src/periphs/i2c.c ****   }
 138:Core/Src/periphs/i2c.c ****   else if(i2cHandle->Instance==I2C2)
 250              		.loc 1 138 0
 251 000c 334A     		ldr	r2, .L27+4
 252 000e 9342     		cmp	r3, r2
 253 0010 1FD0     		beq	.L25
 139:Core/Src/periphs/i2c.c ****   {
 140:Core/Src/periphs/i2c.c ****   /* USER CODE BEGIN I2C2_MspInit 0 */
 141:Core/Src/periphs/i2c.c **** 
 142:Core/Src/periphs/i2c.c ****   /* USER CODE END I2C2_MspInit 0 */
 143:Core/Src/periphs/i2c.c ****   
 144:Core/Src/periphs/i2c.c ****     /**I2C2 GPIO Configuration    
 145:Core/Src/periphs/i2c.c ****     PB10     ------> I2C2_SCL
 146:Core/Src/periphs/i2c.c ****     PB11     ------> I2C2_SDA 
 147:Core/Src/periphs/i2c.c ****     */
 148:Core/Src/periphs/i2c.c ****     GPIO_InitStruct.Pin = GPIO_PIN_10|GPIO_PIN_11;
 149:Core/Src/periphs/i2c.c ****     GPIO_InitStruct.Mode = GPIO_MODE_AF_OD;
 150:Core/Src/periphs/i2c.c ****     GPIO_InitStruct.Pull = GPIO_PULLUP;
ARM GAS  C:\Users\DELL\AppData\Local\Temp\cc1XbaSg.s 			page 8


 151:Core/Src/periphs/i2c.c ****     GPIO_InitStruct.Speed = GPIO_SPEED_FREQ_VERY_HIGH;
 152:Core/Src/periphs/i2c.c ****     GPIO_InitStruct.Alternate = GPIO_AF4_I2C2;
 153:Core/Src/periphs/i2c.c ****     HAL_GPIO_Init(GPIOB, &GPIO_InitStruct);
 154:Core/Src/periphs/i2c.c **** 
 155:Core/Src/periphs/i2c.c ****     /* I2C2 clock enable */
 156:Core/Src/periphs/i2c.c ****     __HAL_RCC_I2C2_CLK_ENABLE();
 157:Core/Src/periphs/i2c.c ****   /* USER CODE BEGIN I2C2_MspInit 1 */
 158:Core/Src/periphs/i2c.c **** 
 159:Core/Src/periphs/i2c.c ****   /* USER CODE END I2C2_MspInit 1 */
 160:Core/Src/periphs/i2c.c ****   }
 161:Core/Src/periphs/i2c.c ****   else if(i2cHandle->Instance==I2C3)
 254              		.loc 1 161 0
 255 0012 334A     		ldr	r2, .L27+8
 256 0014 9342     		cmp	r3, r2
 257 0016 38D0     		beq	.L26
 258              	.LVL7:
 259              	.L19:
 162:Core/Src/periphs/i2c.c ****   {
 163:Core/Src/periphs/i2c.c ****   /* USER CODE BEGIN I2C3_MspInit 0 */
 164:Core/Src/periphs/i2c.c **** 
 165:Core/Src/periphs/i2c.c ****   /* USER CODE END I2C3_MspInit 0 */
 166:Core/Src/periphs/i2c.c ****   
 167:Core/Src/periphs/i2c.c ****     /**I2C3 GPIO Configuration    
 168:Core/Src/periphs/i2c.c ****     PC9     ------> I2C3_SDA
 169:Core/Src/periphs/i2c.c ****     PA8     ------> I2C3_SCL 
 170:Core/Src/periphs/i2c.c ****     */
 171:Core/Src/periphs/i2c.c ****     GPIO_InitStruct.Pin = GPIO_PIN_9;
 172:Core/Src/periphs/i2c.c ****     GPIO_InitStruct.Mode = GPIO_MODE_AF_OD;
 173:Core/Src/periphs/i2c.c ****     GPIO_InitStruct.Pull = GPIO_PULLUP;
 174:Core/Src/periphs/i2c.c ****     GPIO_InitStruct.Speed = GPIO_SPEED_FREQ_VERY_HIGH;
 175:Core/Src/periphs/i2c.c ****     GPIO_InitStruct.Alternate = GPIO_AF4_I2C3;
 176:Core/Src/periphs/i2c.c ****     HAL_GPIO_Init(GPIOC, &GPIO_InitStruct);
 177:Core/Src/periphs/i2c.c **** 
 178:Core/Src/periphs/i2c.c ****     GPIO_InitStruct.Pin = GPIO_PIN_8;
 179:Core/Src/periphs/i2c.c ****     GPIO_InitStruct.Mode = GPIO_MODE_AF_OD;
 180:Core/Src/periphs/i2c.c ****     GPIO_InitStruct.Pull = GPIO_PULLUP;
 181:Core/Src/periphs/i2c.c ****     GPIO_InitStruct.Speed = GPIO_SPEED_FREQ_VERY_HIGH;
 182:Core/Src/periphs/i2c.c ****     GPIO_InitStruct.Alternate = GPIO_AF4_I2C3;
 183:Core/Src/periphs/i2c.c ****     HAL_GPIO_Init(GPIOA, &GPIO_InitStruct);
 184:Core/Src/periphs/i2c.c **** 
 185:Core/Src/periphs/i2c.c ****     /* I2C3 clock enable */
 186:Core/Src/periphs/i2c.c ****     __HAL_RCC_I2C3_CLK_ENABLE();
 187:Core/Src/periphs/i2c.c ****   /* USER CODE BEGIN I2C3_MspInit 1 */
 188:Core/Src/periphs/i2c.c **** 
 189:Core/Src/periphs/i2c.c ****   /* USER CODE END I2C3_MspInit 1 */
 190:Core/Src/periphs/i2c.c ****   }
 191:Core/Src/periphs/i2c.c **** }
 260              		.loc 1 191 0
 261 0018 09B0     		add	sp, sp, #36
 262              	.LCFI5:
 263              		.cfi_remember_state
 264              		.cfi_def_cfa_offset 20
 265              		@ sp needed
 266 001a F0BD     		pop	{r4, r5, r6, r7, pc}
 267              	.LVL8:
 268              	.L24:
 269              	.LCFI6:
ARM GAS  C:\Users\DELL\AppData\Local\Temp\cc1XbaSg.s 			page 9


 270              		.cfi_restore_state
 125:Core/Src/periphs/i2c.c ****     GPIO_InitStruct.Mode = GPIO_MODE_AF_OD;
 271              		.loc 1 125 0
 272 001c C023     		movs	r3, #192
 273 001e 0393     		str	r3, [sp, #12]
 126:Core/Src/periphs/i2c.c ****     GPIO_InitStruct.Pull = GPIO_PULLUP;
 274              		.loc 1 126 0
 275 0020 1223     		movs	r3, #18
 276 0022 0493     		str	r3, [sp, #16]
 127:Core/Src/periphs/i2c.c ****     GPIO_InitStruct.Speed = GPIO_SPEED_FREQ_VERY_HIGH;
 277              		.loc 1 127 0
 278 0024 0123     		movs	r3, #1
 279 0026 0593     		str	r3, [sp, #20]
 128:Core/Src/periphs/i2c.c ****     GPIO_InitStruct.Alternate = GPIO_AF4_I2C1;
 280              		.loc 1 128 0
 281 0028 0323     		movs	r3, #3
 282 002a 0693     		str	r3, [sp, #24]
 129:Core/Src/periphs/i2c.c ****     HAL_GPIO_Init(GPIOB, &GPIO_InitStruct);
 283              		.loc 1 129 0
 284 002c 0423     		movs	r3, #4
 285 002e 0793     		str	r3, [sp, #28]
 130:Core/Src/periphs/i2c.c **** 
 286              		.loc 1 130 0
 287 0030 03A9     		add	r1, sp, #12
 288 0032 2C48     		ldr	r0, .L27+12
 289              	.LVL9:
 290 0034 FFF7FEFF 		bl	HAL_GPIO_Init
 291              	.LVL10:
 292              	.LBB2:
 133:Core/Src/periphs/i2c.c ****   /* USER CODE BEGIN I2C1_MspInit 1 */
 293              		.loc 1 133 0
 294 0038 0023     		movs	r3, #0
 295 003a 0093     		str	r3, [sp]
 296 003c 2A4B     		ldr	r3, .L27+16
 297 003e 1A6C     		ldr	r2, [r3, #64]
 298 0040 42F40012 		orr	r2, r2, #2097152
 299 0044 1A64     		str	r2, [r3, #64]
 300 0046 1B6C     		ldr	r3, [r3, #64]
 301 0048 03F40013 		and	r3, r3, #2097152
 302 004c 0093     		str	r3, [sp]
 303 004e 009B     		ldr	r3, [sp]
 304              	.LBE2:
 305 0050 E2E7     		b	.L19
 306              	.LVL11:
 307              	.L25:
 148:Core/Src/periphs/i2c.c ****     GPIO_InitStruct.Mode = GPIO_MODE_AF_OD;
 308              		.loc 1 148 0
 309 0052 4FF44063 		mov	r3, #3072
 310 0056 0393     		str	r3, [sp, #12]
 149:Core/Src/periphs/i2c.c ****     GPIO_InitStruct.Pull = GPIO_PULLUP;
 311              		.loc 1 149 0
 312 0058 1223     		movs	r3, #18
 313 005a 0493     		str	r3, [sp, #16]
 150:Core/Src/periphs/i2c.c ****     GPIO_InitStruct.Speed = GPIO_SPEED_FREQ_VERY_HIGH;
 314              		.loc 1 150 0
 315 005c 0123     		movs	r3, #1
 316 005e 0593     		str	r3, [sp, #20]
ARM GAS  C:\Users\DELL\AppData\Local\Temp\cc1XbaSg.s 			page 10


 151:Core/Src/periphs/i2c.c ****     GPIO_InitStruct.Alternate = GPIO_AF4_I2C2;
 317              		.loc 1 151 0
 318 0060 0323     		movs	r3, #3
 319 0062 0693     		str	r3, [sp, #24]
 152:Core/Src/periphs/i2c.c ****     HAL_GPIO_Init(GPIOB, &GPIO_InitStruct);
 320              		.loc 1 152 0
 321 0064 0423     		movs	r3, #4
 322 0066 0793     		str	r3, [sp, #28]
 153:Core/Src/periphs/i2c.c **** 
 323              		.loc 1 153 0
 324 0068 03A9     		add	r1, sp, #12
 325 006a 1E48     		ldr	r0, .L27+12
 326              	.LVL12:
 327 006c FFF7FEFF 		bl	HAL_GPIO_Init
 328              	.LVL13:
 329              	.LBB3:
 156:Core/Src/periphs/i2c.c ****   /* USER CODE BEGIN I2C2_MspInit 1 */
 330              		.loc 1 156 0
 331 0070 0023     		movs	r3, #0
 332 0072 0193     		str	r3, [sp, #4]
 333 0074 1C4B     		ldr	r3, .L27+16
 334 0076 1A6C     		ldr	r2, [r3, #64]
 335 0078 42F48002 		orr	r2, r2, #4194304
 336 007c 1A64     		str	r2, [r3, #64]
 337 007e 1B6C     		ldr	r3, [r3, #64]
 338 0080 03F48003 		and	r3, r3, #4194304
 339 0084 0193     		str	r3, [sp, #4]
 340 0086 019B     		ldr	r3, [sp, #4]
 341              	.LBE3:
 342 0088 C6E7     		b	.L19
 343              	.LVL14:
 344              	.L26:
 171:Core/Src/periphs/i2c.c ****     GPIO_InitStruct.Mode = GPIO_MODE_AF_OD;
 345              		.loc 1 171 0
 346 008a 4FF40073 		mov	r3, #512
 347 008e 0393     		str	r3, [sp, #12]
 172:Core/Src/periphs/i2c.c ****     GPIO_InitStruct.Pull = GPIO_PULLUP;
 348              		.loc 1 172 0
 349 0090 1227     		movs	r7, #18
 350 0092 0497     		str	r7, [sp, #16]
 173:Core/Src/periphs/i2c.c ****     GPIO_InitStruct.Speed = GPIO_SPEED_FREQ_VERY_HIGH;
 351              		.loc 1 173 0
 352 0094 0126     		movs	r6, #1
 353 0096 0596     		str	r6, [sp, #20]
 174:Core/Src/periphs/i2c.c ****     GPIO_InitStruct.Alternate = GPIO_AF4_I2C3;
 354              		.loc 1 174 0
 355 0098 0325     		movs	r5, #3
 356 009a 0695     		str	r5, [sp, #24]
 175:Core/Src/periphs/i2c.c ****     HAL_GPIO_Init(GPIOC, &GPIO_InitStruct);
 357              		.loc 1 175 0
 358 009c 0424     		movs	r4, #4
 359 009e 0794     		str	r4, [sp, #28]
 176:Core/Src/periphs/i2c.c **** 
 360              		.loc 1 176 0
 361 00a0 03A9     		add	r1, sp, #12
 362 00a2 1248     		ldr	r0, .L27+20
 363              	.LVL15:
ARM GAS  C:\Users\DELL\AppData\Local\Temp\cc1XbaSg.s 			page 11


 364 00a4 FFF7FEFF 		bl	HAL_GPIO_Init
 365              	.LVL16:
 178:Core/Src/periphs/i2c.c ****     GPIO_InitStruct.Mode = GPIO_MODE_AF_OD;
 366              		.loc 1 178 0
 367 00a8 4FF48073 		mov	r3, #256
 368 00ac 0393     		str	r3, [sp, #12]
 179:Core/Src/periphs/i2c.c ****     GPIO_InitStruct.Pull = GPIO_PULLUP;
 369              		.loc 1 179 0
 370 00ae 0497     		str	r7, [sp, #16]
 180:Core/Src/periphs/i2c.c ****     GPIO_InitStruct.Speed = GPIO_SPEED_FREQ_VERY_HIGH;
 371              		.loc 1 180 0
 372 00b0 0596     		str	r6, [sp, #20]
 181:Core/Src/periphs/i2c.c ****     GPIO_InitStruct.Alternate = GPIO_AF4_I2C3;
 373              		.loc 1 181 0
 374 00b2 0695     		str	r5, [sp, #24]
 182:Core/Src/periphs/i2c.c ****     HAL_GPIO_Init(GPIOA, &GPIO_InitStruct);
 375              		.loc 1 182 0
 376 00b4 0794     		str	r4, [sp, #28]
 183:Core/Src/periphs/i2c.c **** 
 377              		.loc 1 183 0
 378 00b6 03A9     		add	r1, sp, #12
 379 00b8 0D48     		ldr	r0, .L27+24
 380 00ba FFF7FEFF 		bl	HAL_GPIO_Init
 381              	.LVL17:
 382              	.LBB4:
 186:Core/Src/periphs/i2c.c ****   /* USER CODE BEGIN I2C3_MspInit 1 */
 383              		.loc 1 186 0
 384 00be 0023     		movs	r3, #0
 385 00c0 0293     		str	r3, [sp, #8]
 386 00c2 094B     		ldr	r3, .L27+16
 387 00c4 1A6C     		ldr	r2, [r3, #64]
 388 00c6 42F40002 		orr	r2, r2, #8388608
 389 00ca 1A64     		str	r2, [r3, #64]
 390 00cc 1B6C     		ldr	r3, [r3, #64]
 391 00ce 03F40003 		and	r3, r3, #8388608
 392 00d2 0293     		str	r3, [sp, #8]
 393 00d4 029B     		ldr	r3, [sp, #8]
 394              	.LBE4:
 395              		.loc 1 191 0
 396 00d6 9FE7     		b	.L19
 397              	.L28:
 398              		.align	2
 399              	.L27:
 400 00d8 00540040 		.word	1073763328
 401 00dc 00580040 		.word	1073764352
 402 00e0 005C0040 		.word	1073765376
 403 00e4 00040240 		.word	1073873920
 404 00e8 00380240 		.word	1073887232
 405 00ec 00080240 		.word	1073874944
 406 00f0 00000240 		.word	1073872896
 407              		.cfi_endproc
 408              	.LFE129:
 410              		.section	.text.HAL_I2C_MspDeInit,"ax",%progbits
 411              		.align	1
 412              		.global	HAL_I2C_MspDeInit
 413              		.syntax unified
 414              		.thumb
ARM GAS  C:\Users\DELL\AppData\Local\Temp\cc1XbaSg.s 			page 12


 415              		.thumb_func
 416              		.fpu fpv4-sp-d16
 418              	HAL_I2C_MspDeInit:
 419              	.LFB130:
 192:Core/Src/periphs/i2c.c **** 
 193:Core/Src/periphs/i2c.c **** void HAL_I2C_MspDeInit(I2C_HandleTypeDef* i2cHandle)
 194:Core/Src/periphs/i2c.c **** {
 420              		.loc 1 194 0
 421              		.cfi_startproc
 422              		@ args = 0, pretend = 0, frame = 0
 423              		@ frame_needed = 0, uses_anonymous_args = 0
 424              	.LVL18:
 425 0000 08B5     		push	{r3, lr}
 426              	.LCFI7:
 427              		.cfi_def_cfa_offset 8
 428              		.cfi_offset 3, -8
 429              		.cfi_offset 14, -4
 195:Core/Src/periphs/i2c.c **** 
 196:Core/Src/periphs/i2c.c ****   if(i2cHandle->Instance==I2C1)
 430              		.loc 1 196 0
 431 0002 0368     		ldr	r3, [r0]
 432 0004 184A     		ldr	r2, .L37
 433 0006 9342     		cmp	r3, r2
 434 0008 06D0     		beq	.L34
 197:Core/Src/periphs/i2c.c ****   {
 198:Core/Src/periphs/i2c.c ****   /* USER CODE BEGIN I2C1_MspDeInit 0 */
 199:Core/Src/periphs/i2c.c **** 
 200:Core/Src/periphs/i2c.c ****   /* USER CODE END I2C1_MspDeInit 0 */
 201:Core/Src/periphs/i2c.c ****     /* Peripheral clock disable */
 202:Core/Src/periphs/i2c.c ****     __HAL_RCC_I2C1_CLK_DISABLE();
 203:Core/Src/periphs/i2c.c ****   
 204:Core/Src/periphs/i2c.c ****     /**I2C1 GPIO Configuration    
 205:Core/Src/periphs/i2c.c ****     PB6     ------> I2C1_SCL
 206:Core/Src/periphs/i2c.c ****     PB7     ------> I2C1_SDA 
 207:Core/Src/periphs/i2c.c ****     */
 208:Core/Src/periphs/i2c.c ****     HAL_GPIO_DeInit(GPIOB, GPIO_PIN_6|GPIO_PIN_7);
 209:Core/Src/periphs/i2c.c **** 
 210:Core/Src/periphs/i2c.c ****   /* USER CODE BEGIN I2C1_MspDeInit 1 */
 211:Core/Src/periphs/i2c.c **** 
 212:Core/Src/periphs/i2c.c ****   /* USER CODE END I2C1_MspDeInit 1 */
 213:Core/Src/periphs/i2c.c ****   }
 214:Core/Src/periphs/i2c.c ****   else if(i2cHandle->Instance==I2C2)
 435              		.loc 1 214 0
 436 000a 184A     		ldr	r2, .L37+4
 437 000c 9342     		cmp	r3, r2
 438 000e 0ED0     		beq	.L35
 215:Core/Src/periphs/i2c.c ****   {
 216:Core/Src/periphs/i2c.c ****   /* USER CODE BEGIN I2C2_MspDeInit 0 */
 217:Core/Src/periphs/i2c.c **** 
 218:Core/Src/periphs/i2c.c ****   /* USER CODE END I2C2_MspDeInit 0 */
 219:Core/Src/periphs/i2c.c ****     /* Peripheral clock disable */
 220:Core/Src/periphs/i2c.c ****     __HAL_RCC_I2C2_CLK_DISABLE();
 221:Core/Src/periphs/i2c.c ****   
 222:Core/Src/periphs/i2c.c ****     /**I2C2 GPIO Configuration    
 223:Core/Src/periphs/i2c.c ****     PB10     ------> I2C2_SCL
 224:Core/Src/periphs/i2c.c ****     PB11     ------> I2C2_SDA 
 225:Core/Src/periphs/i2c.c ****     */
ARM GAS  C:\Users\DELL\AppData\Local\Temp\cc1XbaSg.s 			page 13


 226:Core/Src/periphs/i2c.c ****     HAL_GPIO_DeInit(GPIOB, GPIO_PIN_10|GPIO_PIN_11);
 227:Core/Src/periphs/i2c.c **** 
 228:Core/Src/periphs/i2c.c ****   /* USER CODE BEGIN I2C2_MspDeInit 1 */
 229:Core/Src/periphs/i2c.c **** 
 230:Core/Src/periphs/i2c.c ****   /* USER CODE END I2C2_MspDeInit 1 */
 231:Core/Src/periphs/i2c.c ****   }
 232:Core/Src/periphs/i2c.c ****   else if(i2cHandle->Instance==I2C3)
 439              		.loc 1 232 0
 440 0010 174A     		ldr	r2, .L37+8
 441 0012 9342     		cmp	r3, r2
 442 0014 17D0     		beq	.L36
 443              	.LVL19:
 444              	.L29:
 233:Core/Src/periphs/i2c.c ****   {
 234:Core/Src/periphs/i2c.c ****   /* USER CODE BEGIN I2C3_MspDeInit 0 */
 235:Core/Src/periphs/i2c.c **** 
 236:Core/Src/periphs/i2c.c ****   /* USER CODE END I2C3_MspDeInit 0 */
 237:Core/Src/periphs/i2c.c ****     /* Peripheral clock disable */
 238:Core/Src/periphs/i2c.c ****     __HAL_RCC_I2C3_CLK_DISABLE();
 239:Core/Src/periphs/i2c.c ****   
 240:Core/Src/periphs/i2c.c ****     /**I2C3 GPIO Configuration    
 241:Core/Src/periphs/i2c.c ****     PC9     ------> I2C3_SDA
 242:Core/Src/periphs/i2c.c ****     PA8     ------> I2C3_SCL 
 243:Core/Src/periphs/i2c.c ****     */
 244:Core/Src/periphs/i2c.c ****     HAL_GPIO_DeInit(GPIOC, GPIO_PIN_9);
 245:Core/Src/periphs/i2c.c **** 
 246:Core/Src/periphs/i2c.c ****     HAL_GPIO_DeInit(GPIOA, GPIO_PIN_8);
 247:Core/Src/periphs/i2c.c **** 
 248:Core/Src/periphs/i2c.c ****   /* USER CODE BEGIN I2C3_MspDeInit 1 */
 249:Core/Src/periphs/i2c.c **** 
 250:Core/Src/periphs/i2c.c ****   /* USER CODE END I2C3_MspDeInit 1 */
 251:Core/Src/periphs/i2c.c ****   }
 252:Core/Src/periphs/i2c.c **** } 
 445              		.loc 1 252 0
 446 0016 08BD     		pop	{r3, pc}
 447              	.LVL20:
 448              	.L34:
 202:Core/Src/periphs/i2c.c ****   
 449              		.loc 1 202 0
 450 0018 02F5F232 		add	r2, r2, #123904
 451 001c 136C     		ldr	r3, [r2, #64]
 452 001e 23F40013 		bic	r3, r3, #2097152
 453 0022 1364     		str	r3, [r2, #64]
 208:Core/Src/periphs/i2c.c **** 
 454              		.loc 1 208 0
 455 0024 C021     		movs	r1, #192
 456 0026 1348     		ldr	r0, .L37+12
 457              	.LVL21:
 458 0028 FFF7FEFF 		bl	HAL_GPIO_DeInit
 459              	.LVL22:
 460 002c F3E7     		b	.L29
 461              	.LVL23:
 462              	.L35:
 220:Core/Src/periphs/i2c.c ****   
 463              		.loc 1 220 0
 464 002e 02F5F032 		add	r2, r2, #122880
 465 0032 136C     		ldr	r3, [r2, #64]
ARM GAS  C:\Users\DELL\AppData\Local\Temp\cc1XbaSg.s 			page 14


 466 0034 23F48003 		bic	r3, r3, #4194304
 467 0038 1364     		str	r3, [r2, #64]
 226:Core/Src/periphs/i2c.c **** 
 468              		.loc 1 226 0
 469 003a 4FF44061 		mov	r1, #3072
 470 003e 0D48     		ldr	r0, .L37+12
 471              	.LVL24:
 472 0040 FFF7FEFF 		bl	HAL_GPIO_DeInit
 473              	.LVL25:
 474 0044 E7E7     		b	.L29
 475              	.LVL26:
 476              	.L36:
 238:Core/Src/periphs/i2c.c ****   
 477              		.loc 1 238 0
 478 0046 02F5EE32 		add	r2, r2, #121856
 479 004a 136C     		ldr	r3, [r2, #64]
 480 004c 23F40003 		bic	r3, r3, #8388608
 481 0050 1364     		str	r3, [r2, #64]
 244:Core/Src/periphs/i2c.c **** 
 482              		.loc 1 244 0
 483 0052 4FF40071 		mov	r1, #512
 484 0056 0848     		ldr	r0, .L37+16
 485              	.LVL27:
 486 0058 FFF7FEFF 		bl	HAL_GPIO_DeInit
 487              	.LVL28:
 246:Core/Src/periphs/i2c.c **** 
 488              		.loc 1 246 0
 489 005c 4FF48071 		mov	r1, #256
 490 0060 0648     		ldr	r0, .L37+20
 491 0062 FFF7FEFF 		bl	HAL_GPIO_DeInit
 492              	.LVL29:
 493              		.loc 1 252 0
 494 0066 D6E7     		b	.L29
 495              	.L38:
 496              		.align	2
 497              	.L37:
 498 0068 00540040 		.word	1073763328
 499 006c 00580040 		.word	1073764352
 500 0070 005C0040 		.word	1073765376
 501 0074 00040240 		.word	1073873920
 502 0078 00080240 		.word	1073874944
 503 007c 00000240 		.word	1073872896
 504              		.cfi_endproc
 505              	.LFE130:
 507              		.comm	hi2c3,84,4
 508              		.comm	hi2c2,84,4
 509              		.comm	hi2c1,84,4
 510              		.section	.rodata.MX_I2C1_Init.str1.4,"aMS",%progbits,1
 511              		.align	2
 512              	.LC0:
 513 0000 436F7265 		.ascii	"Core/Src/periphs/i2c.c\000"
 513      2F537263 
 513      2F706572 
 513      69706873 
 513      2F693263 
 514              		.text
 515              	.Letext0:
ARM GAS  C:\Users\DELL\AppData\Local\Temp\cc1XbaSg.s 			page 15


 516              		.file 2 "c:\\program files (x86)\\gnu tools arm embedded\\7 2017-q4-major\\arm-none-eabi\\include\
 517              		.file 3 "c:\\program files (x86)\\gnu tools arm embedded\\7 2017-q4-major\\arm-none-eabi\\include\
 518              		.file 4 "C:/Users/DELL/STM32Cube/Repository/STM32Cube_FW_F4_V1.21.0/Drivers/CMSIS/Include/core_cm4
 519              		.file 5 "C:/Users/DELL/STM32Cube/Repository/STM32Cube_FW_F4_V1.21.0/Drivers/CMSIS/Device/ST/STM32F
 520              		.file 6 "C:/Users/DELL/STM32Cube/Repository/STM32Cube_FW_F4_V1.21.0/Drivers/CMSIS/Device/ST/STM32F
 521              		.file 7 "c:\\program files (x86)\\gnu tools arm embedded\\7 2017-q4-major\\arm-none-eabi\\include\
 522              		.file 8 "c:\\program files (x86)\\gnu tools arm embedded\\7 2017-q4-major\\arm-none-eabi\\include\
 523              		.file 9 "c:\\program files (x86)\\gnu tools arm embedded\\7 2017-q4-major\\lib\\gcc\\arm-none-eabi
 524              		.file 10 "c:\\program files (x86)\\gnu tools arm embedded\\7 2017-q4-major\\arm-none-eabi\\include
 525              		.file 11 "C:/Users/DELL/STM32Cube/Repository/STM32Cube_FW_F4_V1.21.0/Drivers/STM32F4xx_HAL_Driver/
 526              		.file 12 "C:/Users/DELL/STM32Cube/Repository/STM32Cube_FW_F4_V1.21.0/Drivers/STM32F4xx_HAL_Driver/
 527              		.file 13 "C:/Users/DELL/STM32Cube/Repository/STM32Cube_FW_F4_V1.21.0/Drivers/STM32F4xx_HAL_Driver/
 528              		.file 14 "C:/Users/DELL/STM32Cube/Repository/STM32Cube_FW_F4_V1.21.0/Drivers/STM32F4xx_HAL_Driver/
 529              		.file 15 "Core/Inc\\periphs/i2c.h"
ARM GAS  C:\Users\DELL\AppData\Local\Temp\cc1XbaSg.s 			page 16

