ARM GAS  C:\Users\DELL\AppData\Local\Temp\cckvhOFi.s 			page 1


   1              		.cpu cortex-m4
   2              		.eabi_attribute 27, 1
   3              		.eabi_attribute 28, 1
   4              		.eabi_attribute 20, 1
   5              		.eabi_attribute 21, 1
   6              		.eabi_attribute 23, 3
   7              		.eabi_attribute 24, 1
   8              		.eabi_attribute 25, 1
   9              		.eabi_attribute 26, 1
  10              		.eabi_attribute 30, 1
  11              		.eabi_attribute 34, 1
  12              		.eabi_attribute 18, 4
  13              		.file	"tim.c"
  14              		.text
  15              	.Ltext0:
  16              		.cfi_sections	.debug_frame
  17              		.section	.text.MX_TIM2_Init,"ax",%progbits
  18              		.align	1
  19              		.global	MX_TIM2_Init
  20              		.syntax unified
  21              		.thumb
  22              		.thumb_func
  23              		.fpu fpv4-sp-d16
  25              	MX_TIM2_Init:
  26              	.LFB126:
  27              		.file 1 "Core/Src/periphs/tim.c"
   1:Core/Src/periphs/tim.c **** /**
   2:Core/Src/periphs/tim.c ****   ******************************************************************************
   3:Core/Src/periphs/tim.c ****   * File Name          : TIM.c
   4:Core/Src/periphs/tim.c ****   * Description        : This file provides code for the configuration
   5:Core/Src/periphs/tim.c ****   *                      of the TIM instances.
   6:Core/Src/periphs/tim.c ****   ******************************************************************************
   7:Core/Src/periphs/tim.c ****   ** This notice applies to any and all portions of this file
   8:Core/Src/periphs/tim.c ****   * that are not between comment pairs USER CODE BEGIN and
   9:Core/Src/periphs/tim.c ****   * USER CODE END. Other portions of this file, whether 
  10:Core/Src/periphs/tim.c ****   * inserted by the user or by software development tools
  11:Core/Src/periphs/tim.c ****   * are owned by their respective copyright owners.
  12:Core/Src/periphs/tim.c ****   *
  13:Core/Src/periphs/tim.c ****   * COPYRIGHT(c) 2018 STMicroelectronics
  14:Core/Src/periphs/tim.c ****   *
  15:Core/Src/periphs/tim.c ****   * Redistribution and use in source and binary forms, with or without modification,
  16:Core/Src/periphs/tim.c ****   * are permitted provided that the following conditions are met:
  17:Core/Src/periphs/tim.c ****   *   1. Redistributions of source code must retain the above copyright notice,
  18:Core/Src/periphs/tim.c ****   *      this list of conditions and the following disclaimer.
  19:Core/Src/periphs/tim.c ****   *   2. Redistributions in binary form must reproduce the above copyright notice,
  20:Core/Src/periphs/tim.c ****   *      this list of conditions and the following disclaimer in the documentation
  21:Core/Src/periphs/tim.c ****   *      and/or other materials provided with the distribution.
  22:Core/Src/periphs/tim.c ****   *   3. Neither the name of STMicroelectronics nor the names of its contributors
  23:Core/Src/periphs/tim.c ****   *      may be used to endorse or promote products derived from this software
  24:Core/Src/periphs/tim.c ****   *      without specific prior written permission.
  25:Core/Src/periphs/tim.c ****   *
  26:Core/Src/periphs/tim.c ****   * THIS SOFTWARE IS PROVIDED BY THE COPYRIGHT HOLDERS AND CONTRIBUTORS "AS IS"
  27:Core/Src/periphs/tim.c ****   * AND ANY EXPRESS OR IMPLIED WARRANTIES, INCLUDING, BUT NOT LIMITED TO, THE
  28:Core/Src/periphs/tim.c ****   * IMPLIED WARRANTIES OF MERCHANTABILITY AND FITNESS FOR A PARTICULAR PURPOSE ARE
  29:Core/Src/periphs/tim.c ****   * DISCLAIMED. IN NO EVENT SHALL THE COPYRIGHT HOLDER OR CONTRIBUTORS BE LIABLE
  30:Core/Src/periphs/tim.c ****   * FOR ANY DIRECT, INDIRECT, INCIDENTAL, SPECIAL, EXEMPLARY, OR CONSEQUENTIAL
  31:Core/Src/periphs/tim.c ****   * DAMAGES (INCLUDING, BUT NOT LIMITED TO, PROCUREMENT OF SUBSTITUTE GOODS OR
ARM GAS  C:\Users\DELL\AppData\Local\Temp\cckvhOFi.s 			page 2


  32:Core/Src/periphs/tim.c ****   * SERVICES; LOSS OF USE, DATA, OR PROFITS; OR BUSINESS INTERRUPTION) HOWEVER
  33:Core/Src/periphs/tim.c ****   * CAUSED AND ON ANY THEORY OF LIABILITY, WHETHER IN CONTRACT, STRICT LIABILITY,
  34:Core/Src/periphs/tim.c ****   * OR TORT (INCLUDING NEGLIGENCE OR OTHERWISE) ARISING IN ANY WAY OUT OF THE USE
  35:Core/Src/periphs/tim.c ****   * OF THIS SOFTWARE, EVEN IF ADVISED OF THE POSSIBILITY OF SUCH DAMAGE.
  36:Core/Src/periphs/tim.c ****   *
  37:Core/Src/periphs/tim.c ****   ******************************************************************************
  38:Core/Src/periphs/tim.c ****   */
  39:Core/Src/periphs/tim.c **** 
  40:Core/Src/periphs/tim.c **** /* Includes ------------------------------------------------------------------*/
  41:Core/Src/periphs/tim.c **** #include "tim.h"
  42:Core/Src/periphs/tim.c **** 
  43:Core/Src/periphs/tim.c **** /* USER CODE BEGIN 0 */
  44:Core/Src/periphs/tim.c **** 
  45:Core/Src/periphs/tim.c **** /* USER CODE END 0 */
  46:Core/Src/periphs/tim.c **** 
  47:Core/Src/periphs/tim.c **** TIM_HandleTypeDef htim2;
  48:Core/Src/periphs/tim.c **** TIM_HandleTypeDef htim4;
  49:Core/Src/periphs/tim.c **** 
  50:Core/Src/periphs/tim.c **** /* TIM2 init function */
  51:Core/Src/periphs/tim.c **** void MX_TIM2_Init(void)
  52:Core/Src/periphs/tim.c **** {
  28              		.loc 1 52 0
  29              		.cfi_startproc
  30              		@ args = 0, pretend = 0, frame = 24
  31              		@ frame_needed = 0, uses_anonymous_args = 0
  32 0000 00B5     		push	{lr}
  33              	.LCFI0:
  34              		.cfi_def_cfa_offset 4
  35              		.cfi_offset 14, -4
  36 0002 87B0     		sub	sp, sp, #28
  37              	.LCFI1:
  38              		.cfi_def_cfa_offset 32
  53:Core/Src/periphs/tim.c ****   TIM_ClockConfigTypeDef sClockSourceConfig;
  54:Core/Src/periphs/tim.c ****   TIM_MasterConfigTypeDef sMasterConfig;
  55:Core/Src/periphs/tim.c **** 
  56:Core/Src/periphs/tim.c ****   htim2.Instance = TIM2;
  39              		.loc 1 56 0
  40 0004 1748     		ldr	r0, .L9
  41 0006 4FF08043 		mov	r3, #1073741824
  42 000a 0360     		str	r3, [r0]
  57:Core/Src/periphs/tim.c ****   htim2.Init.Prescaler = 0;
  43              		.loc 1 57 0
  44 000c 0023     		movs	r3, #0
  45 000e 4360     		str	r3, [r0, #4]
  58:Core/Src/periphs/tim.c ****   htim2.Init.CounterMode = TIM_COUNTERMODE_UP;
  46              		.loc 1 58 0
  47 0010 8360     		str	r3, [r0, #8]
  59:Core/Src/periphs/tim.c ****   htim2.Init.Period = 83;
  48              		.loc 1 59 0
  49 0012 5322     		movs	r2, #83
  50 0014 C260     		str	r2, [r0, #12]
  60:Core/Src/periphs/tim.c ****   htim2.Init.ClockDivision = TIM_CLOCKDIVISION_DIV1;
  51              		.loc 1 60 0
  52 0016 0361     		str	r3, [r0, #16]
  61:Core/Src/periphs/tim.c ****   if (HAL_TIM_Base_Init(&htim2) != HAL_OK)
  53              		.loc 1 61 0
  54 0018 FFF7FEFF 		bl	HAL_TIM_Base_Init
ARM GAS  C:\Users\DELL\AppData\Local\Temp\cckvhOFi.s 			page 3


  55              	.LVL0:
  56 001c 98B9     		cbnz	r0, .L6
  57              	.L2:
  62:Core/Src/periphs/tim.c ****   {
  63:Core/Src/periphs/tim.c ****     _Error_Handler(__FILE__, __LINE__);
  64:Core/Src/periphs/tim.c ****   }
  65:Core/Src/periphs/tim.c **** 
  66:Core/Src/periphs/tim.c ****   sClockSourceConfig.ClockSource = TIM_CLOCKSOURCE_INTERNAL;
  58              		.loc 1 66 0
  59 001e 06A9     		add	r1, sp, #24
  60 0020 4FF48053 		mov	r3, #4096
  61 0024 41F8103D 		str	r3, [r1, #-16]!
  67:Core/Src/periphs/tim.c ****   if (HAL_TIM_ConfigClockSource(&htim2, &sClockSourceConfig) != HAL_OK)
  62              		.loc 1 67 0
  63 0028 0E48     		ldr	r0, .L9
  64 002a FFF7FEFF 		bl	HAL_TIM_ConfigClockSource
  65              	.LVL1:
  66 002e 78B9     		cbnz	r0, .L7
  67              	.L3:
  68:Core/Src/periphs/tim.c ****   {
  69:Core/Src/periphs/tim.c ****     _Error_Handler(__FILE__, __LINE__);
  70:Core/Src/periphs/tim.c ****   }
  71:Core/Src/periphs/tim.c **** 
  72:Core/Src/periphs/tim.c ****   sMasterConfig.MasterOutputTrigger = TIM_TRGO_RESET;
  68              		.loc 1 72 0
  69 0030 0023     		movs	r3, #0
  70 0032 0093     		str	r3, [sp]
  73:Core/Src/periphs/tim.c ****   sMasterConfig.MasterSlaveMode = TIM_MASTERSLAVEMODE_DISABLE;
  71              		.loc 1 73 0
  72 0034 0193     		str	r3, [sp, #4]
  74:Core/Src/periphs/tim.c ****   if (HAL_TIMEx_MasterConfigSynchronization(&htim2, &sMasterConfig) != HAL_OK)
  73              		.loc 1 74 0
  74 0036 6946     		mov	r1, sp
  75 0038 0A48     		ldr	r0, .L9
  76 003a FFF7FEFF 		bl	HAL_TIMEx_MasterConfigSynchronization
  77              	.LVL2:
  78 003e 60B9     		cbnz	r0, .L8
  79              	.L1:
  75:Core/Src/periphs/tim.c ****   {
  76:Core/Src/periphs/tim.c ****     _Error_Handler(__FILE__, __LINE__);
  77:Core/Src/periphs/tim.c ****   }
  78:Core/Src/periphs/tim.c **** 
  79:Core/Src/periphs/tim.c **** }
  80              		.loc 1 79 0
  81 0040 07B0     		add	sp, sp, #28
  82              	.LCFI2:
  83              		.cfi_remember_state
  84              		.cfi_def_cfa_offset 4
  85              		@ sp needed
  86 0042 5DF804FB 		ldr	pc, [sp], #4
  87              	.L6:
  88              	.LCFI3:
  89              		.cfi_restore_state
  63:Core/Src/periphs/tim.c ****   }
  90              		.loc 1 63 0
  91 0046 3F21     		movs	r1, #63
  92 0048 0748     		ldr	r0, .L9+4
ARM GAS  C:\Users\DELL\AppData\Local\Temp\cckvhOFi.s 			page 4


  93 004a FFF7FEFF 		bl	_Error_Handler
  94              	.LVL3:
  95 004e E6E7     		b	.L2
  96              	.L7:
  69:Core/Src/periphs/tim.c ****   }
  97              		.loc 1 69 0
  98 0050 4521     		movs	r1, #69
  99 0052 0548     		ldr	r0, .L9+4
 100 0054 FFF7FEFF 		bl	_Error_Handler
 101              	.LVL4:
 102 0058 EAE7     		b	.L3
 103              	.L8:
  76:Core/Src/periphs/tim.c ****   }
 104              		.loc 1 76 0
 105 005a 4C21     		movs	r1, #76
 106 005c 0248     		ldr	r0, .L9+4
 107 005e FFF7FEFF 		bl	_Error_Handler
 108              	.LVL5:
 109              		.loc 1 79 0
 110 0062 EDE7     		b	.L1
 111              	.L10:
 112              		.align	2
 113              	.L9:
 114 0064 00000000 		.word	htim2
 115 0068 00000000 		.word	.LC0
 116              		.cfi_endproc
 117              	.LFE126:
 119              		.section	.text.HAL_TIM_Base_MspInit,"ax",%progbits
 120              		.align	1
 121              		.global	HAL_TIM_Base_MspInit
 122              		.syntax unified
 123              		.thumb
 124              		.thumb_func
 125              		.fpu fpv4-sp-d16
 127              	HAL_TIM_Base_MspInit:
 128              	.LFB128:
  80:Core/Src/periphs/tim.c **** /* TIM4 init function */
  81:Core/Src/periphs/tim.c **** void MX_TIM4_Init(void)
  82:Core/Src/periphs/tim.c **** {
  83:Core/Src/periphs/tim.c ****   TIM_MasterConfigTypeDef sMasterConfig;
  84:Core/Src/periphs/tim.c ****   TIM_OC_InitTypeDef sConfigOC;
  85:Core/Src/periphs/tim.c **** 
  86:Core/Src/periphs/tim.c ****   htim4.Instance = TIM4;
  87:Core/Src/periphs/tim.c ****   htim4.Init.Prescaler = 0;
  88:Core/Src/periphs/tim.c ****   htim4.Init.CounterMode = TIM_COUNTERMODE_UP;
  89:Core/Src/periphs/tim.c ****   htim4.Init.Period = 0;
  90:Core/Src/periphs/tim.c ****   htim4.Init.ClockDivision = TIM_CLOCKDIVISION_DIV1;
  91:Core/Src/periphs/tim.c ****   if (HAL_TIM_PWM_Init(&htim4) != HAL_OK)
  92:Core/Src/periphs/tim.c ****   {
  93:Core/Src/periphs/tim.c ****     _Error_Handler(__FILE__, __LINE__);
  94:Core/Src/periphs/tim.c ****   }
  95:Core/Src/periphs/tim.c **** 
  96:Core/Src/periphs/tim.c ****   sMasterConfig.MasterOutputTrigger = TIM_TRGO_RESET;
  97:Core/Src/periphs/tim.c ****   sMasterConfig.MasterSlaveMode = TIM_MASTERSLAVEMODE_DISABLE;
  98:Core/Src/periphs/tim.c ****   if (HAL_TIMEx_MasterConfigSynchronization(&htim4, &sMasterConfig) != HAL_OK)
  99:Core/Src/periphs/tim.c ****   {
 100:Core/Src/periphs/tim.c ****     _Error_Handler(__FILE__, __LINE__);
ARM GAS  C:\Users\DELL\AppData\Local\Temp\cckvhOFi.s 			page 5


 101:Core/Src/periphs/tim.c ****   }
 102:Core/Src/periphs/tim.c **** 
 103:Core/Src/periphs/tim.c ****   sConfigOC.OCMode = TIM_OCMODE_PWM1;
 104:Core/Src/periphs/tim.c ****   sConfigOC.Pulse = 0;
 105:Core/Src/periphs/tim.c ****   sConfigOC.OCPolarity = TIM_OCPOLARITY_HIGH;
 106:Core/Src/periphs/tim.c ****   sConfigOC.OCFastMode = TIM_OCFAST_DISABLE;
 107:Core/Src/periphs/tim.c ****   if (HAL_TIM_PWM_ConfigChannel(&htim4, &sConfigOC, TIM_CHANNEL_2) != HAL_OK)
 108:Core/Src/periphs/tim.c ****   {
 109:Core/Src/periphs/tim.c ****     _Error_Handler(__FILE__, __LINE__);
 110:Core/Src/periphs/tim.c ****   }
 111:Core/Src/periphs/tim.c **** 
 112:Core/Src/periphs/tim.c ****   HAL_TIM_MspPostInit(&htim4);
 113:Core/Src/periphs/tim.c **** 
 114:Core/Src/periphs/tim.c **** }
 115:Core/Src/periphs/tim.c **** 
 116:Core/Src/periphs/tim.c **** void HAL_TIM_Base_MspInit(TIM_HandleTypeDef* tim_baseHandle)
 117:Core/Src/periphs/tim.c **** {
 129              		.loc 1 117 0
 130              		.cfi_startproc
 131              		@ args = 0, pretend = 0, frame = 8
 132              		@ frame_needed = 0, uses_anonymous_args = 0
 133              		@ link register save eliminated.
 134              	.LVL6:
 118:Core/Src/periphs/tim.c **** 
 119:Core/Src/periphs/tim.c ****   if(tim_baseHandle->Instance==TIM2)
 135              		.loc 1 119 0
 136 0000 0368     		ldr	r3, [r0]
 137 0002 B3F1804F 		cmp	r3, #1073741824
 138 0006 00D0     		beq	.L17
 139 0008 7047     		bx	lr
 140              	.L17:
 117:Core/Src/periphs/tim.c **** 
 141              		.loc 1 117 0
 142 000a 82B0     		sub	sp, sp, #8
 143              	.LCFI4:
 144              		.cfi_def_cfa_offset 8
 145              	.LBB2:
 120:Core/Src/periphs/tim.c ****   {
 121:Core/Src/periphs/tim.c ****   /* USER CODE BEGIN TIM2_MspInit 0 */
 122:Core/Src/periphs/tim.c **** 
 123:Core/Src/periphs/tim.c ****   /* USER CODE END TIM2_MspInit 0 */
 124:Core/Src/periphs/tim.c ****     /* TIM2 clock enable */
 125:Core/Src/periphs/tim.c ****     __HAL_RCC_TIM2_CLK_ENABLE();
 146              		.loc 1 125 0
 147 000c 0023     		movs	r3, #0
 148 000e 0193     		str	r3, [sp, #4]
 149 0010 054B     		ldr	r3, .L18
 150 0012 1A6C     		ldr	r2, [r3, #64]
 151 0014 42F00102 		orr	r2, r2, #1
 152 0018 1A64     		str	r2, [r3, #64]
 153 001a 1B6C     		ldr	r3, [r3, #64]
 154 001c 03F00103 		and	r3, r3, #1
 155 0020 0193     		str	r3, [sp, #4]
 156 0022 019B     		ldr	r3, [sp, #4]
 157              	.LBE2:
 126:Core/Src/periphs/tim.c ****   /* USER CODE BEGIN TIM2_MspInit 1 */
 127:Core/Src/periphs/tim.c **** 
ARM GAS  C:\Users\DELL\AppData\Local\Temp\cckvhOFi.s 			page 6


 128:Core/Src/periphs/tim.c ****   /* USER CODE END TIM2_MspInit 1 */
 129:Core/Src/periphs/tim.c ****   }
 130:Core/Src/periphs/tim.c **** }
 158              		.loc 1 130 0
 159 0024 02B0     		add	sp, sp, #8
 160              	.LCFI5:
 161              		.cfi_def_cfa_offset 0
 162              		@ sp needed
 163 0026 7047     		bx	lr
 164              	.L19:
 165              		.align	2
 166              	.L18:
 167 0028 00380240 		.word	1073887232
 168              		.cfi_endproc
 169              	.LFE128:
 171              		.section	.text.HAL_TIM_PWM_MspInit,"ax",%progbits
 172              		.align	1
 173              		.global	HAL_TIM_PWM_MspInit
 174              		.syntax unified
 175              		.thumb
 176              		.thumb_func
 177              		.fpu fpv4-sp-d16
 179              	HAL_TIM_PWM_MspInit:
 180              	.LFB129:
 131:Core/Src/periphs/tim.c **** 
 132:Core/Src/periphs/tim.c **** void HAL_TIM_PWM_MspInit(TIM_HandleTypeDef* tim_pwmHandle)
 133:Core/Src/periphs/tim.c **** {
 181              		.loc 1 133 0
 182              		.cfi_startproc
 183              		@ args = 0, pretend = 0, frame = 8
 184              		@ frame_needed = 0, uses_anonymous_args = 0
 185              		@ link register save eliminated.
 186              	.LVL7:
 134:Core/Src/periphs/tim.c **** 
 135:Core/Src/periphs/tim.c ****   if(tim_pwmHandle->Instance==TIM4)
 187              		.loc 1 135 0
 188 0000 0268     		ldr	r2, [r0]
 189 0002 094B     		ldr	r3, .L27
 190 0004 9A42     		cmp	r2, r3
 191 0006 00D0     		beq	.L26
 192 0008 7047     		bx	lr
 193              	.L26:
 133:Core/Src/periphs/tim.c **** 
 194              		.loc 1 133 0
 195 000a 82B0     		sub	sp, sp, #8
 196              	.LCFI6:
 197              		.cfi_def_cfa_offset 8
 198              	.LBB3:
 136:Core/Src/periphs/tim.c ****   {
 137:Core/Src/periphs/tim.c ****   /* USER CODE BEGIN TIM4_MspInit 0 */
 138:Core/Src/periphs/tim.c **** 
 139:Core/Src/periphs/tim.c ****   /* USER CODE END TIM4_MspInit 0 */
 140:Core/Src/periphs/tim.c ****     /* TIM4 clock enable */
 141:Core/Src/periphs/tim.c ****     __HAL_RCC_TIM4_CLK_ENABLE();
 199              		.loc 1 141 0
 200 000c 0023     		movs	r3, #0
 201 000e 0193     		str	r3, [sp, #4]
ARM GAS  C:\Users\DELL\AppData\Local\Temp\cckvhOFi.s 			page 7


 202 0010 064B     		ldr	r3, .L27+4
 203 0012 1A6C     		ldr	r2, [r3, #64]
 204 0014 42F00402 		orr	r2, r2, #4
 205 0018 1A64     		str	r2, [r3, #64]
 206 001a 1B6C     		ldr	r3, [r3, #64]
 207 001c 03F00403 		and	r3, r3, #4
 208 0020 0193     		str	r3, [sp, #4]
 209 0022 019B     		ldr	r3, [sp, #4]
 210              	.LBE3:
 142:Core/Src/periphs/tim.c ****   /* USER CODE BEGIN TIM4_MspInit 1 */
 143:Core/Src/periphs/tim.c **** 
 144:Core/Src/periphs/tim.c ****   /* USER CODE END TIM4_MspInit 1 */
 145:Core/Src/periphs/tim.c ****   }
 146:Core/Src/periphs/tim.c **** }
 211              		.loc 1 146 0
 212 0024 02B0     		add	sp, sp, #8
 213              	.LCFI7:
 214              		.cfi_def_cfa_offset 0
 215              		@ sp needed
 216 0026 7047     		bx	lr
 217              	.L28:
 218              		.align	2
 219              	.L27:
 220 0028 00080040 		.word	1073743872
 221 002c 00380240 		.word	1073887232
 222              		.cfi_endproc
 223              	.LFE129:
 225              		.section	.text.HAL_TIM_MspPostInit,"ax",%progbits
 226              		.align	1
 227              		.global	HAL_TIM_MspPostInit
 228              		.syntax unified
 229              		.thumb
 230              		.thumb_func
 231              		.fpu fpv4-sp-d16
 233              	HAL_TIM_MspPostInit:
 234              	.LFB130:
 147:Core/Src/periphs/tim.c **** void HAL_TIM_MspPostInit(TIM_HandleTypeDef* timHandle)
 148:Core/Src/periphs/tim.c **** {
 235              		.loc 1 148 0
 236              		.cfi_startproc
 237              		@ args = 0, pretend = 0, frame = 24
 238              		@ frame_needed = 0, uses_anonymous_args = 0
 239              	.LVL8:
 149:Core/Src/periphs/tim.c **** 
 150:Core/Src/periphs/tim.c ****   GPIO_InitTypeDef GPIO_InitStruct;
 151:Core/Src/periphs/tim.c ****   if(timHandle->Instance==TIM4)
 240              		.loc 1 151 0
 241 0000 0268     		ldr	r2, [r0]
 242 0002 0B4B     		ldr	r3, .L36
 243 0004 9A42     		cmp	r2, r3
 244 0006 00D0     		beq	.L35
 245 0008 7047     		bx	lr
 246              	.L35:
 148:Core/Src/periphs/tim.c **** 
 247              		.loc 1 148 0
 248 000a 00B5     		push	{lr}
 249              	.LCFI8:
ARM GAS  C:\Users\DELL\AppData\Local\Temp\cckvhOFi.s 			page 8


 250              		.cfi_def_cfa_offset 4
 251              		.cfi_offset 14, -4
 252 000c 87B0     		sub	sp, sp, #28
 253              	.LCFI9:
 254              		.cfi_def_cfa_offset 32
 152:Core/Src/periphs/tim.c ****   {
 153:Core/Src/periphs/tim.c ****   /* USER CODE BEGIN TIM4_MspPostInit 0 */
 154:Core/Src/periphs/tim.c **** 
 155:Core/Src/periphs/tim.c ****   /* USER CODE END TIM4_MspPostInit 0 */
 156:Core/Src/periphs/tim.c ****   
 157:Core/Src/periphs/tim.c ****     /**TIM4 GPIO Configuration    
 158:Core/Src/periphs/tim.c ****     PD13     ------> TIM4_CH2 
 159:Core/Src/periphs/tim.c ****     */
 160:Core/Src/periphs/tim.c ****     GPIO_InitStruct.Pin = GPIO_PIN_13;
 255              		.loc 1 160 0
 256 000e 4FF40053 		mov	r3, #8192
 257 0012 0193     		str	r3, [sp, #4]
 161:Core/Src/periphs/tim.c ****     GPIO_InitStruct.Mode = GPIO_MODE_AF_PP;
 258              		.loc 1 161 0
 259 0014 0223     		movs	r3, #2
 260 0016 0293     		str	r3, [sp, #8]
 162:Core/Src/periphs/tim.c ****     GPIO_InitStruct.Pull = GPIO_NOPULL;
 261              		.loc 1 162 0
 262 0018 0022     		movs	r2, #0
 263 001a 0392     		str	r2, [sp, #12]
 163:Core/Src/periphs/tim.c ****     GPIO_InitStruct.Speed = GPIO_SPEED_FREQ_LOW;
 264              		.loc 1 163 0
 265 001c 0492     		str	r2, [sp, #16]
 164:Core/Src/periphs/tim.c ****     GPIO_InitStruct.Alternate = GPIO_AF2_TIM4;
 266              		.loc 1 164 0
 267 001e 0593     		str	r3, [sp, #20]
 165:Core/Src/periphs/tim.c ****     HAL_GPIO_Init(GPIOD, &GPIO_InitStruct);
 268              		.loc 1 165 0
 269 0020 01A9     		add	r1, sp, #4
 270 0022 0448     		ldr	r0, .L36+4
 271              	.LVL9:
 272 0024 FFF7FEFF 		bl	HAL_GPIO_Init
 273              	.LVL10:
 166:Core/Src/periphs/tim.c **** 
 167:Core/Src/periphs/tim.c ****   /* USER CODE BEGIN TIM4_MspPostInit 1 */
 168:Core/Src/periphs/tim.c **** 
 169:Core/Src/periphs/tim.c ****   /* USER CODE END TIM4_MspPostInit 1 */
 170:Core/Src/periphs/tim.c ****   }
 171:Core/Src/periphs/tim.c **** 
 172:Core/Src/periphs/tim.c **** }
 274              		.loc 1 172 0
 275 0028 07B0     		add	sp, sp, #28
 276              	.LCFI10:
 277              		.cfi_def_cfa_offset 4
 278              		@ sp needed
 279 002a 5DF804FB 		ldr	pc, [sp], #4
 280              	.L37:
 281 002e 00BF     		.align	2
 282              	.L36:
 283 0030 00080040 		.word	1073743872
 284 0034 000C0240 		.word	1073875968
 285              		.cfi_endproc
ARM GAS  C:\Users\DELL\AppData\Local\Temp\cckvhOFi.s 			page 9


 286              	.LFE130:
 288              		.section	.text.MX_TIM4_Init,"ax",%progbits
 289              		.align	1
 290              		.global	MX_TIM4_Init
 291              		.syntax unified
 292              		.thumb
 293              		.thumb_func
 294              		.fpu fpv4-sp-d16
 296              	MX_TIM4_Init:
 297              	.LFB127:
  82:Core/Src/periphs/tim.c ****   TIM_MasterConfigTypeDef sMasterConfig;
 298              		.loc 1 82 0
 299              		.cfi_startproc
 300              		@ args = 0, pretend = 0, frame = 40
 301              		@ frame_needed = 0, uses_anonymous_args = 0
 302 0000 00B5     		push	{lr}
 303              	.LCFI11:
 304              		.cfi_def_cfa_offset 4
 305              		.cfi_offset 14, -4
 306 0002 8BB0     		sub	sp, sp, #44
 307              	.LCFI12:
 308              		.cfi_def_cfa_offset 48
  86:Core/Src/periphs/tim.c ****   htim4.Init.Prescaler = 0;
 309              		.loc 1 86 0
 310 0004 1A48     		ldr	r0, .L46
 311 0006 1B4B     		ldr	r3, .L46+4
 312 0008 0360     		str	r3, [r0]
  87:Core/Src/periphs/tim.c ****   htim4.Init.CounterMode = TIM_COUNTERMODE_UP;
 313              		.loc 1 87 0
 314 000a 0023     		movs	r3, #0
 315 000c 4360     		str	r3, [r0, #4]
  88:Core/Src/periphs/tim.c ****   htim4.Init.Period = 0;
 316              		.loc 1 88 0
 317 000e 8360     		str	r3, [r0, #8]
  89:Core/Src/periphs/tim.c ****   htim4.Init.ClockDivision = TIM_CLOCKDIVISION_DIV1;
 318              		.loc 1 89 0
 319 0010 C360     		str	r3, [r0, #12]
  90:Core/Src/periphs/tim.c ****   if (HAL_TIM_PWM_Init(&htim4) != HAL_OK)
 320              		.loc 1 90 0
 321 0012 0361     		str	r3, [r0, #16]
  91:Core/Src/periphs/tim.c ****   {
 322              		.loc 1 91 0
 323 0014 FFF7FEFF 		bl	HAL_TIM_PWM_Init
 324              	.LVL11:
 325 0018 D0B9     		cbnz	r0, .L43
 326              	.L39:
  96:Core/Src/periphs/tim.c ****   sMasterConfig.MasterSlaveMode = TIM_MASTERSLAVEMODE_DISABLE;
 327              		.loc 1 96 0
 328 001a 0023     		movs	r3, #0
 329 001c 0893     		str	r3, [sp, #32]
  97:Core/Src/periphs/tim.c ****   if (HAL_TIMEx_MasterConfigSynchronization(&htim4, &sMasterConfig) != HAL_OK)
 330              		.loc 1 97 0
 331 001e 0993     		str	r3, [sp, #36]
  98:Core/Src/periphs/tim.c ****   {
 332              		.loc 1 98 0
 333 0020 08A9     		add	r1, sp, #32
 334 0022 1348     		ldr	r0, .L46
ARM GAS  C:\Users\DELL\AppData\Local\Temp\cckvhOFi.s 			page 10


 335 0024 FFF7FEFF 		bl	HAL_TIMEx_MasterConfigSynchronization
 336              	.LVL12:
 337 0028 B8B9     		cbnz	r0, .L44
 338              	.L40:
 103:Core/Src/periphs/tim.c ****   sConfigOC.Pulse = 0;
 339              		.loc 1 103 0
 340 002a 6023     		movs	r3, #96
 341 002c 0193     		str	r3, [sp, #4]
 104:Core/Src/periphs/tim.c ****   sConfigOC.OCPolarity = TIM_OCPOLARITY_HIGH;
 342              		.loc 1 104 0
 343 002e 0023     		movs	r3, #0
 344 0030 0293     		str	r3, [sp, #8]
 105:Core/Src/periphs/tim.c ****   sConfigOC.OCFastMode = TIM_OCFAST_DISABLE;
 345              		.loc 1 105 0
 346 0032 0393     		str	r3, [sp, #12]
 106:Core/Src/periphs/tim.c ****   if (HAL_TIM_PWM_ConfigChannel(&htim4, &sConfigOC, TIM_CHANNEL_2) != HAL_OK)
 347              		.loc 1 106 0
 348 0034 0593     		str	r3, [sp, #20]
 107:Core/Src/periphs/tim.c ****   {
 349              		.loc 1 107 0
 350 0036 0422     		movs	r2, #4
 351 0038 0DEB0201 		add	r1, sp, r2
 352 003c 0C48     		ldr	r0, .L46
 353 003e FFF7FEFF 		bl	HAL_TIM_PWM_ConfigChannel
 354              	.LVL13:
 355 0042 78B9     		cbnz	r0, .L45
 356              	.L41:
 112:Core/Src/periphs/tim.c **** 
 357              		.loc 1 112 0
 358 0044 0A48     		ldr	r0, .L46
 359 0046 FFF7FEFF 		bl	HAL_TIM_MspPostInit
 360              	.LVL14:
 114:Core/Src/periphs/tim.c **** 
 361              		.loc 1 114 0
 362 004a 0BB0     		add	sp, sp, #44
 363              	.LCFI13:
 364              		.cfi_remember_state
 365              		.cfi_def_cfa_offset 4
 366              		@ sp needed
 367 004c 5DF804FB 		ldr	pc, [sp], #4
 368              	.L43:
 369              	.LCFI14:
 370              		.cfi_restore_state
  93:Core/Src/periphs/tim.c ****   }
 371              		.loc 1 93 0
 372 0050 5D21     		movs	r1, #93
 373 0052 0948     		ldr	r0, .L46+8
 374 0054 FFF7FEFF 		bl	_Error_Handler
 375              	.LVL15:
 376 0058 DFE7     		b	.L39
 377              	.L44:
 100:Core/Src/periphs/tim.c ****   }
 378              		.loc 1 100 0
 379 005a 6421     		movs	r1, #100
 380 005c 0648     		ldr	r0, .L46+8
 381 005e FFF7FEFF 		bl	_Error_Handler
 382              	.LVL16:
ARM GAS  C:\Users\DELL\AppData\Local\Temp\cckvhOFi.s 			page 11


 383 0062 E2E7     		b	.L40
 384              	.L45:
 109:Core/Src/periphs/tim.c ****   }
 385              		.loc 1 109 0
 386 0064 6D21     		movs	r1, #109
 387 0066 0448     		ldr	r0, .L46+8
 388 0068 FFF7FEFF 		bl	_Error_Handler
 389              	.LVL17:
 390 006c EAE7     		b	.L41
 391              	.L47:
 392 006e 00BF     		.align	2
 393              	.L46:
 394 0070 00000000 		.word	htim4
 395 0074 00080040 		.word	1073743872
 396 0078 00000000 		.word	.LC0
 397              		.cfi_endproc
 398              	.LFE127:
 400              		.section	.text.HAL_TIM_Base_MspDeInit,"ax",%progbits
 401              		.align	1
 402              		.global	HAL_TIM_Base_MspDeInit
 403              		.syntax unified
 404              		.thumb
 405              		.thumb_func
 406              		.fpu fpv4-sp-d16
 408              	HAL_TIM_Base_MspDeInit:
 409              	.LFB131:
 173:Core/Src/periphs/tim.c **** 
 174:Core/Src/periphs/tim.c **** void HAL_TIM_Base_MspDeInit(TIM_HandleTypeDef* tim_baseHandle)
 175:Core/Src/periphs/tim.c **** {
 410              		.loc 1 175 0
 411              		.cfi_startproc
 412              		@ args = 0, pretend = 0, frame = 0
 413              		@ frame_needed = 0, uses_anonymous_args = 0
 414              		@ link register save eliminated.
 415              	.LVL18:
 176:Core/Src/periphs/tim.c **** 
 177:Core/Src/periphs/tim.c ****   if(tim_baseHandle->Instance==TIM2)
 416              		.loc 1 177 0
 417 0000 0368     		ldr	r3, [r0]
 418 0002 B3F1804F 		cmp	r3, #1073741824
 419 0006 00D0     		beq	.L50
 420              	.L48:
 178:Core/Src/periphs/tim.c ****   {
 179:Core/Src/periphs/tim.c ****   /* USER CODE BEGIN TIM2_MspDeInit 0 */
 180:Core/Src/periphs/tim.c **** 
 181:Core/Src/periphs/tim.c ****   /* USER CODE END TIM2_MspDeInit 0 */
 182:Core/Src/periphs/tim.c ****     /* Peripheral clock disable */
 183:Core/Src/periphs/tim.c ****     __HAL_RCC_TIM2_CLK_DISABLE();
 184:Core/Src/periphs/tim.c ****   /* USER CODE BEGIN TIM2_MspDeInit 1 */
 185:Core/Src/periphs/tim.c **** 
 186:Core/Src/periphs/tim.c ****   /* USER CODE END TIM2_MspDeInit 1 */
 187:Core/Src/periphs/tim.c ****   }
 188:Core/Src/periphs/tim.c **** }
 421              		.loc 1 188 0
 422 0008 7047     		bx	lr
 423              	.L50:
 183:Core/Src/periphs/tim.c ****   /* USER CODE BEGIN TIM2_MspDeInit 1 */
ARM GAS  C:\Users\DELL\AppData\Local\Temp\cckvhOFi.s 			page 12


 424              		.loc 1 183 0
 425 000a 034A     		ldr	r2, .L51
 426 000c 136C     		ldr	r3, [r2, #64]
 427 000e 23F00103 		bic	r3, r3, #1
 428 0012 1364     		str	r3, [r2, #64]
 429              		.loc 1 188 0
 430 0014 F8E7     		b	.L48
 431              	.L52:
 432 0016 00BF     		.align	2
 433              	.L51:
 434 0018 00380240 		.word	1073887232
 435              		.cfi_endproc
 436              	.LFE131:
 438              		.section	.text.HAL_TIM_PWM_MspDeInit,"ax",%progbits
 439              		.align	1
 440              		.global	HAL_TIM_PWM_MspDeInit
 441              		.syntax unified
 442              		.thumb
 443              		.thumb_func
 444              		.fpu fpv4-sp-d16
 446              	HAL_TIM_PWM_MspDeInit:
 447              	.LFB132:
 189:Core/Src/periphs/tim.c **** 
 190:Core/Src/periphs/tim.c **** void HAL_TIM_PWM_MspDeInit(TIM_HandleTypeDef* tim_pwmHandle)
 191:Core/Src/periphs/tim.c **** {
 448              		.loc 1 191 0
 449              		.cfi_startproc
 450              		@ args = 0, pretend = 0, frame = 0
 451              		@ frame_needed = 0, uses_anonymous_args = 0
 452              		@ link register save eliminated.
 453              	.LVL19:
 192:Core/Src/periphs/tim.c **** 
 193:Core/Src/periphs/tim.c ****   if(tim_pwmHandle->Instance==TIM4)
 454              		.loc 1 193 0
 455 0000 0268     		ldr	r2, [r0]
 456 0002 054B     		ldr	r3, .L56
 457 0004 9A42     		cmp	r2, r3
 458 0006 00D0     		beq	.L55
 459              	.L53:
 194:Core/Src/periphs/tim.c ****   {
 195:Core/Src/periphs/tim.c ****   /* USER CODE BEGIN TIM4_MspDeInit 0 */
 196:Core/Src/periphs/tim.c **** 
 197:Core/Src/periphs/tim.c ****   /* USER CODE END TIM4_MspDeInit 0 */
 198:Core/Src/periphs/tim.c ****     /* Peripheral clock disable */
 199:Core/Src/periphs/tim.c ****     __HAL_RCC_TIM4_CLK_DISABLE();
 200:Core/Src/periphs/tim.c ****   /* USER CODE BEGIN TIM4_MspDeInit 1 */
 201:Core/Src/periphs/tim.c **** 
 202:Core/Src/periphs/tim.c ****   /* USER CODE END TIM4_MspDeInit 1 */
 203:Core/Src/periphs/tim.c ****   }
 204:Core/Src/periphs/tim.c **** } 
 460              		.loc 1 204 0
 461 0008 7047     		bx	lr
 462              	.L55:
 199:Core/Src/periphs/tim.c ****   /* USER CODE BEGIN TIM4_MspDeInit 1 */
 463              		.loc 1 199 0
 464 000a 044A     		ldr	r2, .L56+4
 465 000c 136C     		ldr	r3, [r2, #64]
ARM GAS  C:\Users\DELL\AppData\Local\Temp\cckvhOFi.s 			page 13


 466 000e 23F00403 		bic	r3, r3, #4
 467 0012 1364     		str	r3, [r2, #64]
 468              		.loc 1 204 0
 469 0014 F8E7     		b	.L53
 470              	.L57:
 471 0016 00BF     		.align	2
 472              	.L56:
 473 0018 00080040 		.word	1073743872
 474 001c 00380240 		.word	1073887232
 475              		.cfi_endproc
 476              	.LFE132:
 478              		.comm	htim4,60,4
 479              		.comm	htim2,60,4
 480              		.section	.rodata.MX_TIM2_Init.str1.4,"aMS",%progbits,1
 481              		.align	2
 482              	.LC0:
 483 0000 436F7265 		.ascii	"Core/Src/periphs/tim.c\000"
 483      2F537263 
 483      2F706572 
 483      69706873 
 483      2F74696D 
 484              		.text
 485              	.Letext0:
 486              		.file 2 "c:\\program files (x86)\\gnu tools arm embedded\\7 2017-q4-major\\arm-none-eabi\\include\
 487              		.file 3 "c:\\program files (x86)\\gnu tools arm embedded\\7 2017-q4-major\\arm-none-eabi\\include\
 488              		.file 4 "C:/Users/DELL/STM32Cube/Repository/STM32Cube_FW_F4_V1.21.0/Drivers/CMSIS/Include/core_cm4
 489              		.file 5 "C:/Users/DELL/STM32Cube/Repository/STM32Cube_FW_F4_V1.21.0/Drivers/CMSIS/Device/ST/STM32F
 490              		.file 6 "C:/Users/DELL/STM32Cube/Repository/STM32Cube_FW_F4_V1.21.0/Drivers/CMSIS/Device/ST/STM32F
 491              		.file 7 "c:\\program files (x86)\\gnu tools arm embedded\\7 2017-q4-major\\arm-none-eabi\\include\
 492              		.file 8 "c:\\program files (x86)\\gnu tools arm embedded\\7 2017-q4-major\\arm-none-eabi\\include\
 493              		.file 9 "c:\\program files (x86)\\gnu tools arm embedded\\7 2017-q4-major\\lib\\gcc\\arm-none-eabi
 494              		.file 10 "c:\\program files (x86)\\gnu tools arm embedded\\7 2017-q4-major\\arm-none-eabi\\include
 495              		.file 11 "C:/Users/DELL/STM32Cube/Repository/STM32Cube_FW_F4_V1.21.0/Drivers/STM32F4xx_HAL_Driver/
 496              		.file 12 "C:/Users/DELL/STM32Cube/Repository/STM32Cube_FW_F4_V1.21.0/Drivers/STM32F4xx_HAL_Driver/
 497              		.file 13 "C:/Users/DELL/STM32Cube/Repository/STM32Cube_FW_F4_V1.21.0/Drivers/STM32F4xx_HAL_Driver/
 498              		.file 14 "C:/Users/DELL/STM32Cube/Repository/STM32Cube_FW_F4_V1.21.0/Drivers/STM32F4xx_HAL_Driver/
 499              		.file 15 "C:/Users/DELL/STM32Cube/Repository/STM32Cube_FW_F4_V1.21.0/Drivers/STM32F4xx_HAL_Driver/
 500              		.file 16 "Core/Inc\\periphs/tim.h"
ARM GAS  C:\Users\DELL\AppData\Local\Temp\cckvhOFi.s 			page 14

