ARM GAS  C:\Users\Prashant\AppData\Local\Temp\ccNwJoAc.s 			page 1


   1              		.cpu cortex-m4
   2              		.eabi_attribute 27, 1
   3              		.eabi_attribute 28, 1
   4              		.eabi_attribute 20, 1
   5              		.eabi_attribute 21, 1
   6              		.eabi_attribute 23, 3
   7              		.eabi_attribute 24, 1
   8              		.eabi_attribute 25, 1
   9              		.eabi_attribute 26, 1
  10              		.eabi_attribute 30, 1
  11              		.eabi_attribute 34, 1
  12              		.eabi_attribute 18, 4
  13              		.file	"encoder.cpp"
  14              		.text
  15              	.Ltext0:
  16              		.cfi_sections	.debug_frame
  17              		.global	__aeabi_i2d
  18              		.global	__aeabi_dmul
  19              		.global	__aeabi_ddiv
  20              		.global	__aeabi_d2f
  21              		.section	.text._ZN7encoder9get_omegaEv,"ax",%progbits
  22              		.align	1
  23              		.global	_ZN7encoder9get_omegaEv
  24              		.syntax unified
  25              		.thumb
  26              		.thumb_func
  27              		.fpu fpv4-sp-d16
  29              	_ZN7encoder9get_omegaEv:
  30              	.LFB358:
  31              		.file 1 "Core/Src/devs/encoder.cpp"
   1:Core/Src/devs/encoder.cpp **** #include"encoder.h"
   2:Core/Src/devs/encoder.cpp **** 
   3:Core/Src/devs/encoder.cpp **** float encoder::get_omega(){
  32              		.loc 1 3 0
  33              		.cfi_startproc
  34              		@ args = 0, pretend = 0, frame = 0
  35              		@ frame_needed = 0, uses_anonymous_args = 0
  36              	.LVL0:
  37 0000 2DE9F041 		push	{r4, r5, r6, r7, r8, lr}
  38              	.LCFI0:
  39              		.cfi_def_cfa_offset 24
  40              		.cfi_offset 4, -24
  41              		.cfi_offset 5, -20
  42              		.cfi_offset 6, -16
  43              		.cfi_offset 7, -12
  44              		.cfi_offset 8, -8
  45              		.cfi_offset 14, -4
  46 0004 0546     		mov	r5, r0
   4:Core/Src/devs/encoder.cpp **** 	float omega = (2 * PI * (int)encoder_->henc->Instance->CNT * 1000)/(encoder_->ppr * SAMPLE_TIME);	
  47              		.loc 1 4 0
  48 0006 0468     		ldr	r4, [r0]
  49 0008 2368     		ldr	r3, [r4]
  50 000a D3F80080 		ldr	r8, [r3]
  51 000e D8F82400 		ldr	r0, [r8, #36]
  52              	.LVL1:
  53 0012 FFF7FEFF 		bl	__aeabi_i2d
  54              	.LVL2:
ARM GAS  C:\Users\Prashant\AppData\Local\Temp\ccNwJoAc.s 			page 2


  55 0016 13A3     		adr	r3, .L3+4
  56 0018 D3E90023 		ldrd	r2, [r3]
  57 001c FFF7FEFF 		bl	__aeabi_dmul
  58              	.LVL3:
  59 0020 0022     		movs	r2, #0
  60 0022 0F4B     		ldr	r3, .L3
  61 0024 FFF7FEFF 		bl	__aeabi_dmul
  62              	.LVL4:
  63 0028 0646     		mov	r6, r0
  64 002a 0F46     		mov	r7, r1
  65 002c A388     		ldrh	r3, [r4, #4]
  66 002e 03EB8303 		add	r3, r3, r3, lsl #2
  67 0032 5800     		lsls	r0, r3, #1
  68 0034 FFF7FEFF 		bl	__aeabi_i2d
  69              	.LVL5:
  70 0038 0246     		mov	r2, r0
  71 003a 0B46     		mov	r3, r1
  72 003c 3046     		mov	r0, r6
  73 003e 3946     		mov	r1, r7
  74 0040 FFF7FEFF 		bl	__aeabi_ddiv
  75              	.LVL6:
  76 0044 FFF7FEFF 		bl	__aeabi_d2f
  77              	.LVL7:
   5:Core/Src/devs/encoder.cpp **** 	count_ = (int)encoder_->henc->Instance->CNT;
  78              		.loc 1 5 0
  79 0048 D8F82430 		ldr	r3, [r8, #36]
  80 004c 6B60     		str	r3, [r5, #4]
   6:Core/Src/devs/encoder.cpp **** 	encoder_->henc->Instance->CNT = 0;
  81              		.loc 1 6 0
  82 004e 2368     		ldr	r3, [r4]
  83 0050 1B68     		ldr	r3, [r3]
  84 0052 0022     		movs	r2, #0
  85 0054 5A62     		str	r2, [r3, #36]
   7:Core/Src/devs/encoder.cpp **** 	return omega;
   8:Core/Src/devs/encoder.cpp **** }
  86              		.loc 1 8 0
  87 0056 00EE100A 		vmov	s0, r0
  88 005a BDE8F081 		pop	{r4, r5, r6, r7, r8, pc}
  89              	.LVL8:
  90              	.L4:
  91 005e 00BF     		.align	3
  92              	.L3:
  93 0060 00408F40 		.word	1083129856
  94 0064 182D4454 		.word	1413754136
  95 0068 FB211940 		.word	1075388923
  96              		.cfi_endproc
  97              	.LFE358:
  99              		.global	__aeabi_f2d
 100              		.global	__aeabi_dadd
 101              		.section	.text._ZN7encoder9get_angleEv,"ax",%progbits
 102              		.align	1
 103              		.global	_ZN7encoder9get_angleEv
 104              		.syntax unified
 105              		.thumb
 106              		.thumb_func
 107              		.fpu fpv4-sp-d16
 109              	_ZN7encoder9get_angleEv:
ARM GAS  C:\Users\Prashant\AppData\Local\Temp\ccNwJoAc.s 			page 3


 110              	.LFB359:
   9:Core/Src/devs/encoder.cpp **** 
  10:Core/Src/devs/encoder.cpp **** float encoder::get_angle(){
 111              		.loc 1 10 0
 112              		.cfi_startproc
 113              		@ args = 0, pretend = 0, frame = 0
 114              		@ frame_needed = 0, uses_anonymous_args = 0
 115              	.LVL9:
 116 0000 F8B5     		push	{r3, r4, r5, r6, r7, lr}
 117              	.LCFI1:
 118              		.cfi_def_cfa_offset 24
 119              		.cfi_offset 3, -24
 120              		.cfi_offset 4, -20
 121              		.cfi_offset 5, -16
 122              		.cfi_offset 6, -12
 123              		.cfi_offset 7, -8
 124              		.cfi_offset 14, -4
 125 0002 0446     		mov	r4, r0
  11:Core/Src/devs/encoder.cpp **** 	angle_ += ((2*PI)*(count_+(int)encoder_->henc->Instance->CNT)/(encoder_->ppr));
 126              		.loc 1 11 0
 127 0004 4068     		ldr	r0, [r0, #4]
 128              	.LVL10:
 129 0006 2568     		ldr	r5, [r4]
 130 0008 2B68     		ldr	r3, [r5]
 131 000a 1B68     		ldr	r3, [r3]
 132 000c 5B6A     		ldr	r3, [r3, #36]
 133 000e 1844     		add	r0, r0, r3
 134 0010 FFF7FEFF 		bl	__aeabi_i2d
 135              	.LVL11:
 136 0014 10A3     		adr	r3, .L7
 137 0016 D3E90023 		ldrd	r2, [r3]
 138 001a FFF7FEFF 		bl	__aeabi_dmul
 139              	.LVL12:
 140 001e 0646     		mov	r6, r0
 141 0020 0F46     		mov	r7, r1
 142 0022 A888     		ldrh	r0, [r5, #4]
 143 0024 FFF7FEFF 		bl	__aeabi_i2d
 144              	.LVL13:
 145 0028 0246     		mov	r2, r0
 146 002a 0B46     		mov	r3, r1
 147 002c 3046     		mov	r0, r6
 148 002e 3946     		mov	r1, r7
 149 0030 FFF7FEFF 		bl	__aeabi_ddiv
 150              	.LVL14:
 151 0034 0646     		mov	r6, r0
 152 0036 0F46     		mov	r7, r1
 153 0038 A068     		ldr	r0, [r4, #8]	@ float
 154 003a FFF7FEFF 		bl	__aeabi_f2d
 155              	.LVL15:
 156 003e 3246     		mov	r2, r6
 157 0040 3B46     		mov	r3, r7
 158 0042 FFF7FEFF 		bl	__aeabi_dadd
 159              	.LVL16:
 160 0046 FFF7FEFF 		bl	__aeabi_d2f
 161              	.LVL17:
 162 004a A060     		str	r0, [r4, #8]	@ float
 163              	.LVL18:
ARM GAS  C:\Users\Prashant\AppData\Local\Temp\ccNwJoAc.s 			page 4


  12:Core/Src/devs/encoder.cpp **** 	int temp_angle = (int)(angle_*1000);
  13:Core/Src/devs/encoder.cpp **** 	temp_angle %=360;
  14:Core/Src/devs/encoder.cpp **** 	return angle_;
  15:Core/Src/devs/encoder.cpp **** }
 164              		.loc 1 15 0
 165 004c 00EE100A 		vmov	s0, r0
 166 0050 F8BD     		pop	{r3, r4, r5, r6, r7, pc}
 167              	.LVL19:
 168              	.L8:
 169 0052 00BFAFF3 		.align	3
 169      0080
 170              	.L7:
 171 0058 182D4454 		.word	1413754136
 172 005c FB211940 		.word	1075388923
 173              		.cfi_endproc
 174              	.LFE359:
 176              		.section	.text._ZN7encoder11reset_angleEf,"ax",%progbits
 177              		.align	1
 178              		.global	_ZN7encoder11reset_angleEf
 179              		.syntax unified
 180              		.thumb
 181              		.thumb_func
 182              		.fpu fpv4-sp-d16
 184              	_ZN7encoder11reset_angleEf:
 185              	.LFB360:
  16:Core/Src/devs/encoder.cpp **** 
  17:Core/Src/devs/encoder.cpp **** void encoder::reset_angle(float angle_in_radian){
 186              		.loc 1 17 0
 187              		.cfi_startproc
 188              		@ args = 0, pretend = 0, frame = 0
 189              		@ frame_needed = 0, uses_anonymous_args = 0
 190              		@ link register save eliminated.
 191              	.LVL20:
  18:Core/Src/devs/encoder.cpp **** 	angle_ = angle_in_radian;
 192              		.loc 1 18 0
 193 0000 80ED020A 		vstr.32	s0, [r0, #8]
  19:Core/Src/devs/encoder.cpp **** }...
 194              		.loc 1 19 0
 195 0004 7047     		bx	lr
 196              		.cfi_endproc
 197              	.LFE360:
 199              		.text
 200              	.Letext0:
 201              		.file 2 "c:\\program files (x86)\\gnu tools arm embedded\\7 2017-q4-major\\arm-none-eabi\\include\
 202              		.file 3 "c:\\program files (x86)\\gnu tools arm embedded\\7 2017-q4-major\\arm-none-eabi\\include\
 203              		.file 4 "Drivers/CMSIS/Include/core_cm4.h"
 204              		.file 5 "Drivers/CMSIS/Device/ST/STM32F4xx/Include/system_stm32f4xx.h"
 205              		.file 6 "Drivers/CMSIS/Device/ST/STM32F4xx/Include/stm32f407xx.h"
 206              		.file 7 "c:\\program files (x86)\\gnu tools arm embedded\\7 2017-q4-major\\arm-none-eabi\\include\
 207              		.file 8 "c:\\program files (x86)\\gnu tools arm embedded\\7 2017-q4-major\\arm-none-eabi\\include\
 208              		.file 9 "c:\\program files (x86)\\gnu tools arm embedded\\7 2017-q4-major\\lib\\gcc\\arm-none-eabi
 209              		.file 10 "c:\\program files (x86)\\gnu tools arm embedded\\7 2017-q4-major\\arm-none-eabi\\include
 210              		.file 11 "Drivers/STM32F4xx_HAL_Driver/Inc/stm32f4xx_hal_def.h"
 211              		.file 12 "Drivers/STM32F4xx_HAL_Driver/Inc/stm32f4xx_hal_dma.h"
 212              		.file 13 "Drivers/STM32F4xx_HAL_Driver/Inc/stm32f4xx_hal_tim.h"
 213              		.file 14 "Core/Inc/periphs/tim.h"
 214              		.file 15 "c:\\program files (x86)\\gnu tools arm embedded\\7 2017-q4-major\\arm-none-eabi\\include
ARM GAS  C:\Users\Prashant\AppData\Local\Temp\ccNwJoAc.s 			page 5


 215              		.file 16 "c:\\program files (x86)\\gnu tools arm embedded\\7 2017-q4-major\\arm-none-eabi\\include
 216              		.file 17 "c:\\program files (x86)\\gnu tools arm embedded\\7 2017-q4-major\\arm-none-eabi\\include
 217              		.file 18 "c:\\program files (x86)\\gnu tools arm embedded\\7 2017-q4-major\\arm-none-eabi\\include
 218              		.file 19 "c:\\program files (x86)\\gnu tools arm embedded\\7 2017-q4-major\\arm-none-eabi\\include
 219              		.file 20 "Core/Inc/devs/encoder.h"
 220              		.file 21 "<built-in>"
ARM GAS  C:\Users\Prashant\AppData\Local\Temp\ccNwJoAc.s 			page 6

