ARM GAS  C:\Users\Prashant\AppData\Local\Temp\cc1oF9Od.s 			page 1


   1              		.cpu cortex-m4
   2              		.eabi_attribute 27, 1
   3              		.eabi_attribute 28, 1
   4              		.eabi_attribute 20, 1
   5              		.eabi_attribute 21, 1
   6              		.eabi_attribute 23, 3
   7              		.eabi_attribute 24, 1
   8              		.eabi_attribute 25, 1
   9              		.eabi_attribute 26, 1
  10              		.eabi_attribute 30, 1
  11              		.eabi_attribute 34, 1
  12              		.eabi_attribute 18, 4
  13              		.file	"leg.cpp"
  14              		.text
  15              	.Ltext0:
  16              		.cfi_sections	.debug_frame
  17              		.section	.text._ZN3leg9set_omegaEf,"ax",%progbits
  18              		.align	1
  19              		.global	_ZN3leg9set_omegaEf
  20              		.syntax unified
  21              		.thumb
  22              		.thumb_func
  23              		.fpu fpv4-sp-d16
  25              	_ZN3leg9set_omegaEf:
  26              	.LFB375:
  27              		.file 1 "Core/Src/devs/leg.cpp"
   1:Core/Src/devs/leg.cpp **** #include "leg.h"
   2:Core/Src/devs/leg.cpp **** 
   3:Core/Src/devs/leg.cpp **** void leg::set_omega(float omega){
  28              		.loc 1 3 0
  29              		.cfi_startproc
  30              		@ args = 0, pretend = 0, frame = 0
  31              		@ frame_needed = 0, uses_anonymous_args = 0
  32              	.LVL0:
  33 0000 10B5     		push	{r4, lr}
  34              	.LCFI0:
  35              		.cfi_def_cfa_offset 8
  36              		.cfi_offset 4, -8
  37              		.cfi_offset 14, -4
  38 0002 2DED028B 		vpush.64	{d8}
  39              	.LCFI1:
  40              		.cfi_def_cfa_offset 16
  41              		.cfi_offset 80, -16
  42              		.cfi_offset 81, -12
  43 0006 0446     		mov	r4, r0
  44 0008 B0EE408A 		vmov.f32	s16, s0
   4:Core/Src/devs/leg.cpp **** 	motor__[0].set_omega(omega);
  45              		.loc 1 4 0
  46 000c 1830     		adds	r0, r0, #24
  47              	.LVL1:
  48 000e FFF7FEFF 		bl	_ZN5motor9set_omegaEf
  49              	.LVL2:
   5:Core/Src/devs/leg.cpp **** 	motor__[1].set_omega(omega);
  50              		.loc 1 5 0
  51 0012 B0EE480A 		vmov.f32	s0, s16
  52 0016 04F11C00 		add	r0, r4, #28
  53 001a FFF7FEFF 		bl	_ZN5motor9set_omegaEf
ARM GAS  C:\Users\Prashant\AppData\Local\Temp\cc1oF9Od.s 			page 2


  54              	.LVL3:
   6:Core/Src/devs/leg.cpp **** }
  55              		.loc 1 6 0
  56 001e BDEC028B 		vldm	sp!, {d8}
  57              	.LCFI2:
  58              		.cfi_restore 80
  59              		.cfi_restore 81
  60              		.cfi_def_cfa_offset 8
  61              	.LVL4:
  62 0022 10BD     		pop	{r4, pc}
  63              		.cfi_endproc
  64              	.LFE375:
  66              		.section	.text._ZN3leg9get_omegaEv,"ax",%progbits
  67              		.align	1
  68              		.global	_ZN3leg9get_omegaEv
  69              		.syntax unified
  70              		.thumb
  71              		.thumb_func
  72              		.fpu fpv4-sp-d16
  74              	_ZN3leg9get_omegaEv:
  75              	.LFB376:
   7:Core/Src/devs/leg.cpp **** float leg::get_omega(void){
  76              		.loc 1 7 0
  77              		.cfi_startproc
  78              		@ args = 0, pretend = 0, frame = 0
  79              		@ frame_needed = 0, uses_anonymous_args = 0
  80              	.LVL5:
  81 0000 08B5     		push	{r3, lr}
  82              	.LCFI3:
  83              		.cfi_def_cfa_offset 8
  84              		.cfi_offset 3, -8
  85              		.cfi_offset 14, -4
   8:Core/Src/devs/leg.cpp **** 	return encoder__.get_omega();
  86              		.loc 1 8 0
  87 0002 2030     		adds	r0, r0, #32
  88              	.LVL6:
  89 0004 FFF7FEFF 		bl	_ZN7encoder9get_omegaEv
  90              	.LVL7:
   9:Core/Src/devs/leg.cpp **** }
  91              		.loc 1 9 0
  92 0008 08BD     		pop	{r3, pc}
  93              		.cfi_endproc
  94              	.LFE376:
  96              		.section	.text._ZN3leg9is_raisedEv,"ax",%progbits
  97              		.align	1
  98              		.global	_ZN3leg9is_raisedEv
  99              		.syntax unified
 100              		.thumb
 101              		.thumb_func
 102              		.fpu fpv4-sp-d16
 104              	_ZN3leg9is_raisedEv:
 105              	.LFB377:
  10:Core/Src/devs/leg.cpp **** bool leg::is_raised(){
 106              		.loc 1 10 0
 107              		.cfi_startproc
 108              		@ args = 0, pretend = 0, frame = 0
 109              		@ frame_needed = 0, uses_anonymous_args = 0
ARM GAS  C:\Users\Prashant\AppData\Local\Temp\cc1oF9Od.s 			page 3


 110              		@ link register save eliminated.
 111              	.LVL8:
  11:Core/Src/devs/leg.cpp **** 	return raised_flag;
  12:Core/Src/devs/leg.cpp **** }
 112              		.loc 1 12 0
 113 0000 007C     		ldrb	r0, [r0, #16]	@ zero_extendqisi2
 114              	.LVL9:
 115 0002 7047     		bx	lr
 116              		.cfi_endproc
 117              	.LFE377:
 119              		.section	.text._ZN3leg11reset_angleEf,"ax",%progbits
 120              		.align	1
 121              		.global	_ZN3leg11reset_angleEf
 122              		.syntax unified
 123              		.thumb
 124              		.thumb_func
 125              		.fpu fpv4-sp-d16
 127              	_ZN3leg11reset_angleEf:
 128              	.LFB378:
  13:Core/Src/devs/leg.cpp **** void leg::reset_angle(float angle_in_radians){
 129              		.loc 1 13 0
 130              		.cfi_startproc
 131              		@ args = 0, pretend = 0, frame = 0
 132              		@ frame_needed = 0, uses_anonymous_args = 0
 133              	.LVL10:
 134 0000 08B5     		push	{r3, lr}
 135              	.LCFI4:
 136              		.cfi_def_cfa_offset 8
 137              		.cfi_offset 3, -8
 138              		.cfi_offset 14, -4
  14:Core/Src/devs/leg.cpp **** 	encoder__.reset_angle(angle_in_radians);
 139              		.loc 1 14 0
 140 0002 2030     		adds	r0, r0, #32
 141              	.LVL11:
 142 0004 FFF7FEFF 		bl	_ZN7encoder11reset_angleEf
 143              	.LVL12:
  15:Core/Src/devs/leg.cpp **** }
 144              		.loc 1 15 0
 145 0008 08BD     		pop	{r3, pc}
 146              		.cfi_endproc
 147              	.LFE378:
 149              		.section	.text._ZN3leg9get_angleEv,"ax",%progbits
 150              		.align	1
 151              		.global	_ZN3leg9get_angleEv
 152              		.syntax unified
 153              		.thumb
 154              		.thumb_func
 155              		.fpu fpv4-sp-d16
 157              	_ZN3leg9get_angleEv:
 158              	.LFB379:
  16:Core/Src/devs/leg.cpp **** float leg::get_angle(void){
 159              		.loc 1 16 0
 160              		.cfi_startproc
 161              		@ args = 0, pretend = 0, frame = 0
 162              		@ frame_needed = 0, uses_anonymous_args = 0
 163              	.LVL13:
 164 0000 08B5     		push	{r3, lr}
ARM GAS  C:\Users\Prashant\AppData\Local\Temp\cc1oF9Od.s 			page 4


 165              	.LCFI5:
 166              		.cfi_def_cfa_offset 8
 167              		.cfi_offset 3, -8
 168              		.cfi_offset 14, -4
  17:Core/Src/devs/leg.cpp **** 	return encoder__.get_angle();
 169              		.loc 1 17 0
 170 0002 2030     		adds	r0, r0, #32
 171              	.LVL14:
 172 0004 FFF7FEFF 		bl	_ZN7encoder9get_angleEv
 173              	.LVL15:
  18:Core/Src/devs/leg.cpp **** }
 174              		.loc 1 18 0
 175 0008 08BD     		pop	{r3, pc}
 176              		.cfi_endproc
 177              	.LFE379:
 179              		.section	.text._ZN3leg9get_stepsEv,"ax",%progbits
 180              		.align	1
 181              		.global	_ZN3leg9get_stepsEv
 182              		.syntax unified
 183              		.thumb
 184              		.thumb_func
 185              		.fpu fpv4-sp-d16
 187              	_ZN3leg9get_stepsEv:
 188              	.LFB380:
  19:Core/Src/devs/leg.cpp **** int leg::get_steps(){
 189              		.loc 1 19 0
 190              		.cfi_startproc
 191              		@ args = 0, pretend = 0, frame = 0
 192              		@ frame_needed = 0, uses_anonymous_args = 0
 193              		@ link register save eliminated.
 194              	.LVL16:
  20:Core/Src/devs/leg.cpp **** 	return steps;
  21:Core/Src/devs/leg.cpp **** }...
 195              		.loc 1 21 0
 196 0000 4069     		ldr	r0, [r0, #20]
 197              	.LVL17:
 198 0002 7047     		bx	lr
 199              		.cfi_endproc
 200              	.LFE380:
 202              		.text
 203              	.Letext0:
 204              		.file 2 "c:\\program files (x86)\\gnu tools arm embedded\\7 2017-q4-major\\arm-none-eabi\\include\
 205              		.file 3 "c:\\program files (x86)\\gnu tools arm embedded\\7 2017-q4-major\\arm-none-eabi\\include\
 206              		.file 4 "Drivers/CMSIS/Include/core_cm4.h"
 207              		.file 5 "Drivers/CMSIS/Device/ST/STM32F4xx/Include/system_stm32f4xx.h"
 208              		.file 6 "Drivers/CMSIS/Device/ST/STM32F4xx/Include/stm32f407xx.h"
 209              		.file 7 "c:\\program files (x86)\\gnu tools arm embedded\\7 2017-q4-major\\arm-none-eabi\\include\
 210              		.file 8 "c:\\program files (x86)\\gnu tools arm embedded\\7 2017-q4-major\\arm-none-eabi\\include\
 211              		.file 9 "c:\\program files (x86)\\gnu tools arm embedded\\7 2017-q4-major\\lib\\gcc\\arm-none-eabi
 212              		.file 10 "c:\\program files (x86)\\gnu tools arm embedded\\7 2017-q4-major\\arm-none-eabi\\include
 213              		.file 11 "Drivers/STM32F4xx_HAL_Driver/Inc/stm32f4xx_hal_def.h"
 214              		.file 12 "Drivers/STM32F4xx_HAL_Driver/Inc/stm32f4xx_hal_dma.h"
 215              		.file 13 "Drivers/STM32F4xx_HAL_Driver/Inc/stm32f4xx_hal_tim.h"
 216              		.file 14 "Core/Inc/periphs/tim.h"
 217              		.file 15 "c:\\program files (x86)\\gnu tools arm embedded\\7 2017-q4-major\\arm-none-eabi\\include
 218              		.file 16 "c:\\program files (x86)\\gnu tools arm embedded\\7 2017-q4-major\\arm-none-eabi\\include
 219              		.file 17 "c:\\program files (x86)\\gnu tools arm embedded\\7 2017-q4-major\\arm-none-eabi\\include
ARM GAS  C:\Users\Prashant\AppData\Local\Temp\cc1oF9Od.s 			page 5


 220              		.file 18 "c:\\program files (x86)\\gnu tools arm embedded\\7 2017-q4-major\\arm-none-eabi\\include
 221              		.file 19 "c:\\program files (x86)\\gnu tools arm embedded\\7 2017-q4-major\\arm-none-eabi\\include
 222              		.file 20 "Core/Inc/devs/motor.h"
 223              		.file 21 "Core/Inc/devs/encoder.h"
 224              		.file 22 "Core/Inc/devs/limit_switch.h"
 225              		.file 23 "Core/Inc/devs/leg.h"
 226              		.file 24 "<built-in>"
ARM GAS  C:\Users\Prashant\AppData\Local\Temp\cc1oF9Od.s 			page 6

