ARM GAS  C:\Users\Prashant\AppData\Local\Temp\ccesSzBf.s 			page 1


   1              		.cpu cortex-m4
   2              		.eabi_attribute 27, 1
   3              		.eabi_attribute 28, 1
   4              		.eabi_attribute 20, 1
   5              		.eabi_attribute 21, 1
   6              		.eabi_attribute 23, 3
   7              		.eabi_attribute 24, 1
   8              		.eabi_attribute 25, 1
   9              		.eabi_attribute 26, 1
  10              		.eabi_attribute 30, 1
  11              		.eabi_attribute 34, 1
  12              		.eabi_attribute 18, 4
  13              		.file	"robo_init.cpp"
  14              		.text
  15              	.Ltext0:
  16              		.cfi_sections	.debug_frame
  17              		.section	.text._ZN8steeringD2Ev,"axG",%progbits,_ZN8steeringD5Ev,comdat
  18              		.align	1
  19              		.weak	_ZN8steeringD2Ev
  20              		.syntax unified
  21              		.thumb
  22              		.thumb_func
  23              		.fpu fpv4-sp-d16
  25              	_ZN8steeringD2Ev:
  26              	.LFB379:
  27              		.file 1 "Core/Inc/devs/steering.h"
   1:Core/Inc/devs/steering.h **** #ifndef _STEERING_H_
   2:Core/Inc/devs/steering.h **** #define _STEERING_H_
   3:Core/Inc/devs/steering.h **** 
   4:Core/Inc/devs/steering.h **** #include "motor.h"
   5:Core/Inc/devs/steering.h **** #include "encoder.h"
   6:Core/Inc/devs/steering.h **** #include "limit_switch.h"
   7:Core/Inc/devs/steering.h **** 
   8:Core/Inc/devs/steering.h **** class steering
   9:Core/Inc/devs/steering.h **** {
  10:Core/Inc/devs/steering.h **** public:
  11:Core/Inc/devs/steering.h **** 	steering(){}
  12:Core/Inc/devs/steering.h **** 	steering(steering &&) = default;
  13:Core/Inc/devs/steering.h **** 	steering(const steering &) = default;
  14:Core/Inc/devs/steering.h **** 	steering &operator=(steering &&) = default;
  15:Core/Inc/devs/steering.h **** 	steering &operator=(const steering &) = default;
  16:Core/Inc/devs/steering.h **** 	~steering(){}
  28              		.loc 1 16 0
  29              		.cfi_startproc
  30              		@ args = 0, pretend = 0, frame = 0
  31              		@ frame_needed = 0, uses_anonymous_args = 0
  32              		@ link register save eliminated.
  33              	.LVL0:
  34              		.loc 1 16 0
  35 0000 7047     		bx	lr
  36              		.cfi_endproc
  37              	.LFE379:
  39              		.weak	_ZN8steeringD1Ev
  40              		.thumb_set _ZN8steeringD1Ev,_ZN8steeringD2Ev
  41              		.section	.text._ZL8leg_initv,"ax",%progbits
  42              		.align	1
  43              		.syntax unified
ARM GAS  C:\Users\Prashant\AppData\Local\Temp\ccesSzBf.s 			page 2


  44              		.thumb
  45              		.thumb_func
  46              		.fpu fpv4-sp-d16
  48              	_ZL8leg_initv:
  49              	.LFB383:
  50              		.file 2 "Core/Src/robot/robo_init.cpp"
   1:Core/Src/robot/robo_init.cpp **** #include "robo_init.h"
   2:Core/Src/robot/robo_init.cpp **** 
   3:Core/Src/robot/robo_init.cpp **** leg leg[1];
   4:Core/Src/robot/robo_init.cpp **** steering steering;
   5:Core/Src/robot/robo_init.cpp **** 
   6:Core/Src/robot/robo_init.cpp **** static motor_config motor_configurations[3];
   7:Core/Src/robot/robo_init.cpp **** static  encoder_config encoder_configurations[2];
   8:Core/Src/robot/robo_init.cpp **** 
   9:Core/Src/robot/robo_init.cpp **** static void motor_init();
  10:Core/Src/robot/robo_init.cpp **** static void encoder_init();
  11:Core/Src/robot/robo_init.cpp **** static void limit_switch_init(); 
  12:Core/Src/robot/robo_init.cpp **** static void leg_init();
  13:Core/Src/robot/robo_init.cpp **** static void steering_init();
  14:Core/Src/robot/robo_init.cpp **** 
  15:Core/Src/robot/robo_init.cpp **** void robo_init(){ 
  16:Core/Src/robot/robo_init.cpp **** 	motor_init();
  17:Core/Src/robot/robo_init.cpp **** 	encoder_init();	
  18:Core/Src/robot/robo_init.cpp **** 	limit_switch_init();
  19:Core/Src/robot/robo_init.cpp **** 	leg_init();
  20:Core/Src/robot/robo_init.cpp **** 	steering_init();
  21:Core/Src/robot/robo_init.cpp **** }
  22:Core/Src/robot/robo_init.cpp **** 
  23:Core/Src/robot/robo_init.cpp **** void leg_init(){
  51              		.loc 2 23 0
  52              		.cfi_startproc
  53              		@ args = 0, pretend = 0, frame = 0
  54              		@ frame_needed = 0, uses_anonymous_args = 0
  55              		@ link register save eliminated.
  56              	.LVL1:
  57              	.LBB78:
  58              	.LBB79:
  59              	.LBB80:
  60              		.file 3 "Core/Inc/devs/motor.h"
   1:Core/Inc/devs/motor.h **** #ifndef _MOTOR_H_
   2:Core/Inc/devs/motor.h **** #define _MOTOR_H_
   3:Core/Inc/devs/motor.h **** 
   4:Core/Inc/devs/motor.h **** #include "stm32f4xx_hal.h"
   5:Core/Inc/devs/motor.h **** #include "tim.h"
   6:Core/Inc/devs/motor.h **** #include <math.h>
   7:Core/Inc/devs/motor.h **** 
   8:Core/Inc/devs/motor.h **** enum Direction{
   9:Core/Inc/devs/motor.h **** 	CLOCKWISE,
  10:Core/Inc/devs/motor.h **** 	ANTICLOCKWISE,
  11:Core/Inc/devs/motor.h **** 	STOP
  12:Core/Inc/devs/motor.h **** };
  13:Core/Inc/devs/motor.h **** 
  14:Core/Inc/devs/motor.h **** struct motor_config{
  15:Core/Inc/devs/motor.h **** 	float max_omega;
  16:Core/Inc/devs/motor.h **** 	float tolerance;
  17:Core/Inc/devs/motor.h **** 
  18:Core/Inc/devs/motor.h **** 	GPIO_TypeDef *in1_port;	
ARM GAS  C:\Users\Prashant\AppData\Local\Temp\ccesSzBf.s 			page 3


  19:Core/Inc/devs/motor.h ****         uint16_t in1_pin;
  20:Core/Inc/devs/motor.h ****         GPIO_TypeDef *in2_port;
  21:Core/Inc/devs/motor.h ****         uint16_t in2_pin;
  22:Core/Inc/devs/motor.h ****         TIM_HandleTypeDef *htim;        // PWM Generating Timer
  23:Core/Inc/devs/motor.h ****         uint32_t channel;               // PWM Channel
  24:Core/Inc/devs/motor.h **** };
  25:Core/Inc/devs/motor.h **** 
  26:Core/Inc/devs/motor.h **** class motor
  27:Core/Inc/devs/motor.h **** {
  28:Core/Inc/devs/motor.h **** public:
  29:Core/Inc/devs/motor.h **** 	motor(){motor_ = 0;}
  30:Core/Inc/devs/motor.h ****         motor(motor_config *motor) { motor_ = motor; }
  31:Core/Inc/devs/motor.h **** 	motor(motor &&) = default;
  32:Core/Inc/devs/motor.h **** 	motor(const motor &) = default;
  33:Core/Inc/devs/motor.h **** 	motor &operator=(motor &&) = default;
  34:Core/Inc/devs/motor.h **** 	motor &operator=(const motor &) = default;
  35:Core/Inc/devs/motor.h **** 	~motor(){}
  36:Core/Inc/devs/motor.h ****         void set_config(motor_config *motor) { motor_ = motor;}
  61              		.loc 3 36 0
  62 0000 034A     		ldr	r2, .L3
  63 0002 044B     		ldr	r3, .L3+4
  64 0004 9361     		str	r3, [r2, #24]
  65              	.LVL2:
  66              	.LBE80:
  67              	.LBE79:
  68              	.LBB81:
  69              	.LBB82:
  70 0006 2033     		adds	r3, r3, #32
  71 0008 D361     		str	r3, [r2, #28]
  72              	.LVL3:
  73              	.LBE82:
  74              	.LBE81:
  75              	.LBB83:
  76              	.LBB84:
  77              		.file 4 "Core/Inc/devs/encoder.h"
   1:Core/Inc/devs/encoder.h **** #ifndef _ENCODER_H_
   2:Core/Inc/devs/encoder.h **** #define _ENCODER_H_
   3:Core/Inc/devs/encoder.h **** 
   4:Core/Inc/devs/encoder.h **** #include "defines.h"
   5:Core/Inc/devs/encoder.h **** #include "stm32f4xx_hal.h"
   6:Core/Inc/devs/encoder.h **** #include "tim.h"
   7:Core/Inc/devs/encoder.h **** #include "math.h"
   8:Core/Inc/devs/encoder.h **** 
   9:Core/Inc/devs/encoder.h **** 
  10:Core/Inc/devs/encoder.h **** struct encoder_config{
  11:Core/Inc/devs/encoder.h **** 	TIM_HandleTypeDef *henc;
  12:Core/Inc/devs/encoder.h **** 	uint16_t ppr;
  13:Core/Inc/devs/encoder.h **** };
  14:Core/Inc/devs/encoder.h **** 
  15:Core/Inc/devs/encoder.h **** class encoder
  16:Core/Inc/devs/encoder.h **** {
  17:Core/Inc/devs/encoder.h **** public:
  18:Core/Inc/devs/encoder.h **** 	encoder(){encoder_ = 0;}
  19:Core/Inc/devs/encoder.h **** 	encoder(encoder_config *encoder){encoder_ = encoder;}
  20:Core/Inc/devs/encoder.h **** 	encoder(encoder &&) = default;
  21:Core/Inc/devs/encoder.h **** 	encoder(const encoder &) = default;
  22:Core/Inc/devs/encoder.h **** 	encoder &operator=(encoder &&) = default;
ARM GAS  C:\Users\Prashant\AppData\Local\Temp\ccesSzBf.s 			page 4


  23:Core/Inc/devs/encoder.h **** 	encoder &operator=(const encoder &) = default;
  24:Core/Inc/devs/encoder.h **** 	~encoder(){}
  25:Core/Inc/devs/encoder.h ****         void set_config(encoder_config *encoder) { encoder_ = encoder; }
  78              		.loc 4 25 0
  79 000a 034B     		ldr	r3, .L3+8
  80 000c 1362     		str	r3, [r2, #32]
  81              	.LVL4:
  82              	.LBE84:
  83              	.LBE83:
  84              	.LBE78:
  24:Core/Src/robot/robo_init.cpp **** 	leg[0].set_config(&motor_configurations[0], &motor_configurations[1], &encoder_configurations[0]);
  25:Core/Src/robot/robo_init.cpp **** }	
  85              		.loc 2 25 0
  86 000e 7047     		bx	lr
  87              	.L4:
  88              		.align	2
  89              	.L3:
  90 0010 00000000 		.word	.LANCHOR0
  91 0014 00000000 		.word	.LANCHOR1
  92 0018 00000000 		.word	.LANCHOR2
  93              		.cfi_endproc
  94              	.LFE383:
  96              		.section	.text._ZL13steering_initv,"ax",%progbits
  97              		.align	1
  98              		.syntax unified
  99              		.thumb
 100              		.thumb_func
 101              		.fpu fpv4-sp-d16
 103              	_ZL13steering_initv:
 104              	.LFB384:
  26:Core/Src/robot/robo_init.cpp **** 
  27:Core/Src/robot/robo_init.cpp **** void steering_init(){
 105              		.loc 2 27 0
 106              		.cfi_startproc
 107              		@ args = 0, pretend = 0, frame = 0
 108              		@ frame_needed = 0, uses_anonymous_args = 0
 109              		@ link register save eliminated.
 110              	.LVL5:
 111              	.LBB85:
 112              	.LBB86:
 113              	.LBB87:
 114              		.loc 3 36 0
 115 0000 024B     		ldr	r3, .L6
 116 0002 034A     		ldr	r2, .L6+4
 117 0004 9A60     		str	r2, [r3, #8]
 118              	.LVL6:
 119              	.LBE87:
 120              	.LBE86:
 121              	.LBB88:
 122              	.LBB89:
 123              		.loc 4 25 0
 124 0006 034A     		ldr	r2, .L6+8
 125 0008 DA60     		str	r2, [r3, #12]
 126              	.LVL7:
 127              	.LBE89:
 128              	.LBE88:
 129              	.LBE85:
ARM GAS  C:\Users\Prashant\AppData\Local\Temp\ccesSzBf.s 			page 5


  28:Core/Src/robot/robo_init.cpp **** 	steering.set_config(&motor_configurations[2], &encoder_configurations[1]);
  29:Core/Src/robot/robo_init.cpp **** }
 130              		.loc 2 29 0
 131 000a 7047     		bx	lr
 132              	.L7:
 133              		.align	2
 134              	.L6:
 135 000c 00000000 		.word	.LANCHOR3
 136 0010 40000000 		.word	.LANCHOR1+64
 137 0014 08000000 		.word	.LANCHOR2+8
 138              		.cfi_endproc
 139              	.LFE384:
 141              		.section	.text._ZL17limit_switch_initv,"ax",%progbits
 142              		.align	1
 143              		.syntax unified
 144              		.thumb
 145              		.thumb_func
 146              		.fpu fpv4-sp-d16
 148              	_ZL17limit_switch_initv:
 149              	.LFB385:
  30:Core/Src/robot/robo_init.cpp **** 
  31:Core/Src/robot/robo_init.cpp **** 
  32:Core/Src/robot/robo_init.cpp **** static void limit_switch_init(){
 150              		.loc 2 32 0
 151              		.cfi_startproc
 152              		@ args = 0, pretend = 0, frame = 0
 153              		@ frame_needed = 0, uses_anonymous_args = 0
 154              		@ link register save eliminated.
  33:Core/Src/robot/robo_init.cpp **** 	//leg[0].limit_switch__[0].int_port = GPIOD;
  34:Core/Src/robot/robo_init.cpp **** 	leg[0].limit_switch__[0].int_pin = GPIO_PIN_0;
 155              		.loc 2 34 0
 156 0000 024B     		ldr	r3, .L9
 157 0002 0122     		movs	r2, #1
 158 0004 9A80     		strh	r2, [r3, #4]	@ movhi
  35:Core/Src/robot/robo_init.cpp **** 	//leg[0].limit_switch__[1].int_port = GPIOD;
  36:Core/Src/robot/robo_init.cpp **** 	leg[0].limit_switch__[1].int_pin = GPIO_PIN_2;
 159              		.loc 2 36 0
 160 0006 0422     		movs	r2, #4
 161 0008 9A81     		strh	r2, [r3, #12]	@ movhi
  37:Core/Src/robot/robo_init.cpp **** 
  38:Core/Src/robot/robo_init.cpp **** 	//steering.limit_switch__[0].int_port = GPIOD;
  39:Core/Src/robot/robo_init.cpp **** 	//steering.limit_switch__[0].int_pin = GPIO_PIN_4;
  40:Core/Src/robot/robo_init.cpp **** }
 162              		.loc 2 40 0
 163 000a 7047     		bx	lr
 164              	.L10:
 165              		.align	2
 166              	.L9:
 167 000c 00000000 		.word	.LANCHOR0
 168              		.cfi_endproc
 169              	.LFE385:
 171              		.section	.text.__tcf_0,"ax",%progbits
 172              		.align	1
 173              		.syntax unified
 174              		.thumb
 175              		.thumb_func
 176              		.fpu fpv4-sp-d16
ARM GAS  C:\Users\Prashant\AppData\Local\Temp\ccesSzBf.s 			page 6


 178              	__tcf_0:
 179              	.LFB389:
   3:Core/Src/robot/robo_init.cpp **** steering steering;
 180              		.loc 2 3 0
 181              		.cfi_startproc
 182              		@ args = 0, pretend = 0, frame = 0
 183              		@ frame_needed = 0, uses_anonymous_args = 0
 184              		@ link register save eliminated.
   3:Core/Src/robot/robo_init.cpp **** steering steering;
 185              		.loc 2 3 0
 186 0000 074A     		ldr	r2, .L16
 187              	.L15:
   3:Core/Src/robot/robo_init.cpp **** steering steering;
 188              		.loc 2 3 0 is_stmt 0 discriminator 5
 189 0002 084B     		ldr	r3, .L16+4
 190 0004 9A42     		cmp	r2, r3
 191 0006 09D0     		beq	.L11
   3:Core/Src/robot/robo_init.cpp **** steering steering;
 192              		.loc 2 3 0 discriminator 4
 193 0008 2C3A     		subs	r2, r2, #44
 194              	.LVL8:
 195              	.LBB90:
 196              	.LBB91:
 197              		.file 5 "Core/Inc/devs/leg.h"
   1:Core/Inc/devs/leg.h **** #ifndef _LEG_H_
   2:Core/Inc/devs/leg.h **** #define _LEG_H_
   3:Core/Inc/devs/leg.h **** 
   4:Core/Inc/devs/leg.h **** #include "motor.h"
   5:Core/Inc/devs/leg.h **** #include "encoder.h"
   6:Core/Inc/devs/leg.h **** #include "limit_switch.h"
   7:Core/Inc/devs/leg.h **** 
   8:Core/Inc/devs/leg.h **** class leg
   9:Core/Inc/devs/leg.h **** {
  10:Core/Inc/devs/leg.h **** public:
  11:Core/Inc/devs/leg.h **** 	leg(){}
  12:Core/Inc/devs/leg.h **** 	leg(leg &&) = default;
  13:Core/Inc/devs/leg.h **** 	leg(const leg &) = default;
  14:Core/Inc/devs/leg.h **** 	leg &operator=(leg &&) = default;
  15:Core/Inc/devs/leg.h **** 	leg &operator=(const leg &) = default;
  16:Core/Inc/devs/leg.h **** 	~leg(){}
 198              		.loc 5 16 0 is_stmt 1 discriminator 4
 199 000a 12F11801 		adds	r1, r2, #24
 200 000e F8D0     		beq	.L15
 201              		.loc 5 16 0 is_stmt 0
 202 0010 02F12003 		add	r3, r2, #32
 203              	.L14:
 204 0014 9942     		cmp	r1, r3
 205 0016 F4D0     		beq	.L15
 206 0018 043B     		subs	r3, r3, #4
 207              	.LVL9:
 208 001a FBE7     		b	.L14
 209              	.LVL10:
 210              	.L11:
 211              	.LBE91:
 212              	.LBE90:
   3:Core/Src/robot/robo_init.cpp **** steering steering;
 213              		.loc 2 3 0 is_stmt 1
ARM GAS  C:\Users\Prashant\AppData\Local\Temp\ccesSzBf.s 			page 7


 214 001c 7047     		bx	lr
 215              	.L17:
 216 001e 00BF     		.align	2
 217              	.L16:
 218 0020 2C000000 		.word	.LANCHOR0+44
 219 0024 00000000 		.word	.LANCHOR0
 220              		.cfi_endproc
 221              	.LFE389:
 223              		.section	.text._ZL10motor_initv,"ax",%progbits
 224              		.align	1
 225              		.syntax unified
 226              		.thumb
 227              		.thumb_func
 228              		.fpu fpv4-sp-d16
 230              	_ZL10motor_initv:
 231              	.LFB386:
  41:Core/Src/robot/robo_init.cpp **** 
  42:Core/Src/robot/robo_init.cpp **** void motor_init(){
 232              		.loc 2 42 0
 233              		.cfi_startproc
 234              		@ args = 0, pretend = 0, frame = 0
 235              		@ frame_needed = 0, uses_anonymous_args = 0
 236 0000 F8B5     		push	{r3, r4, r5, r6, r7, lr}
 237              	.LCFI0:
 238              		.cfi_def_cfa_offset 24
 239              		.cfi_offset 3, -24
 240              		.cfi_offset 4, -20
 241              		.cfi_offset 5, -16
 242              		.cfi_offset 6, -12
 243              		.cfi_offset 7, -8
 244              		.cfi_offset 14, -4
  43:Core/Src/robot/robo_init.cpp ****         motor_configurations[0].htim = &htim8;
 245              		.loc 2 43 0
 246 0002 214C     		ldr	r4, .L20
 247 0004 2148     		ldr	r0, .L20+4
 248 0006 A061     		str	r0, [r4, #24]
  44:Core/Src/robot/robo_init.cpp ****         motor_configurations[0].in1_port = GPIOD;
 249              		.loc 2 44 0
 250 0008 214B     		ldr	r3, .L20+8
 251 000a A360     		str	r3, [r4, #8]
  45:Core/Src/robot/robo_init.cpp ****         motor_configurations[0].in1_pin = GPIO_PIN_2; 
 252              		.loc 2 45 0
 253 000c 0425     		movs	r5, #4
 254 000e A581     		strh	r5, [r4, #12]	@ movhi
  46:Core/Src/robot/robo_init.cpp ****         motor_configurations[0].in2_port = GPIOD;
 255              		.loc 2 46 0
 256 0010 2361     		str	r3, [r4, #16]
  47:Core/Src/robot/robo_init.cpp ****         motor_configurations[0].in2_pin = GPIO_PIN_4;
 257              		.loc 2 47 0
 258 0012 1023     		movs	r3, #16
 259 0014 A382     		strh	r3, [r4, #20]	@ movhi
  48:Core/Src/robot/robo_init.cpp ****         motor_configurations[0].channel = TIM_CHANNEL_1;
 260              		.loc 2 48 0
 261 0016 0027     		movs	r7, #0
 262 0018 E761     		str	r7, [r4, #28]
  49:Core/Src/robot/robo_init.cpp ****         motor_configurations[0].max_omega = 95/2.5;
 263              		.loc 2 49 0
ARM GAS  C:\Users\Prashant\AppData\Local\Temp\ccesSzBf.s 			page 8


 264 001a 1E4B     		ldr	r3, .L20+12
 265 001c 2360     		str	r3, [r4]	@ float
  50:Core/Src/robot/robo_init.cpp ****         motor_configurations[0].tolerance = 0.2;
 266              		.loc 2 50 0
 267 001e 1E4A     		ldr	r2, .L20+16
 268 0020 6260     		str	r2, [r4, #4]	@ float
  51:Core/Src/robot/robo_init.cpp **** 
  52:Core/Src/robot/robo_init.cpp ****         motor_configurations[1].htim = &htim8;
 269              		.loc 2 52 0
 270 0022 A063     		str	r0, [r4, #56]
  53:Core/Src/robot/robo_init.cpp ****         motor_configurations[1].in1_port = GPIOC;
 271              		.loc 2 53 0
 272 0024 1D4B     		ldr	r3, .L20+20
 273 0026 A362     		str	r3, [r4, #40]
  54:Core/Src/robot/robo_init.cpp ****         motor_configurations[1].in1_pin = GPIO_PIN_11;
 274              		.loc 2 54 0
 275 0028 4FF40063 		mov	r3, #2048
 276 002c A385     		strh	r3, [r4, #44]	@ movhi
  55:Core/Src/robot/robo_init.cpp ****         motor_configurations[1].in2_port = GPIOA;
 277              		.loc 2 55 0
 278 002e 1C4B     		ldr	r3, .L20+24
 279 0030 2363     		str	r3, [r4, #48]
  56:Core/Src/robot/robo_init.cpp ****         motor_configurations[1].in2_pin = GPIO_PIN_15;
 280              		.loc 2 56 0
 281 0032 4FF40041 		mov	r1, #32768
 282 0036 A186     		strh	r1, [r4, #52]	@ movhi
  57:Core/Src/robot/robo_init.cpp ****         motor_configurations[1].channel = TIM_CHANNEL_2;
 283              		.loc 2 57 0
 284 0038 E563     		str	r5, [r4, #60]
  58:Core/Src/robot/robo_init.cpp ****         motor_configurations[1].max_omega = 70/2.5;
 285              		.loc 2 58 0
 286 003a 1A49     		ldr	r1, .L20+28
 287 003c 2162     		str	r1, [r4, #32]	@ float
  59:Core/Src/robot/robo_init.cpp ****         motor_configurations[1].tolerance = 0.2;
 288              		.loc 2 59 0
 289 003e 6262     		str	r2, [r4, #36]	@ float
  60:Core/Src/robot/robo_init.cpp ****         
  61:Core/Src/robot/robo_init.cpp **** 
  62:Core/Src/robot/robo_init.cpp **** 	motor_configurations[2].htim = &htim8;
 290              		.loc 2 62 0
 291 0040 A065     		str	r0, [r4, #88]
  63:Core/Src/robot/robo_init.cpp **** 	motor_configurations[2].in1_port = GPIOA;
 292              		.loc 2 63 0
 293 0042 A364     		str	r3, [r4, #72]
  64:Core/Src/robot/robo_init.cpp **** 	motor_configurations[2].in1_pin = GPIO_PIN_10;
 294              		.loc 2 64 0
 295 0044 4FF48063 		mov	r3, #1024
 296 0048 A4F84C30 		strh	r3, [r4, #76]	@ movhi
  65:Core/Src/robot/robo_init.cpp **** 	motor_configurations[2].in2_port = GPIOE;
 297              		.loc 2 65 0
 298 004c 03F18043 		add	r3, r3, #1073741824
 299 0050 03F50333 		add	r3, r3, #134144
 300 0054 2365     		str	r3, [r4, #80]
  66:Core/Src/robot/robo_init.cpp **** 	motor_configurations[2].in2_pin = GPIO_PIN_3;
 301              		.loc 2 66 0
 302 0056 0823     		movs	r3, #8
 303 0058 A4F85430 		strh	r3, [r4, #84]	@ movhi
ARM GAS  C:\Users\Prashant\AppData\Local\Temp\ccesSzBf.s 			page 9


  67:Core/Src/robot/robo_init.cpp **** 	motor_configurations[2].channel = TIM_CHANNEL_4;
 304              		.loc 2 67 0
 305 005c 0C26     		movs	r6, #12
 306 005e E665     		str	r6, [r4, #92]
  68:Core/Src/robot/robo_init.cpp **** 	motor_configurations[2].max_omega = 7/5.4;
 307              		.loc 2 68 0
 308 0060 114B     		ldr	r3, .L20+32
 309 0062 2364     		str	r3, [r4, #64]	@ float
  69:Core/Src/robot/robo_init.cpp **** 	motor_configurations[2].tolerance = 0.1;
 310              		.loc 2 69 0
 311 0064 114B     		ldr	r3, .L20+36
 312 0066 6364     		str	r3, [r4, #68]	@ float
  70:Core/Src/robot/robo_init.cpp **** 
  71:Core/Src/robot/robo_init.cpp **** 	HAL_TIM_Base_Start(&htim8);
 313              		.loc 2 71 0
 314 0068 FFF7FEFF 		bl	HAL_TIM_Base_Start
 315              	.LVL11:
  72:Core/Src/robot/robo_init.cpp **** 	HAL_TIM_PWM_Start(motor_configurations[0].htim, TIM_CHANNEL_1);
 316              		.loc 2 72 0
 317 006c 3946     		mov	r1, r7
 318 006e A069     		ldr	r0, [r4, #24]
 319 0070 FFF7FEFF 		bl	HAL_TIM_PWM_Start
 320              	.LVL12:
  73:Core/Src/robot/robo_init.cpp ****         HAL_TIM_PWM_Start(motor_configurations[1].htim, TIM_CHANNEL_2);
 321              		.loc 2 73 0
 322 0074 2946     		mov	r1, r5
 323 0076 A06B     		ldr	r0, [r4, #56]
 324 0078 FFF7FEFF 		bl	HAL_TIM_PWM_Start
 325              	.LVL13:
  74:Core/Src/robot/robo_init.cpp ****         HAL_TIM_PWM_Start(motor_configurations[1].htim, TIM_CHANNEL_4);
 326              		.loc 2 74 0
 327 007c 3146     		mov	r1, r6
 328 007e A06B     		ldr	r0, [r4, #56]
 329 0080 FFF7FEFF 		bl	HAL_TIM_PWM_Start
 330              	.LVL14:
  75:Core/Src/robot/robo_init.cpp **** }
 331              		.loc 2 75 0
 332 0084 F8BD     		pop	{r3, r4, r5, r6, r7, pc}
 333              	.L21:
 334 0086 00BF     		.align	2
 335              	.L20:
 336 0088 00000000 		.word	.LANCHOR1
 337 008c 00000000 		.word	htim8
 338 0090 000C0240 		.word	1073875968
 339 0094 00001842 		.word	1108869120
 340 0098 CDCC4C3E 		.word	1045220557
 341 009c 00080240 		.word	1073874944
 342 00a0 00000240 		.word	1073872896
 343 00a4 0000E041 		.word	1105199104
 344 00a8 09EDA53F 		.word	1067838729
 345 00ac CDCCCC3D 		.word	1036831949
 346              		.cfi_endproc
 347              	.LFE386:
 349              		.section	.text._ZL12encoder_initv,"ax",%progbits
 350              		.align	1
 351              		.syntax unified
 352              		.thumb
ARM GAS  C:\Users\Prashant\AppData\Local\Temp\ccesSzBf.s 			page 10


 353              		.thumb_func
 354              		.fpu fpv4-sp-d16
 356              	_ZL12encoder_initv:
 357              	.LFB387:
  76:Core/Src/robot/robo_init.cpp **** 
  77:Core/Src/robot/robo_init.cpp **** void encoder_init(){
 358              		.loc 2 77 0
 359              		.cfi_startproc
 360              		@ args = 0, pretend = 0, frame = 0
 361              		@ frame_needed = 0, uses_anonymous_args = 0
 362 0000 38B5     		push	{r3, r4, r5, lr}
 363              	.LCFI1:
 364              		.cfi_def_cfa_offset 16
 365              		.cfi_offset 3, -16
 366              		.cfi_offset 4, -12
 367              		.cfi_offset 5, -8
 368              		.cfi_offset 14, -4
  78:Core/Src/robot/robo_init.cpp **** 	encoder_configurations[0].ppr = 200*5.4;
 369              		.loc 2 78 0
 370 0002 084C     		ldr	r4, .L24
 371 0004 4FF48765 		mov	r5, #1080
 372 0008 A580     		strh	r5, [r4, #4]	@ movhi
  79:Core/Src/robot/robo_init.cpp **** 	encoder_configurations[0].henc = &htim2;
 373              		.loc 2 79 0
 374 000a 0748     		ldr	r0, .L24+4
 375 000c 2060     		str	r0, [r4]
  80:Core/Src/robot/robo_init.cpp **** 	HAL_TIM_Encoder_Start(encoder_configurations[0].henc, TIM_CHANNEL_ALL);
 376              		.loc 2 80 0
 377 000e 1821     		movs	r1, #24
 378 0010 FFF7FEFF 		bl	HAL_TIM_Encoder_Start
 379              	.LVL15:
  81:Core/Src/robot/robo_init.cpp **** 	encoder_configurations[1].ppr = 200*5.4;
 380              		.loc 2 81 0
 381 0014 A581     		strh	r5, [r4, #12]	@ movhi
  82:Core/Src/robot/robo_init.cpp **** 	encoder_configurations[0].henc = &htim3;
 382              		.loc 2 82 0
 383 0016 054B     		ldr	r3, .L24+8
 384 0018 2360     		str	r3, [r4]
  83:Core/Src/robot/robo_init.cpp **** 	HAL_TIM_Encoder_Start(encoder_configurations[1].henc, TIM_CHANNEL_ALL);
 385              		.loc 2 83 0
 386 001a 1821     		movs	r1, #24
 387 001c A068     		ldr	r0, [r4, #8]
 388 001e FFF7FEFF 		bl	HAL_TIM_Encoder_Start
 389              	.LVL16:
  84:Core/Src/robot/robo_init.cpp **** }
 390              		.loc 2 84 0
 391 0022 38BD     		pop	{r3, r4, r5, pc}
 392              	.L25:
 393              		.align	2
 394              	.L24:
 395 0024 00000000 		.word	.LANCHOR2
 396 0028 00000000 		.word	htim2
 397 002c 00000000 		.word	htim3
 398              		.cfi_endproc
 399              	.LFE387:
 401              		.section	.text._Z41__static_initialization_and_destruction_0ii,"ax",%progbits
 402              		.align	1
ARM GAS  C:\Users\Prashant\AppData\Local\Temp\ccesSzBf.s 			page 11


 403              		.syntax unified
 404              		.thumb
 405              		.thumb_func
 406              		.fpu fpv4-sp-d16
 408              	_Z41__static_initialization_and_destruction_0ii:
 409              	.LFB388:
 410              		.loc 2 84 0
 411              		.cfi_startproc
 412              		@ args = 0, pretend = 0, frame = 0
 413              		@ frame_needed = 0, uses_anonymous_args = 0
 414              	.LVL17:
 415 0000 0128     		cmp	r0, #1
 416 0002 00D0     		beq	.L36
 417 0004 7047     		bx	lr
 418              	.L36:
 419              		.loc 2 84 0 is_stmt 0 discriminator 1
 420 0006 38B5     		push	{r3, r4, r5, lr}
 421              	.LCFI2:
 422              		.cfi_def_cfa_offset 16
 423              		.cfi_offset 3, -16
 424              		.cfi_offset 4, -12
 425              		.cfi_offset 5, -8
 426              		.cfi_offset 14, -4
 427              		.loc 2 84 0 is_stmt 1 discriminator 1
 428 0008 4FF6FF73 		movw	r3, #65535
 429 000c 9942     		cmp	r1, r3
 430 000e 00D0     		beq	.L37
 431              	.LVL18:
 432              	.L26:
 433              		.loc 2 84 0 is_stmt 0
 434 0010 38BD     		pop	{r3, r4, r5, pc}
 435              	.LVL19:
 436              	.L37:
   3:Core/Src/robot/robo_init.cpp **** static motor_config motor_configurations[3];
 437              		.loc 2 3 0 is_stmt 1
 438 0012 0021     		movs	r1, #0
 439              	.LVL20:
 440 0014 114A     		ldr	r2, .L38
 441              	.L31:
   3:Core/Src/robot/robo_init.cpp **** static motor_config motor_configurations[3];
 442              		.loc 2 3 0 is_stmt 0 discriminator 4
 443 0016 0029     		cmp	r1, #0
 444 0018 10DB     		blt	.L28
 445              	.LVL21:
 446              	.LBB92:
 447              	.LBB93:
  11:Core/Inc/devs/leg.h **** 	leg(leg &&) = default;
 448              		.loc 5 11 0 is_stmt 1
 449 001a 0123     		movs	r3, #1
 450 001c 1374     		strb	r3, [r2, #16]
 451 001e 02F11804 		add	r4, r2, #24
 452 0022 0346     		mov	r3, r0
 453              	.L30:
 454 0024 002B     		cmp	r3, #0
 455 0026 04DB     		blt	.L29
 456              	.LVL22:
 457              	.LBB94:
ARM GAS  C:\Users\Prashant\AppData\Local\Temp\ccesSzBf.s 			page 12


 458              	.LBB95:
  29:Core/Inc/devs/motor.h ****         motor(motor_config *motor) { motor_ = motor; }
 459              		.loc 3 29 0
 460 0028 0025     		movs	r5, #0
 461 002a 44F8045B 		str	r5, [r4], #4
 462              	.LVL23:
 463              	.LBE95:
 464              	.LBE94:
  11:Core/Inc/devs/leg.h **** 	leg(leg &&) = default;
 465              		.loc 5 11 0
 466 002e 013B     		subs	r3, r3, #1
 467 0030 F8E7     		b	.L30
 468              	.L29:
 469              	.LVL24:
 470              	.LBB96:
 471              	.LBB97:
  18:Core/Inc/devs/encoder.h **** 	encoder(encoder_config *encoder){encoder_ = encoder;}
 472              		.loc 4 18 0
 473 0032 0023     		movs	r3, #0
 474 0034 1362     		str	r3, [r2, #32]
 475              	.LVL25:
 476              	.LBE97:
 477              	.LBE96:
 478              	.LBE93:
 479              	.LBE92:
   3:Core/Src/robot/robo_init.cpp **** static motor_config motor_configurations[3];
 480              		.loc 2 3 0
 481 0036 2C32     		adds	r2, r2, #44
 482 0038 0139     		subs	r1, r1, #1
 483 003a ECE7     		b	.L31
 484              	.L28:
   3:Core/Src/robot/robo_init.cpp **** static motor_config motor_configurations[3];
 485              		.loc 2 3 0 is_stmt 0 discriminator 2
 486 003c 084C     		ldr	r4, .L38+4
 487 003e 2246     		mov	r2, r4
 488 0040 0849     		ldr	r1, .L38+8
 489 0042 0020     		movs	r0, #0
 490              	.LVL26:
 491 0044 FFF7FEFF 		bl	__aeabi_atexit
 492              	.LVL27:
 493              	.LBB98:
 494              	.LBB99:
 495              	.LBB100:
 496              	.LBB101:
 497              	.LBB102:
  29:Core/Inc/devs/motor.h ****         motor(motor_config *motor) { motor_ = motor; }
 498              		.loc 3 29 0 is_stmt 1 discriminator 2
 499 0048 0748     		ldr	r0, .L38+12
 500 004a 0023     		movs	r3, #0
 501 004c 8360     		str	r3, [r0, #8]
 502              	.LVL28:
 503              	.LBE102:
 504              	.LBE101:
 505              	.LBE100:
 506              	.LBB103:
 507              	.LBB104:
 508              	.LBB105:
ARM GAS  C:\Users\Prashant\AppData\Local\Temp\ccesSzBf.s 			page 13


  18:Core/Inc/devs/encoder.h **** 	encoder(encoder_config *encoder){encoder_ = encoder;}
 509              		.loc 4 18 0 discriminator 2
 510 004e C360     		str	r3, [r0, #12]
 511              	.LVL29:
 512              	.LBE105:
 513              	.LBE104:
 514              	.LBE103:
 515              	.LBE99:
 516              	.LBE98:
   4:Core/Src/robot/robo_init.cpp **** 
 517              		.loc 2 4 0 discriminator 2
 518 0050 2246     		mov	r2, r4
 519 0052 0649     		ldr	r1, .L38+16
 520 0054 FFF7FEFF 		bl	__aeabi_atexit
 521              	.LVL30:
 522              		.loc 2 84 0 discriminator 2
 523 0058 DAE7     		b	.L26
 524              	.L39:
 525 005a 00BF     		.align	2
 526              	.L38:
 527 005c 00000000 		.word	.LANCHOR0
 528 0060 00000000 		.word	__dso_handle
 529 0064 00000000 		.word	__tcf_0
 530 0068 00000000 		.word	.LANCHOR3
 531 006c 00000000 		.word	_ZN8steeringD1Ev
 532              		.cfi_endproc
 533              	.LFE388:
 535              		.section	.text._Z9robo_initv,"ax",%progbits
 536              		.align	1
 537              		.global	_Z9robo_initv
 538              		.syntax unified
 539              		.thumb
 540              		.thumb_func
 541              		.fpu fpv4-sp-d16
 543              	_Z9robo_initv:
 544              	.LFB382:
  15:Core/Src/robot/robo_init.cpp **** 	motor_init();
 545              		.loc 2 15 0
 546              		.cfi_startproc
 547              		@ args = 0, pretend = 0, frame = 0
 548              		@ frame_needed = 0, uses_anonymous_args = 0
 549 0000 08B5     		push	{r3, lr}
 550              	.LCFI3:
 551              		.cfi_def_cfa_offset 8
 552              		.cfi_offset 3, -8
 553              		.cfi_offset 14, -4
  16:Core/Src/robot/robo_init.cpp **** 	encoder_init();	
 554              		.loc 2 16 0
 555 0002 FFF7FEFF 		bl	_ZL10motor_initv
 556              	.LVL31:
  17:Core/Src/robot/robo_init.cpp **** 	limit_switch_init();
 557              		.loc 2 17 0
 558 0006 FFF7FEFF 		bl	_ZL12encoder_initv
 559              	.LVL32:
  18:Core/Src/robot/robo_init.cpp **** 	leg_init();
 560              		.loc 2 18 0
 561 000a FFF7FEFF 		bl	_ZL17limit_switch_initv
ARM GAS  C:\Users\Prashant\AppData\Local\Temp\ccesSzBf.s 			page 14


 562              	.LVL33:
  19:Core/Src/robot/robo_init.cpp **** 	steering_init();
 563              		.loc 2 19 0
 564 000e FFF7FEFF 		bl	_ZL8leg_initv
 565              	.LVL34:
  20:Core/Src/robot/robo_init.cpp **** }
 566              		.loc 2 20 0
 567 0012 FFF7FEFF 		bl	_ZL13steering_initv
 568              	.LVL35:
  21:Core/Src/robot/robo_init.cpp **** 
 569              		.loc 2 21 0
 570 0016 08BD     		pop	{r3, pc}
 571              		.cfi_endproc
 572              	.LFE382:
 574              		.section	.text._GLOBAL__sub_I_leg,"ax",%progbits
 575              		.align	1
 576              		.syntax unified
 577              		.thumb
 578              		.thumb_func
 579              		.fpu fpv4-sp-d16
 581              	_GLOBAL__sub_I_leg:
 582              	.LFB390:
 583              		.loc 2 84 0
 584              		.cfi_startproc
 585              		@ args = 0, pretend = 0, frame = 0
 586              		@ frame_needed = 0, uses_anonymous_args = 0
 587 0000 08B5     		push	{r3, lr}
 588              	.LCFI4:
 589              		.cfi_def_cfa_offset 8
 590              		.cfi_offset 3, -8
 591              		.cfi_offset 14, -4
 592              		.loc 2 84 0
 593 0002 4FF6FF71 		movw	r1, #65535
 594 0006 0120     		movs	r0, #1
 595 0008 FFF7FEFF 		bl	_Z41__static_initialization_and_destruction_0ii
 596              	.LVL36:
 597 000c 08BD     		pop	{r3, pc}
 598              		.cfi_endproc
 599              	.LFE390:
 601              		.section	.init_array,"aw",%init_array
 602              		.align	2
 603 0000 00000000 		.word	_GLOBAL__sub_I_leg(target1)
 604              		.global	steering
 605              		.global	leg
 606              		.section	.bss._ZL20motor_configurations,"aw",%nobits
 607              		.align	2
 608              		.set	.LANCHOR1,. + 0
 611              	_ZL20motor_configurations:
 612 0000 00000000 		.space	96
 612      00000000 
 612      00000000 
 612      00000000 
 612      00000000 
 613              		.section	.bss._ZL22encoder_configurations,"aw",%nobits
 614              		.align	2
 615              		.set	.LANCHOR2,. + 0
 618              	_ZL22encoder_configurations:
ARM GAS  C:\Users\Prashant\AppData\Local\Temp\ccesSzBf.s 			page 15


 619 0000 00000000 		.space	16
 619      00000000 
 619      00000000 
 619      00000000 
 620              		.section	.bss.leg,"aw",%nobits
 621              		.align	2
 622              		.set	.LANCHOR0,. + 0
 625              	leg:
 626 0000 00000000 		.space	44
 626      00000000 
 626      00000000 
 626      00000000 
 626      00000000 
 627              		.section	.bss.steering,"aw",%nobits
 628              		.align	2
 629              		.set	.LANCHOR3,. + 0
 632              	steering:
 633 0000 00000000 		.space	24
 633      00000000 
 633      00000000 
 633      00000000 
 633      00000000 
 634              		.text
 635              	.Letext0:
 636              		.file 6 "c:\\program files (x86)\\gnu tools arm embedded\\7 2017-q4-major\\arm-none-eabi\\include\
 637              		.file 7 "c:\\program files (x86)\\gnu tools arm embedded\\7 2017-q4-major\\arm-none-eabi\\include\
 638              		.file 8 "Drivers/CMSIS/Include/core_cm4.h"
 639              		.file 9 "Drivers/CMSIS/Device/ST/STM32F4xx/Include/system_stm32f4xx.h"
 640              		.file 10 "Drivers/CMSIS/Device/ST/STM32F4xx/Include/stm32f407xx.h"
 641              		.file 11 "Drivers/CMSIS/Device/ST/STM32F4xx/Include/stm32f4xx.h"
 642              		.file 12 "c:\\program files (x86)\\gnu tools arm embedded\\7 2017-q4-major\\arm-none-eabi\\include
 643              		.file 13 "c:\\program files (x86)\\gnu tools arm embedded\\7 2017-q4-major\\arm-none-eabi\\include
 644              		.file 14 "c:\\program files (x86)\\gnu tools arm embedded\\7 2017-q4-major\\lib\\gcc\\arm-none-eab
 645              		.file 15 "c:\\program files (x86)\\gnu tools arm embedded\\7 2017-q4-major\\arm-none-eabi\\include
 646              		.file 16 "Drivers/STM32F4xx_HAL_Driver/Inc/stm32f4xx_hal_def.h"
 647              		.file 17 "Drivers/STM32F4xx_HAL_Driver/Inc/stm32f4xx_hal_dma.h"
 648              		.file 18 "Drivers/STM32F4xx_HAL_Driver/Inc/stm32f4xx_hal_adc.h"
 649              		.file 19 "Drivers/STM32F4xx_HAL_Driver/Inc/stm32f4xx_hal_tim.h"
 650              		.file 20 "Drivers/STM32F4xx_HAL_Driver/Inc/stm32f4xx_hal_uart.h"
 651              		.file 21 "Drivers/STM32F4xx_HAL_Driver/Inc/stm32f4xx_hal.h"
 652              		.file 22 "Core/Inc/periphs/tim.h"
 653              		.file 23 "c:\\program files (x86)\\gnu tools arm embedded\\7 2017-q4-major\\arm-none-eabi\\include
 654              		.file 24 "c:\\program files (x86)\\gnu tools arm embedded\\7 2017-q4-major\\arm-none-eabi\\include
 655              		.file 25 "c:\\program files (x86)\\gnu tools arm embedded\\7 2017-q4-major\\arm-none-eabi\\include
 656              		.file 26 "c:\\program files (x86)\\gnu tools arm embedded\\7 2017-q4-major\\arm-none-eabi\\include
 657              		.file 27 "c:\\program files (x86)\\gnu tools arm embedded\\7 2017-q4-major\\arm-none-eabi\\include
 658              		.file 28 "c:\\program files (x86)\\gnu tools arm embedded\\7 2017-q4-major\\arm-none-eabi\\include
 659              		.file 29 "Core/Inc/devs/limit_switch.h"
 660              		.file 30 "Core/Inc/periphs/usart.h"
 661              		.file 31 "Core/Inc/periphs/adc.h"
 662              		.file 32 "<built-in>"
ARM GAS  C:\Users\Prashant\AppData\Local\Temp\ccesSzBf.s 			page 16

