ARM GAS  C:\Users\n-is\AppData\Local\Temp\cc7ZyNxE.s 			page 1


   1              		.cpu cortex-m4
   2              		.eabi_attribute 27, 1
   3              		.eabi_attribute 28, 1
   4              		.eabi_attribute 20, 1
   5              		.eabi_attribute 21, 1
   6              		.eabi_attribute 23, 3
   7              		.eabi_attribute 24, 1
   8              		.eabi_attribute 25, 1
   9              		.eabi_attribute 26, 1
  10              		.eabi_attribute 30, 1
  11              		.eabi_attribute 34, 1
  12              		.eabi_attribute 18, 4
  13              		.file	"tim.c"
  14              		.text
  15              	.Ltext0:
  16              		.cfi_sections	.debug_frame
  17              		.section	.text.MX_TIM14_Init,"ax",%progbits
  18              		.align	1
  19              		.global	MX_TIM14_Init
  20              		.syntax unified
  21              		.thumb
  22              		.thumb_func
  23              		.fpu fpv4-sp-d16
  25              	MX_TIM14_Init:
  26              	.LFB127:
  27              		.file 1 "Core/Src/tim.c"
   1:Core/Src/tim.c **** /**
   2:Core/Src/tim.c ****   ******************************************************************************
   3:Core/Src/tim.c ****   * File Name          : TIM.c
   4:Core/Src/tim.c ****   * Description        : This file provides code for the configuration
   5:Core/Src/tim.c ****   *                      of the TIM instances.
   6:Core/Src/tim.c ****   ******************************************************************************
   7:Core/Src/tim.c ****   ** This notice applies to any and all portions of this file
   8:Core/Src/tim.c ****   * that are not between comment pairs USER CODE BEGIN and
   9:Core/Src/tim.c ****   * USER CODE END. Other portions of this file, whether 
  10:Core/Src/tim.c ****   * inserted by the user or by software development tools
  11:Core/Src/tim.c ****   * are owned by their respective copyright owners.
  12:Core/Src/tim.c ****   *
  13:Core/Src/tim.c ****   * COPYRIGHT(c) 2018 STMicroelectronics
  14:Core/Src/tim.c ****   *
  15:Core/Src/tim.c ****   * Redistribution and use in source and binary forms, with or without modification,
  16:Core/Src/tim.c ****   * are permitted provided that the following conditions are met:
  17:Core/Src/tim.c ****   *   1. Redistributions of source code must retain the above copyright notice,
  18:Core/Src/tim.c ****   *      this list of conditions and the following disclaimer.
  19:Core/Src/tim.c ****   *   2. Redistributions in binary form must reproduce the above copyright notice,
  20:Core/Src/tim.c ****   *      this list of conditions and the following disclaimer in the documentation
  21:Core/Src/tim.c ****   *      and/or other materials provided with the distribution.
  22:Core/Src/tim.c ****   *   3. Neither the name of STMicroelectronics nor the names of its contributors
  23:Core/Src/tim.c ****   *      may be used to endorse or promote products derived from this software
  24:Core/Src/tim.c ****   *      without specific prior written permission.
  25:Core/Src/tim.c ****   *
  26:Core/Src/tim.c ****   * THIS SOFTWARE IS PROVIDED BY THE COPYRIGHT HOLDERS AND CONTRIBUTORS "AS IS"
  27:Core/Src/tim.c ****   * AND ANY EXPRESS OR IMPLIED WARRANTIES, INCLUDING, BUT NOT LIMITED TO, THE
  28:Core/Src/tim.c ****   * IMPLIED WARRANTIES OF MERCHANTABILITY AND FITNESS FOR A PARTICULAR PURPOSE ARE
  29:Core/Src/tim.c ****   * DISCLAIMED. IN NO EVENT SHALL THE COPYRIGHT HOLDER OR CONTRIBUTORS BE LIABLE
  30:Core/Src/tim.c ****   * FOR ANY DIRECT, INDIRECT, INCIDENTAL, SPECIAL, EXEMPLARY, OR CONSEQUENTIAL
  31:Core/Src/tim.c ****   * DAMAGES (INCLUDING, BUT NOT LIMITED TO, PROCUREMENT OF SUBSTITUTE GOODS OR
ARM GAS  C:\Users\n-is\AppData\Local\Temp\cc7ZyNxE.s 			page 2


  32:Core/Src/tim.c ****   * SERVICES; LOSS OF USE, DATA, OR PROFITS; OR BUSINESS INTERRUPTION) HOWEVER
  33:Core/Src/tim.c ****   * CAUSED AND ON ANY THEORY OF LIABILITY, WHETHER IN CONTRACT, STRICT LIABILITY,
  34:Core/Src/tim.c ****   * OR TORT (INCLUDING NEGLIGENCE OR OTHERWISE) ARISING IN ANY WAY OUT OF THE USE
  35:Core/Src/tim.c ****   * OF THIS SOFTWARE, EVEN IF ADVISED OF THE POSSIBILITY OF SUCH DAMAGE.
  36:Core/Src/tim.c ****   *
  37:Core/Src/tim.c ****   ******************************************************************************
  38:Core/Src/tim.c ****   */
  39:Core/Src/tim.c **** 
  40:Core/Src/tim.c **** /* Includes ------------------------------------------------------------------*/
  41:Core/Src/tim.c **** #include "tim.h"
  42:Core/Src/tim.c **** 
  43:Core/Src/tim.c **** /* USER CODE BEGIN 0 */
  44:Core/Src/tim.c **** 
  45:Core/Src/tim.c **** /* USER CODE END 0 */
  46:Core/Src/tim.c **** 
  47:Core/Src/tim.c **** TIM_HandleTypeDef htim8;
  48:Core/Src/tim.c **** TIM_HandleTypeDef htim14;
  49:Core/Src/tim.c **** 
  50:Core/Src/tim.c **** /* TIM8 init function */
  51:Core/Src/tim.c **** void MX_TIM8_Init(void)
  52:Core/Src/tim.c **** {
  53:Core/Src/tim.c ****   TIM_MasterConfigTypeDef sMasterConfig;
  54:Core/Src/tim.c ****   TIM_OC_InitTypeDef sConfigOC;
  55:Core/Src/tim.c ****   TIM_BreakDeadTimeConfigTypeDef sBreakDeadTimeConfig;
  56:Core/Src/tim.c **** 
  57:Core/Src/tim.c ****   htim8.Instance = TIM8;
  58:Core/Src/tim.c ****   htim8.Init.Prescaler = 0;
  59:Core/Src/tim.c ****   htim8.Init.CounterMode = TIM_COUNTERMODE_CENTERALIGNED1;
  60:Core/Src/tim.c ****   htim8.Init.Period = 10000;
  61:Core/Src/tim.c ****   htim8.Init.ClockDivision = TIM_CLOCKDIVISION_DIV1;
  62:Core/Src/tim.c ****   htim8.Init.RepetitionCounter = 0;
  63:Core/Src/tim.c ****   if (HAL_TIM_PWM_Init(&htim8) != HAL_OK)
  64:Core/Src/tim.c ****   {
  65:Core/Src/tim.c ****     _Error_Handler(__FILE__, __LINE__);
  66:Core/Src/tim.c ****   }
  67:Core/Src/tim.c **** 
  68:Core/Src/tim.c ****   sMasterConfig.MasterOutputTrigger = TIM_TRGO_RESET;
  69:Core/Src/tim.c ****   sMasterConfig.MasterSlaveMode = TIM_MASTERSLAVEMODE_DISABLE;
  70:Core/Src/tim.c ****   if (HAL_TIMEx_MasterConfigSynchronization(&htim8, &sMasterConfig) != HAL_OK)
  71:Core/Src/tim.c ****   {
  72:Core/Src/tim.c ****     _Error_Handler(__FILE__, __LINE__);
  73:Core/Src/tim.c ****   }
  74:Core/Src/tim.c **** 
  75:Core/Src/tim.c ****   sConfigOC.OCMode = TIM_OCMODE_PWM1;
  76:Core/Src/tim.c ****   sConfigOC.Pulse = 0;
  77:Core/Src/tim.c ****   sConfigOC.OCPolarity = TIM_OCPOLARITY_HIGH;
  78:Core/Src/tim.c ****   sConfigOC.OCNPolarity = TIM_OCNPOLARITY_HIGH;
  79:Core/Src/tim.c ****   sConfigOC.OCFastMode = TIM_OCFAST_DISABLE;
  80:Core/Src/tim.c ****   sConfigOC.OCIdleState = TIM_OCIDLESTATE_RESET;
  81:Core/Src/tim.c ****   sConfigOC.OCNIdleState = TIM_OCNIDLESTATE_RESET;
  82:Core/Src/tim.c ****   if (HAL_TIM_PWM_ConfigChannel(&htim8, &sConfigOC, TIM_CHANNEL_1) != HAL_OK)
  83:Core/Src/tim.c ****   {
  84:Core/Src/tim.c ****     _Error_Handler(__FILE__, __LINE__);
  85:Core/Src/tim.c ****   }
  86:Core/Src/tim.c **** 
  87:Core/Src/tim.c ****   if (HAL_TIM_PWM_ConfigChannel(&htim8, &sConfigOC, TIM_CHANNEL_2) != HAL_OK)
  88:Core/Src/tim.c ****   {
ARM GAS  C:\Users\n-is\AppData\Local\Temp\cc7ZyNxE.s 			page 3


  89:Core/Src/tim.c ****     _Error_Handler(__FILE__, __LINE__);
  90:Core/Src/tim.c ****   }
  91:Core/Src/tim.c **** 
  92:Core/Src/tim.c ****   if (HAL_TIM_PWM_ConfigChannel(&htim8, &sConfigOC, TIM_CHANNEL_3) != HAL_OK)
  93:Core/Src/tim.c ****   {
  94:Core/Src/tim.c ****     _Error_Handler(__FILE__, __LINE__);
  95:Core/Src/tim.c ****   }
  96:Core/Src/tim.c **** 
  97:Core/Src/tim.c ****   if (HAL_TIM_PWM_ConfigChannel(&htim8, &sConfigOC, TIM_CHANNEL_4) != HAL_OK)
  98:Core/Src/tim.c ****   {
  99:Core/Src/tim.c ****     _Error_Handler(__FILE__, __LINE__);
 100:Core/Src/tim.c ****   }
 101:Core/Src/tim.c **** 
 102:Core/Src/tim.c ****   sBreakDeadTimeConfig.OffStateRunMode = TIM_OSSR_DISABLE;
 103:Core/Src/tim.c ****   sBreakDeadTimeConfig.OffStateIDLEMode = TIM_OSSI_DISABLE;
 104:Core/Src/tim.c ****   sBreakDeadTimeConfig.LockLevel = TIM_LOCKLEVEL_OFF;
 105:Core/Src/tim.c ****   sBreakDeadTimeConfig.DeadTime = 0;
 106:Core/Src/tim.c ****   sBreakDeadTimeConfig.BreakState = TIM_BREAK_DISABLE;
 107:Core/Src/tim.c ****   sBreakDeadTimeConfig.BreakPolarity = TIM_BREAKPOLARITY_HIGH;
 108:Core/Src/tim.c ****   sBreakDeadTimeConfig.AutomaticOutput = TIM_AUTOMATICOUTPUT_DISABLE;
 109:Core/Src/tim.c ****   if (HAL_TIMEx_ConfigBreakDeadTime(&htim8, &sBreakDeadTimeConfig) != HAL_OK)
 110:Core/Src/tim.c ****   {
 111:Core/Src/tim.c ****     _Error_Handler(__FILE__, __LINE__);
 112:Core/Src/tim.c ****   }
 113:Core/Src/tim.c **** 
 114:Core/Src/tim.c ****   HAL_TIM_MspPostInit(&htim8);
 115:Core/Src/tim.c **** 
 116:Core/Src/tim.c **** }
 117:Core/Src/tim.c **** /* TIM14 init function */
 118:Core/Src/tim.c **** void MX_TIM14_Init(void)
 119:Core/Src/tim.c **** {
  28              		.loc 1 119 0
  29              		.cfi_startproc
  30              		@ args = 0, pretend = 0, frame = 0
  31              		@ frame_needed = 0, uses_anonymous_args = 0
  32 0000 08B5     		push	{r3, lr}
  33              	.LCFI0:
  34              		.cfi_def_cfa_offset 8
  35              		.cfi_offset 3, -8
  36              		.cfi_offset 14, -4
 120:Core/Src/tim.c **** 
 121:Core/Src/tim.c ****   htim14.Instance = TIM14;
  37              		.loc 1 121 0
  38 0002 0A48     		ldr	r0, .L5
  39 0004 0A4B     		ldr	r3, .L5+4
  40 0006 0360     		str	r3, [r0]
 122:Core/Src/tim.c ****   htim14.Init.Prescaler = 41999;
  41              		.loc 1 122 0
  42 0008 4AF20F43 		movw	r3, #41999
  43 000c 4360     		str	r3, [r0, #4]
 123:Core/Src/tim.c ****   htim14.Init.CounterMode = TIM_COUNTERMODE_UP;
  44              		.loc 1 123 0
  45 000e 0023     		movs	r3, #0
  46 0010 8360     		str	r3, [r0, #8]
 124:Core/Src/tim.c ****   htim14.Init.Period = 99;
  47              		.loc 1 124 0
  48 0012 6322     		movs	r2, #99
ARM GAS  C:\Users\n-is\AppData\Local\Temp\cc7ZyNxE.s 			page 4


  49 0014 C260     		str	r2, [r0, #12]
 125:Core/Src/tim.c ****   htim14.Init.ClockDivision = TIM_CLOCKDIVISION_DIV1;
  50              		.loc 1 125 0
  51 0016 0361     		str	r3, [r0, #16]
 126:Core/Src/tim.c ****   if (HAL_TIM_Base_Init(&htim14) != HAL_OK)
  52              		.loc 1 126 0
  53 0018 FFF7FEFF 		bl	HAL_TIM_Base_Init
  54              	.LVL0:
  55 001c 00B9     		cbnz	r0, .L4
  56              	.L1:
 127:Core/Src/tim.c ****   {
 128:Core/Src/tim.c ****     _Error_Handler(__FILE__, __LINE__);
 129:Core/Src/tim.c ****   }
 130:Core/Src/tim.c **** 
 131:Core/Src/tim.c **** }
  57              		.loc 1 131 0
  58 001e 08BD     		pop	{r3, pc}
  59              	.L4:
 128:Core/Src/tim.c ****   }
  60              		.loc 1 128 0
  61 0020 8021     		movs	r1, #128
  62 0022 0448     		ldr	r0, .L5+8
  63 0024 FFF7FEFF 		bl	_Error_Handler
  64              	.LVL1:
  65              		.loc 1 131 0
  66 0028 F9E7     		b	.L1
  67              	.L6:
  68 002a 00BF     		.align	2
  69              	.L5:
  70 002c 00000000 		.word	htim14
  71 0030 00200040 		.word	1073750016
  72 0034 00000000 		.word	.LC0
  73              		.cfi_endproc
  74              	.LFE127:
  76              		.section	.text.HAL_TIM_PWM_MspInit,"ax",%progbits
  77              		.align	1
  78              		.global	HAL_TIM_PWM_MspInit
  79              		.syntax unified
  80              		.thumb
  81              		.thumb_func
  82              		.fpu fpv4-sp-d16
  84              	HAL_TIM_PWM_MspInit:
  85              	.LFB128:
 132:Core/Src/tim.c **** 
 133:Core/Src/tim.c **** void HAL_TIM_PWM_MspInit(TIM_HandleTypeDef* tim_pwmHandle)
 134:Core/Src/tim.c **** {
  86              		.loc 1 134 0
  87              		.cfi_startproc
  88              		@ args = 0, pretend = 0, frame = 8
  89              		@ frame_needed = 0, uses_anonymous_args = 0
  90              	.LVL2:
 135:Core/Src/tim.c **** 
 136:Core/Src/tim.c ****   if(tim_pwmHandle->Instance==TIM8)
  91              		.loc 1 136 0
  92 0000 0268     		ldr	r2, [r0]
  93 0002 0E4B     		ldr	r3, .L14
  94 0004 9A42     		cmp	r2, r3
ARM GAS  C:\Users\n-is\AppData\Local\Temp\cc7ZyNxE.s 			page 5


  95 0006 00D0     		beq	.L13
  96 0008 7047     		bx	lr
  97              	.L13:
 134:Core/Src/tim.c **** 
  98              		.loc 1 134 0
  99 000a 00B5     		push	{lr}
 100              	.LCFI1:
 101              		.cfi_def_cfa_offset 4
 102              		.cfi_offset 14, -4
 103 000c 83B0     		sub	sp, sp, #12
 104              	.LCFI2:
 105              		.cfi_def_cfa_offset 16
 106              	.LBB2:
 137:Core/Src/tim.c ****   {
 138:Core/Src/tim.c ****   /* USER CODE BEGIN TIM8_MspInit 0 */
 139:Core/Src/tim.c **** 
 140:Core/Src/tim.c ****   /* USER CODE END TIM8_MspInit 0 */
 141:Core/Src/tim.c ****     /* TIM8 clock enable */
 142:Core/Src/tim.c ****     __HAL_RCC_TIM8_CLK_ENABLE();
 107              		.loc 1 142 0
 108 000e 0021     		movs	r1, #0
 109 0010 0191     		str	r1, [sp, #4]
 110 0012 03F59A33 		add	r3, r3, #78848
 111 0016 5A6C     		ldr	r2, [r3, #68]
 112 0018 42F00202 		orr	r2, r2, #2
 113 001c 5A64     		str	r2, [r3, #68]
 114 001e 5B6C     		ldr	r3, [r3, #68]
 115 0020 03F00203 		and	r3, r3, #2
 116 0024 0193     		str	r3, [sp, #4]
 117 0026 019B     		ldr	r3, [sp, #4]
 118              	.LBE2:
 143:Core/Src/tim.c **** 
 144:Core/Src/tim.c ****     /* TIM8 interrupt Init */
 145:Core/Src/tim.c ****     HAL_NVIC_SetPriority(TIM8_TRG_COM_TIM14_IRQn, 0, 0);
 119              		.loc 1 145 0
 120 0028 0A46     		mov	r2, r1
 121 002a 2D20     		movs	r0, #45
 122              	.LVL3:
 123 002c FFF7FEFF 		bl	HAL_NVIC_SetPriority
 124              	.LVL4:
 146:Core/Src/tim.c ****     HAL_NVIC_EnableIRQ(TIM8_TRG_COM_TIM14_IRQn);
 125              		.loc 1 146 0
 126 0030 2D20     		movs	r0, #45
 127 0032 FFF7FEFF 		bl	HAL_NVIC_EnableIRQ
 128              	.LVL5:
 147:Core/Src/tim.c ****   /* USER CODE BEGIN TIM8_MspInit 1 */
 148:Core/Src/tim.c **** 
 149:Core/Src/tim.c ****   /* USER CODE END TIM8_MspInit 1 */
 150:Core/Src/tim.c ****   }
 151:Core/Src/tim.c **** }
 129              		.loc 1 151 0
 130 0036 03B0     		add	sp, sp, #12
 131              	.LCFI3:
 132              		.cfi_def_cfa_offset 4
 133              		@ sp needed
 134 0038 5DF804FB 		ldr	pc, [sp], #4
 135              	.L15:
ARM GAS  C:\Users\n-is\AppData\Local\Temp\cc7ZyNxE.s 			page 6


 136              		.align	2
 137              	.L14:
 138 003c 00040140 		.word	1073808384
 139              		.cfi_endproc
 140              	.LFE128:
 142              		.section	.text.HAL_TIM_Base_MspInit,"ax",%progbits
 143              		.align	1
 144              		.global	HAL_TIM_Base_MspInit
 145              		.syntax unified
 146              		.thumb
 147              		.thumb_func
 148              		.fpu fpv4-sp-d16
 150              	HAL_TIM_Base_MspInit:
 151              	.LFB129:
 152:Core/Src/tim.c **** 
 153:Core/Src/tim.c **** void HAL_TIM_Base_MspInit(TIM_HandleTypeDef* tim_baseHandle)
 154:Core/Src/tim.c **** {
 152              		.loc 1 154 0
 153              		.cfi_startproc
 154              		@ args = 0, pretend = 0, frame = 8
 155              		@ frame_needed = 0, uses_anonymous_args = 0
 156              	.LVL6:
 155:Core/Src/tim.c **** 
 156:Core/Src/tim.c ****   if(tim_baseHandle->Instance==TIM14)
 157              		.loc 1 156 0
 158 0000 0268     		ldr	r2, [r0]
 159 0002 0E4B     		ldr	r3, .L23
 160 0004 9A42     		cmp	r2, r3
 161 0006 00D0     		beq	.L22
 162 0008 7047     		bx	lr
 163              	.L22:
 154:Core/Src/tim.c **** 
 164              		.loc 1 154 0
 165 000a 00B5     		push	{lr}
 166              	.LCFI4:
 167              		.cfi_def_cfa_offset 4
 168              		.cfi_offset 14, -4
 169 000c 83B0     		sub	sp, sp, #12
 170              	.LCFI5:
 171              		.cfi_def_cfa_offset 16
 172              	.LBB3:
 157:Core/Src/tim.c ****   {
 158:Core/Src/tim.c ****   /* USER CODE BEGIN TIM14_MspInit 0 */
 159:Core/Src/tim.c **** 
 160:Core/Src/tim.c ****   /* USER CODE END TIM14_MspInit 0 */
 161:Core/Src/tim.c ****     /* TIM14 clock enable */
 162:Core/Src/tim.c ****     __HAL_RCC_TIM14_CLK_ENABLE();
 173              		.loc 1 162 0
 174 000e 0021     		movs	r1, #0
 175 0010 0191     		str	r1, [sp, #4]
 176 0012 03F50633 		add	r3, r3, #137216
 177 0016 1A6C     		ldr	r2, [r3, #64]
 178 0018 42F48072 		orr	r2, r2, #256
 179 001c 1A64     		str	r2, [r3, #64]
 180 001e 1B6C     		ldr	r3, [r3, #64]
 181 0020 03F48073 		and	r3, r3, #256
 182 0024 0193     		str	r3, [sp, #4]
ARM GAS  C:\Users\n-is\AppData\Local\Temp\cc7ZyNxE.s 			page 7


 183 0026 019B     		ldr	r3, [sp, #4]
 184              	.LBE3:
 163:Core/Src/tim.c **** 
 164:Core/Src/tim.c ****     /* TIM14 interrupt Init */
 165:Core/Src/tim.c ****     HAL_NVIC_SetPriority(TIM8_TRG_COM_TIM14_IRQn, 0, 0);
 185              		.loc 1 165 0
 186 0028 0A46     		mov	r2, r1
 187 002a 2D20     		movs	r0, #45
 188              	.LVL7:
 189 002c FFF7FEFF 		bl	HAL_NVIC_SetPriority
 190              	.LVL8:
 166:Core/Src/tim.c ****     HAL_NVIC_EnableIRQ(TIM8_TRG_COM_TIM14_IRQn);
 191              		.loc 1 166 0
 192 0030 2D20     		movs	r0, #45
 193 0032 FFF7FEFF 		bl	HAL_NVIC_EnableIRQ
 194              	.LVL9:
 167:Core/Src/tim.c ****   /* USER CODE BEGIN TIM14_MspInit 1 */
 168:Core/Src/tim.c **** 
 169:Core/Src/tim.c ****   /* USER CODE END TIM14_MspInit 1 */
 170:Core/Src/tim.c ****   }
 171:Core/Src/tim.c **** }
 195              		.loc 1 171 0
 196 0036 03B0     		add	sp, sp, #12
 197              	.LCFI6:
 198              		.cfi_def_cfa_offset 4
 199              		@ sp needed
 200 0038 5DF804FB 		ldr	pc, [sp], #4
 201              	.L24:
 202              		.align	2
 203              	.L23:
 204 003c 00200040 		.word	1073750016
 205              		.cfi_endproc
 206              	.LFE129:
 208              		.section	.text.HAL_TIM_MspPostInit,"ax",%progbits
 209              		.align	1
 210              		.global	HAL_TIM_MspPostInit
 211              		.syntax unified
 212              		.thumb
 213              		.thumb_func
 214              		.fpu fpv4-sp-d16
 216              	HAL_TIM_MspPostInit:
 217              	.LFB130:
 172:Core/Src/tim.c **** void HAL_TIM_MspPostInit(TIM_HandleTypeDef* timHandle)
 173:Core/Src/tim.c **** {
 218              		.loc 1 173 0
 219              		.cfi_startproc
 220              		@ args = 0, pretend = 0, frame = 24
 221              		@ frame_needed = 0, uses_anonymous_args = 0
 222              	.LVL10:
 174:Core/Src/tim.c **** 
 175:Core/Src/tim.c ****   GPIO_InitTypeDef GPIO_InitStruct;
 176:Core/Src/tim.c ****   if(timHandle->Instance==TIM8)
 223              		.loc 1 176 0
 224 0000 0268     		ldr	r2, [r0]
 225 0002 0B4B     		ldr	r3, .L32
 226 0004 9A42     		cmp	r2, r3
 227 0006 00D0     		beq	.L31
ARM GAS  C:\Users\n-is\AppData\Local\Temp\cc7ZyNxE.s 			page 8


 228 0008 7047     		bx	lr
 229              	.L31:
 173:Core/Src/tim.c **** 
 230              		.loc 1 173 0
 231 000a 00B5     		push	{lr}
 232              	.LCFI7:
 233              		.cfi_def_cfa_offset 4
 234              		.cfi_offset 14, -4
 235 000c 87B0     		sub	sp, sp, #28
 236              	.LCFI8:
 237              		.cfi_def_cfa_offset 32
 177:Core/Src/tim.c ****   {
 178:Core/Src/tim.c ****   /* USER CODE BEGIN TIM8_MspPostInit 0 */
 179:Core/Src/tim.c **** 
 180:Core/Src/tim.c ****   /* USER CODE END TIM8_MspPostInit 0 */
 181:Core/Src/tim.c ****   
 182:Core/Src/tim.c ****     /**TIM8 GPIO Configuration    
 183:Core/Src/tim.c ****     PC6     ------> TIM8_CH1
 184:Core/Src/tim.c ****     PC7     ------> TIM8_CH2
 185:Core/Src/tim.c ****     PC8     ------> TIM8_CH3
 186:Core/Src/tim.c ****     PC9     ------> TIM8_CH4 
 187:Core/Src/tim.c ****     */
 188:Core/Src/tim.c ****     GPIO_InitStruct.Pin = GPIO_PIN_6|GPIO_PIN_7|GPIO_PIN_8|GPIO_PIN_9;
 238              		.loc 1 188 0
 239 000e 4FF47073 		mov	r3, #960
 240 0012 0193     		str	r3, [sp, #4]
 189:Core/Src/tim.c ****     GPIO_InitStruct.Mode = GPIO_MODE_AF_PP;
 241              		.loc 1 189 0
 242 0014 0223     		movs	r3, #2
 243 0016 0293     		str	r3, [sp, #8]
 190:Core/Src/tim.c ****     GPIO_InitStruct.Pull = GPIO_NOPULL;
 244              		.loc 1 190 0
 245 0018 0023     		movs	r3, #0
 246 001a 0393     		str	r3, [sp, #12]
 191:Core/Src/tim.c ****     GPIO_InitStruct.Speed = GPIO_SPEED_FREQ_LOW;
 247              		.loc 1 191 0
 248 001c 0493     		str	r3, [sp, #16]
 192:Core/Src/tim.c ****     GPIO_InitStruct.Alternate = GPIO_AF3_TIM8;
 249              		.loc 1 192 0
 250 001e 0323     		movs	r3, #3
 251 0020 0593     		str	r3, [sp, #20]
 193:Core/Src/tim.c ****     HAL_GPIO_Init(GPIOC, &GPIO_InitStruct);
 252              		.loc 1 193 0
 253 0022 01A9     		add	r1, sp, #4
 254 0024 0348     		ldr	r0, .L32+4
 255              	.LVL11:
 256 0026 FFF7FEFF 		bl	HAL_GPIO_Init
 257              	.LVL12:
 194:Core/Src/tim.c **** 
 195:Core/Src/tim.c ****   /* USER CODE BEGIN TIM8_MspPostInit 1 */
 196:Core/Src/tim.c **** 
 197:Core/Src/tim.c ****   /* USER CODE END TIM8_MspPostInit 1 */
 198:Core/Src/tim.c ****   }
 199:Core/Src/tim.c **** 
 200:Core/Src/tim.c **** }
 258              		.loc 1 200 0
 259 002a 07B0     		add	sp, sp, #28
ARM GAS  C:\Users\n-is\AppData\Local\Temp\cc7ZyNxE.s 			page 9


 260              	.LCFI9:
 261              		.cfi_def_cfa_offset 4
 262              		@ sp needed
 263 002c 5DF804FB 		ldr	pc, [sp], #4
 264              	.L33:
 265              		.align	2
 266              	.L32:
 267 0030 00040140 		.word	1073808384
 268 0034 00080240 		.word	1073874944
 269              		.cfi_endproc
 270              	.LFE130:
 272              		.section	.text.MX_TIM8_Init,"ax",%progbits
 273              		.align	1
 274              		.global	MX_TIM8_Init
 275              		.syntax unified
 276              		.thumb
 277              		.thumb_func
 278              		.fpu fpv4-sp-d16
 280              	MX_TIM8_Init:
 281              	.LFB126:
  52:Core/Src/tim.c ****   TIM_MasterConfigTypeDef sMasterConfig;
 282              		.loc 1 52 0
 283              		.cfi_startproc
 284              		@ args = 0, pretend = 0, frame = 64
 285              		@ frame_needed = 0, uses_anonymous_args = 0
 286 0000 00B5     		push	{lr}
 287              	.LCFI10:
 288              		.cfi_def_cfa_offset 4
 289              		.cfi_offset 14, -4
 290 0002 91B0     		sub	sp, sp, #68
 291              	.LCFI11:
 292              		.cfi_def_cfa_offset 72
  57:Core/Src/tim.c ****   htim8.Init.Prescaler = 0;
 293              		.loc 1 57 0
 294 0004 3948     		ldr	r0, .L50
 295 0006 3A4B     		ldr	r3, .L50+4
 296 0008 0360     		str	r3, [r0]
  58:Core/Src/tim.c ****   htim8.Init.CounterMode = TIM_COUNTERMODE_CENTERALIGNED1;
 297              		.loc 1 58 0
 298 000a 0023     		movs	r3, #0
 299 000c 4360     		str	r3, [r0, #4]
  59:Core/Src/tim.c ****   htim8.Init.Period = 10000;
 300              		.loc 1 59 0
 301 000e 2022     		movs	r2, #32
 302 0010 8260     		str	r2, [r0, #8]
  60:Core/Src/tim.c ****   htim8.Init.ClockDivision = TIM_CLOCKDIVISION_DIV1;
 303              		.loc 1 60 0
 304 0012 42F21072 		movw	r2, #10000
 305 0016 C260     		str	r2, [r0, #12]
  61:Core/Src/tim.c ****   htim8.Init.RepetitionCounter = 0;
 306              		.loc 1 61 0
 307 0018 0361     		str	r3, [r0, #16]
  62:Core/Src/tim.c ****   if (HAL_TIM_PWM_Init(&htim8) != HAL_OK)
 308              		.loc 1 62 0
 309 001a 4361     		str	r3, [r0, #20]
  63:Core/Src/tim.c ****   {
 310              		.loc 1 63 0
ARM GAS  C:\Users\n-is\AppData\Local\Temp\cc7ZyNxE.s 			page 10


 311 001c FFF7FEFF 		bl	HAL_TIM_PWM_Init
 312              	.LVL13:
 313 0020 0028     		cmp	r0, #0
 314 0022 3FD1     		bne	.L43
 315              	.L35:
  68:Core/Src/tim.c ****   sMasterConfig.MasterSlaveMode = TIM_MASTERSLAVEMODE_DISABLE;
 316              		.loc 1 68 0
 317 0024 0023     		movs	r3, #0
 318 0026 0E93     		str	r3, [sp, #56]
  69:Core/Src/tim.c ****   if (HAL_TIMEx_MasterConfigSynchronization(&htim8, &sMasterConfig) != HAL_OK)
 319              		.loc 1 69 0
 320 0028 0F93     		str	r3, [sp, #60]
  70:Core/Src/tim.c ****   {
 321              		.loc 1 70 0
 322 002a 0EA9     		add	r1, sp, #56
 323 002c 2F48     		ldr	r0, .L50
 324 002e FFF7FEFF 		bl	HAL_TIMEx_MasterConfigSynchronization
 325              	.LVL14:
 326 0032 0028     		cmp	r0, #0
 327 0034 3BD1     		bne	.L44
 328              	.L36:
  75:Core/Src/tim.c ****   sConfigOC.Pulse = 0;
 329              		.loc 1 75 0
 330 0036 6023     		movs	r3, #96
 331 0038 0793     		str	r3, [sp, #28]
  76:Core/Src/tim.c ****   sConfigOC.OCPolarity = TIM_OCPOLARITY_HIGH;
 332              		.loc 1 76 0
 333 003a 0022     		movs	r2, #0
 334 003c 0892     		str	r2, [sp, #32]
  77:Core/Src/tim.c ****   sConfigOC.OCNPolarity = TIM_OCNPOLARITY_HIGH;
 335              		.loc 1 77 0
 336 003e 0992     		str	r2, [sp, #36]
  78:Core/Src/tim.c ****   sConfigOC.OCFastMode = TIM_OCFAST_DISABLE;
 337              		.loc 1 78 0
 338 0040 0A92     		str	r2, [sp, #40]
  79:Core/Src/tim.c ****   sConfigOC.OCIdleState = TIM_OCIDLESTATE_RESET;
 339              		.loc 1 79 0
 340 0042 0B92     		str	r2, [sp, #44]
  80:Core/Src/tim.c ****   sConfigOC.OCNIdleState = TIM_OCNIDLESTATE_RESET;
 341              		.loc 1 80 0
 342 0044 0C92     		str	r2, [sp, #48]
  81:Core/Src/tim.c ****   if (HAL_TIM_PWM_ConfigChannel(&htim8, &sConfigOC, TIM_CHANNEL_1) != HAL_OK)
 343              		.loc 1 81 0
 344 0046 0D92     		str	r2, [sp, #52]
  82:Core/Src/tim.c ****   {
 345              		.loc 1 82 0
 346 0048 07A9     		add	r1, sp, #28
 347 004a 2848     		ldr	r0, .L50
 348 004c FFF7FEFF 		bl	HAL_TIM_PWM_ConfigChannel
 349              	.LVL15:
 350 0050 0028     		cmp	r0, #0
 351 0052 31D1     		bne	.L45
 352              	.L37:
  87:Core/Src/tim.c ****   {
 353              		.loc 1 87 0
 354 0054 0422     		movs	r2, #4
 355 0056 07A9     		add	r1, sp, #28
ARM GAS  C:\Users\n-is\AppData\Local\Temp\cc7ZyNxE.s 			page 11


 356 0058 2448     		ldr	r0, .L50
 357 005a FFF7FEFF 		bl	HAL_TIM_PWM_ConfigChannel
 358              	.LVL16:
 359 005e 0028     		cmp	r0, #0
 360 0060 2FD1     		bne	.L46
 361              	.L38:
  92:Core/Src/tim.c ****   {
 362              		.loc 1 92 0
 363 0062 0822     		movs	r2, #8
 364 0064 07A9     		add	r1, sp, #28
 365 0066 2148     		ldr	r0, .L50
 366 0068 FFF7FEFF 		bl	HAL_TIM_PWM_ConfigChannel
 367              	.LVL17:
 368 006c 70BB     		cbnz	r0, .L47
 369              	.L39:
  97:Core/Src/tim.c ****   {
 370              		.loc 1 97 0
 371 006e 0C22     		movs	r2, #12
 372 0070 07A9     		add	r1, sp, #28
 373 0072 1E48     		ldr	r0, .L50
 374 0074 FFF7FEFF 		bl	HAL_TIM_PWM_ConfigChannel
 375              	.LVL18:
 376 0078 68BB     		cbnz	r0, .L48
 377              	.L40:
 102:Core/Src/tim.c ****   sBreakDeadTimeConfig.OffStateIDLEMode = TIM_OSSI_DISABLE;
 378              		.loc 1 102 0
 379 007a 0023     		movs	r3, #0
 380 007c 0093     		str	r3, [sp]
 103:Core/Src/tim.c ****   sBreakDeadTimeConfig.LockLevel = TIM_LOCKLEVEL_OFF;
 381              		.loc 1 103 0
 382 007e 0193     		str	r3, [sp, #4]
 104:Core/Src/tim.c ****   sBreakDeadTimeConfig.DeadTime = 0;
 383              		.loc 1 104 0
 384 0080 0293     		str	r3, [sp, #8]
 105:Core/Src/tim.c ****   sBreakDeadTimeConfig.BreakState = TIM_BREAK_DISABLE;
 385              		.loc 1 105 0
 386 0082 0393     		str	r3, [sp, #12]
 106:Core/Src/tim.c ****   sBreakDeadTimeConfig.BreakPolarity = TIM_BREAKPOLARITY_HIGH;
 387              		.loc 1 106 0
 388 0084 0493     		str	r3, [sp, #16]
 107:Core/Src/tim.c ****   sBreakDeadTimeConfig.AutomaticOutput = TIM_AUTOMATICOUTPUT_DISABLE;
 389              		.loc 1 107 0
 390 0086 4FF40052 		mov	r2, #8192
 391 008a 0592     		str	r2, [sp, #20]
 108:Core/Src/tim.c ****   if (HAL_TIMEx_ConfigBreakDeadTime(&htim8, &sBreakDeadTimeConfig) != HAL_OK)
 392              		.loc 1 108 0
 393 008c 0693     		str	r3, [sp, #24]
 109:Core/Src/tim.c ****   {
 394              		.loc 1 109 0
 395 008e 6946     		mov	r1, sp
 396 0090 1648     		ldr	r0, .L50
 397 0092 FFF7FEFF 		bl	HAL_TIMEx_ConfigBreakDeadTime
 398              	.LVL19:
 399 0096 18BB     		cbnz	r0, .L49
 400              	.L41:
 114:Core/Src/tim.c **** 
 401              		.loc 1 114 0
ARM GAS  C:\Users\n-is\AppData\Local\Temp\cc7ZyNxE.s 			page 12


 402 0098 1448     		ldr	r0, .L50
 403 009a FFF7FEFF 		bl	HAL_TIM_MspPostInit
 404              	.LVL20:
 116:Core/Src/tim.c **** /* TIM14 init function */
 405              		.loc 1 116 0
 406 009e 11B0     		add	sp, sp, #68
 407              	.LCFI12:
 408              		.cfi_remember_state
 409              		.cfi_def_cfa_offset 4
 410              		@ sp needed
 411 00a0 5DF804FB 		ldr	pc, [sp], #4
 412              	.L43:
 413              	.LCFI13:
 414              		.cfi_restore_state
  65:Core/Src/tim.c ****   }
 415              		.loc 1 65 0
 416 00a4 4121     		movs	r1, #65
 417 00a6 1348     		ldr	r0, .L50+8
 418 00a8 FFF7FEFF 		bl	_Error_Handler
 419              	.LVL21:
 420 00ac BAE7     		b	.L35
 421              	.L44:
  72:Core/Src/tim.c ****   }
 422              		.loc 1 72 0
 423 00ae 4821     		movs	r1, #72
 424 00b0 1048     		ldr	r0, .L50+8
 425 00b2 FFF7FEFF 		bl	_Error_Handler
 426              	.LVL22:
 427 00b6 BEE7     		b	.L36
 428              	.L45:
  84:Core/Src/tim.c ****   }
 429              		.loc 1 84 0
 430 00b8 5421     		movs	r1, #84
 431 00ba 0E48     		ldr	r0, .L50+8
 432 00bc FFF7FEFF 		bl	_Error_Handler
 433              	.LVL23:
 434 00c0 C8E7     		b	.L37
 435              	.L46:
  89:Core/Src/tim.c ****   }
 436              		.loc 1 89 0
 437 00c2 5921     		movs	r1, #89
 438 00c4 0B48     		ldr	r0, .L50+8
 439 00c6 FFF7FEFF 		bl	_Error_Handler
 440              	.LVL24:
 441 00ca CAE7     		b	.L38
 442              	.L47:
  94:Core/Src/tim.c ****   }
 443              		.loc 1 94 0
 444 00cc 5E21     		movs	r1, #94
 445 00ce 0948     		ldr	r0, .L50+8
 446 00d0 FFF7FEFF 		bl	_Error_Handler
 447              	.LVL25:
 448 00d4 CBE7     		b	.L39
 449              	.L48:
  99:Core/Src/tim.c ****   }
 450              		.loc 1 99 0
 451 00d6 6321     		movs	r1, #99
ARM GAS  C:\Users\n-is\AppData\Local\Temp\cc7ZyNxE.s 			page 13


 452 00d8 0648     		ldr	r0, .L50+8
 453 00da FFF7FEFF 		bl	_Error_Handler
 454              	.LVL26:
 455 00de CCE7     		b	.L40
 456              	.L49:
 111:Core/Src/tim.c ****   }
 457              		.loc 1 111 0
 458 00e0 6F21     		movs	r1, #111
 459 00e2 0448     		ldr	r0, .L50+8
 460 00e4 FFF7FEFF 		bl	_Error_Handler
 461              	.LVL27:
 462 00e8 D6E7     		b	.L41
 463              	.L51:
 464 00ea 00BF     		.align	2
 465              	.L50:
 466 00ec 00000000 		.word	htim8
 467 00f0 00040140 		.word	1073808384
 468 00f4 00000000 		.word	.LC0
 469              		.cfi_endproc
 470              	.LFE126:
 472              		.section	.text.HAL_TIM_PWM_MspDeInit,"ax",%progbits
 473              		.align	1
 474              		.global	HAL_TIM_PWM_MspDeInit
 475              		.syntax unified
 476              		.thumb
 477              		.thumb_func
 478              		.fpu fpv4-sp-d16
 480              	HAL_TIM_PWM_MspDeInit:
 481              	.LFB131:
 201:Core/Src/tim.c **** 
 202:Core/Src/tim.c **** void HAL_TIM_PWM_MspDeInit(TIM_HandleTypeDef* tim_pwmHandle)
 203:Core/Src/tim.c **** {
 482              		.loc 1 203 0
 483              		.cfi_startproc
 484              		@ args = 0, pretend = 0, frame = 0
 485              		@ frame_needed = 0, uses_anonymous_args = 0
 486              		@ link register save eliminated.
 487              	.LVL28:
 204:Core/Src/tim.c **** 
 205:Core/Src/tim.c ****   if(tim_pwmHandle->Instance==TIM8)
 488              		.loc 1 205 0
 489 0000 0268     		ldr	r2, [r0]
 490 0002 054B     		ldr	r3, .L55
 491 0004 9A42     		cmp	r2, r3
 492 0006 00D0     		beq	.L54
 493              	.L52:
 206:Core/Src/tim.c ****   {
 207:Core/Src/tim.c ****   /* USER CODE BEGIN TIM8_MspDeInit 0 */
 208:Core/Src/tim.c **** 
 209:Core/Src/tim.c ****   /* USER CODE END TIM8_MspDeInit 0 */
 210:Core/Src/tim.c ****     /* Peripheral clock disable */
 211:Core/Src/tim.c ****     __HAL_RCC_TIM8_CLK_DISABLE();
 212:Core/Src/tim.c **** 
 213:Core/Src/tim.c ****     /* TIM8 interrupt Deinit */
 214:Core/Src/tim.c ****   /* USER CODE BEGIN TIM8:TIM8_TRG_COM_TIM14_IRQn disable */
 215:Core/Src/tim.c ****     /**
 216:Core/Src/tim.c ****     * Uncomment the line below to disable the "TIM8_TRG_COM_TIM14_IRQn" interrupt
ARM GAS  C:\Users\n-is\AppData\Local\Temp\cc7ZyNxE.s 			page 14


 217:Core/Src/tim.c ****     * Be aware, disabling shared interrupt may affect other IPs
 218:Core/Src/tim.c ****     */
 219:Core/Src/tim.c ****     /* HAL_NVIC_DisableIRQ(TIM8_TRG_COM_TIM14_IRQn); */
 220:Core/Src/tim.c ****   /* USER CODE END TIM8:TIM8_TRG_COM_TIM14_IRQn disable */
 221:Core/Src/tim.c **** 
 222:Core/Src/tim.c ****   /* USER CODE BEGIN TIM8_MspDeInit 1 */
 223:Core/Src/tim.c **** 
 224:Core/Src/tim.c ****   /* USER CODE END TIM8_MspDeInit 1 */
 225:Core/Src/tim.c ****   }
 226:Core/Src/tim.c **** }
 494              		.loc 1 226 0
 495 0008 7047     		bx	lr
 496              	.L54:
 211:Core/Src/tim.c **** 
 497              		.loc 1 211 0
 498 000a 044A     		ldr	r2, .L55+4
 499 000c 536C     		ldr	r3, [r2, #68]
 500 000e 23F00203 		bic	r3, r3, #2
 501 0012 5364     		str	r3, [r2, #68]
 502              		.loc 1 226 0
 503 0014 F8E7     		b	.L52
 504              	.L56:
 505 0016 00BF     		.align	2
 506              	.L55:
 507 0018 00040140 		.word	1073808384
 508 001c 00380240 		.word	1073887232
 509              		.cfi_endproc
 510              	.LFE131:
 512              		.section	.text.HAL_TIM_Base_MspDeInit,"ax",%progbits
 513              		.align	1
 514              		.global	HAL_TIM_Base_MspDeInit
 515              		.syntax unified
 516              		.thumb
 517              		.thumb_func
 518              		.fpu fpv4-sp-d16
 520              	HAL_TIM_Base_MspDeInit:
 521              	.LFB132:
 227:Core/Src/tim.c **** 
 228:Core/Src/tim.c **** void HAL_TIM_Base_MspDeInit(TIM_HandleTypeDef* tim_baseHandle)
 229:Core/Src/tim.c **** {
 522              		.loc 1 229 0
 523              		.cfi_startproc
 524              		@ args = 0, pretend = 0, frame = 0
 525              		@ frame_needed = 0, uses_anonymous_args = 0
 526              		@ link register save eliminated.
 527              	.LVL29:
 230:Core/Src/tim.c **** 
 231:Core/Src/tim.c ****   if(tim_baseHandle->Instance==TIM14)
 528              		.loc 1 231 0
 529 0000 0268     		ldr	r2, [r0]
 530 0002 054B     		ldr	r3, .L60
 531 0004 9A42     		cmp	r2, r3
 532 0006 00D0     		beq	.L59
 533              	.L57:
 232:Core/Src/tim.c ****   {
 233:Core/Src/tim.c ****   /* USER CODE BEGIN TIM14_MspDeInit 0 */
 234:Core/Src/tim.c **** 
ARM GAS  C:\Users\n-is\AppData\Local\Temp\cc7ZyNxE.s 			page 15


 235:Core/Src/tim.c ****   /* USER CODE END TIM14_MspDeInit 0 */
 236:Core/Src/tim.c ****     /* Peripheral clock disable */
 237:Core/Src/tim.c ****     __HAL_RCC_TIM14_CLK_DISABLE();
 238:Core/Src/tim.c **** 
 239:Core/Src/tim.c ****     /* TIM14 interrupt Deinit */
 240:Core/Src/tim.c ****   /* USER CODE BEGIN TIM14:TIM8_TRG_COM_TIM14_IRQn disable */
 241:Core/Src/tim.c ****     /**
 242:Core/Src/tim.c ****     * Uncomment the line below to disable the "TIM8_TRG_COM_TIM14_IRQn" interrupt
 243:Core/Src/tim.c ****     * Be aware, disabling shared interrupt may affect other IPs
 244:Core/Src/tim.c ****     */
 245:Core/Src/tim.c ****     /* HAL_NVIC_DisableIRQ(TIM8_TRG_COM_TIM14_IRQn); */
 246:Core/Src/tim.c ****   /* USER CODE END TIM14:TIM8_TRG_COM_TIM14_IRQn disable */
 247:Core/Src/tim.c **** 
 248:Core/Src/tim.c ****   /* USER CODE BEGIN TIM14_MspDeInit 1 */
 249:Core/Src/tim.c **** 
 250:Core/Src/tim.c ****   /* USER CODE END TIM14_MspDeInit 1 */
 251:Core/Src/tim.c ****   }
 252:Core/Src/tim.c **** } 
 534              		.loc 1 252 0
 535 0008 7047     		bx	lr
 536              	.L59:
 237:Core/Src/tim.c **** 
 537              		.loc 1 237 0
 538 000a 044A     		ldr	r2, .L60+4
 539 000c 136C     		ldr	r3, [r2, #64]
 540 000e 23F48073 		bic	r3, r3, #256
 541 0012 1364     		str	r3, [r2, #64]
 542              		.loc 1 252 0
 543 0014 F8E7     		b	.L57
 544              	.L61:
 545 0016 00BF     		.align	2
 546              	.L60:
 547 0018 00200040 		.word	1073750016
 548 001c 00380240 		.word	1073887232
 549              		.cfi_endproc
 550              	.LFE132:
 552              		.comm	htim14,60,4
 553              		.comm	htim8,60,4
 554              		.section	.rodata.MX_TIM14_Init.str1.4,"aMS",%progbits,1
 555              		.align	2
 556              	.LC0:
 557 0000 436F7265 		.ascii	"Core/Src/tim.c\000"
 557      2F537263 
 557      2F74696D 
 557      2E6300
 558              		.text
 559              	.Letext0:
 560              		.file 2 "c:\\program files (x86)\\gnu tools arm embedded\\7 2018-q2-update\\arm-none-eabi\\include
 561              		.file 3 "c:\\program files (x86)\\gnu tools arm embedded\\7 2018-q2-update\\arm-none-eabi\\include
 562              		.file 4 "Drivers/CMSIS/Include/core_cm4.h"
 563              		.file 5 "Drivers/CMSIS/Device/ST/STM32F4xx/Include/system_stm32f4xx.h"
 564              		.file 6 "Drivers/CMSIS/Device/ST/STM32F4xx/Include/stm32f407xx.h"
 565              		.file 7 "c:\\program files (x86)\\gnu tools arm embedded\\7 2018-q2-update\\arm-none-eabi\\include
 566              		.file 8 "c:\\program files (x86)\\gnu tools arm embedded\\7 2018-q2-update\\arm-none-eabi\\include
 567              		.file 9 "c:\\program files (x86)\\gnu tools arm embedded\\7 2018-q2-update\\lib\\gcc\\arm-none-eab
 568              		.file 10 "c:\\program files (x86)\\gnu tools arm embedded\\7 2018-q2-update\\arm-none-eabi\\includ
 569              		.file 11 "Drivers/STM32F4xx_HAL_Driver/Inc/stm32f4xx_hal_def.h"
ARM GAS  C:\Users\n-is\AppData\Local\Temp\cc7ZyNxE.s 			page 16


 570              		.file 12 "Drivers/STM32F4xx_HAL_Driver/Inc/stm32f4xx_hal_gpio.h"
 571              		.file 13 "Drivers/STM32F4xx_HAL_Driver/Inc/stm32f4xx_hal_dma.h"
 572              		.file 14 "Drivers/STM32F4xx_HAL_Driver/Inc/stm32f4xx_hal_tim.h"
 573              		.file 15 "Drivers/STM32F4xx_HAL_Driver/Inc/stm32f4xx_hal_tim_ex.h"
 574              		.file 16 "Core/Inc/tim.h"
 575              		.file 17 "Drivers/STM32F4xx_HAL_Driver/Inc/stm32f4xx_hal_cortex.h"
ARM GAS  C:\Users\n-is\AppData\Local\Temp\cc7ZyNxE.s 			page 17

