ARM GAS  C:\Users\Prashant\AppData\Local\Temp\ccxmfo3l.s 			page 1


   1              		.cpu cortex-m4
   2              		.eabi_attribute 27, 1
   3              		.eabi_attribute 28, 1
   4              		.eabi_attribute 20, 1
   5              		.eabi_attribute 21, 1
   6              		.eabi_attribute 23, 3
   7              		.eabi_attribute 24, 1
   8              		.eabi_attribute 25, 1
   9              		.eabi_attribute 26, 1
  10              		.eabi_attribute 30, 1
  11              		.eabi_attribute 34, 1
  12              		.eabi_attribute 18, 4
  13              		.file	"encoder.cpp"
  14              		.text
  15              	.Ltext0:
  16              		.cfi_sections	.debug_frame
  17              		.global	__aeabi_i2d
  18              		.global	__aeabi_dmul
  19              		.global	__aeabi_ddiv
  20              		.global	__aeabi_d2f
  21              		.section	.text._ZN7encoder15calculate_omegaEv,"ax",%progbits
  22              		.align	1
  23              		.global	_ZN7encoder15calculate_omegaEv
  24              		.syntax unified
  25              		.thumb
  26              		.thumb_func
  27              		.fpu fpv4-sp-d16
  29              	_ZN7encoder15calculate_omegaEv:
  30              	.LFB358:
  31              		.file 1 "Core/Src/devs/encoder.cpp"
   1:Core/Src/devs/encoder.cpp **** #include"encoder.h"
   2:Core/Src/devs/encoder.cpp **** 
   3:Core/Src/devs/encoder.cpp **** void encoder::calculate_omega(){
  32              		.loc 1 3 0
  33              		.cfi_startproc
  34              		@ args = 0, pretend = 0, frame = 0
  35              		@ frame_needed = 0, uses_anonymous_args = 0
  36              	.LVL0:
  37 0000 F8B5     		push	{r3, r4, r5, r6, r7, lr}
  38              	.LCFI0:
  39              		.cfi_def_cfa_offset 24
  40              		.cfi_offset 3, -24
  41              		.cfi_offset 4, -20
  42              		.cfi_offset 5, -16
  43              		.cfi_offset 6, -12
  44              		.cfi_offset 7, -8
  45              		.cfi_offset 14, -4
  46 0002 0546     		mov	r5, r0
   4:Core/Src/devs/encoder.cpp **** 	omega_ = (2 * PI * (int16_t)encoder_->henc->Instance->CNT * 1000)/(encoder_->ppr * SAMPLE_TIME);	/
  47              		.loc 1 4 0
  48 0004 0468     		ldr	r4, [r0]
  49 0006 2368     		ldr	r3, [r4]
  50 0008 1B68     		ldr	r3, [r3]
  51 000a 586A     		ldr	r0, [r3, #36]
  52              	.LVL1:
  53 000c 00B2     		sxth	r0, r0
  54 000e FFF7FEFF 		bl	__aeabi_i2d
ARM GAS  C:\Users\Prashant\AppData\Local\Temp\ccxmfo3l.s 			page 2


  55              	.LVL2:
  56 0012 14A3     		adr	r3, .L3+4
  57 0014 D3E90023 		ldrd	r2, [r3]
  58 0018 FFF7FEFF 		bl	__aeabi_dmul
  59              	.LVL3:
  60 001c 0022     		movs	r2, #0
  61 001e 104B     		ldr	r3, .L3
  62 0020 FFF7FEFF 		bl	__aeabi_dmul
  63              	.LVL4:
  64 0024 0646     		mov	r6, r0
  65 0026 0F46     		mov	r7, r1
  66 0028 A388     		ldrh	r3, [r4, #4]
  67 002a 03EB8303 		add	r3, r3, r3, lsl #2
  68 002e 5800     		lsls	r0, r3, #1
  69 0030 FFF7FEFF 		bl	__aeabi_i2d
  70              	.LVL5:
  71 0034 0246     		mov	r2, r0
  72 0036 0B46     		mov	r3, r1
  73 0038 3046     		mov	r0, r6
  74 003a 3946     		mov	r1, r7
  75 003c FFF7FEFF 		bl	__aeabi_ddiv
  76              	.LVL6:
  77 0040 FFF7FEFF 		bl	__aeabi_d2f
  78              	.LVL7:
  79 0044 A860     		str	r0, [r5, #8]	@ float
   5:Core/Src/devs/encoder.cpp **** 	count_ += (int16_t)encoder_->henc->Instance->CNT;
  80              		.loc 1 5 0
  81 0046 2368     		ldr	r3, [r4]
  82 0048 1B68     		ldr	r3, [r3]
  83 004a 5B6A     		ldr	r3, [r3, #36]
  84 004c AA88     		ldrh	r2, [r5, #4]
  85 004e 1344     		add	r3, r3, r2
  86 0050 AB80     		strh	r3, [r5, #4]	@ movhi
   6:Core/Src/devs/encoder.cpp **** 	encoder_->henc->Instance->CNT = 0;
  87              		.loc 1 6 0
  88 0052 2368     		ldr	r3, [r4]
  89 0054 1B68     		ldr	r3, [r3]
  90 0056 0022     		movs	r2, #0
  91 0058 5A62     		str	r2, [r3, #36]
   7:Core/Src/devs/encoder.cpp **** }
  92              		.loc 1 7 0
  93 005a F8BD     		pop	{r3, r4, r5, r6, r7, pc}
  94              	.LVL8:
  95              	.L4:
  96 005c AFF30080 		.align	3
  97              	.L3:
  98 0060 00408F40 		.word	1083129856
  99 0064 182D4454 		.word	1413754136
 100 0068 FB211940 		.word	1075388923
 101              		.cfi_endproc
 102              	.LFE358:
 104              		.section	.text._ZN7encoder9get_omegaEv,"ax",%progbits
 105              		.align	1
 106              		.global	_ZN7encoder9get_omegaEv
 107              		.syntax unified
 108              		.thumb
 109              		.thumb_func
ARM GAS  C:\Users\Prashant\AppData\Local\Temp\ccxmfo3l.s 			page 3


 110              		.fpu fpv4-sp-d16
 112              	_ZN7encoder9get_omegaEv:
 113              	.LFB359:
   8:Core/Src/devs/encoder.cpp **** 
   9:Core/Src/devs/encoder.cpp **** float encoder::get_omega(){
 114              		.loc 1 9 0
 115              		.cfi_startproc
 116              		@ args = 0, pretend = 0, frame = 0
 117              		@ frame_needed = 0, uses_anonymous_args = 0
 118              		@ link register save eliminated.
 119              	.LVL9:
  10:Core/Src/devs/encoder.cpp **** 	return omega_;
  11:Core/Src/devs/encoder.cpp **** }
 120              		.loc 1 11 0
 121 0000 90ED020A 		vldr.32	s0, [r0, #8]
 122 0004 7047     		bx	lr
 123              		.cfi_endproc
 124              	.LFE359:
 126              		.global	__aeabi_f2d
 127              		.global	__aeabi_d2iz
 128              		.section	.text._ZN7encoder11reset_angleEf,"ax",%progbits
 129              		.align	1
 130              		.global	_ZN7encoder11reset_angleEf
 131              		.syntax unified
 132              		.thumb
 133              		.thumb_func
 134              		.fpu fpv4-sp-d16
 136              	_ZN7encoder11reset_angleEf:
 137              	.LFB361:
  12:Core/Src/devs/encoder.cpp **** 
  13:Core/Src/devs/encoder.cpp **** float encoder::get_angle(){
  14:Core/Src/devs/encoder.cpp **** 	angle_ = ((2*PI)*(count_+(int16_t)encoder_->henc->Instance->CNT)/(encoder_->ppr));
  15:Core/Src/devs/encoder.cpp **** 	if(angle_>(2*PI)){
  16:Core/Src/devs/encoder.cpp **** 		reset_angle(angle_-(2*PI));
  17:Core/Src/devs/encoder.cpp **** 	}
  18:Core/Src/devs/encoder.cpp **** 	if(angle_<(-2*PI)){
  19:Core/Src/devs/encoder.cpp **** 		reset_angle(angle_+(2*PI));
  20:Core/Src/devs/encoder.cpp **** 	}
  21:Core/Src/devs/encoder.cpp **** 	return angle_;
  22:Core/Src/devs/encoder.cpp **** }
  23:Core/Src/devs/encoder.cpp **** 
  24:Core/Src/devs/encoder.cpp **** void encoder::reset_angle(float angle_in_radian){
 138              		.loc 1 24 0
 139              		.cfi_startproc
 140              		@ args = 0, pretend = 0, frame = 0
 141              		@ frame_needed = 0, uses_anonymous_args = 0
 142              	.LVL10:
 143 0000 10B5     		push	{r4, lr}
 144              	.LCFI1:
 145              		.cfi_def_cfa_offset 8
 146              		.cfi_offset 4, -8
 147              		.cfi_offset 14, -4
 148 0002 0446     		mov	r4, r0
  25:Core/Src/devs/encoder.cpp **** 	angle_ = angle_in_radian;
 149              		.loc 1 25 0
 150 0004 80ED030A 		vstr.32	s0, [r0, #12]
  26:Core/Src/devs/encoder.cpp **** 	count_ = (angle_*encoder_->ppr)/(2*PI);
ARM GAS  C:\Users\Prashant\AppData\Local\Temp\ccxmfo3l.s 			page 4


 151              		.loc 1 26 0
 152 0008 0368     		ldr	r3, [r0]
 153 000a 9B88     		ldrh	r3, [r3, #4]
 154 000c 07EE903A 		vmov	s15, r3	@ int
 155 0010 F8EEE77A 		vcvt.f32.s32	s15, s15
 156 0014 67EE807A 		vmul.f32	s15, s15, s0
 157 0018 17EE900A 		vmov	r0, s15
 158              	.LVL11:
 159 001c FFF7FEFF 		bl	__aeabi_f2d
 160              	.LVL12:
 161 0020 05A3     		adr	r3, .L8
 162 0022 D3E90023 		ldrd	r2, [r3]
 163 0026 FFF7FEFF 		bl	__aeabi_ddiv
 164              	.LVL13:
 165 002a FFF7FEFF 		bl	__aeabi_d2iz
 166              	.LVL14:
 167 002e A080     		strh	r0, [r4, #4]	@ movhi
  27:Core/Src/devs/encoder.cpp **** }
 168              		.loc 1 27 0
 169 0030 10BD     		pop	{r4, pc}
 170              	.LVL15:
 171              	.L9:
 172 0032 00BFAFF3 		.align	3
 172      0080
 173              	.L8:
 174 0038 182D4454 		.word	1413754136
 175 003c FB211940 		.word	1075388923
 176              		.cfi_endproc
 177              	.LFE361:
 179              		.global	__aeabi_dcmpgt
 180              		.global	__aeabi_dsub
 181              		.global	__aeabi_dcmplt
 182              		.global	__aeabi_dadd
 183              		.section	.text._ZN7encoder9get_angleEv,"ax",%progbits
 184              		.align	1
 185              		.global	_ZN7encoder9get_angleEv
 186              		.syntax unified
 187              		.thumb
 188              		.thumb_func
 189              		.fpu fpv4-sp-d16
 191              	_ZN7encoder9get_angleEv:
 192              	.LFB360:
  13:Core/Src/devs/encoder.cpp **** 	angle_ = ((2*PI)*(count_+(int16_t)encoder_->henc->Instance->CNT)/(encoder_->ppr));
 193              		.loc 1 13 0
 194              		.cfi_startproc
 195              		@ args = 0, pretend = 0, frame = 0
 196              		@ frame_needed = 0, uses_anonymous_args = 0
 197              	.LVL16:
 198 0000 F8B5     		push	{r3, r4, r5, r6, r7, lr}
 199              	.LCFI2:
 200              		.cfi_def_cfa_offset 24
 201              		.cfi_offset 3, -24
 202              		.cfi_offset 4, -20
 203              		.cfi_offset 5, -16
 204              		.cfi_offset 6, -12
 205              		.cfi_offset 7, -8
 206              		.cfi_offset 14, -4
ARM GAS  C:\Users\Prashant\AppData\Local\Temp\ccxmfo3l.s 			page 5


 207 0002 0446     		mov	r4, r0
  14:Core/Src/devs/encoder.cpp **** 	if(angle_>(2*PI)){
 208              		.loc 1 14 0
 209 0004 B0F90430 		ldrsh	r3, [r0, #4]
 210 0008 0568     		ldr	r5, [r0]
 211 000a 2A68     		ldr	r2, [r5]
 212 000c 1268     		ldr	r2, [r2]
 213 000e 506A     		ldr	r0, [r2, #36]
 214              	.LVL17:
 215 0010 03FA80F0 		sxtah	r0, r3, r0
 216 0014 FFF7FEFF 		bl	__aeabi_i2d
 217              	.LVL18:
 218 0018 25A3     		adr	r3, .L20
 219 001a D3E90023 		ldrd	r2, [r3]
 220 001e FFF7FEFF 		bl	__aeabi_dmul
 221              	.LVL19:
 222 0022 0646     		mov	r6, r0
 223 0024 0F46     		mov	r7, r1
 224 0026 A888     		ldrh	r0, [r5, #4]
 225 0028 FFF7FEFF 		bl	__aeabi_i2d
 226              	.LVL20:
 227 002c 0246     		mov	r2, r0
 228 002e 0B46     		mov	r3, r1
 229 0030 3046     		mov	r0, r6
 230 0032 3946     		mov	r1, r7
 231 0034 FFF7FEFF 		bl	__aeabi_ddiv
 232              	.LVL21:
 233 0038 FFF7FEFF 		bl	__aeabi_d2f
 234              	.LVL22:
 235 003c E060     		str	r0, [r4, #12]	@ float
  15:Core/Src/devs/encoder.cpp **** 		reset_angle(angle_-(2*PI));
 236              		.loc 1 15 0
 237 003e FFF7FEFF 		bl	__aeabi_f2d
 238              	.LVL23:
 239 0042 0646     		mov	r6, r0
 240 0044 0F46     		mov	r7, r1
 241 0046 1AA3     		adr	r3, .L20
 242 0048 D3E90023 		ldrd	r2, [r3]
 243 004c FFF7FEFF 		bl	__aeabi_dcmpgt
 244              	.LVL24:
 245 0050 68B9     		cbnz	r0, .L18
 246              	.L11:
  18:Core/Src/devs/encoder.cpp **** 		reset_angle(angle_+(2*PI));
 247              		.loc 1 18 0
 248 0052 E068     		ldr	r0, [r4, #12]	@ float
 249 0054 FFF7FEFF 		bl	__aeabi_f2d
 250              	.LVL25:
 251 0058 0646     		mov	r6, r0
 252 005a 0F46     		mov	r7, r1
 253 005c 16A3     		adr	r3, .L20+8
 254 005e D3E90023 		ldrd	r2, [r3]
 255 0062 FFF7FEFF 		bl	__aeabi_dcmplt
 256              	.LVL26:
 257 0066 88B9     		cbnz	r0, .L19
 258              	.L13:
  22:Core/Src/devs/encoder.cpp **** 
 259              		.loc 1 22 0
ARM GAS  C:\Users\Prashant\AppData\Local\Temp\ccxmfo3l.s 			page 6


 260 0068 94ED030A 		vldr.32	s0, [r4, #12]
 261 006c F8BD     		pop	{r3, r4, r5, r6, r7, pc}
 262              	.LVL27:
 263              	.L18:
  16:Core/Src/devs/encoder.cpp **** 	}
 264              		.loc 1 16 0
 265 006e 10A3     		adr	r3, .L20
 266 0070 D3E90023 		ldrd	r2, [r3]
 267 0074 3046     		mov	r0, r6
 268 0076 3946     		mov	r1, r7
 269 0078 FFF7FEFF 		bl	__aeabi_dsub
 270              	.LVL28:
 271 007c FFF7FEFF 		bl	__aeabi_d2f
 272              	.LVL29:
 273 0080 00EE100A 		vmov	s0, r0
 274 0084 2046     		mov	r0, r4
 275 0086 FFF7FEFF 		bl	_ZN7encoder11reset_angleEf
 276              	.LVL30:
 277 008a E2E7     		b	.L11
 278              	.L19:
  19:Core/Src/devs/encoder.cpp **** 	}
 279              		.loc 1 19 0
 280 008c 08A3     		adr	r3, .L20
 281 008e D3E90023 		ldrd	r2, [r3]
 282 0092 3046     		mov	r0, r6
 283 0094 3946     		mov	r1, r7
 284 0096 FFF7FEFF 		bl	__aeabi_dadd
 285              	.LVL31:
 286 009a FFF7FEFF 		bl	__aeabi_d2f
 287              	.LVL32:
 288 009e 00EE100A 		vmov	s0, r0
 289 00a2 2046     		mov	r0, r4
 290 00a4 FFF7FEFF 		bl	_ZN7encoder11reset_angleEf
 291              	.LVL33:
 292 00a8 DEE7     		b	.L13
 293              	.L21:
 294 00aa 00BFAFF3 		.align	3
 294      0080
 295              	.L20:
 296 00b0 182D4454 		.word	1413754136
 297 00b4 FB211940 		.word	1075388923
 298 00b8 182D4454 		.word	1413754136
 299 00bc FB2119C0 		.word	-1072094725
 300              		.cfi_endproc
 301              	.LFE360:
 303              		.section	.text._ZN7encoder9get_countEv,"ax",%progbits
 304              		.align	1
 305              		.global	_ZN7encoder9get_countEv
 306              		.syntax unified
 307              		.thumb
 308              		.thumb_func
 309              		.fpu fpv4-sp-d16
 311              	_ZN7encoder9get_countEv:
 312              	.LFB362:
  28:Core/Src/devs/encoder.cpp **** 
  29:Core/Src/devs/encoder.cpp **** 
  30:Core/Src/devs/encoder.cpp **** int16_t encoder::get_count(){
ARM GAS  C:\Users\Prashant\AppData\Local\Temp\ccxmfo3l.s 			page 7


 313              		.loc 1 30 0
 314              		.cfi_startproc
 315              		@ args = 0, pretend = 0, frame = 0
 316              		@ frame_needed = 0, uses_anonymous_args = 0
 317              		@ link register save eliminated.
 318              	.LVL34:
  31:Core/Src/devs/encoder.cpp **** 	return count_;
  32:Core/Src/devs/encoder.cpp **** }...
 319              		.loc 1 32 0
 320 0000 B0F90400 		ldrsh	r0, [r0, #4]
 321              	.LVL35:
 322 0004 7047     		bx	lr
 323              		.cfi_endproc
 324              	.LFE362:
 326              		.text
 327              	.Letext0:
 328              		.file 2 "c:\\program files (x86)\\gnu tools arm embedded\\7 2017-q4-major\\arm-none-eabi\\include\
 329              		.file 3 "c:\\program files (x86)\\gnu tools arm embedded\\7 2017-q4-major\\arm-none-eabi\\include\
 330              		.file 4 "Drivers/CMSIS/Include/core_cm4.h"
 331              		.file 5 "Drivers/CMSIS/Device/ST/STM32F4xx/Include/system_stm32f4xx.h"
 332              		.file 6 "Drivers/CMSIS/Device/ST/STM32F4xx/Include/stm32f407xx.h"
 333              		.file 7 "c:\\program files (x86)\\gnu tools arm embedded\\7 2017-q4-major\\arm-none-eabi\\include\
 334              		.file 8 "c:\\program files (x86)\\gnu tools arm embedded\\7 2017-q4-major\\arm-none-eabi\\include\
 335              		.file 9 "c:\\program files (x86)\\gnu tools arm embedded\\7 2017-q4-major\\lib\\gcc\\arm-none-eabi
 336              		.file 10 "c:\\program files (x86)\\gnu tools arm embedded\\7 2017-q4-major\\arm-none-eabi\\include
 337              		.file 11 "Drivers/STM32F4xx_HAL_Driver/Inc/stm32f4xx_hal_def.h"
 338              		.file 12 "Drivers/STM32F4xx_HAL_Driver/Inc/stm32f4xx_hal_dma.h"
 339              		.file 13 "Drivers/STM32F4xx_HAL_Driver/Inc/stm32f4xx_hal_tim.h"
 340              		.file 14 "Core/Inc/periphs/tim.h"
 341              		.file 15 "c:\\program files (x86)\\gnu tools arm embedded\\7 2017-q4-major\\arm-none-eabi\\include
 342              		.file 16 "c:\\program files (x86)\\gnu tools arm embedded\\7 2017-q4-major\\arm-none-eabi\\include
 343              		.file 17 "c:\\program files (x86)\\gnu tools arm embedded\\7 2017-q4-major\\arm-none-eabi\\include
 344              		.file 18 "c:\\program files (x86)\\gnu tools arm embedded\\7 2017-q4-major\\arm-none-eabi\\include
 345              		.file 19 "c:\\program files (x86)\\gnu tools arm embedded\\7 2017-q4-major\\arm-none-eabi\\include
 346              		.file 20 "Core/Inc/devs/encoder.h"
 347              		.file 21 "<built-in>"
ARM GAS  C:\Users\Prashant\AppData\Local\Temp\ccxmfo3l.s 			page 8

