ARM GAS  C:\Users\Prashant\AppData\Local\Temp\ccV4syd7.s 			page 1


   1              		.cpu cortex-m4
   2              		.eabi_attribute 27, 1
   3              		.eabi_attribute 28, 1
   4              		.eabi_attribute 20, 1
   5              		.eabi_attribute 21, 1
   6              		.eabi_attribute 23, 3
   7              		.eabi_attribute 24, 1
   8              		.eabi_attribute 25, 1
   9              		.eabi_attribute 26, 1
  10              		.eabi_attribute 30, 1
  11              		.eabi_attribute 34, 1
  12              		.eabi_attribute 18, 4
  13              		.file	"robot.cpp"
  14              		.text
  15              	.Ltext0:
  16              		.cfi_sections	.debug_frame
  17              		.section	.text._ZN4Vec3IfED2Ev,"axG",%progbits,_ZN4Vec3IfED5Ev,comdat
  18              		.align	1
  19              		.weak	_ZN4Vec3IfED2Ev
  20              		.syntax unified
  21              		.thumb
  22              		.thumb_func
  23              		.fpu fpv4-sp-d16
  25              	_ZN4Vec3IfED2Ev:
  26              	.LFB498:
  27              		.file 1 "Core/Inc/utils/vec3.h"
   1:Core/Inc/utils/vec3.h **** /*
   2:Core/Inc/utils/vec3.h ****  * vec3.h
   3:Core/Inc/utils/vec3.h ****  * 
   4:Core/Inc/utils/vec3.h ****  * Created : 11/9/2018
   5:Core/Inc/utils/vec3.h ****  *  Author : n-is
   6:Core/Inc/utils/vec3.h ****  *   email : 073bex422.nischal@pcampus.edu.np
   7:Core/Inc/utils/vec3.h ****  */
   8:Core/Inc/utils/vec3.h **** 
   9:Core/Inc/utils/vec3.h **** #ifndef _VEC3_H_
  10:Core/Inc/utils/vec3.h **** #define _VEC3_H_
  11:Core/Inc/utils/vec3.h **** 
  12:Core/Inc/utils/vec3.h **** #include "stm32f4xx_hal.h"
  13:Core/Inc/utils/vec3.h **** #include "main.h"
  14:Core/Inc/utils/vec3.h **** 
  15:Core/Inc/utils/vec3.h **** template <typename T>
  16:Core/Inc/utils/vec3.h **** void swap_Element(T &first, T &second)
  17:Core/Inc/utils/vec3.h **** {
  18:Core/Inc/utils/vec3.h ****         T temp = first;
  19:Core/Inc/utils/vec3.h ****         first = second;
  20:Core/Inc/utils/vec3.h ****         second = temp;
  21:Core/Inc/utils/vec3.h **** }
  22:Core/Inc/utils/vec3.h **** 
  23:Core/Inc/utils/vec3.h **** template <class T>
  24:Core/Inc/utils/vec3.h **** class Vec3
  25:Core/Inc/utils/vec3.h **** {
  26:Core/Inc/utils/vec3.h **** public:
  27:Core/Inc/utils/vec3.h ****         Vec3() { set_Values(0,0,0); }
  28:Core/Inc/utils/vec3.h ****         Vec3(T x, T y, T z) { set_Values(x,y,z); }
  29:Core/Inc/utils/vec3.h **** 
  30:Core/Inc/utils/vec3.h ****         Vec3(Vec3 &&) = default;
  31:Core/Inc/utils/vec3.h ****         Vec3 &operator=(Vec3 &&) = default;
ARM GAS  C:\Users\Prashant\AppData\Local\Temp\ccV4syd7.s 			page 2


  32:Core/Inc/utils/vec3.h ****         ~Vec3() { }
  28              		.loc 1 32 0
  29              		.cfi_startproc
  30              		@ args = 0, pretend = 0, frame = 0
  31              		@ frame_needed = 0, uses_anonymous_args = 0
  32              		@ link register save eliminated.
  33              	.LVL0:
  34              		.loc 1 32 0
  35 0000 7047     		bx	lr
  36              		.cfi_endproc
  37              	.LFE498:
  39              		.weak	_ZN4Vec3IfED1Ev
  40              		.thumb_set _ZN4Vec3IfED1Ev,_ZN4Vec3IfED2Ev
  41              		.section	.text._Z41__static_initialization_and_destruction_0ii,"ax",%progbits
  42              		.align	1
  43              		.syntax unified
  44              		.thumb
  45              		.thumb_func
  46              		.fpu fpv4-sp-d16
  48              	_Z41__static_initialization_and_destruction_0ii:
  49              	.LFB506:
  50              		.file 2 "Core/Src/robot/robot.cpp"
   1:Core/Src/robot/robot.cpp **** #include "robot.h"
   2:Core/Src/robot/robot.cpp **** extern leg leg[1];
   3:Core/Src/robot/robot.cpp **** extern steering steering;
   4:Core/Src/robot/robot.cpp **** 
   5:Core/Src/robot/robot.cpp **** Vec3<float> read_Orientation(uint32_t dt_millis);
   6:Core/Src/robot/robot.cpp **** Vec3<float> initial_angle;
   7:Core/Src/robot/robot.cpp **** Vec3<float> angle;
   8:Core/Src/robot/robot.cpp **** 
   9:Core/Src/robot/robot.cpp **** static const float robot_speed = 20;
  10:Core/Src/robot/robot.cpp **** static float leg_speed = robot_speed;    //35 is the maximum with safe zone
  11:Core/Src/robot/robot.cpp **** static const float steering_speed = 0.7; // 1.35 is the 100%
  12:Core/Src/robot/robot.cpp **** static const float steering_angle_limit = 9 * PI / 180;
  13:Core/Src/robot/robot.cpp **** static float number_of_samples = 0;
  14:Core/Src/robot/robot.cpp **** static bool orientation_flag = false;
  15:Core/Src/robot/robot.cpp **** 
  16:Core/Src/robot/robot.cpp **** float robot_angle = 0, temp_robot_angle = 0;
  17:Core/Src/robot/robot.cpp **** float tolerance = 0.5 * PI / 180;
  18:Core/Src/robot/robot.cpp **** 
  19:Core/Src/robot/robot.cpp **** // float steps[6] = {12, 17, 23, 30, 45, 80};
  20:Core/Src/robot/robot.cpp **** // float angles[6] = {0, 45, 45, 55, -15, 0};
  21:Core/Src/robot/robot.cpp **** 
  22:Core/Src/robot/robot.cpp **** float steps[6] = {12, 17, 21, 24, 45, 80};
  23:Core/Src/robot/robot.cpp **** float angles[6] = {0, 45, 45, 50, -20, 0};
  24:Core/Src/robot/robot.cpp **** 
  25:Core/Src/robot/robot.cpp **** bool go(int steps, float angle)
  26:Core/Src/robot/robot.cpp **** {
  27:Core/Src/robot/robot.cpp **** 	angle *= PI / 180;
  28:Core/Src/robot/robot.cpp **** 	move_leg(steps, angle);
  29:Core/Src/robot/robot.cpp **** 	move_steering(steps, angle);
  30:Core/Src/robot/robot.cpp **** 
  31:Core/Src/robot/robot.cpp **** 	calculate_robot_angle();
  32:Core/Src/robot/robot.cpp **** 	//printf("steps = %d \trobot_angle = %d, leg_omega = %d \t steering_angle = %d, st_omega = %d\n",
  33:Core/Src/robot/robot.cpp **** 	//leg[0].steps,  (int)(robot_angle*180/PI), (int)(leg[0].get_omega()*100), (int)(steering.get_angl
  34:Core/Src/robot/robot.cpp **** 	
  35:Core/Src/robot/robot.cpp **** 	if ((leg[0].get_steps() >= steps) && (fabs(angle - robot_angle) <= 0.04))
ARM GAS  C:\Users\Prashant\AppData\Local\Temp\ccV4syd7.s 			page 3


  36:Core/Src/robot/robot.cpp **** 	{
  37:Core/Src/robot/robot.cpp **** 		leg[0].set_omega(0);
  38:Core/Src/robot/robot.cpp **** 		steering.set_omega(0);
  39:Core/Src/robot/robot.cpp **** 		return true;
  40:Core/Src/robot/robot.cpp **** 	}
  41:Core/Src/robot/robot.cpp **** 	else
  42:Core/Src/robot/robot.cpp **** 	{
  43:Core/Src/robot/robot.cpp **** 		leg[0].set_omega(leg_speed);
  44:Core/Src/robot/robot.cpp **** 		return false;
  45:Core/Src/robot/robot.cpp **** 	}
  46:Core/Src/robot/robot.cpp **** }
  47:Core/Src/robot/robot.cpp **** 
  48:Core/Src/robot/robot.cpp **** void move_leg(int steps, float angle)
  49:Core/Src/robot/robot.cpp **** {
  50:Core/Src/robot/robot.cpp **** 	//Setting the slow speed in sand dune and tussok
  51:Core/Src/robot/robot.cpp **** 	leg_speed = (steps == 23 || steps == 40) ? robot_speed / 1.35 : robot_speed;
  52:Core/Src/robot/robot.cpp **** 	leg[0].set_omega(leg_speed);
  53:Core/Src/robot/robot.cpp **** }
  54:Core/Src/robot/robot.cpp **** void move_steering(int steps, float angle)
  55:Core/Src/robot/robot.cpp **** {
  56:Core/Src/robot/robot.cpp **** 	if (leg[0].is_raised() == Leg_condition::RAISED)
  57:Core/Src/robot/robot.cpp **** 	{
  58:Core/Src/robot/robot.cpp **** 		//printf("raised");
  59:Core/Src/robot/robot.cpp **** 		if ((steering.get_angle() > -steering_angle_limit) && (steering.get_angle() < steering_angle_limi
  60:Core/Src/robot/robot.cpp **** 		{
  61:Core/Src/robot/robot.cpp **** 			if (angle > (robot_angle + tolerance))
  62:Core/Src/robot/robot.cpp **** 				steering.set_omega(steering_speed);
  63:Core/Src/robot/robot.cpp **** 
  64:Core/Src/robot/robot.cpp **** 			else if (angle < (robot_angle - tolerance))
  65:Core/Src/robot/robot.cpp **** 				steering.set_omega(-steering_speed);
  66:Core/Src/robot/robot.cpp **** 
  67:Core/Src/robot/robot.cpp **** 			else
  68:Core/Src/robot/robot.cpp **** 				steering.set_omega(0);
  69:Core/Src/robot/robot.cpp **** 		}
  70:Core/Src/robot/robot.cpp **** 		else{
  71:Core/Src/robot/robot.cpp **** 			steering.set_omega((steering.get_angle() > 0) ? -steering_speed : steering_speed);  //for protec
  72:Core/Src/robot/robot.cpp **** 		}
  73:Core/Src/robot/robot.cpp **** 	}
  74:Core/Src/robot/robot.cpp **** 	else if (leg[0].is_raised() == Leg_condition::FALLEN)
  75:Core/Src/robot/robot.cpp **** 	{
  76:Core/Src/robot/robot.cpp **** 		//printf ("fallen");
  77:Core/Src/robot/robot.cpp **** 		if (fabs(angle - robot_angle) <= steering_angle_limit)
  78:Core/Src/robot/robot.cpp **** 		{
  79:Core/Src/robot/robot.cpp **** 			if (steering.get_angle() > (tolerance)){
  80:Core/Src/robot/robot.cpp **** 				steering.set_omega(-steering_speed);}
  81:Core/Src/robot/robot.cpp **** 
  82:Core/Src/robot/robot.cpp **** 			else if (steering.get_angle() < (-tolerance)){
  83:Core/Src/robot/robot.cpp **** 				steering.set_omega(steering_speed);}
  84:Core/Src/robot/robot.cpp **** 
  85:Core/Src/robot/robot.cpp **** 			else{
  86:Core/Src/robot/robot.cpp **** 				steering.set_omega(0);}
  87:Core/Src/robot/robot.cpp **** 			// printf("center_alligned\t");
  88:Core/Src/robot/robot.cpp **** 		}
  89:Core/Src/robot/robot.cpp **** 		else{
  90:Core/Src/robot/robot.cpp **** 			
  91:Core/Src/robot/robot.cpp **** 			if(fabs(steering.get_angle()) < steering_angle_limit){
  92:Core/Src/robot/robot.cpp **** 				steering.set_omega((angle>0)? (-steering_speed):steering_speed);
ARM GAS  C:\Users\Prashant\AppData\Local\Temp\ccV4syd7.s 			page 4


  93:Core/Src/robot/robot.cpp **** 			}
  94:Core/Src/robot/robot.cpp **** 			else{
  95:Core/Src/robot/robot.cpp **** 				steering.set_omega(0);
  96:Core/Src/robot/robot.cpp **** 			}			
  97:Core/Src/robot/robot.cpp **** 			//printf("peak_alligned\t");
  98:Core/Src/robot/robot.cpp **** 		}
  99:Core/Src/robot/robot.cpp **** 	}
 100:Core/Src/robot/robot.cpp **** 	else
 101:Core/Src/robot/robot.cpp **** 	{
 102:Core/Src/robot/robot.cpp **** 		// printf("nothing");
 103:Core/Src/robot/robot.cpp **** 		steering.set_omega(0);
 104:Core/Src/robot/robot.cpp **** 	}
 105:Core/Src/robot/robot.cpp **** }
 106:Core/Src/robot/robot.cpp **** 
 107:Core/Src/robot/robot.cpp **** void calculate_robot_angle()
 108:Core/Src/robot/robot.cpp **** {
 109:Core/Src/robot/robot.cpp **** 	/*/
 110:Core/Src/robot/robot.cpp **** 	if (leg[0].is_raised_without_deadzone())
 111:Core/Src/robot/robot.cpp **** 	{
 112:Core/Src/robot/robot.cpp **** 		robot_angle = steering.get_angle() + temp_robot_angle;
 113:Core/Src/robot/robot.cpp **** 	}
 114:Core/Src/robot/robot.cpp **** 	else
 115:Core/Src/robot/robot.cpp **** 	{
 116:Core/Src/robot/robot.cpp **** 		temp_robot_angle = robot_angle - steering.get_angle();
 117:Core/Src/robot/robot.cpp **** 	}
 118:Core/Src/robot/robot.cpp **** 	/*/
 119:Core/Src/robot/robot.cpp **** 
 120:Core/Src/robot/robot.cpp **** 	//Alternate code to calculate robot_angle using IMU
 121:Core/Src/robot/robot.cpp **** 	// robot_angle = -(initial_angle.getZ() - angle.getZ())*PI/180;
 122:Core/Src/robot/robot.cpp **** 
 123:Core/Src/robot/robot.cpp **** 	if(leg[0].is_raised() == Leg_condition::RAISED){
 124:Core/Src/robot/robot.cpp **** 		temp_robot_angle += -(initial_angle.getZ() - angle.getZ())*PI/180;
 125:Core/Src/robot/robot.cpp **** 		number_of_samples++;
 126:Core/Src/robot/robot.cpp **** 		orientation_flag = true;
 127:Core/Src/robot/robot.cpp **** 		printf("\tcalculating");
 128:Core/Src/robot/robot.cpp **** 	}
 129:Core/Src/robot/robot.cpp **** 	else{
 130:Core/Src/robot/robot.cpp **** 		if(orientation_flag){
 131:Core/Src/robot/robot.cpp **** 			robot_angle = temp_robot_angle / number_of_samples;
 132:Core/Src/robot/robot.cpp **** 			temp_robot_angle = 0;
 133:Core/Src/robot/robot.cpp **** 			number_of_samples = 0;
 134:Core/Src/robot/robot.cpp **** 			orientation_flag = false;
 135:Core/Src/robot/robot.cpp **** 			printf("displayed");
 136:Core/Src/robot/robot.cpp **** 		}
 137:Core/Src/robot/robot.cpp **** 		printf("still");
 138:Core/Src/robot/robot.cpp **** 	}
 139:Core/Src/robot/robot.cpp **** 
 140:Core/Src/robot/robot.cpp **** 	//*/
 141:Core/Src/robot/robot.cpp **** }
 142:Core/Src/robot/robot.cpp **** 
 143:Core/Src/robot/robot.cpp **** void calculate_datas()
 144:Core/Src/robot/robot.cpp **** {
 145:Core/Src/robot/robot.cpp **** 	leg[0].calculate_omega();
 146:Core/Src/robot/robot.cpp **** 	steering.calculate_omega();
 147:Core/Src/robot/robot.cpp **** 	angle = read_Orientation(10);
 148:Core/Src/robot/robot.cpp **** 	printf("angleX = %d \t angleY = %d \t angleZ = %d \t robotangle = %d \n",
 149:Core/Src/robot/robot.cpp **** 	 (int)(angle.getX()), (int)(angle.getY()), (int)(angle.getZ()), (int)(robot_angle*180/PI));
ARM GAS  C:\Users\Prashant\AppData\Local\Temp\ccV4syd7.s 			page 5


 150:Core/Src/robot/robot.cpp **** }
 151:Core/Src/robot/robot.cpp **** 
 152:Core/Src/robot/robot.cpp **** bool play()
 153:Core/Src/robot/robot.cpp **** {
 154:Core/Src/robot/robot.cpp **** 	uint32_t dt = HAL_GetTick();
 155:Core/Src/robot/robot.cpp **** 	initial_angle = read_Orientation(10);
 156:Core/Src/robot/robot.cpp **** 		// while (true)
 157:Core/Src/robot/robot.cpp **** 		// {
 158:Core/Src/robot/robot.cpp **** 		// 	if ((HAL_GetTick() - dt) >= (int)(SAMPLE_TIME))
 159:Core/Src/robot/robot.cpp **** 		// 	{
 160:Core/Src/robot/robot.cpp **** 		// 		dt = HAL_GetTick();
 161:Core/Src/robot/robot.cpp **** 
 162:Core/Src/robot/robot.cpp **** 		// 		calculate_datas();
 163:Core/Src/robot/robot.cpp **** 		// 		if (go(8,45) == true)
 164:Core/Src/robot/robot.cpp **** 		// 			break;
 165:Core/Src/robot/robot.cpp **** 		// 	}
 166:Core/Src/robot/robot.cpp **** 		// }
 167:Core/Src/robot/robot.cpp **** 		for (int i = 0; i < 6; i++)
 168:Core/Src/robot/robot.cpp **** 		{
 169:Core/Src/robot/robot.cpp **** 			while (true)
 170:Core/Src/robot/robot.cpp **** 			{
 171:Core/Src/robot/robot.cpp **** 				if ((HAL_GetTick() - dt) >= (int)(SAMPLE_TIME))
 172:Core/Src/robot/robot.cpp **** 				{
 173:Core/Src/robot/robot.cpp **** 					dt = HAL_GetTick();
 174:Core/Src/robot/robot.cpp **** 					calculate_datas();
 175:Core/Src/robot/robot.cpp **** 					if (go(steps[i], angles[i]) == true)
 176:Core/Src/robot/robot.cpp **** 						break;
 177:Core/Src/robot/robot.cpp **** 				}
 178:Core/Src/robot/robot.cpp **** 			}
 179:Core/Src/robot/robot.cpp **** 			printf("\tstep=%d\t", i);
 180:Core/Src/robot/robot.cpp **** 		}
 181:Core/Src/robot/robot.cpp **** 	return true;
 182:Core/Src/robot/robot.cpp **** }
  51              		.loc 2 182 0
  52              		.cfi_startproc
  53              		@ args = 0, pretend = 0, frame = 0
  54              		@ frame_needed = 0, uses_anonymous_args = 0
  55              	.LVL1:
  56 0000 0128     		cmp	r0, #1
  57 0002 00D0     		beq	.L8
  58              	.L5:
  59 0004 7047     		bx	lr
  60              	.L8:
  61              		.loc 2 182 0 is_stmt 0 discriminator 1
  62 0006 4FF6FF73 		movw	r3, #65535
  63 000a 9942     		cmp	r1, r3
  64 000c FAD1     		bne	.L5
  65              		.loc 2 182 0
  66 000e 70B5     		push	{r4, r5, r6, lr}
  67              	.LCFI0:
  68              		.cfi_def_cfa_offset 16
  69              		.cfi_offset 4, -16
  70              		.cfi_offset 5, -12
  71              		.cfi_offset 6, -8
  72              		.cfi_offset 14, -4
  73              	.LVL2:
  74              	.LBB72:
ARM GAS  C:\Users\Prashant\AppData\Local\Temp\ccV4syd7.s 			page 6


  75              	.LBB73:
  76              	.LBB74:
  77              	.LBB75:
  78              	.LBB76:
  33:Core/Inc/utils/vec3.h **** 
  34:Core/Inc/utils/vec3.h ****         T getX() const { return x_; }
  35:Core/Inc/utils/vec3.h ****         T getY() const { return y_; }
  36:Core/Inc/utils/vec3.h ****         T getZ() const { return z_; }
  37:Core/Inc/utils/vec3.h ****         void setX(T x) { x_ = x; }
  79              		.loc 1 37 0 is_stmt 1
  80 0010 0948     		ldr	r0, .L9
  81              	.LVL3:
  82 0012 0024     		movs	r4, #0
  83 0014 0460     		str	r4, [r0]	@ float
  84              	.LVL4:
  85              	.LBE76:
  86              	.LBE75:
  87              	.LBB77:
  88              	.LBB78:
  38:Core/Inc/utils/vec3.h ****         void setY(T y) { y_ = y; }
  89              		.loc 1 38 0
  90 0016 4460     		str	r4, [r0, #4]	@ float
  91              	.LVL5:
  92              	.LBE78:
  93              	.LBE77:
  94              	.LBB79:
  95              	.LBB80:
  39:Core/Inc/utils/vec3.h ****         void setZ(T z) { z_ = z; }
  96              		.loc 1 39 0
  97 0018 8460     		str	r4, [r0, #8]	@ float
  98              	.LVL6:
  99              	.LBE80:
 100              	.LBE79:
 101              	.LBE74:
 102              	.LBE73:
 103              	.LBE72:
   6:Core/Src/robot/robot.cpp **** Vec3<float> angle;
 104              		.loc 2 6 0
 105 001a 084E     		ldr	r6, .L9+4
 106 001c 084D     		ldr	r5, .L9+8
 107 001e 3246     		mov	r2, r6
 108 0020 2946     		mov	r1, r5
 109              	.LVL7:
 110 0022 FFF7FEFF 		bl	__aeabi_atexit
 111              	.LVL8:
 112              	.LBB81:
 113              	.LBB82:
 114              	.LBB83:
 115              	.LBB84:
 116              	.LBB85:
  37:Core/Inc/utils/vec3.h ****         void setY(T y) { y_ = y; }
 117              		.loc 1 37 0
 118 0026 0748     		ldr	r0, .L9+12
 119 0028 0460     		str	r4, [r0]	@ float
 120              	.LVL9:
 121              	.LBE85:
 122              	.LBE84:
ARM GAS  C:\Users\Prashant\AppData\Local\Temp\ccV4syd7.s 			page 7


 123              	.LBB86:
 124              	.LBB87:
  38:Core/Inc/utils/vec3.h ****         void setZ(T z) { z_ = z; }
 125              		.loc 1 38 0
 126 002a 4460     		str	r4, [r0, #4]	@ float
 127              	.LVL10:
 128              	.LBE87:
 129              	.LBE86:
 130              	.LBB88:
 131              	.LBB89:
 132              		.loc 1 39 0
 133 002c 8460     		str	r4, [r0, #8]	@ float
 134              	.LVL11:
 135              	.LBE89:
 136              	.LBE88:
 137              	.LBE83:
 138              	.LBE82:
 139              	.LBE81:
   7:Core/Src/robot/robot.cpp **** 
 140              		.loc 2 7 0
 141 002e 3246     		mov	r2, r6
 142 0030 2946     		mov	r1, r5
 143 0032 FFF7FEFF 		bl	__aeabi_atexit
 144              	.LVL12:
 145              		.loc 2 182 0
 146 0036 70BD     		pop	{r4, r5, r6, pc}
 147              	.L10:
 148              		.align	2
 149              	.L9:
 150 0038 00000000 		.word	.LANCHOR0
 151 003c 00000000 		.word	__dso_handle
 152 0040 00000000 		.word	_ZN4Vec3IfED1Ev
 153 0044 00000000 		.word	.LANCHOR1
 154              		.cfi_endproc
 155              	.LFE506:
 157              		.section	.text._Z8move_legif,"ax",%progbits
 158              		.align	1
 159              		.global	_Z8move_legif
 160              		.syntax unified
 161              		.thumb
 162              		.thumb_func
 163              		.fpu fpv4-sp-d16
 165              	_Z8move_legif:
 166              	.LFB488:
  49:Core/Src/robot/robot.cpp **** 	//Setting the slow speed in sand dune and tussok
 167              		.loc 2 49 0
 168              		.cfi_startproc
 169              		@ args = 0, pretend = 0, frame = 0
 170              		@ frame_needed = 0, uses_anonymous_args = 0
 171              	.LVL13:
 172 0000 08B5     		push	{r3, lr}
 173              	.LCFI1:
 174              		.cfi_def_cfa_offset 8
 175              		.cfi_offset 3, -8
 176              		.cfi_offset 14, -4
  51:Core/Src/robot/robot.cpp **** 	leg[0].set_omega(leg_speed);
 177              		.loc 2 51 0
ARM GAS  C:\Users\Prashant\AppData\Local\Temp\ccV4syd7.s 			page 8


 178 0002 1728     		cmp	r0, #23
 179 0004 0DD0     		beq	.L13
  51:Core/Src/robot/robot.cpp **** 	leg[0].set_omega(leg_speed);
 180              		.loc 2 51 0 is_stmt 0 discriminator 2
 181 0006 2828     		cmp	r0, #40
 182 0008 08D0     		beq	.L16
  51:Core/Src/robot/robot.cpp **** 	leg[0].set_omega(leg_speed);
 183              		.loc 2 51 0
 184 000a B3EE040A 		vmov.f32	s0, #2.0e+1
 185              	.LVL14:
 186              	.L12:
  51:Core/Src/robot/robot.cpp **** 	leg[0].set_omega(leg_speed);
 187              		.loc 2 51 0 discriminator 6
 188 000e 064B     		ldr	r3, .L17
 189 0010 83ED000A 		vstr.32	s0, [r3]
  52:Core/Src/robot/robot.cpp **** }
 190              		.loc 2 52 0 is_stmt 1 discriminator 6
 191 0014 0548     		ldr	r0, .L17+4
 192              	.LVL15:
 193 0016 FFF7FEFF 		bl	_ZN3leg9set_omegaEf
 194              	.LVL16:
  53:Core/Src/robot/robot.cpp **** void move_steering(int steps, float angle)
 195              		.loc 2 53 0 discriminator 6
 196 001a 08BD     		pop	{r3, pc}
 197              	.LVL17:
 198              	.L16:
  51:Core/Src/robot/robot.cpp **** 	leg[0].set_omega(leg_speed);
 199              		.loc 2 51 0
 200 001c 9FED040A 		vldr.32	s0, .L17+8
 201              	.LVL18:
 202 0020 F5E7     		b	.L12
 203              	.LVL19:
 204              	.L13:
 205 0022 9FED030A 		vldr.32	s0, .L17+8
 206              	.LVL20:
 207 0026 F2E7     		b	.L12
 208              	.L18:
 209              		.align	2
 210              	.L17:
 211 0028 00000000 		.word	.LANCHOR2
 212 002c 00000000 		.word	leg
 213 0030 7B096D41 		.word	1097664891
 214              		.cfi_endproc
 215              	.LFE488:
 217              		.section	.text._Z13move_steeringif,"ax",%progbits
 218              		.align	1
 219              		.global	_Z13move_steeringif
 220              		.syntax unified
 221              		.thumb
 222              		.thumb_func
 223              		.fpu fpv4-sp-d16
 225              	_Z13move_steeringif:
 226              	.LFB489:
  55:Core/Src/robot/robot.cpp **** 	if (leg[0].is_raised() == Leg_condition::RAISED)
 227              		.loc 2 55 0
 228              		.cfi_startproc
 229              		@ args = 0, pretend = 0, frame = 0
ARM GAS  C:\Users\Prashant\AppData\Local\Temp\ccV4syd7.s 			page 9


 230              		@ frame_needed = 0, uses_anonymous_args = 0
 231              	.LVL21:
 232 0000 08B5     		push	{r3, lr}
 233              	.LCFI2:
 234              		.cfi_def_cfa_offset 8
 235              		.cfi_offset 3, -8
 236              		.cfi_offset 14, -4
 237 0002 2DED028B 		vpush.64	{d8}
 238              	.LCFI3:
 239              		.cfi_def_cfa_offset 16
 240              		.cfi_offset 80, -16
 241              		.cfi_offset 81, -12
 242 0006 B0EE408A 		vmov.f32	s16, s0
  56:Core/Src/robot/robot.cpp **** 	{
 243              		.loc 2 56 0
 244 000a 5A48     		ldr	r0, .L64
 245              	.LVL22:
 246 000c FFF7FEFF 		bl	_ZN3leg9is_raisedEv
 247              	.LVL23:
 248 0010 0028     		cmp	r0, #0
 249 0012 4CD1     		bne	.L20
 250              	.LVL24:
 251              	.LBB90:
 252              	.LBB91:
 253              		.file 3 "Core/Inc/devs/steering.h"
   1:Core/Inc/devs/steering.h **** #ifndef _STEERING_H_
   2:Core/Inc/devs/steering.h **** #define _STEERING_H_
   3:Core/Inc/devs/steering.h **** 
   4:Core/Inc/devs/steering.h **** #include "motor.h"
   5:Core/Inc/devs/steering.h **** #include "encoder.h"
   6:Core/Inc/devs/steering.h **** #include "pid.h"
   7:Core/Inc/devs/steering.h **** #include "limit_switch.h"
   8:Core/Inc/devs/steering.h **** 
   9:Core/Inc/devs/steering.h **** class steering
  10:Core/Inc/devs/steering.h **** {
  11:Core/Inc/devs/steering.h **** public:
  12:Core/Inc/devs/steering.h **** 	steering(){}
  13:Core/Inc/devs/steering.h **** 	steering(steering &&) = default;
  14:Core/Inc/devs/steering.h **** 	steering(const steering &) = default;
  15:Core/Inc/devs/steering.h **** 	steering &operator=(steering &&) = default;
  16:Core/Inc/devs/steering.h **** 	steering &operator=(const steering &) = default;
  17:Core/Inc/devs/steering.h **** 	~steering(){}
  18:Core/Inc/devs/steering.h ****         void set_config(motor_config *motor, encoder_config *encoder) { 
  19:Core/Inc/devs/steering.h **** 		motor__.set_config(motor);
  20:Core/Inc/devs/steering.h **** 		encoder__.set_config(encoder);
  21:Core/Inc/devs/steering.h **** 	}
  22:Core/Inc/devs/steering.h **** 	void set_PID_constants(float kp, float ki, float kd, float lower_limit, float upper_limit) {
  23:Core/Inc/devs/steering.h **** 		dpid_.set_P(kp);
  24:Core/Inc/devs/steering.h **** 		dpid_.set_I(ki);
  25:Core/Inc/devs/steering.h **** 		dpid_.set_D(kd);
  26:Core/Inc/devs/steering.h **** 		dpid_.set_Limits(upper_limit, lower_limit);
  27:Core/Inc/devs/steering.h **** 	}
  28:Core/Inc/devs/steering.h **** 
  29:Core/Inc/devs/steering.h **** 	void set_omega(float omega);
  30:Core/Inc/devs/steering.h **** 	void reset_angle(float angle_in_radians);
  31:Core/Inc/devs/steering.h **** 	void calculate_omega();
  32:Core/Inc/devs/steering.h **** 
ARM GAS  C:\Users\Prashant\AppData\Local\Temp\ccV4syd7.s 			page 10


  33:Core/Inc/devs/steering.h **** 	float get_omega(void){return encoder__.get_omega();}
  34:Core/Inc/devs/steering.h **** 	float get_angle(void){return encoder__.get_angle();}
 254              		.loc 3 34 0
 255 0014 5848     		ldr	r0, .L64+4
 256 0016 FFF7FEFF 		bl	_ZN7encoder9get_angleEv
 257              	.LVL25:
 258              	.LBE91:
 259              	.LBE90:
  59:Core/Src/robot/robot.cpp **** 		{
 260              		.loc 2 59 0
 261 001a DFED587A 		vldr.32	s15, .L64+8
 262 001e B4EEE70A 		vcmpe.f32	s0, s15
 263 0022 F1EE10FA 		vmrs	APSR_nzcv, FPSCR
 264 0026 23DD     		ble	.L21
 265              	.LVL26:
 266              	.LBB92:
 267              	.LBB93:
 268              		.loc 3 34 0
 269 0028 5348     		ldr	r0, .L64+4
 270 002a FFF7FEFF 		bl	_ZN7encoder9get_angleEv
 271              	.LVL27:
 272              	.LBE93:
 273              	.LBE92:
  59:Core/Src/robot/robot.cpp **** 		{
 274              		.loc 2 59 0
 275 002e DFED547A 		vldr.32	s15, .L64+12
 276 0032 B4EEE70A 		vcmpe.f32	s0, s15
 277 0036 F1EE10FA 		vmrs	APSR_nzcv, FPSCR
 278 003a 19D5     		bpl	.L21
  61:Core/Src/robot/robot.cpp **** 				steering.set_omega(steering_speed);
 279              		.loc 2 61 0
 280 003c 514B     		ldr	r3, .L64+16
 281 003e D3ED007A 		vldr.32	s15, [r3]
 282 0042 514B     		ldr	r3, .L64+20
 283 0044 93ED007A 		vldr.32	s14, [r3]
 284 0048 77EE876A 		vadd.f32	s13, s15, s14
 285 004c F4EEC86A 		vcmpe.f32	s13, s16
 286 0050 F1EE10FA 		vmrs	APSR_nzcv, FPSCR
 287 0054 1CD4     		bmi	.L62
  64:Core/Src/robot/robot.cpp **** 				steering.set_omega(-steering_speed);
 288              		.loc 2 64 0
 289 0056 77EEC77A 		vsub.f32	s15, s15, s14
 290 005a F4EEC87A 		vcmpe.f32	s15, s16
 291 005e F1EE10FA 		vmrs	APSR_nzcv, FPSCR
 292 0062 1BDD     		ble	.L55
  65:Core/Src/robot/robot.cpp **** 
 293              		.loc 2 65 0
 294 0064 9FED490A 		vldr.32	s0, .L64+24
 295 0068 4948     		ldr	r0, .L64+28
 296 006a FFF7FEFF 		bl	_ZN8steering9set_omegaEf
 297              	.LVL28:
 298 006e 0CE0     		b	.L19
 299              	.L21:
 300              	.LVL29:
 301              	.LBB94:
 302              	.LBB95:
 303              		.loc 3 34 0 discriminator 4
ARM GAS  C:\Users\Prashant\AppData\Local\Temp\ccV4syd7.s 			page 11


 304 0070 4148     		ldr	r0, .L64+4
 305 0072 FFF7FEFF 		bl	_ZN7encoder9get_angleEv
 306              	.LVL30:
 307              	.LBE95:
 308              	.LBE94:
  71:Core/Src/robot/robot.cpp **** 		}
 309              		.loc 2 71 0 discriminator 4
 310 0076 B5EEC00A 		vcmpe.f32	s0, #0
 311 007a F1EE10FA 		vmrs	APSR_nzcv, FPSCR
 312 007e 13DD     		ble	.L54
  71:Core/Src/robot/robot.cpp **** 		}
 313              		.loc 2 71 0 is_stmt 0
 314 0080 9FED420A 		vldr.32	s0, .L64+24
 315              	.L26:
  71:Core/Src/robot/robot.cpp **** 		}
 316              		.loc 2 71 0 discriminator 4
 317 0084 4248     		ldr	r0, .L64+28
 318 0086 FFF7FEFF 		bl	_ZN8steering9set_omegaEf
 319              	.LVL31:
 320              	.L19:
 105:Core/Src/robot/robot.cpp **** 
 321              		.loc 2 105 0 is_stmt 1
 322 008a BDEC028B 		vldm	sp!, {d8}
 323              	.LCFI4:
 324              		.cfi_remember_state
 325              		.cfi_restore 80
 326              		.cfi_restore 81
 327              		.cfi_def_cfa_offset 8
 328              	.LVL32:
 329 008e 08BD     		pop	{r3, pc}
 330              	.LVL33:
 331              	.L62:
 332              	.LCFI5:
 333              		.cfi_restore_state
  62:Core/Src/robot/robot.cpp **** 
 334              		.loc 2 62 0
 335 0090 9FED400A 		vldr.32	s0, .L64+32
 336 0094 3E48     		ldr	r0, .L64+28
 337 0096 FFF7FEFF 		bl	_ZN8steering9set_omegaEf
 338              	.LVL34:
 339 009a F6E7     		b	.L19
 340              	.L55:
  68:Core/Src/robot/robot.cpp **** 		}
 341              		.loc 2 68 0
 342 009c 9FED3E0A 		vldr.32	s0, .L64+36
 343 00a0 3B48     		ldr	r0, .L64+28
 344 00a2 FFF7FEFF 		bl	_ZN8steering9set_omegaEf
 345              	.LVL35:
 346 00a6 F0E7     		b	.L19
 347              	.L54:
  71:Core/Src/robot/robot.cpp **** 		}
 348              		.loc 2 71 0
 349 00a8 9FED3A0A 		vldr.32	s0, .L64+32
 350 00ac EAE7     		b	.L26
 351              	.L20:
  74:Core/Src/robot/robot.cpp **** 	{
 352              		.loc 2 74 0
ARM GAS  C:\Users\Prashant\AppData\Local\Temp\ccV4syd7.s 			page 12


 353 00ae 3148     		ldr	r0, .L64
 354 00b0 FFF7FEFF 		bl	_ZN3leg9is_raisedEv
 355              	.LVL36:
 356 00b4 0128     		cmp	r0, #1
 357 00b6 57D1     		bne	.L31
  77:Core/Src/robot/robot.cpp **** 		{
 358              		.loc 2 77 0
 359 00b8 324B     		ldr	r3, .L64+16
 360 00ba D3ED007A 		vldr.32	s15, [r3]
 361 00be 78EE677A 		vsub.f32	s15, s16, s15
 362              	.LVL37:
 363              	.LBB96:
 364              	.LBB97:
 365              		.file 4 "c:\\program files (x86)\\gnu tools arm embedded\\7 2017-q4-major\\arm-none-eabi\\include\
   1:c:\program files (x86)\gnu tools arm embedded\7 2017-q4-major\arm-none-eabi\include\c++\7.2.1\cmath **** // -*- C++ -*- C forwarding header.
   2:c:\program files (x86)\gnu tools arm embedded\7 2017-q4-major\arm-none-eabi\include\c++\7.2.1\cmath **** 
   3:c:\program files (x86)\gnu tools arm embedded\7 2017-q4-major\arm-none-eabi\include\c++\7.2.1\cmath **** // Copyright (C) 1997-2017 Free Software Foundation, Inc.
   4:c:\program files (x86)\gnu tools arm embedded\7 2017-q4-major\arm-none-eabi\include\c++\7.2.1\cmath **** //
   5:c:\program files (x86)\gnu tools arm embedded\7 2017-q4-major\arm-none-eabi\include\c++\7.2.1\cmath **** // This file is part of the GNU ISO C++ Library.  This library is free
   6:c:\program files (x86)\gnu tools arm embedded\7 2017-q4-major\arm-none-eabi\include\c++\7.2.1\cmath **** // software; you can redistribute it and/or modify it under the
   7:c:\program files (x86)\gnu tools arm embedded\7 2017-q4-major\arm-none-eabi\include\c++\7.2.1\cmath **** // terms of the GNU General Public License as published by the
   8:c:\program files (x86)\gnu tools arm embedded\7 2017-q4-major\arm-none-eabi\include\c++\7.2.1\cmath **** // Free Software Foundation; either version 3, or (at your option)
   9:c:\program files (x86)\gnu tools arm embedded\7 2017-q4-major\arm-none-eabi\include\c++\7.2.1\cmath **** // any later version.
  10:c:\program files (x86)\gnu tools arm embedded\7 2017-q4-major\arm-none-eabi\include\c++\7.2.1\cmath **** 
  11:c:\program files (x86)\gnu tools arm embedded\7 2017-q4-major\arm-none-eabi\include\c++\7.2.1\cmath **** // This library is distributed in the hope that it will be useful,
  12:c:\program files (x86)\gnu tools arm embedded\7 2017-q4-major\arm-none-eabi\include\c++\7.2.1\cmath **** // but WITHOUT ANY WARRANTY; without even the implied warranty of
  13:c:\program files (x86)\gnu tools arm embedded\7 2017-q4-major\arm-none-eabi\include\c++\7.2.1\cmath **** // MERCHANTABILITY or FITNESS FOR A PARTICULAR PURPOSE.  See the
  14:c:\program files (x86)\gnu tools arm embedded\7 2017-q4-major\arm-none-eabi\include\c++\7.2.1\cmath **** // GNU General Public License for more details.
  15:c:\program files (x86)\gnu tools arm embedded\7 2017-q4-major\arm-none-eabi\include\c++\7.2.1\cmath **** 
  16:c:\program files (x86)\gnu tools arm embedded\7 2017-q4-major\arm-none-eabi\include\c++\7.2.1\cmath **** // Under Section 7 of GPL version 3, you are granted additional
  17:c:\program files (x86)\gnu tools arm embedded\7 2017-q4-major\arm-none-eabi\include\c++\7.2.1\cmath **** // permissions described in the GCC Runtime Library Exception, version
  18:c:\program files (x86)\gnu tools arm embedded\7 2017-q4-major\arm-none-eabi\include\c++\7.2.1\cmath **** // 3.1, as published by the Free Software Foundation.
  19:c:\program files (x86)\gnu tools arm embedded\7 2017-q4-major\arm-none-eabi\include\c++\7.2.1\cmath **** 
  20:c:\program files (x86)\gnu tools arm embedded\7 2017-q4-major\arm-none-eabi\include\c++\7.2.1\cmath **** // You should have received a copy of the GNU General Public License and
  21:c:\program files (x86)\gnu tools arm embedded\7 2017-q4-major\arm-none-eabi\include\c++\7.2.1\cmath **** // a copy of the GCC Runtime Library Exception along with this program;
  22:c:\program files (x86)\gnu tools arm embedded\7 2017-q4-major\arm-none-eabi\include\c++\7.2.1\cmath **** // see the files COPYING3 and COPYING.RUNTIME respectively.  If not, see
  23:c:\program files (x86)\gnu tools arm embedded\7 2017-q4-major\arm-none-eabi\include\c++\7.2.1\cmath **** // <http://www.gnu.org/licenses/>.
  24:c:\program files (x86)\gnu tools arm embedded\7 2017-q4-major\arm-none-eabi\include\c++\7.2.1\cmath **** 
  25:c:\program files (x86)\gnu tools arm embedded\7 2017-q4-major\arm-none-eabi\include\c++\7.2.1\cmath **** /** @file include/cmath
  26:c:\program files (x86)\gnu tools arm embedded\7 2017-q4-major\arm-none-eabi\include\c++\7.2.1\cmath ****  *  This is a Standard C++ Library file.  You should @c \#include this file
  27:c:\program files (x86)\gnu tools arm embedded\7 2017-q4-major\arm-none-eabi\include\c++\7.2.1\cmath ****  *  in your programs, rather than any of the @a *.h implementation files.
  28:c:\program files (x86)\gnu tools arm embedded\7 2017-q4-major\arm-none-eabi\include\c++\7.2.1\cmath ****  *
  29:c:\program files (x86)\gnu tools arm embedded\7 2017-q4-major\arm-none-eabi\include\c++\7.2.1\cmath ****  *  This is the C++ version of the Standard C Library header @c math.h,
  30:c:\program files (x86)\gnu tools arm embedded\7 2017-q4-major\arm-none-eabi\include\c++\7.2.1\cmath ****  *  and its contents are (mostly) the same as that header, but are all
  31:c:\program files (x86)\gnu tools arm embedded\7 2017-q4-major\arm-none-eabi\include\c++\7.2.1\cmath ****  *  contained in the namespace @c std (except for names which are defined
  32:c:\program files (x86)\gnu tools arm embedded\7 2017-q4-major\arm-none-eabi\include\c++\7.2.1\cmath ****  *  as macros in C).
  33:c:\program files (x86)\gnu tools arm embedded\7 2017-q4-major\arm-none-eabi\include\c++\7.2.1\cmath ****  */
  34:c:\program files (x86)\gnu tools arm embedded\7 2017-q4-major\arm-none-eabi\include\c++\7.2.1\cmath **** 
  35:c:\program files (x86)\gnu tools arm embedded\7 2017-q4-major\arm-none-eabi\include\c++\7.2.1\cmath **** //
  36:c:\program files (x86)\gnu tools arm embedded\7 2017-q4-major\arm-none-eabi\include\c++\7.2.1\cmath **** // ISO C++ 14882: 26.5  C library
  37:c:\program files (x86)\gnu tools arm embedded\7 2017-q4-major\arm-none-eabi\include\c++\7.2.1\cmath **** //
  38:c:\program files (x86)\gnu tools arm embedded\7 2017-q4-major\arm-none-eabi\include\c++\7.2.1\cmath **** 
  39:c:\program files (x86)\gnu tools arm embedded\7 2017-q4-major\arm-none-eabi\include\c++\7.2.1\cmath **** #pragma GCC system_header
  40:c:\program files (x86)\gnu tools arm embedded\7 2017-q4-major\arm-none-eabi\include\c++\7.2.1\cmath **** 
  41:c:\program files (x86)\gnu tools arm embedded\7 2017-q4-major\arm-none-eabi\include\c++\7.2.1\cmath **** #include <bits/c++config.h>
  42:c:\program files (x86)\gnu tools arm embedded\7 2017-q4-major\arm-none-eabi\include\c++\7.2.1\cmath **** #include <bits/cpp_type_traits.h>
  43:c:\program files (x86)\gnu tools arm embedded\7 2017-q4-major\arm-none-eabi\include\c++\7.2.1\cmath **** #include <ext/type_traits.h>
ARM GAS  C:\Users\Prashant\AppData\Local\Temp\ccV4syd7.s 			page 13


  44:c:\program files (x86)\gnu tools arm embedded\7 2017-q4-major\arm-none-eabi\include\c++\7.2.1\cmath **** #define _GLIBCXX_INCLUDE_NEXT_C_HEADERS
  45:c:\program files (x86)\gnu tools arm embedded\7 2017-q4-major\arm-none-eabi\include\c++\7.2.1\cmath **** #include_next <math.h>
  46:c:\program files (x86)\gnu tools arm embedded\7 2017-q4-major\arm-none-eabi\include\c++\7.2.1\cmath **** #undef _GLIBCXX_INCLUDE_NEXT_C_HEADERS
  47:c:\program files (x86)\gnu tools arm embedded\7 2017-q4-major\arm-none-eabi\include\c++\7.2.1\cmath **** #include <bits/std_abs.h>
  48:c:\program files (x86)\gnu tools arm embedded\7 2017-q4-major\arm-none-eabi\include\c++\7.2.1\cmath **** 
  49:c:\program files (x86)\gnu tools arm embedded\7 2017-q4-major\arm-none-eabi\include\c++\7.2.1\cmath **** #ifndef _GLIBCXX_CMATH
  50:c:\program files (x86)\gnu tools arm embedded\7 2017-q4-major\arm-none-eabi\include\c++\7.2.1\cmath **** #define _GLIBCXX_CMATH 1
  51:c:\program files (x86)\gnu tools arm embedded\7 2017-q4-major\arm-none-eabi\include\c++\7.2.1\cmath **** 
  52:c:\program files (x86)\gnu tools arm embedded\7 2017-q4-major\arm-none-eabi\include\c++\7.2.1\cmath **** // Get rid of those macros defined in <math.h> in lieu of real functions.
  53:c:\program files (x86)\gnu tools arm embedded\7 2017-q4-major\arm-none-eabi\include\c++\7.2.1\cmath **** #undef div
  54:c:\program files (x86)\gnu tools arm embedded\7 2017-q4-major\arm-none-eabi\include\c++\7.2.1\cmath **** #undef acos
  55:c:\program files (x86)\gnu tools arm embedded\7 2017-q4-major\arm-none-eabi\include\c++\7.2.1\cmath **** #undef asin
  56:c:\program files (x86)\gnu tools arm embedded\7 2017-q4-major\arm-none-eabi\include\c++\7.2.1\cmath **** #undef atan
  57:c:\program files (x86)\gnu tools arm embedded\7 2017-q4-major\arm-none-eabi\include\c++\7.2.1\cmath **** #undef atan2
  58:c:\program files (x86)\gnu tools arm embedded\7 2017-q4-major\arm-none-eabi\include\c++\7.2.1\cmath **** #undef ceil
  59:c:\program files (x86)\gnu tools arm embedded\7 2017-q4-major\arm-none-eabi\include\c++\7.2.1\cmath **** #undef cos
  60:c:\program files (x86)\gnu tools arm embedded\7 2017-q4-major\arm-none-eabi\include\c++\7.2.1\cmath **** #undef cosh
  61:c:\program files (x86)\gnu tools arm embedded\7 2017-q4-major\arm-none-eabi\include\c++\7.2.1\cmath **** #undef exp
  62:c:\program files (x86)\gnu tools arm embedded\7 2017-q4-major\arm-none-eabi\include\c++\7.2.1\cmath **** #undef fabs
  63:c:\program files (x86)\gnu tools arm embedded\7 2017-q4-major\arm-none-eabi\include\c++\7.2.1\cmath **** #undef floor
  64:c:\program files (x86)\gnu tools arm embedded\7 2017-q4-major\arm-none-eabi\include\c++\7.2.1\cmath **** #undef fmod
  65:c:\program files (x86)\gnu tools arm embedded\7 2017-q4-major\arm-none-eabi\include\c++\7.2.1\cmath **** #undef frexp
  66:c:\program files (x86)\gnu tools arm embedded\7 2017-q4-major\arm-none-eabi\include\c++\7.2.1\cmath **** #undef ldexp
  67:c:\program files (x86)\gnu tools arm embedded\7 2017-q4-major\arm-none-eabi\include\c++\7.2.1\cmath **** #undef log
  68:c:\program files (x86)\gnu tools arm embedded\7 2017-q4-major\arm-none-eabi\include\c++\7.2.1\cmath **** #undef log10
  69:c:\program files (x86)\gnu tools arm embedded\7 2017-q4-major\arm-none-eabi\include\c++\7.2.1\cmath **** #undef modf
  70:c:\program files (x86)\gnu tools arm embedded\7 2017-q4-major\arm-none-eabi\include\c++\7.2.1\cmath **** #undef pow
  71:c:\program files (x86)\gnu tools arm embedded\7 2017-q4-major\arm-none-eabi\include\c++\7.2.1\cmath **** #undef sin
  72:c:\program files (x86)\gnu tools arm embedded\7 2017-q4-major\arm-none-eabi\include\c++\7.2.1\cmath **** #undef sinh
  73:c:\program files (x86)\gnu tools arm embedded\7 2017-q4-major\arm-none-eabi\include\c++\7.2.1\cmath **** #undef sqrt
  74:c:\program files (x86)\gnu tools arm embedded\7 2017-q4-major\arm-none-eabi\include\c++\7.2.1\cmath **** #undef tan
  75:c:\program files (x86)\gnu tools arm embedded\7 2017-q4-major\arm-none-eabi\include\c++\7.2.1\cmath **** #undef tanh
  76:c:\program files (x86)\gnu tools arm embedded\7 2017-q4-major\arm-none-eabi\include\c++\7.2.1\cmath **** 
  77:c:\program files (x86)\gnu tools arm embedded\7 2017-q4-major\arm-none-eabi\include\c++\7.2.1\cmath **** extern "C++"
  78:c:\program files (x86)\gnu tools arm embedded\7 2017-q4-major\arm-none-eabi\include\c++\7.2.1\cmath **** {
  79:c:\program files (x86)\gnu tools arm embedded\7 2017-q4-major\arm-none-eabi\include\c++\7.2.1\cmath **** namespace std _GLIBCXX_VISIBILITY(default)
  80:c:\program files (x86)\gnu tools arm embedded\7 2017-q4-major\arm-none-eabi\include\c++\7.2.1\cmath **** {
  81:c:\program files (x86)\gnu tools arm embedded\7 2017-q4-major\arm-none-eabi\include\c++\7.2.1\cmath **** _GLIBCXX_BEGIN_NAMESPACE_VERSION
  82:c:\program files (x86)\gnu tools arm embedded\7 2017-q4-major\arm-none-eabi\include\c++\7.2.1\cmath **** 
  83:c:\program files (x86)\gnu tools arm embedded\7 2017-q4-major\arm-none-eabi\include\c++\7.2.1\cmath ****   using ::acos;
  84:c:\program files (x86)\gnu tools arm embedded\7 2017-q4-major\arm-none-eabi\include\c++\7.2.1\cmath **** 
  85:c:\program files (x86)\gnu tools arm embedded\7 2017-q4-major\arm-none-eabi\include\c++\7.2.1\cmath **** #ifndef __CORRECT_ISO_CPP_MATH_H_PROTO
  86:c:\program files (x86)\gnu tools arm embedded\7 2017-q4-major\arm-none-eabi\include\c++\7.2.1\cmath ****   inline _GLIBCXX_CONSTEXPR float
  87:c:\program files (x86)\gnu tools arm embedded\7 2017-q4-major\arm-none-eabi\include\c++\7.2.1\cmath ****   acos(float __x)
  88:c:\program files (x86)\gnu tools arm embedded\7 2017-q4-major\arm-none-eabi\include\c++\7.2.1\cmath ****   { return __builtin_acosf(__x); }
  89:c:\program files (x86)\gnu tools arm embedded\7 2017-q4-major\arm-none-eabi\include\c++\7.2.1\cmath **** 
  90:c:\program files (x86)\gnu tools arm embedded\7 2017-q4-major\arm-none-eabi\include\c++\7.2.1\cmath ****   inline _GLIBCXX_CONSTEXPR long double
  91:c:\program files (x86)\gnu tools arm embedded\7 2017-q4-major\arm-none-eabi\include\c++\7.2.1\cmath ****   acos(long double __x)
  92:c:\program files (x86)\gnu tools arm embedded\7 2017-q4-major\arm-none-eabi\include\c++\7.2.1\cmath ****   { return __builtin_acosl(__x); }
  93:c:\program files (x86)\gnu tools arm embedded\7 2017-q4-major\arm-none-eabi\include\c++\7.2.1\cmath **** #endif
  94:c:\program files (x86)\gnu tools arm embedded\7 2017-q4-major\arm-none-eabi\include\c++\7.2.1\cmath **** 
  95:c:\program files (x86)\gnu tools arm embedded\7 2017-q4-major\arm-none-eabi\include\c++\7.2.1\cmath ****   template<typename _Tp>
  96:c:\program files (x86)\gnu tools arm embedded\7 2017-q4-major\arm-none-eabi\include\c++\7.2.1\cmath ****     inline _GLIBCXX_CONSTEXPR
  97:c:\program files (x86)\gnu tools arm embedded\7 2017-q4-major\arm-none-eabi\include\c++\7.2.1\cmath ****     typename __gnu_cxx::__enable_if<__is_integer<_Tp>::__value, 
  98:c:\program files (x86)\gnu tools arm embedded\7 2017-q4-major\arm-none-eabi\include\c++\7.2.1\cmath ****                                     double>::__type
  99:c:\program files (x86)\gnu tools arm embedded\7 2017-q4-major\arm-none-eabi\include\c++\7.2.1\cmath ****     acos(_Tp __x)
 100:c:\program files (x86)\gnu tools arm embedded\7 2017-q4-major\arm-none-eabi\include\c++\7.2.1\cmath ****     { return __builtin_acos(__x); }
ARM GAS  C:\Users\Prashant\AppData\Local\Temp\ccV4syd7.s 			page 14


 101:c:\program files (x86)\gnu tools arm embedded\7 2017-q4-major\arm-none-eabi\include\c++\7.2.1\cmath **** 
 102:c:\program files (x86)\gnu tools arm embedded\7 2017-q4-major\arm-none-eabi\include\c++\7.2.1\cmath ****   using ::asin;
 103:c:\program files (x86)\gnu tools arm embedded\7 2017-q4-major\arm-none-eabi\include\c++\7.2.1\cmath **** 
 104:c:\program files (x86)\gnu tools arm embedded\7 2017-q4-major\arm-none-eabi\include\c++\7.2.1\cmath **** #ifndef __CORRECT_ISO_CPP_MATH_H_PROTO
 105:c:\program files (x86)\gnu tools arm embedded\7 2017-q4-major\arm-none-eabi\include\c++\7.2.1\cmath ****   inline _GLIBCXX_CONSTEXPR float
 106:c:\program files (x86)\gnu tools arm embedded\7 2017-q4-major\arm-none-eabi\include\c++\7.2.1\cmath ****   asin(float __x)
 107:c:\program files (x86)\gnu tools arm embedded\7 2017-q4-major\arm-none-eabi\include\c++\7.2.1\cmath ****   { return __builtin_asinf(__x); }
 108:c:\program files (x86)\gnu tools arm embedded\7 2017-q4-major\arm-none-eabi\include\c++\7.2.1\cmath **** 
 109:c:\program files (x86)\gnu tools arm embedded\7 2017-q4-major\arm-none-eabi\include\c++\7.2.1\cmath ****   inline _GLIBCXX_CONSTEXPR long double
 110:c:\program files (x86)\gnu tools arm embedded\7 2017-q4-major\arm-none-eabi\include\c++\7.2.1\cmath ****   asin(long double __x)
 111:c:\program files (x86)\gnu tools arm embedded\7 2017-q4-major\arm-none-eabi\include\c++\7.2.1\cmath ****   { return __builtin_asinl(__x); }
 112:c:\program files (x86)\gnu tools arm embedded\7 2017-q4-major\arm-none-eabi\include\c++\7.2.1\cmath **** #endif
 113:c:\program files (x86)\gnu tools arm embedded\7 2017-q4-major\arm-none-eabi\include\c++\7.2.1\cmath **** 
 114:c:\program files (x86)\gnu tools arm embedded\7 2017-q4-major\arm-none-eabi\include\c++\7.2.1\cmath ****   template<typename _Tp>
 115:c:\program files (x86)\gnu tools arm embedded\7 2017-q4-major\arm-none-eabi\include\c++\7.2.1\cmath ****     inline _GLIBCXX_CONSTEXPR
 116:c:\program files (x86)\gnu tools arm embedded\7 2017-q4-major\arm-none-eabi\include\c++\7.2.1\cmath ****     typename __gnu_cxx::__enable_if<__is_integer<_Tp>::__value,
 117:c:\program files (x86)\gnu tools arm embedded\7 2017-q4-major\arm-none-eabi\include\c++\7.2.1\cmath ****                                     double>::__type
 118:c:\program files (x86)\gnu tools arm embedded\7 2017-q4-major\arm-none-eabi\include\c++\7.2.1\cmath ****     asin(_Tp __x)
 119:c:\program files (x86)\gnu tools arm embedded\7 2017-q4-major\arm-none-eabi\include\c++\7.2.1\cmath ****     { return __builtin_asin(__x); }
 120:c:\program files (x86)\gnu tools arm embedded\7 2017-q4-major\arm-none-eabi\include\c++\7.2.1\cmath **** 
 121:c:\program files (x86)\gnu tools arm embedded\7 2017-q4-major\arm-none-eabi\include\c++\7.2.1\cmath ****   using ::atan;
 122:c:\program files (x86)\gnu tools arm embedded\7 2017-q4-major\arm-none-eabi\include\c++\7.2.1\cmath **** 
 123:c:\program files (x86)\gnu tools arm embedded\7 2017-q4-major\arm-none-eabi\include\c++\7.2.1\cmath **** #ifndef __CORRECT_ISO_CPP_MATH_H_PROTO
 124:c:\program files (x86)\gnu tools arm embedded\7 2017-q4-major\arm-none-eabi\include\c++\7.2.1\cmath ****   inline _GLIBCXX_CONSTEXPR float
 125:c:\program files (x86)\gnu tools arm embedded\7 2017-q4-major\arm-none-eabi\include\c++\7.2.1\cmath ****   atan(float __x)
 126:c:\program files (x86)\gnu tools arm embedded\7 2017-q4-major\arm-none-eabi\include\c++\7.2.1\cmath ****   { return __builtin_atanf(__x); }
 127:c:\program files (x86)\gnu tools arm embedded\7 2017-q4-major\arm-none-eabi\include\c++\7.2.1\cmath **** 
 128:c:\program files (x86)\gnu tools arm embedded\7 2017-q4-major\arm-none-eabi\include\c++\7.2.1\cmath ****   inline _GLIBCXX_CONSTEXPR long double
 129:c:\program files (x86)\gnu tools arm embedded\7 2017-q4-major\arm-none-eabi\include\c++\7.2.1\cmath ****   atan(long double __x)
 130:c:\program files (x86)\gnu tools arm embedded\7 2017-q4-major\arm-none-eabi\include\c++\7.2.1\cmath ****   { return __builtin_atanl(__x); }
 131:c:\program files (x86)\gnu tools arm embedded\7 2017-q4-major\arm-none-eabi\include\c++\7.2.1\cmath **** #endif
 132:c:\program files (x86)\gnu tools arm embedded\7 2017-q4-major\arm-none-eabi\include\c++\7.2.1\cmath **** 
 133:c:\program files (x86)\gnu tools arm embedded\7 2017-q4-major\arm-none-eabi\include\c++\7.2.1\cmath ****   template<typename _Tp>
 134:c:\program files (x86)\gnu tools arm embedded\7 2017-q4-major\arm-none-eabi\include\c++\7.2.1\cmath ****     inline _GLIBCXX_CONSTEXPR
 135:c:\program files (x86)\gnu tools arm embedded\7 2017-q4-major\arm-none-eabi\include\c++\7.2.1\cmath ****     typename __gnu_cxx::__enable_if<__is_integer<_Tp>::__value,
 136:c:\program files (x86)\gnu tools arm embedded\7 2017-q4-major\arm-none-eabi\include\c++\7.2.1\cmath ****                                     double>::__type
 137:c:\program files (x86)\gnu tools arm embedded\7 2017-q4-major\arm-none-eabi\include\c++\7.2.1\cmath ****     atan(_Tp __x)
 138:c:\program files (x86)\gnu tools arm embedded\7 2017-q4-major\arm-none-eabi\include\c++\7.2.1\cmath ****     { return __builtin_atan(__x); }
 139:c:\program files (x86)\gnu tools arm embedded\7 2017-q4-major\arm-none-eabi\include\c++\7.2.1\cmath **** 
 140:c:\program files (x86)\gnu tools arm embedded\7 2017-q4-major\arm-none-eabi\include\c++\7.2.1\cmath ****   using ::atan2;
 141:c:\program files (x86)\gnu tools arm embedded\7 2017-q4-major\arm-none-eabi\include\c++\7.2.1\cmath **** 
 142:c:\program files (x86)\gnu tools arm embedded\7 2017-q4-major\arm-none-eabi\include\c++\7.2.1\cmath **** #ifndef __CORRECT_ISO_CPP_MATH_H_PROTO
 143:c:\program files (x86)\gnu tools arm embedded\7 2017-q4-major\arm-none-eabi\include\c++\7.2.1\cmath ****   inline _GLIBCXX_CONSTEXPR float
 144:c:\program files (x86)\gnu tools arm embedded\7 2017-q4-major\arm-none-eabi\include\c++\7.2.1\cmath ****   atan2(float __y, float __x)
 145:c:\program files (x86)\gnu tools arm embedded\7 2017-q4-major\arm-none-eabi\include\c++\7.2.1\cmath ****   { return __builtin_atan2f(__y, __x); }
 146:c:\program files (x86)\gnu tools arm embedded\7 2017-q4-major\arm-none-eabi\include\c++\7.2.1\cmath **** 
 147:c:\program files (x86)\gnu tools arm embedded\7 2017-q4-major\arm-none-eabi\include\c++\7.2.1\cmath ****   inline _GLIBCXX_CONSTEXPR long double
 148:c:\program files (x86)\gnu tools arm embedded\7 2017-q4-major\arm-none-eabi\include\c++\7.2.1\cmath ****   atan2(long double __y, long double __x)
 149:c:\program files (x86)\gnu tools arm embedded\7 2017-q4-major\arm-none-eabi\include\c++\7.2.1\cmath ****   { return __builtin_atan2l(__y, __x); }
 150:c:\program files (x86)\gnu tools arm embedded\7 2017-q4-major\arm-none-eabi\include\c++\7.2.1\cmath **** #endif
 151:c:\program files (x86)\gnu tools arm embedded\7 2017-q4-major\arm-none-eabi\include\c++\7.2.1\cmath **** 
 152:c:\program files (x86)\gnu tools arm embedded\7 2017-q4-major\arm-none-eabi\include\c++\7.2.1\cmath ****   template<typename _Tp, typename _Up>
 153:c:\program files (x86)\gnu tools arm embedded\7 2017-q4-major\arm-none-eabi\include\c++\7.2.1\cmath ****     inline _GLIBCXX_CONSTEXPR
 154:c:\program files (x86)\gnu tools arm embedded\7 2017-q4-major\arm-none-eabi\include\c++\7.2.1\cmath ****     typename __gnu_cxx::__promote_2<_Tp, _Up>::__type
 155:c:\program files (x86)\gnu tools arm embedded\7 2017-q4-major\arm-none-eabi\include\c++\7.2.1\cmath ****     atan2(_Tp __y, _Up __x)
 156:c:\program files (x86)\gnu tools arm embedded\7 2017-q4-major\arm-none-eabi\include\c++\7.2.1\cmath ****     {
 157:c:\program files (x86)\gnu tools arm embedded\7 2017-q4-major\arm-none-eabi\include\c++\7.2.1\cmath ****       typedef typename __gnu_cxx::__promote_2<_Tp, _Up>::__type __type;
ARM GAS  C:\Users\Prashant\AppData\Local\Temp\ccV4syd7.s 			page 15


 158:c:\program files (x86)\gnu tools arm embedded\7 2017-q4-major\arm-none-eabi\include\c++\7.2.1\cmath ****       return atan2(__type(__y), __type(__x));
 159:c:\program files (x86)\gnu tools arm embedded\7 2017-q4-major\arm-none-eabi\include\c++\7.2.1\cmath ****     }
 160:c:\program files (x86)\gnu tools arm embedded\7 2017-q4-major\arm-none-eabi\include\c++\7.2.1\cmath **** 
 161:c:\program files (x86)\gnu tools arm embedded\7 2017-q4-major\arm-none-eabi\include\c++\7.2.1\cmath ****   using ::ceil;
 162:c:\program files (x86)\gnu tools arm embedded\7 2017-q4-major\arm-none-eabi\include\c++\7.2.1\cmath **** 
 163:c:\program files (x86)\gnu tools arm embedded\7 2017-q4-major\arm-none-eabi\include\c++\7.2.1\cmath **** #ifndef __CORRECT_ISO_CPP_MATH_H_PROTO
 164:c:\program files (x86)\gnu tools arm embedded\7 2017-q4-major\arm-none-eabi\include\c++\7.2.1\cmath ****   inline _GLIBCXX_CONSTEXPR float
 165:c:\program files (x86)\gnu tools arm embedded\7 2017-q4-major\arm-none-eabi\include\c++\7.2.1\cmath ****   ceil(float __x)
 166:c:\program files (x86)\gnu tools arm embedded\7 2017-q4-major\arm-none-eabi\include\c++\7.2.1\cmath ****   { return __builtin_ceilf(__x); }
 167:c:\program files (x86)\gnu tools arm embedded\7 2017-q4-major\arm-none-eabi\include\c++\7.2.1\cmath **** 
 168:c:\program files (x86)\gnu tools arm embedded\7 2017-q4-major\arm-none-eabi\include\c++\7.2.1\cmath ****   inline _GLIBCXX_CONSTEXPR long double
 169:c:\program files (x86)\gnu tools arm embedded\7 2017-q4-major\arm-none-eabi\include\c++\7.2.1\cmath ****   ceil(long double __x)
 170:c:\program files (x86)\gnu tools arm embedded\7 2017-q4-major\arm-none-eabi\include\c++\7.2.1\cmath ****   { return __builtin_ceill(__x); }
 171:c:\program files (x86)\gnu tools arm embedded\7 2017-q4-major\arm-none-eabi\include\c++\7.2.1\cmath **** #endif
 172:c:\program files (x86)\gnu tools arm embedded\7 2017-q4-major\arm-none-eabi\include\c++\7.2.1\cmath **** 
 173:c:\program files (x86)\gnu tools arm embedded\7 2017-q4-major\arm-none-eabi\include\c++\7.2.1\cmath ****   template<typename _Tp>
 174:c:\program files (x86)\gnu tools arm embedded\7 2017-q4-major\arm-none-eabi\include\c++\7.2.1\cmath ****     inline _GLIBCXX_CONSTEXPR
 175:c:\program files (x86)\gnu tools arm embedded\7 2017-q4-major\arm-none-eabi\include\c++\7.2.1\cmath ****     typename __gnu_cxx::__enable_if<__is_integer<_Tp>::__value, 
 176:c:\program files (x86)\gnu tools arm embedded\7 2017-q4-major\arm-none-eabi\include\c++\7.2.1\cmath ****                                     double>::__type
 177:c:\program files (x86)\gnu tools arm embedded\7 2017-q4-major\arm-none-eabi\include\c++\7.2.1\cmath ****     ceil(_Tp __x)
 178:c:\program files (x86)\gnu tools arm embedded\7 2017-q4-major\arm-none-eabi\include\c++\7.2.1\cmath ****     { return __builtin_ceil(__x); }
 179:c:\program files (x86)\gnu tools arm embedded\7 2017-q4-major\arm-none-eabi\include\c++\7.2.1\cmath **** 
 180:c:\program files (x86)\gnu tools arm embedded\7 2017-q4-major\arm-none-eabi\include\c++\7.2.1\cmath ****   using ::cos;
 181:c:\program files (x86)\gnu tools arm embedded\7 2017-q4-major\arm-none-eabi\include\c++\7.2.1\cmath **** 
 182:c:\program files (x86)\gnu tools arm embedded\7 2017-q4-major\arm-none-eabi\include\c++\7.2.1\cmath **** #ifndef __CORRECT_ISO_CPP_MATH_H_PROTO
 183:c:\program files (x86)\gnu tools arm embedded\7 2017-q4-major\arm-none-eabi\include\c++\7.2.1\cmath ****   inline _GLIBCXX_CONSTEXPR float
 184:c:\program files (x86)\gnu tools arm embedded\7 2017-q4-major\arm-none-eabi\include\c++\7.2.1\cmath ****   cos(float __x)
 185:c:\program files (x86)\gnu tools arm embedded\7 2017-q4-major\arm-none-eabi\include\c++\7.2.1\cmath ****   { return __builtin_cosf(__x); }
 186:c:\program files (x86)\gnu tools arm embedded\7 2017-q4-major\arm-none-eabi\include\c++\7.2.1\cmath **** 
 187:c:\program files (x86)\gnu tools arm embedded\7 2017-q4-major\arm-none-eabi\include\c++\7.2.1\cmath ****   inline _GLIBCXX_CONSTEXPR long double
 188:c:\program files (x86)\gnu tools arm embedded\7 2017-q4-major\arm-none-eabi\include\c++\7.2.1\cmath ****   cos(long double __x)
 189:c:\program files (x86)\gnu tools arm embedded\7 2017-q4-major\arm-none-eabi\include\c++\7.2.1\cmath ****   { return __builtin_cosl(__x); }
 190:c:\program files (x86)\gnu tools arm embedded\7 2017-q4-major\arm-none-eabi\include\c++\7.2.1\cmath **** #endif
 191:c:\program files (x86)\gnu tools arm embedded\7 2017-q4-major\arm-none-eabi\include\c++\7.2.1\cmath **** 
 192:c:\program files (x86)\gnu tools arm embedded\7 2017-q4-major\arm-none-eabi\include\c++\7.2.1\cmath ****   template<typename _Tp>
 193:c:\program files (x86)\gnu tools arm embedded\7 2017-q4-major\arm-none-eabi\include\c++\7.2.1\cmath ****     inline _GLIBCXX_CONSTEXPR
 194:c:\program files (x86)\gnu tools arm embedded\7 2017-q4-major\arm-none-eabi\include\c++\7.2.1\cmath ****     typename __gnu_cxx::__enable_if<__is_integer<_Tp>::__value,
 195:c:\program files (x86)\gnu tools arm embedded\7 2017-q4-major\arm-none-eabi\include\c++\7.2.1\cmath ****                                     double>::__type
 196:c:\program files (x86)\gnu tools arm embedded\7 2017-q4-major\arm-none-eabi\include\c++\7.2.1\cmath ****     cos(_Tp __x)
 197:c:\program files (x86)\gnu tools arm embedded\7 2017-q4-major\arm-none-eabi\include\c++\7.2.1\cmath ****     { return __builtin_cos(__x); }
 198:c:\program files (x86)\gnu tools arm embedded\7 2017-q4-major\arm-none-eabi\include\c++\7.2.1\cmath **** 
 199:c:\program files (x86)\gnu tools arm embedded\7 2017-q4-major\arm-none-eabi\include\c++\7.2.1\cmath ****   using ::cosh;
 200:c:\program files (x86)\gnu tools arm embedded\7 2017-q4-major\arm-none-eabi\include\c++\7.2.1\cmath **** 
 201:c:\program files (x86)\gnu tools arm embedded\7 2017-q4-major\arm-none-eabi\include\c++\7.2.1\cmath **** #ifndef __CORRECT_ISO_CPP_MATH_H_PROTO
 202:c:\program files (x86)\gnu tools arm embedded\7 2017-q4-major\arm-none-eabi\include\c++\7.2.1\cmath ****   inline _GLIBCXX_CONSTEXPR float
 203:c:\program files (x86)\gnu tools arm embedded\7 2017-q4-major\arm-none-eabi\include\c++\7.2.1\cmath ****   cosh(float __x)
 204:c:\program files (x86)\gnu tools arm embedded\7 2017-q4-major\arm-none-eabi\include\c++\7.2.1\cmath ****   { return __builtin_coshf(__x); }
 205:c:\program files (x86)\gnu tools arm embedded\7 2017-q4-major\arm-none-eabi\include\c++\7.2.1\cmath **** 
 206:c:\program files (x86)\gnu tools arm embedded\7 2017-q4-major\arm-none-eabi\include\c++\7.2.1\cmath ****   inline _GLIBCXX_CONSTEXPR long double
 207:c:\program files (x86)\gnu tools arm embedded\7 2017-q4-major\arm-none-eabi\include\c++\7.2.1\cmath ****   cosh(long double __x)
 208:c:\program files (x86)\gnu tools arm embedded\7 2017-q4-major\arm-none-eabi\include\c++\7.2.1\cmath ****   { return __builtin_coshl(__x); }
 209:c:\program files (x86)\gnu tools arm embedded\7 2017-q4-major\arm-none-eabi\include\c++\7.2.1\cmath **** #endif
 210:c:\program files (x86)\gnu tools arm embedded\7 2017-q4-major\arm-none-eabi\include\c++\7.2.1\cmath **** 
 211:c:\program files (x86)\gnu tools arm embedded\7 2017-q4-major\arm-none-eabi\include\c++\7.2.1\cmath ****   template<typename _Tp>
 212:c:\program files (x86)\gnu tools arm embedded\7 2017-q4-major\arm-none-eabi\include\c++\7.2.1\cmath ****     inline _GLIBCXX_CONSTEXPR
 213:c:\program files (x86)\gnu tools arm embedded\7 2017-q4-major\arm-none-eabi\include\c++\7.2.1\cmath ****     typename __gnu_cxx::__enable_if<__is_integer<_Tp>::__value,
 214:c:\program files (x86)\gnu tools arm embedded\7 2017-q4-major\arm-none-eabi\include\c++\7.2.1\cmath ****                                     double>::__type
ARM GAS  C:\Users\Prashant\AppData\Local\Temp\ccV4syd7.s 			page 16


 215:c:\program files (x86)\gnu tools arm embedded\7 2017-q4-major\arm-none-eabi\include\c++\7.2.1\cmath ****     cosh(_Tp __x)
 216:c:\program files (x86)\gnu tools arm embedded\7 2017-q4-major\arm-none-eabi\include\c++\7.2.1\cmath ****     { return __builtin_cosh(__x); }
 217:c:\program files (x86)\gnu tools arm embedded\7 2017-q4-major\arm-none-eabi\include\c++\7.2.1\cmath **** 
 218:c:\program files (x86)\gnu tools arm embedded\7 2017-q4-major\arm-none-eabi\include\c++\7.2.1\cmath ****   using ::exp;
 219:c:\program files (x86)\gnu tools arm embedded\7 2017-q4-major\arm-none-eabi\include\c++\7.2.1\cmath **** 
 220:c:\program files (x86)\gnu tools arm embedded\7 2017-q4-major\arm-none-eabi\include\c++\7.2.1\cmath **** #ifndef __CORRECT_ISO_CPP_MATH_H_PROTO
 221:c:\program files (x86)\gnu tools arm embedded\7 2017-q4-major\arm-none-eabi\include\c++\7.2.1\cmath ****   inline _GLIBCXX_CONSTEXPR float
 222:c:\program files (x86)\gnu tools arm embedded\7 2017-q4-major\arm-none-eabi\include\c++\7.2.1\cmath ****   exp(float __x)
 223:c:\program files (x86)\gnu tools arm embedded\7 2017-q4-major\arm-none-eabi\include\c++\7.2.1\cmath ****   { return __builtin_expf(__x); }
 224:c:\program files (x86)\gnu tools arm embedded\7 2017-q4-major\arm-none-eabi\include\c++\7.2.1\cmath **** 
 225:c:\program files (x86)\gnu tools arm embedded\7 2017-q4-major\arm-none-eabi\include\c++\7.2.1\cmath ****   inline _GLIBCXX_CONSTEXPR long double
 226:c:\program files (x86)\gnu tools arm embedded\7 2017-q4-major\arm-none-eabi\include\c++\7.2.1\cmath ****   exp(long double __x)
 227:c:\program files (x86)\gnu tools arm embedded\7 2017-q4-major\arm-none-eabi\include\c++\7.2.1\cmath ****   { return __builtin_expl(__x); }
 228:c:\program files (x86)\gnu tools arm embedded\7 2017-q4-major\arm-none-eabi\include\c++\7.2.1\cmath **** #endif
 229:c:\program files (x86)\gnu tools arm embedded\7 2017-q4-major\arm-none-eabi\include\c++\7.2.1\cmath **** 
 230:c:\program files (x86)\gnu tools arm embedded\7 2017-q4-major\arm-none-eabi\include\c++\7.2.1\cmath ****   template<typename _Tp>
 231:c:\program files (x86)\gnu tools arm embedded\7 2017-q4-major\arm-none-eabi\include\c++\7.2.1\cmath ****     inline _GLIBCXX_CONSTEXPR
 232:c:\program files (x86)\gnu tools arm embedded\7 2017-q4-major\arm-none-eabi\include\c++\7.2.1\cmath ****     typename __gnu_cxx::__enable_if<__is_integer<_Tp>::__value,
 233:c:\program files (x86)\gnu tools arm embedded\7 2017-q4-major\arm-none-eabi\include\c++\7.2.1\cmath ****                                     double>::__type
 234:c:\program files (x86)\gnu tools arm embedded\7 2017-q4-major\arm-none-eabi\include\c++\7.2.1\cmath ****     exp(_Tp __x)
 235:c:\program files (x86)\gnu tools arm embedded\7 2017-q4-major\arm-none-eabi\include\c++\7.2.1\cmath ****     { return __builtin_exp(__x); }
 236:c:\program files (x86)\gnu tools arm embedded\7 2017-q4-major\arm-none-eabi\include\c++\7.2.1\cmath **** 
 237:c:\program files (x86)\gnu tools arm embedded\7 2017-q4-major\arm-none-eabi\include\c++\7.2.1\cmath ****   using ::fabs;
 238:c:\program files (x86)\gnu tools arm embedded\7 2017-q4-major\arm-none-eabi\include\c++\7.2.1\cmath **** 
 239:c:\program files (x86)\gnu tools arm embedded\7 2017-q4-major\arm-none-eabi\include\c++\7.2.1\cmath **** #ifndef __CORRECT_ISO_CPP_MATH_H_PROTO
 240:c:\program files (x86)\gnu tools arm embedded\7 2017-q4-major\arm-none-eabi\include\c++\7.2.1\cmath ****   inline _GLIBCXX_CONSTEXPR float
 241:c:\program files (x86)\gnu tools arm embedded\7 2017-q4-major\arm-none-eabi\include\c++\7.2.1\cmath ****   fabs(float __x)
 242:c:\program files (x86)\gnu tools arm embedded\7 2017-q4-major\arm-none-eabi\include\c++\7.2.1\cmath ****   { return __builtin_fabsf(__x); }
 366              		.loc 4 242 0
 367 00c2 F0EEE77A 		vabs.f32	s15, s15
 368              	.LVL38:
 369              	.LBE97:
 370              	.LBE96:
  77:Core/Src/robot/robot.cpp **** 		{
 371              		.loc 2 77 0
 372 00c6 9FED2E7A 		vldr.32	s14, .L64+12
 373 00ca F4EEC77A 		vcmpe.f32	s15, s14
 374 00ce F1EE10FA 		vmrs	APSR_nzcv, FPSCR
 375 00d2 29D8     		bhi	.L56
 376              	.LVL39:
 377              	.LBB98:
 378              	.LBB99:
 379              		.loc 3 34 0
 380 00d4 2848     		ldr	r0, .L64+4
 381 00d6 FFF7FEFF 		bl	_ZN7encoder9get_angleEv
 382              	.LVL40:
 383              	.LBE99:
 384              	.LBE98:
  79:Core/Src/robot/robot.cpp **** 				steering.set_omega(-steering_speed);}
 385              		.loc 2 79 0
 386 00da 2B4B     		ldr	r3, .L64+20
 387 00dc D3ED007A 		vldr.32	s15, [r3]
 388 00e0 F4EEC07A 		vcmpe.f32	s15, s0
 389 00e4 F1EE10FA 		vmrs	APSR_nzcv, FPSCR
 390 00e8 12D4     		bmi	.L63
 391              	.LVL41:
 392              	.LBB100:
ARM GAS  C:\Users\Prashant\AppData\Local\Temp\ccV4syd7.s 			page 17


 393              	.LBB101:
 394              		.loc 3 34 0
 395 00ea 2348     		ldr	r0, .L64+4
 396 00ec FFF7FEFF 		bl	_ZN7encoder9get_angleEv
 397              	.LVL42:
 398              	.LBE101:
 399              	.LBE100:
  82:Core/Src/robot/robot.cpp **** 				steering.set_omega(steering_speed);}
 400              		.loc 2 82 0
 401 00f0 254B     		ldr	r3, .L64+20
 402 00f2 D3ED007A 		vldr.32	s15, [r3]
 403 00f6 F1EE677A 		vneg.f32	s15, s15
 404 00fa F4EEC07A 		vcmpe.f32	s15, s0
 405 00fe F1EE10FA 		vmrs	APSR_nzcv, FPSCR
 406 0102 0BDD     		ble	.L58
  83:Core/Src/robot/robot.cpp **** 
 407              		.loc 2 83 0
 408 0104 9FED230A 		vldr.32	s0, .L64+32
 409 0108 2148     		ldr	r0, .L64+28
 410 010a FFF7FEFF 		bl	_ZN8steering9set_omegaEf
 411              	.LVL43:
 412 010e BCE7     		b	.L19
 413              	.L63:
  80:Core/Src/robot/robot.cpp **** 
 414              		.loc 2 80 0
 415 0110 9FED1E0A 		vldr.32	s0, .L64+24
 416 0114 1E48     		ldr	r0, .L64+28
 417 0116 FFF7FEFF 		bl	_ZN8steering9set_omegaEf
 418              	.LVL44:
 419 011a B6E7     		b	.L19
 420              	.L58:
  86:Core/Src/robot/robot.cpp **** 			// printf("center_alligned\t");
 421              		.loc 2 86 0
 422 011c 9FED1E0A 		vldr.32	s0, .L64+36
 423 0120 1B48     		ldr	r0, .L64+28
 424 0122 FFF7FEFF 		bl	_ZN8steering9set_omegaEf
 425              	.LVL45:
 426 0126 B0E7     		b	.L19
 427              	.L56:
 428              	.LVL46:
 429              	.LBB102:
 430              	.LBB103:
 431              		.loc 3 34 0
 432 0128 1348     		ldr	r0, .L64+4
 433 012a FFF7FEFF 		bl	_ZN7encoder9get_angleEv
 434              	.LVL47:
 435              	.LBE103:
 436              	.LBE102:
 437              	.LBB104:
 438              	.LBB105:
 439              		.loc 4 242 0
 440 012e B0EEC00A 		vabs.f32	s0, s0
 441              	.LBE105:
 442              	.LBE104:
  91:Core/Src/robot/robot.cpp **** 				steering.set_omega((angle>0)? (-steering_speed):steering_speed);
 443              		.loc 2 91 0
 444 0132 DFED137A 		vldr.32	s15, .L64+12
ARM GAS  C:\Users\Prashant\AppData\Local\Temp\ccV4syd7.s 			page 18


 445 0136 B4EEE70A 		vcmpe.f32	s0, s15
 446 013a F1EE10FA 		vmrs	APSR_nzcv, FPSCR
 447 013e 0DD5     		bpl	.L59
  92:Core/Src/robot/robot.cpp **** 			}
 448              		.loc 2 92 0
 449 0140 B5EEC08A 		vcmpe.f32	s16, #0
 450 0144 F1EE10FA 		vmrs	APSR_nzcv, FPSCR
 451 0148 05DD     		ble	.L60
 452 014a 9FED100A 		vldr.32	s0, .L64+24
 453              	.L40:
  92:Core/Src/robot/robot.cpp **** 			}
 454              		.loc 2 92 0 is_stmt 0 discriminator 4
 455 014e 1048     		ldr	r0, .L64+28
 456 0150 FFF7FEFF 		bl	_ZN8steering9set_omegaEf
 457              	.LVL48:
 458 0154 99E7     		b	.L19
 459              	.L60:
  92:Core/Src/robot/robot.cpp **** 			}
 460              		.loc 2 92 0
 461 0156 9FED0F0A 		vldr.32	s0, .L64+32
 462 015a F8E7     		b	.L40
 463              	.L59:
  95:Core/Src/robot/robot.cpp **** 			}			
 464              		.loc 2 95 0 is_stmt 1
 465 015c 9FED0E0A 		vldr.32	s0, .L64+36
 466 0160 0B48     		ldr	r0, .L64+28
 467 0162 FFF7FEFF 		bl	_ZN8steering9set_omegaEf
 468              	.LVL49:
 469 0166 90E7     		b	.L19
 470              	.L31:
 103:Core/Src/robot/robot.cpp **** 	}
 471              		.loc 2 103 0
 472 0168 9FED0B0A 		vldr.32	s0, .L64+36
 473 016c 0848     		ldr	r0, .L64+28
 474 016e FFF7FEFF 		bl	_ZN8steering9set_omegaEf
 475              	.LVL50:
 105:Core/Src/robot/robot.cpp **** 
 476              		.loc 2 105 0
 477 0172 8AE7     		b	.L19
 478              	.L65:
 479              		.align	2
 480              	.L64:
 481 0174 00000000 		.word	leg
 482 0178 0C000000 		.word	steering+12
 483 017c 7CD920BE 		.word	-1105143428
 484 0180 7CD9203E 		.word	1042340220
 485 0184 00000000 		.word	.LANCHOR3
 486 0188 00000000 		.word	.LANCHOR4
 487 018c 333333BF 		.word	-1087163597
 488 0190 00000000 		.word	steering
 489 0194 3333333F 		.word	1060320051
 490 0198 00000000 		.word	0
 491              		.cfi_endproc
 492              	.LFE489:
 494              		.global	__aeabi_f2d
 495              		.global	__aeabi_dmul
 496              		.global	__aeabi_ddiv
ARM GAS  C:\Users\Prashant\AppData\Local\Temp\ccV4syd7.s 			page 19


 497              		.global	__aeabi_dadd
 498              		.global	__aeabi_d2f
 499              		.section	.text._Z21calculate_robot_anglev,"ax",%progbits
 500              		.align	1
 501              		.global	_Z21calculate_robot_anglev
 502              		.syntax unified
 503              		.thumb
 504              		.thumb_func
 505              		.fpu fpv4-sp-d16
 507              	_Z21calculate_robot_anglev:
 508              	.LFB490:
 108:Core/Src/robot/robot.cpp **** 	/*/
 509              		.loc 2 108 0
 510              		.cfi_startproc
 511              		@ args = 0, pretend = 0, frame = 0
 512              		@ frame_needed = 0, uses_anonymous_args = 0
 513 0000 D0B5     		push	{r4, r6, r7, lr}
 514              	.LCFI6:
 515              		.cfi_def_cfa_offset 16
 516              		.cfi_offset 4, -16
 517              		.cfi_offset 6, -12
 518              		.cfi_offset 7, -8
 519              		.cfi_offset 14, -4
 123:Core/Src/robot/robot.cpp **** 		temp_robot_angle += -(initial_angle.getZ() - angle.getZ())*PI/180;
 520              		.loc 2 123 0
 521 0002 2D48     		ldr	r0, .L73+8
 522 0004 FFF7FEFF 		bl	_ZN3leg9is_raisedEv
 523              	.LVL51:
 524 0008 38B1     		cbz	r0, .L71
 130:Core/Src/robot/robot.cpp **** 			robot_angle = temp_robot_angle / number_of_samples;
 525              		.loc 2 130 0
 526 000a 2C4B     		ldr	r3, .L73+12
 527 000c 1B78     		ldrb	r3, [r3]	@ zero_extendqisi2
 528 000e 002B     		cmp	r3, #0
 529 0010 37D1     		bne	.L72
 530              	.L69:
 137:Core/Src/robot/robot.cpp **** 	}
 531              		.loc 2 137 0
 532 0012 2B48     		ldr	r0, .L73+16
 533 0014 FFF7FEFF 		bl	printf
 534              	.LVL52:
 535              	.L66:
 141:Core/Src/robot/robot.cpp **** 
 536              		.loc 2 141 0
 537 0018 D0BD     		pop	{r4, r6, r7, pc}
 538              	.L71:
 539              	.LVL53:
 540              	.LBB106:
 541              	.LBB107:
  36:Core/Inc/utils/vec3.h ****         void setX(T x) { x_ = x; }
 542              		.loc 1 36 0
 543 001a 2A4B     		ldr	r3, .L73+20
 544 001c D3ED027A 		vldr.32	s15, [r3, #8]
 545              	.LVL54:
 546              	.LBE107:
 547              	.LBE106:
 548              	.LBB108:
ARM GAS  C:\Users\Prashant\AppData\Local\Temp\ccV4syd7.s 			page 20


 549              	.LBB109:
 550 0020 294B     		ldr	r3, .L73+24
 551 0022 93ED027A 		vldr.32	s14, [r3, #8]
 552              	.LVL55:
 553              	.LBE109:
 554              	.LBE108:
 124:Core/Src/robot/robot.cpp **** 		number_of_samples++;
 555              		.loc 2 124 0
 556 0026 77EEC77A 		vsub.f32	s15, s15, s14
 557 002a F1EE677A 		vneg.f32	s15, s15
 558 002e 17EE900A 		vmov	r0, s15
 559 0032 FFF7FEFF 		bl	__aeabi_f2d
 560              	.LVL56:
 561 0036 1EA3     		adr	r3, .L73
 562 0038 D3E90023 		ldrd	r2, [r3]
 563 003c FFF7FEFF 		bl	__aeabi_dmul
 564              	.LVL57:
 565 0040 0022     		movs	r2, #0
 566 0042 224B     		ldr	r3, .L73+28
 567 0044 FFF7FEFF 		bl	__aeabi_ddiv
 568              	.LVL58:
 569 0048 0646     		mov	r6, r0
 570 004a 0F46     		mov	r7, r1
 571 004c 204C     		ldr	r4, .L73+32
 572 004e 2068     		ldr	r0, [r4]	@ float
 573 0050 FFF7FEFF 		bl	__aeabi_f2d
 574              	.LVL59:
 575 0054 3246     		mov	r2, r6
 576 0056 3B46     		mov	r3, r7
 577 0058 FFF7FEFF 		bl	__aeabi_dadd
 578              	.LVL60:
 579 005c FFF7FEFF 		bl	__aeabi_d2f
 580              	.LVL61:
 581 0060 2060     		str	r0, [r4]	@ float
 125:Core/Src/robot/robot.cpp **** 		orientation_flag = true;
 582              		.loc 2 125 0
 583 0062 1C4B     		ldr	r3, .L73+36
 584 0064 D3ED007A 		vldr.32	s15, [r3]
 585 0068 B7EE007A 		vmov.f32	s14, #1.0e+0
 586 006c 77EE877A 		vadd.f32	s15, s15, s14
 587 0070 C3ED007A 		vstr.32	s15, [r3]
 126:Core/Src/robot/robot.cpp **** 		printf("\tcalculating");
 588              		.loc 2 126 0
 589 0074 114B     		ldr	r3, .L73+12
 590 0076 0122     		movs	r2, #1
 591 0078 1A70     		strb	r2, [r3]
 127:Core/Src/robot/robot.cpp **** 	}
 592              		.loc 2 127 0
 593 007a 1748     		ldr	r0, .L73+40
 594 007c FFF7FEFF 		bl	printf
 595              	.LVL62:
 596 0080 CAE7     		b	.L66
 597              	.L72:
 131:Core/Src/robot/robot.cpp **** 			temp_robot_angle = 0;
 598              		.loc 2 131 0
 599 0082 1349     		ldr	r1, .L73+32
 600 0084 134B     		ldr	r3, .L73+36
ARM GAS  C:\Users\Prashant\AppData\Local\Temp\ccV4syd7.s 			page 21


 601 0086 D1ED006A 		vldr.32	s13, [r1]
 602 008a 93ED007A 		vldr.32	s14, [r3]
 603 008e C6EE877A 		vdiv.f32	s15, s13, s14
 604 0092 124A     		ldr	r2, .L73+44
 605 0094 C2ED007A 		vstr.32	s15, [r2]
 132:Core/Src/robot/robot.cpp **** 			number_of_samples = 0;
 606              		.loc 2 132 0
 607 0098 0022     		movs	r2, #0
 608 009a 0A60     		str	r2, [r1]	@ float
 133:Core/Src/robot/robot.cpp **** 			orientation_flag = false;
 609              		.loc 2 133 0
 610 009c 1A60     		str	r2, [r3]	@ float
 134:Core/Src/robot/robot.cpp **** 			printf("displayed");
 611              		.loc 2 134 0
 612 009e 074B     		ldr	r3, .L73+12
 613 00a0 0022     		movs	r2, #0
 614 00a2 1A70     		strb	r2, [r3]
 135:Core/Src/robot/robot.cpp **** 		}
 615              		.loc 2 135 0
 616 00a4 0E48     		ldr	r0, .L73+48
 617 00a6 FFF7FEFF 		bl	printf
 618              	.LVL63:
 619 00aa B2E7     		b	.L69
 620              	.L74:
 621 00ac AFF30080 		.align	3
 622              	.L73:
 623 00b0 182D4454 		.word	1413754136
 624 00b4 FB210940 		.word	1074340347
 625 00b8 00000000 		.word	leg
 626 00bc 00000000 		.word	.LANCHOR7
 627 00c0 1C000000 		.word	.LC2
 628 00c4 00000000 		.word	.LANCHOR0
 629 00c8 00000000 		.word	.LANCHOR1
 630 00cc 00806640 		.word	1080459264
 631 00d0 00000000 		.word	.LANCHOR5
 632 00d4 00000000 		.word	.LANCHOR6
 633 00d8 00000000 		.word	.LC0
 634 00dc 00000000 		.word	.LANCHOR3
 635 00e0 10000000 		.word	.LC1
 636              		.cfi_endproc
 637              	.LFE490:
 639              		.global	__aeabi_dcmple
 640              		.section	.text._Z2goif,"ax",%progbits
 641              		.align	1
 642              		.global	_Z2goif
 643              		.syntax unified
 644              		.thumb
 645              		.thumb_func
 646              		.fpu fpv4-sp-d16
 648              	_Z2goif:
 649              	.LFB487:
  26:Core/Src/robot/robot.cpp **** 	angle *= PI / 180;
 650              		.loc 2 26 0
 651              		.cfi_startproc
 652              		@ args = 0, pretend = 0, frame = 0
 653              		@ frame_needed = 0, uses_anonymous_args = 0
 654              	.LVL64:
ARM GAS  C:\Users\Prashant\AppData\Local\Temp\ccV4syd7.s 			page 22


 655 0000 10B5     		push	{r4, lr}
 656              	.LCFI7:
 657              		.cfi_def_cfa_offset 8
 658              		.cfi_offset 4, -8
 659              		.cfi_offset 14, -4
 660 0002 2DED028B 		vpush.64	{d8}
 661              	.LCFI8:
 662              		.cfi_def_cfa_offset 16
 663              		.cfi_offset 80, -16
 664              		.cfi_offset 81, -12
 665 0006 0446     		mov	r4, r0
  27:Core/Src/robot/robot.cpp **** 	move_leg(steps, angle);
 666              		.loc 2 27 0
 667 0008 10EE100A 		vmov	r0, s0
 668              	.LVL65:
 669 000c FFF7FEFF 		bl	__aeabi_f2d
 670              	.LVL66:
 671 0010 28A3     		adr	r3, .L82+28
 672 0012 D3E90023 		ldrd	r2, [r3]
 673 0016 FFF7FEFF 		bl	__aeabi_dmul
 674              	.LVL67:
 675 001a FFF7FEFF 		bl	__aeabi_d2f
 676              	.LVL68:
 677 001e 08EE100A 		vmov	s16, r0
 678              	.LVL69:
  28:Core/Src/robot/robot.cpp **** 	move_steering(steps, angle);
 679              		.loc 2 28 0
 680 0022 00EE100A 		vmov	s0, r0
 681 0026 2046     		mov	r0, r4
 682              	.LVL70:
 683 0028 FFF7FEFF 		bl	_Z8move_legif
 684              	.LVL71:
  29:Core/Src/robot/robot.cpp **** 
 685              		.loc 2 29 0
 686 002c B0EE480A 		vmov.f32	s0, s16
 687 0030 2046     		mov	r0, r4
 688 0032 FFF7FEFF 		bl	_Z13move_steeringif
 689              	.LVL72:
  31:Core/Src/robot/robot.cpp **** 	//printf("steps = %d \trobot_angle = %d, leg_omega = %d \t steering_angle = %d, st_omega = %d\n",
 690              		.loc 2 31 0
 691 0036 FFF7FEFF 		bl	_Z21calculate_robot_anglev
 692              	.LVL73:
 693              	.LBB110:
 694              	.LBB111:
 695              		.file 5 "Core/Inc/devs/leg.h"
   1:Core/Inc/devs/leg.h **** #ifndef _LEG_H_
   2:Core/Inc/devs/leg.h **** #define _LEG_H_
   3:Core/Inc/devs/leg.h **** 
   4:Core/Inc/devs/leg.h **** #include "motor.h"
   5:Core/Inc/devs/leg.h **** #include "encoder.h"
   6:Core/Inc/devs/leg.h **** #include "pid.h"
   7:Core/Inc/devs/leg.h **** #include "limit_switch.h"
   8:Core/Inc/devs/leg.h **** #include "defines.h"
   9:Core/Inc/devs/leg.h **** #include "pid_algorithms.h"
  10:Core/Inc/devs/leg.h **** 
  11:Core/Inc/devs/leg.h **** enum Leg_condition{	RAISED, 
  12:Core/Inc/devs/leg.h **** 			FALLEN, 
ARM GAS  C:\Users\Prashant\AppData\Local\Temp\ccV4syd7.s 			page 23


  13:Core/Inc/devs/leg.h **** 			UNDEFINED};
  14:Core/Inc/devs/leg.h **** 
  15:Core/Inc/devs/leg.h **** class leg
  16:Core/Inc/devs/leg.h **** {
  17:Core/Inc/devs/leg.h **** public:
  18:Core/Inc/devs/leg.h **** 	leg() {}
  19:Core/Inc/devs/leg.h **** 	leg(leg &&) = default;
  20:Core/Inc/devs/leg.h **** 	leg(const leg &) = default;
  21:Core/Inc/devs/leg.h **** 	leg &operator=(leg &&) = default;
  22:Core/Inc/devs/leg.h **** 	leg &operator=(const leg &) = default;
  23:Core/Inc/devs/leg.h **** 	~leg(){}
  24:Core/Inc/devs/leg.h ****         void set_config(motor_config *motor0, motor_config *motor1, encoder_config *encoder) { 
  25:Core/Inc/devs/leg.h **** 		motor__[0].set_config(motor0);
  26:Core/Inc/devs/leg.h **** 		motor__[1].set_config(motor1);
  27:Core/Inc/devs/leg.h **** 		encoder__.set_config(encoder);
  28:Core/Inc/devs/leg.h **** 	}
  29:Core/Inc/devs/leg.h **** 	void set_PID_constants(float kp, float ki, float kd, float lower_limit, float upper_limit) {
  30:Core/Inc/devs/leg.h **** 		dpid_.set_P(kp);
  31:Core/Inc/devs/leg.h **** 		dpid_.set_I(ki);
  32:Core/Inc/devs/leg.h **** 		dpid_.set_D(kd);
  33:Core/Inc/devs/leg.h **** 		dpid_.set_Limits(upper_limit, lower_limit);
  34:Core/Inc/devs/leg.h **** 	}
  35:Core/Inc/devs/leg.h **** 
  36:Core/Inc/devs/leg.h **** 	
  37:Core/Inc/devs/leg.h **** 	void set_omega(float omega);
  38:Core/Inc/devs/leg.h **** 	float ramp(float omega);
  39:Core/Inc/devs/leg.h **** 	void set_gravity_compensator_constant(float kbody, float kleg){kb_ = kbody; kl_ = kleg;}
  40:Core/Inc/devs/leg.h **** 	void reset_angle(float angle_in_radians);
  41:Core/Inc/devs/leg.h **** 	void calculate_omega();
  42:Core/Inc/devs/leg.h **** 	Leg_condition is_raised();
  43:Core/Inc/devs/leg.h **** 	bool is_raised_without_deadzone();
  44:Core/Inc/devs/leg.h **** 
  45:Core/Inc/devs/leg.h **** 	int get_steps(){return steps;}
 696              		.loc 5 45 0
 697 003a 194B     		ldr	r3, .L82+8
 698 003c 1B69     		ldr	r3, [r3, #16]
 699              	.LVL74:
 700              	.LBE111:
 701              	.LBE110:
  35:Core/Src/robot/robot.cpp **** 	{
 702              		.loc 2 35 0
 703 003e 9C42     		cmp	r4, r3
 704 0040 10DC     		bgt	.L76
  35:Core/Src/robot/robot.cpp **** 	{
 705              		.loc 2 35 0 is_stmt 0 discriminator 1
 706 0042 184B     		ldr	r3, .L82+12
 707 0044 D3ED007A 		vldr.32	s15, [r3]
 708 0048 38EE678A 		vsub.f32	s16, s16, s15
 709              	.LVL75:
 710 004c F0EEC87A 		vabs.f32	s15, s16
 711 0050 17EE900A 		vmov	r0, s15
 712 0054 FFF7FEFF 		bl	__aeabi_f2d
 713              	.LVL76:
 714 0058 0FA3     		adr	r3, .L82
 715 005a D3E90023 		ldrd	r2, [r3]
 716 005e FFF7FEFF 		bl	__aeabi_dcmple
 717              	.LVL77:
ARM GAS  C:\Users\Prashant\AppData\Local\Temp\ccV4syd7.s 			page 24


 718 0062 48B9     		cbnz	r0, .L81
 719              	.L76:
  43:Core/Src/robot/robot.cpp **** 		return false;
 720              		.loc 2 43 0 is_stmt 1 discriminator 4
 721 0064 104B     		ldr	r3, .L82+16
 722 0066 93ED000A 		vldr.32	s0, [r3]
 723 006a 0D48     		ldr	r0, .L82+8
 724 006c FFF7FEFF 		bl	_ZN3leg9set_omegaEf
 725              	.LVL78:
  44:Core/Src/robot/robot.cpp **** 	}
 726              		.loc 2 44 0 discriminator 4
 727 0070 0020     		movs	r0, #0
 728              	.L78:
  46:Core/Src/robot/robot.cpp **** 
 729              		.loc 2 46 0
 730 0072 BDEC028B 		vldm	sp!, {d8}
 731              	.LCFI9:
 732              		.cfi_remember_state
 733              		.cfi_restore 80
 734              		.cfi_restore 81
 735              		.cfi_def_cfa_offset 8
 736 0076 10BD     		pop	{r4, pc}
 737              	.LVL79:
 738              	.L81:
 739              	.LCFI10:
 740              		.cfi_restore_state
  37:Core/Src/robot/robot.cpp **** 		steering.set_omega(0);
 741              		.loc 2 37 0
 742 0078 9FED0C8A 		vldr.32	s16, .L82+20
 743 007c B0EE480A 		vmov.f32	s0, s16
 744 0080 0748     		ldr	r0, .L82+8
 745 0082 FFF7FEFF 		bl	_ZN3leg9set_omegaEf
 746              	.LVL80:
  38:Core/Src/robot/robot.cpp **** 		return true;
 747              		.loc 2 38 0
 748 0086 B0EE480A 		vmov.f32	s0, s16
 749 008a 0948     		ldr	r0, .L82+24
 750 008c FFF7FEFF 		bl	_ZN8steering9set_omegaEf
 751              	.LVL81:
  39:Core/Src/robot/robot.cpp **** 	}
 752              		.loc 2 39 0
 753 0090 0120     		movs	r0, #1
 754 0092 EEE7     		b	.L78
 755              	.L83:
 756 0094 AFF30080 		.align	3
 757              	.L82:
 758 0098 7B14AE47 		.word	1202590843
 759 009c E17AA43F 		.word	1067743969
 760 00a0 00000000 		.word	leg
 761 00a4 00000000 		.word	.LANCHOR3
 762 00a8 00000000 		.word	.LANCHOR2
 763 00ac 00000000 		.word	0
 764 00b0 00000000 		.word	steering
 765 00b4 399D52A2 		.word	-1571644103
 766 00b8 46DF913F 		.word	1066524486
 767              		.cfi_endproc
 768              	.LFE487:
ARM GAS  C:\Users\Prashant\AppData\Local\Temp\ccV4syd7.s 			page 25


 770              		.global	__aeabi_d2iz
 771              		.section	.text._Z15calculate_datasv,"ax",%progbits
 772              		.align	1
 773              		.global	_Z15calculate_datasv
 774              		.syntax unified
 775              		.thumb
 776              		.thumb_func
 777              		.fpu fpv4-sp-d16
 779              	_Z15calculate_datasv:
 780              	.LFB491:
 144:Core/Src/robot/robot.cpp **** 	leg[0].calculate_omega();
 781              		.loc 2 144 0
 782              		.cfi_startproc
 783              		@ args = 0, pretend = 0, frame = 16
 784              		@ frame_needed = 0, uses_anonymous_args = 0
 785 0000 10B5     		push	{r4, lr}
 786              	.LCFI11:
 787              		.cfi_def_cfa_offset 8
 788              		.cfi_offset 4, -8
 789              		.cfi_offset 14, -4
 790 0002 2DED048B 		vpush.64	{d8, d9}
 791              	.LCFI12:
 792              		.cfi_def_cfa_offset 24
 793              		.cfi_offset 80, -24
 794              		.cfi_offset 81, -20
 795              		.cfi_offset 82, -16
 796              		.cfi_offset 83, -12
 797 0006 86B0     		sub	sp, sp, #24
 798              	.LCFI13:
 799              		.cfi_def_cfa_offset 48
 145:Core/Src/robot/robot.cpp **** 	steering.calculate_omega();
 800              		.loc 2 145 0
 801 0008 1F48     		ldr	r0, .L86+8
 802 000a FFF7FEFF 		bl	_ZN3leg15calculate_omegaEv
 803              	.LVL82:
 146:Core/Src/robot/robot.cpp **** 	angle = read_Orientation(10);
 804              		.loc 2 146 0
 805 000e 1F48     		ldr	r0, .L86+12
 806 0010 FFF7FEFF 		bl	_ZN8steering15calculate_omegaEv
 807              	.LVL83:
 147:Core/Src/robot/robot.cpp **** 	printf("angleX = %d \t angleY = %d \t angleZ = %d \t robotangle = %d \n",
 808              		.loc 2 147 0
 809 0014 03AC     		add	r4, sp, #12
 810 0016 0A21     		movs	r1, #10
 811 0018 2046     		mov	r0, r4
 812 001a FFF7FEFF 		bl	_Z16read_Orientationm
 813              	.LVL84:
 814 001e 1C4B     		ldr	r3, .L86+16
 815 0020 94E80700 		ldm	r4, {r0, r1, r2}
 816 0024 83E80700 		stm	r3, {r0, r1, r2}
 817              	.LVL85:
 818              	.LBB112:
 819              	.LBB113:
  34:Core/Inc/utils/vec3.h ****         T getY() const { return y_; }
 820              		.loc 1 34 0
 821 0028 93ED008A 		vldr.32	s16, [r3]
 822              	.LVL86:
ARM GAS  C:\Users\Prashant\AppData\Local\Temp\ccV4syd7.s 			page 26


 823              	.LBE113:
 824              	.LBE112:
 825              	.LBB114:
 826              	.LBB115:
  35:Core/Inc/utils/vec3.h ****         T getZ() const { return z_; }
 827              		.loc 1 35 0
 828 002c D3ED018A 		vldr.32	s17, [r3, #4]
 829              	.LVL87:
 830              	.LBE115:
 831              	.LBE114:
 832              	.LBB116:
 833              	.LBB117:
  36:Core/Inc/utils/vec3.h ****         void setX(T x) { x_ = x; }
 834              		.loc 1 36 0
 835 0030 93ED029A 		vldr.32	s18, [r3, #8]
 836              	.LVL88:
 837              	.LBE117:
 838              	.LBE116:
 149:Core/Src/robot/robot.cpp **** }
 839              		.loc 2 149 0
 840 0034 174B     		ldr	r3, .L86+20
 841 0036 93ED007A 		vldr.32	s14, [r3]
 842 003a DFED177A 		vldr.32	s15, .L86+24
 843 003e 67EE277A 		vmul.f32	s15, s14, s15
 844 0042 17EE900A 		vmov	r0, s15
 845 0046 FFF7FEFF 		bl	__aeabi_f2d
 846              	.LVL89:
 847 004a 0DA3     		adr	r3, .L86
 848 004c D3E90023 		ldrd	r2, [r3]
 849 0050 FFF7FEFF 		bl	__aeabi_ddiv
 850              	.LVL90:
 148:Core/Src/robot/robot.cpp **** 	 (int)(angle.getX()), (int)(angle.getY()), (int)(angle.getZ()), (int)(robot_angle*180/PI));
 851              		.loc 2 148 0
 852 0054 BDEEC99A 		vcvt.s32.f32	s18, s18
 853 0058 FDEEE88A 		vcvt.s32.f32	s17, s17
 854 005c BDEEC88A 		vcvt.s32.f32	s16, s16
 855 0060 FFF7FEFF 		bl	__aeabi_d2iz
 856              	.LVL91:
 857 0064 0090     		str	r0, [sp]
 858 0066 19EE103A 		vmov	r3, s18	@ int
 859 006a 18EE902A 		vmov	r2, s17	@ int
 860 006e 18EE101A 		vmov	r1, s16	@ int
 861 0072 0A48     		ldr	r0, .L86+28
 862 0074 FFF7FEFF 		bl	printf
 863              	.LVL92:
 150:Core/Src/robot/robot.cpp **** 
 864              		.loc 2 150 0
 865 0078 06B0     		add	sp, sp, #24
 866              	.LCFI14:
 867              		.cfi_def_cfa_offset 24
 868              		@ sp needed
 869 007a BDEC048B 		vldm	sp!, {d8-d9}
 870              	.LCFI15:
 871              		.cfi_restore 82
 872              		.cfi_restore 83
 873              		.cfi_restore 80
 874              		.cfi_restore 81
ARM GAS  C:\Users\Prashant\AppData\Local\Temp\ccV4syd7.s 			page 27


 875              		.cfi_def_cfa_offset 8
 876 007e 10BD     		pop	{r4, pc}
 877              	.L87:
 878              		.align	3
 879              	.L86:
 880 0080 182D4454 		.word	1413754136
 881 0084 FB210940 		.word	1074340347
 882 0088 00000000 		.word	leg
 883 008c 00000000 		.word	steering
 884 0090 00000000 		.word	.LANCHOR1
 885 0094 00000000 		.word	.LANCHOR3
 886 0098 00003443 		.word	1127481344
 887 009c 00000000 		.word	.LC3
 888              		.cfi_endproc
 889              	.LFE491:
 891              		.section	.text._Z4playv,"ax",%progbits
 892              		.align	1
 893              		.global	_Z4playv
 894              		.syntax unified
 895              		.thumb
 896              		.thumb_func
 897              		.fpu fpv4-sp-d16
 899              	_Z4playv:
 900              	.LFB492:
 153:Core/Src/robot/robot.cpp **** 	uint32_t dt = HAL_GetTick();
 901              		.loc 2 153 0
 902              		.cfi_startproc
 903              		@ args = 0, pretend = 0, frame = 16
 904              		@ frame_needed = 0, uses_anonymous_args = 0
 905 0000 30B5     		push	{r4, r5, lr}
 906              	.LCFI16:
 907              		.cfi_def_cfa_offset 12
 908              		.cfi_offset 4, -12
 909              		.cfi_offset 5, -8
 910              		.cfi_offset 14, -4
 911 0002 85B0     		sub	sp, sp, #20
 912              	.LCFI17:
 913              		.cfi_def_cfa_offset 32
 154:Core/Src/robot/robot.cpp **** 	initial_angle = read_Orientation(10);
 914              		.loc 2 154 0
 915 0004 FFF7FEFF 		bl	HAL_GetTick
 916              	.LVL93:
 917 0008 0446     		mov	r4, r0
 918              	.LVL94:
 155:Core/Src/robot/robot.cpp **** 		// while (true)
 919              		.loc 2 155 0
 920 000a 01AD     		add	r5, sp, #4
 921 000c 0A21     		movs	r1, #10
 922 000e 2846     		mov	r0, r5
 923              	.LVL95:
 924 0010 FFF7FEFF 		bl	_Z16read_Orientationm
 925              	.LVL96:
 926 0014 154B     		ldr	r3, .L94
 927 0016 95E80700 		ldm	r5, {r0, r1, r2}
 928 001a 83E80700 		stm	r3, {r0, r1, r2}
 929              	.LVL97:
 930              	.LBB118:
ARM GAS  C:\Users\Prashant\AppData\Local\Temp\ccV4syd7.s 			page 28


 167:Core/Src/robot/robot.cpp **** 		{
 931              		.loc 2 167 0
 932 001e 0025     		movs	r5, #0
 933              	.LVL98:
 934              	.L92:
 167:Core/Src/robot/robot.cpp **** 		{
 935              		.loc 2 167 0 is_stmt 0 discriminator 1
 936 0020 052D     		cmp	r5, #5
 937 0022 20DC     		bgt	.L89
 938              	.L90:
 171:Core/Src/robot/robot.cpp **** 				{
 939              		.loc 2 171 0 is_stmt 1
 940 0024 FFF7FEFF 		bl	HAL_GetTick
 941              	.LVL99:
 942 0028 001B     		subs	r0, r0, r4
 943 002a 0928     		cmp	r0, #9
 944 002c FAD9     		bls	.L90
 173:Core/Src/robot/robot.cpp **** 					calculate_datas();
 945              		.loc 2 173 0
 946 002e FFF7FEFF 		bl	HAL_GetTick
 947              	.LVL100:
 948 0032 0446     		mov	r4, r0
 949              	.LVL101:
 174:Core/Src/robot/robot.cpp **** 					if (go(steps[i], angles[i]) == true)
 950              		.loc 2 174 0
 951 0034 FFF7FEFF 		bl	_Z15calculate_datasv
 952              	.LVL102:
 175:Core/Src/robot/robot.cpp **** 						break;
 953              		.loc 2 175 0
 954 0038 A900     		lsls	r1, r5, #2
 955 003a 0D4A     		ldr	r2, .L94+4
 956 003c 0A44     		add	r2, r2, r1
 957 003e D2ED007A 		vldr.32	s15, [r2]
 958 0042 0C4B     		ldr	r3, .L94+8
 959 0044 0B44     		add	r3, r3, r1
 960 0046 93ED000A 		vldr.32	s0, [r3]
 961 004a FDEEE77A 		vcvt.s32.f32	s15, s15
 962 004e 17EE900A 		vmov	r0, s15	@ int
 963 0052 FFF7FEFF 		bl	_Z2goif
 964              	.LVL103:
 965 0056 0028     		cmp	r0, #0
 966 0058 E4D0     		beq	.L90
 179:Core/Src/robot/robot.cpp **** 		}
 967              		.loc 2 179 0 discriminator 2
 968 005a 2946     		mov	r1, r5
 969 005c 0648     		ldr	r0, .L94+12
 970 005e FFF7FEFF 		bl	printf
 971              	.LVL104:
 167:Core/Src/robot/robot.cpp **** 		{
 972              		.loc 2 167 0 discriminator 2
 973 0062 0135     		adds	r5, r5, #1
 974              	.LVL105:
 975 0064 DCE7     		b	.L92
 976              	.L89:
 977              	.LBE118:
 978              		.loc 2 182 0
 979 0066 0120     		movs	r0, #1
ARM GAS  C:\Users\Prashant\AppData\Local\Temp\ccV4syd7.s 			page 29


 980 0068 05B0     		add	sp, sp, #20
 981              	.LCFI18:
 982              		.cfi_def_cfa_offset 12
 983              		@ sp needed
 984 006a 30BD     		pop	{r4, r5, pc}
 985              	.LVL106:
 986              	.L95:
 987              		.align	2
 988              	.L94:
 989 006c 00000000 		.word	.LANCHOR0
 990 0070 00000000 		.word	.LANCHOR8
 991 0074 00000000 		.word	.LANCHOR9
 992 0078 00000000 		.word	.LC4
 993              		.cfi_endproc
 994              	.LFE492:
 996              		.section	.text._GLOBAL__sub_I_initial_angle,"ax",%progbits
 997              		.align	1
 998              		.syntax unified
 999              		.thumb
 1000              		.thumb_func
 1001              		.fpu fpv4-sp-d16
 1003              	_GLOBAL__sub_I_initial_angle:
 1004              	.LFB507:
 1005              		.loc 2 182 0
 1006              		.cfi_startproc
 1007              		@ args = 0, pretend = 0, frame = 0
 1008              		@ frame_needed = 0, uses_anonymous_args = 0
 1009 0000 08B5     		push	{r3, lr}
 1010              	.LCFI19:
 1011              		.cfi_def_cfa_offset 8
 1012              		.cfi_offset 3, -8
 1013              		.cfi_offset 14, -4
 1014              		.loc 2 182 0
 1015 0002 4FF6FF71 		movw	r1, #65535
 1016 0006 0120     		movs	r0, #1
 1017 0008 FFF7FEFF 		bl	_Z41__static_initialization_and_destruction_0ii
 1018              	.LVL107:
 1019 000c 08BD     		pop	{r3, pc}
 1020              		.cfi_endproc
 1021              	.LFE507:
 1023              		.section	.init_array,"aw",%init_array
 1024              		.align	2
 1025 0000 00000000 		.word	_GLOBAL__sub_I_initial_angle(target1)
 1026              		.global	angles
 1027              		.global	steps
 1028              		.global	tolerance
 1029              		.global	temp_robot_angle
 1030              		.global	robot_angle
 1031              		.global	angle
 1032              		.global	initial_angle
 1033              		.section	.bss._ZL16orientation_flag,"aw",%nobits
 1034              		.set	.LANCHOR7,. + 0
 1037              	_ZL16orientation_flag:
 1038 0000 00       		.space	1
 1039              		.section	.bss._ZL17number_of_samples,"aw",%nobits
 1040              		.align	2
 1041              		.set	.LANCHOR6,. + 0
ARM GAS  C:\Users\Prashant\AppData\Local\Temp\ccV4syd7.s 			page 30


 1044              	_ZL17number_of_samples:
 1045 0000 00000000 		.space	4
 1046              		.section	.bss.angle,"aw",%nobits
 1047              		.align	2
 1048              		.set	.LANCHOR1,. + 0
 1051              	angle:
 1052 0000 00000000 		.space	12
 1052      00000000 
 1052      00000000 
 1053              		.section	.bss.initial_angle,"aw",%nobits
 1054              		.align	2
 1055              		.set	.LANCHOR0,. + 0
 1058              	initial_angle:
 1059 0000 00000000 		.space	12
 1059      00000000 
 1059      00000000 
 1060              		.section	.bss.robot_angle,"aw",%nobits
 1061              		.align	2
 1062              		.set	.LANCHOR3,. + 0
 1065              	robot_angle:
 1066 0000 00000000 		.space	4
 1067              		.section	.bss.temp_robot_angle,"aw",%nobits
 1068              		.align	2
 1069              		.set	.LANCHOR5,. + 0
 1072              	temp_robot_angle:
 1073 0000 00000000 		.space	4
 1074              		.section	.data._ZL9leg_speed,"aw",%progbits
 1075              		.align	2
 1076              		.set	.LANCHOR2,. + 0
 1079              	_ZL9leg_speed:
 1080 0000 0000A041 		.word	1101004800
 1081              		.section	.data.angles,"aw",%progbits
 1082              		.align	2
 1083              		.set	.LANCHOR9,. + 0
 1086              	angles:
 1087 0000 00000000 		.word	0
 1088 0004 00003442 		.word	1110704128
 1089 0008 00003442 		.word	1110704128
 1090 000c 00004842 		.word	1112014848
 1091 0010 0000A0C1 		.word	-1046478848
 1092 0014 00000000 		.word	0
 1093              		.section	.data.steps,"aw",%progbits
 1094              		.align	2
 1095              		.set	.LANCHOR8,. + 0
 1098              	steps:
 1099 0000 00004041 		.word	1094713344
 1100 0004 00008841 		.word	1099431936
 1101 0008 0000A841 		.word	1101529088
 1102 000c 0000C041 		.word	1103101952
 1103 0010 00003442 		.word	1110704128
 1104 0014 0000A042 		.word	1117782016
 1105              		.section	.data.tolerance,"aw",%progbits
 1106              		.align	2
 1107              		.set	.LANCHOR4,. + 0
 1110              	tolerance:
 1111 0000 35FA0E3C 		.word	1007614517
 1112              		.section	.rodata._Z15calculate_datasv.str1.4,"aMS",%progbits,1
ARM GAS  C:\Users\Prashant\AppData\Local\Temp\ccV4syd7.s 			page 31


 1113              		.align	2
 1114              	.LC3:
 1115 0000 616E676C 		.ascii	"angleX = %d \011 angleY = %d \011 angleZ = %d \011 "
 1115      6558203D 
 1115      20256420 
 1115      0920616E 
 1115      676C6559 
 1116 002a 726F626F 		.ascii	"robotangle = %d \012\000"
 1116      74616E67 
 1116      6C65203D 
 1116      20256420 
 1116      0A00
 1117              		.section	.rodata._Z21calculate_robot_anglev.str1.4,"aMS",%progbits,1
 1118              		.align	2
 1119              	.LC0:
 1120 0000 0963616C 		.ascii	"\011calculating\000"
 1120      63756C61 
 1120      74696E67 
 1120      00
 1121 000d 000000   		.space	3
 1122              	.LC1:
 1123 0010 64697370 		.ascii	"displayed\000"
 1123      6C617965 
 1123      6400
 1124 001a 0000     		.space	2
 1125              	.LC2:
 1126 001c 7374696C 		.ascii	"still\000"
 1126      6C00
 1127              		.section	.rodata._Z4playv.str1.4,"aMS",%progbits,1
 1128              		.align	2
 1129              	.LC4:
 1130 0000 09737465 		.ascii	"\011step=%d\011\000"
 1130      703D2564 
 1130      0900
 1131              		.text
 1132              	.Letext0:
 1133              		.file 6 "c:\\program files (x86)\\gnu tools arm embedded\\7 2017-q4-major\\arm-none-eabi\\include\
 1134              		.file 7 "c:\\program files (x86)\\gnu tools arm embedded\\7 2017-q4-major\\arm-none-eabi\\include\
 1135              		.file 8 "Drivers/CMSIS/Include/core_cm4.h"
 1136              		.file 9 "Drivers/CMSIS/Device/ST/STM32F4xx/Include/system_stm32f4xx.h"
 1137              		.file 10 "Drivers/CMSIS/Device/ST/STM32F4xx/Include/stm32f407xx.h"
 1138              		.file 11 "c:\\program files (x86)\\gnu tools arm embedded\\7 2017-q4-major\\arm-none-eabi\\include
 1139              		.file 12 "c:\\program files (x86)\\gnu tools arm embedded\\7 2017-q4-major\\arm-none-eabi\\include
 1140              		.file 13 "c:\\program files (x86)\\gnu tools arm embedded\\7 2017-q4-major\\lib\\gcc\\arm-none-eab
 1141              		.file 14 "c:\\program files (x86)\\gnu tools arm embedded\\7 2017-q4-major\\arm-none-eabi\\include
 1142              		.file 15 "Drivers/STM32F4xx_HAL_Driver/Inc/stm32f4xx_hal_def.h"
 1143              		.file 16 "Drivers/STM32F4xx_HAL_Driver/Inc/stm32f4xx_hal_dma.h"
 1144              		.file 17 "Drivers/STM32F4xx_HAL_Driver/Inc/stm32f4xx_hal_tim.h"
 1145              		.file 18 "Drivers/STM32F4xx_HAL_Driver/Inc/stm32f4xx_hal_uart.h"
 1146              		.file 19 "Core/Inc/periphs/tim.h"
 1147              		.file 20 "c:\\program files (x86)\\gnu tools arm embedded\\7 2017-q4-major\\arm-none-eabi\\include
 1148              		.file 21 "c:\\program files (x86)\\gnu tools arm embedded\\7 2017-q4-major\\arm-none-eabi\\include
 1149              		.file 22 "c:\\program files (x86)\\gnu tools arm embedded\\7 2017-q4-major\\arm-none-eabi\\include
 1150              		.file 23 "c:\\program files (x86)\\gnu tools arm embedded\\7 2017-q4-major\\arm-none-eabi\\include
 1151              		.file 24 "Core/Inc/devs/motor.h"
 1152              		.file 25 "Core/Inc/devs/encoder.h"
 1153              		.file 26 "Core/Inc/utils/pid_algorithms.h"
ARM GAS  C:\Users\Prashant\AppData\Local\Temp\ccV4syd7.s 			page 32


 1154              		.file 27 "Core/Inc/devs/limit_switch.h"
 1155              		.file 28 "Core/Inc/periphs/usart.h"
 1156              		.file 29 "Drivers/STM32F4xx_HAL_Driver/Inc/stm32f4xx_hal.h"
 1157              		.file 30 "c:\\program files (x86)\\gnu tools arm embedded\\7 2017-q4-major\\arm-none-eabi\\include
 1158              		.file 31 "<built-in>"
ARM GAS  C:\Users\Prashant\AppData\Local\Temp\ccV4syd7.s 			page 33


DEFINED SYMBOLS
                            *ABS*:00000000 robot.cpp
C:\Users\Prashant\AppData\Local\Temp\ccV4syd7.s:18     .text._ZN4Vec3IfED2Ev:00000000 $t
C:\Users\Prashant\AppData\Local\Temp\ccV4syd7.s:25     .text._ZN4Vec3IfED2Ev:00000000 _ZN4Vec3IfED2Ev
C:\Users\Prashant\AppData\Local\Temp\ccV4syd7.s:25     .text._ZN4Vec3IfED2Ev:00000000 _ZN4Vec3IfED1Ev
C:\Users\Prashant\AppData\Local\Temp\ccV4syd7.s:42     .text._Z41__static_initialization_and_destruction_0ii:00000000 $t
C:\Users\Prashant\AppData\Local\Temp\ccV4syd7.s:48     .text._Z41__static_initialization_and_destruction_0ii:00000000 _Z41__static_initialization_and_destruction_0ii
C:\Users\Prashant\AppData\Local\Temp\ccV4syd7.s:150    .text._Z41__static_initialization_and_destruction_0ii:00000038 $d
C:\Users\Prashant\AppData\Local\Temp\ccV4syd7.s:158    .text._Z8move_legif:00000000 $t
C:\Users\Prashant\AppData\Local\Temp\ccV4syd7.s:165    .text._Z8move_legif:00000000 _Z8move_legif
C:\Users\Prashant\AppData\Local\Temp\ccV4syd7.s:211    .text._Z8move_legif:00000028 $d
C:\Users\Prashant\AppData\Local\Temp\ccV4syd7.s:218    .text._Z13move_steeringif:00000000 $t
C:\Users\Prashant\AppData\Local\Temp\ccV4syd7.s:225    .text._Z13move_steeringif:00000000 _Z13move_steeringif
C:\Users\Prashant\AppData\Local\Temp\ccV4syd7.s:481    .text._Z13move_steeringif:00000174 $d
C:\Users\Prashant\AppData\Local\Temp\ccV4syd7.s:500    .text._Z21calculate_robot_anglev:00000000 $t
C:\Users\Prashant\AppData\Local\Temp\ccV4syd7.s:507    .text._Z21calculate_robot_anglev:00000000 _Z21calculate_robot_anglev
C:\Users\Prashant\AppData\Local\Temp\ccV4syd7.s:623    .text._Z21calculate_robot_anglev:000000b0 $d
C:\Users\Prashant\AppData\Local\Temp\ccV4syd7.s:641    .text._Z2goif:00000000 $t
C:\Users\Prashant\AppData\Local\Temp\ccV4syd7.s:648    .text._Z2goif:00000000 _Z2goif
C:\Users\Prashant\AppData\Local\Temp\ccV4syd7.s:758    .text._Z2goif:00000098 $d
C:\Users\Prashant\AppData\Local\Temp\ccV4syd7.s:772    .text._Z15calculate_datasv:00000000 $t
C:\Users\Prashant\AppData\Local\Temp\ccV4syd7.s:779    .text._Z15calculate_datasv:00000000 _Z15calculate_datasv
C:\Users\Prashant\AppData\Local\Temp\ccV4syd7.s:880    .text._Z15calculate_datasv:00000080 $d
C:\Users\Prashant\AppData\Local\Temp\ccV4syd7.s:892    .text._Z4playv:00000000 $t
C:\Users\Prashant\AppData\Local\Temp\ccV4syd7.s:899    .text._Z4playv:00000000 _Z4playv
C:\Users\Prashant\AppData\Local\Temp\ccV4syd7.s:989    .text._Z4playv:0000006c $d
C:\Users\Prashant\AppData\Local\Temp\ccV4syd7.s:997    .text._GLOBAL__sub_I_initial_angle:00000000 $t
C:\Users\Prashant\AppData\Local\Temp\ccV4syd7.s:1003   .text._GLOBAL__sub_I_initial_angle:00000000 _GLOBAL__sub_I_initial_angle
C:\Users\Prashant\AppData\Local\Temp\ccV4syd7.s:1024   .init_array:00000000 $d
C:\Users\Prashant\AppData\Local\Temp\ccV4syd7.s:1086   .data.angles:00000000 angles
C:\Users\Prashant\AppData\Local\Temp\ccV4syd7.s:1098   .data.steps:00000000 steps
C:\Users\Prashant\AppData\Local\Temp\ccV4syd7.s:1110   .data.tolerance:00000000 tolerance
C:\Users\Prashant\AppData\Local\Temp\ccV4syd7.s:1072   .bss.temp_robot_angle:00000000 temp_robot_angle
C:\Users\Prashant\AppData\Local\Temp\ccV4syd7.s:1065   .bss.robot_angle:00000000 robot_angle
C:\Users\Prashant\AppData\Local\Temp\ccV4syd7.s:1051   .bss.angle:00000000 angle
C:\Users\Prashant\AppData\Local\Temp\ccV4syd7.s:1058   .bss.initial_angle:00000000 initial_angle
C:\Users\Prashant\AppData\Local\Temp\ccV4syd7.s:1037   .bss._ZL16orientation_flag:00000000 _ZL16orientation_flag
C:\Users\Prashant\AppData\Local\Temp\ccV4syd7.s:1038   .bss._ZL16orientation_flag:00000000 $d
C:\Users\Prashant\AppData\Local\Temp\ccV4syd7.s:1040   .bss._ZL17number_of_samples:00000000 $d
C:\Users\Prashant\AppData\Local\Temp\ccV4syd7.s:1044   .bss._ZL17number_of_samples:00000000 _ZL17number_of_samples
C:\Users\Prashant\AppData\Local\Temp\ccV4syd7.s:1047   .bss.angle:00000000 $d
C:\Users\Prashant\AppData\Local\Temp\ccV4syd7.s:1054   .bss.initial_angle:00000000 $d
C:\Users\Prashant\AppData\Local\Temp\ccV4syd7.s:1061   .bss.robot_angle:00000000 $d
C:\Users\Prashant\AppData\Local\Temp\ccV4syd7.s:1068   .bss.temp_robot_angle:00000000 $d
C:\Users\Prashant\AppData\Local\Temp\ccV4syd7.s:1075   .data._ZL9leg_speed:00000000 $d
C:\Users\Prashant\AppData\Local\Temp\ccV4syd7.s:1079   .data._ZL9leg_speed:00000000 _ZL9leg_speed
C:\Users\Prashant\AppData\Local\Temp\ccV4syd7.s:1082   .data.angles:00000000 $d
C:\Users\Prashant\AppData\Local\Temp\ccV4syd7.s:1094   .data.steps:00000000 $d
C:\Users\Prashant\AppData\Local\Temp\ccV4syd7.s:1106   .data.tolerance:00000000 $d
C:\Users\Prashant\AppData\Local\Temp\ccV4syd7.s:1113   .rodata._Z15calculate_datasv.str1.4:00000000 $d
C:\Users\Prashant\AppData\Local\Temp\ccV4syd7.s:1118   .rodata._Z21calculate_robot_anglev.str1.4:00000000 $d
C:\Users\Prashant\AppData\Local\Temp\ccV4syd7.s:1128   .rodata._Z4playv.str1.4:00000000 $d
                           .group:00000000 _ZN4Vec3IfED5Ev

UNDEFINED SYMBOLS
__aeabi_atexit
__dso_handle
ARM GAS  C:\Users\Prashant\AppData\Local\Temp\ccV4syd7.s 			page 34


_ZN3leg9set_omegaEf
leg
_ZN3leg9is_raisedEv
_ZN7encoder9get_angleEv
_ZN8steering9set_omegaEf
steering
__aeabi_f2d
__aeabi_dmul
__aeabi_ddiv
__aeabi_dadd
__aeabi_d2f
printf
__aeabi_dcmple
__aeabi_d2iz
_ZN3leg15calculate_omegaEv
_ZN8steering15calculate_omegaEv
_Z16read_Orientationm
HAL_GetTick
