ARM GAS  C:\Users\Prashant\AppData\Local\Temp\ccjUJDtj.s 			page 1


   1              		.cpu cortex-m4
   2              		.eabi_attribute 27, 1
   3              		.eabi_attribute 28, 1
   4              		.eabi_attribute 20, 1
   5              		.eabi_attribute 21, 1
   6              		.eabi_attribute 23, 3
   7              		.eabi_attribute 24, 1
   8              		.eabi_attribute 25, 1
   9              		.eabi_attribute 26, 1
  10              		.eabi_attribute 30, 1
  11              		.eabi_attribute 34, 1
  12              		.eabi_attribute 18, 4
  13              		.file	"robot.cpp"
  14              		.text
  15              	.Ltext0:
  16              		.cfi_sections	.debug_frame
  17              		.section	.text._Z8move_legif,"ax",%progbits
  18              		.align	1
  19              		.global	_Z8move_legif
  20              		.syntax unified
  21              		.thumb
  22              		.thumb_func
  23              		.fpu fpv4-sp-d16
  25              	_Z8move_legif:
  26              	.LFB461:
  27              		.file 1 "Core/Src/robot/robot.cpp"
   1:Core/Src/robot/robot.cpp **** #include "robot.h"
   2:Core/Src/robot/robot.cpp **** extern leg leg[1];
   3:Core/Src/robot/robot.cpp **** extern steering steering;
   4:Core/Src/robot/robot.cpp **** 
   5:Core/Src/robot/robot.cpp **** static const float robot_speed = 12;
   6:Core/Src/robot/robot.cpp **** static float leg_speed = robot_speed;    //38 is the 100%
   7:Core/Src/robot/robot.cpp **** static const float steering_speed = 0.7; // 1.35 is the 100%
   8:Core/Src/robot/robot.cpp **** static const float steering_angle_limit = 8 * PI / 180;
   9:Core/Src/robot/robot.cpp **** 
  10:Core/Src/robot/robot.cpp **** float robot_angle = 0, temp_robot_angle = 0;
  11:Core/Src/robot/robot.cpp **** bool robo_angle_flag = true;
  12:Core/Src/robot/robot.cpp **** float tolerance = 0.5 * PI / 180;
  13:Core/Src/robot/robot.cpp **** 
  14:Core/Src/robot/robot.cpp **** // float steps[6] = {12, 17, 23, 30, 45, 80};
  15:Core/Src/robot/robot.cpp **** // float angles[6] = {0, 45, 45, 55, -15, 0};
  16:Core/Src/robot/robot.cpp **** 
  17:Core/Src/robot/robot.cpp **** float steps[6] = {12, 17, 23, 25, 45, 80};
  18:Core/Src/robot/robot.cpp **** float angles[6] = {0, 45, 45, 55, -10, 0};
  19:Core/Src/robot/robot.cpp **** 
  20:Core/Src/robot/robot.cpp **** bool go(int steps, float angle)
  21:Core/Src/robot/robot.cpp **** {
  22:Core/Src/robot/robot.cpp **** 	angle *= PI / 180;
  23:Core/Src/robot/robot.cpp **** 	move_leg(steps, angle);
  24:Core/Src/robot/robot.cpp **** 	move_steering(steps, angle);
  25:Core/Src/robot/robot.cpp **** 
  26:Core/Src/robot/robot.cpp **** 	calculate_robot_angle();
  27:Core/Src/robot/robot.cpp **** 	// printf("steps = %d \trobot angle = %d \t steering angle = %d\n",leg[0].steps,  (int)(robot_angl
  28:Core/Src/robot/robot.cpp **** 	//printf("inputangle = %d\trobotangle = %d \n", (int)(angle*180/PI), (int)(robot_angle*180/PI));
  29:Core/Src/robot/robot.cpp **** 	if ((leg[0].get_steps() >= steps) && (fabs(angle - robot_angle) <= 0.04))
  30:Core/Src/robot/robot.cpp **** 	{
  31:Core/Src/robot/robot.cpp **** 		leg[0].set_omega(0);
ARM GAS  C:\Users\Prashant\AppData\Local\Temp\ccjUJDtj.s 			page 2


  32:Core/Src/robot/robot.cpp **** 		steering.set_omega(0);
  33:Core/Src/robot/robot.cpp **** 		return true;
  34:Core/Src/robot/robot.cpp **** 	}
  35:Core/Src/robot/robot.cpp **** 	else
  36:Core/Src/robot/robot.cpp **** 	{
  37:Core/Src/robot/robot.cpp **** 		leg[0].set_omega(leg_speed);
  38:Core/Src/robot/robot.cpp **** 		return false;
  39:Core/Src/robot/robot.cpp **** 	}
  40:Core/Src/robot/robot.cpp **** }
  41:Core/Src/robot/robot.cpp **** 
  42:Core/Src/robot/robot.cpp **** void move_leg(int steps, float angle)
  43:Core/Src/robot/robot.cpp **** {
  28              		.loc 1 43 0
  29              		.cfi_startproc
  30              		@ args = 0, pretend = 0, frame = 0
  31              		@ frame_needed = 0, uses_anonymous_args = 0
  32              		@ link register save eliminated.
  33              	.LVL0:
  44:Core/Src/robot/robot.cpp **** 	//Setting the slow speed in sand dune and tussok
  45:Core/Src/robot/robot.cpp **** 	leg_speed = (steps == 23 || steps == 40) ? robot_speed / 1.35 : robot_speed;
  34              		.loc 1 45 0
  35 0000 1728     		cmp	r0, #23
  36 0002 07D0     		beq	.L3
  37              		.loc 1 45 0 is_stmt 0 discriminator 2
  38 0004 2828     		cmp	r0, #40
  39 0006 03D0     		beq	.L5
  40              		.loc 1 45 0
  41 0008 034A     		ldr	r2, .L6
  42              	.L2:
  43              		.loc 1 45 0 discriminator 6
  44 000a 044B     		ldr	r3, .L6+4
  45 000c 1A60     		str	r2, [r3]	@ float
  46:Core/Src/robot/robot.cpp **** }
  46              		.loc 1 46 0 is_stmt 1 discriminator 6
  47 000e 7047     		bx	lr
  48              	.L5:
  45:Core/Src/robot/robot.cpp **** }
  49              		.loc 1 45 0
  50 0010 034A     		ldr	r2, .L6+8
  51 0012 FAE7     		b	.L2
  52              	.L3:
  53 0014 024A     		ldr	r2, .L6+8
  54 0016 F8E7     		b	.L2
  55              	.L7:
  56              		.align	2
  57              	.L6:
  58 0018 00004041 		.word	1094713344
  59 001c 00000000 		.word	.LANCHOR0
  60 0020 E4380E41 		.word	1091451108
  61              		.cfi_endproc
  62              	.LFE461:
  64              		.section	.text._Z13move_steeringif,"ax",%progbits
  65              		.align	1
  66              		.global	_Z13move_steeringif
  67              		.syntax unified
  68              		.thumb
  69              		.thumb_func
ARM GAS  C:\Users\Prashant\AppData\Local\Temp\ccjUJDtj.s 			page 3


  70              		.fpu fpv4-sp-d16
  72              	_Z13move_steeringif:
  73              	.LFB462:
  47:Core/Src/robot/robot.cpp **** void move_steering(int steps, float angle)
  48:Core/Src/robot/robot.cpp **** {
  74              		.loc 1 48 0
  75              		.cfi_startproc
  76              		@ args = 0, pretend = 0, frame = 0
  77              		@ frame_needed = 0, uses_anonymous_args = 0
  78              	.LVL1:
  79 0000 08B5     		push	{r3, lr}
  80              	.LCFI0:
  81              		.cfi_def_cfa_offset 8
  82              		.cfi_offset 3, -8
  83              		.cfi_offset 14, -4
  84 0002 2DED028B 		vpush.64	{d8}
  85              	.LCFI1:
  86              		.cfi_def_cfa_offset 16
  87              		.cfi_offset 80, -16
  88              		.cfi_offset 81, -12
  89 0006 B0EE408A 		vmov.f32	s16, s0
  49:Core/Src/robot/robot.cpp **** 	if (leg[0].is_raised() == Leg_condition::RAISED)
  90              		.loc 1 49 0
  91 000a 5A48     		ldr	r0, .L53
  92              	.LVL2:
  93 000c FFF7FEFF 		bl	_ZN3leg9is_raisedEv
  94              	.LVL3:
  95 0010 0028     		cmp	r0, #0
  96 0012 4CD1     		bne	.L9
  97              	.LVL4:
  98              	.LBB26:
  99              	.LBB27:
 100              		.file 2 "Core/Inc/devs/steering.h"
   1:Core/Inc/devs/steering.h **** #ifndef _STEERING_H_
   2:Core/Inc/devs/steering.h **** #define _STEERING_H_
   3:Core/Inc/devs/steering.h **** 
   4:Core/Inc/devs/steering.h **** #include "motor.h"
   5:Core/Inc/devs/steering.h **** #include "encoder.h"
   6:Core/Inc/devs/steering.h **** #include "pid.h"
   7:Core/Inc/devs/steering.h **** #include "limit_switch.h"
   8:Core/Inc/devs/steering.h **** 
   9:Core/Inc/devs/steering.h **** class steering
  10:Core/Inc/devs/steering.h **** {
  11:Core/Inc/devs/steering.h **** public:
  12:Core/Inc/devs/steering.h **** 	steering(){}
  13:Core/Inc/devs/steering.h **** 	steering(steering &&) = default;
  14:Core/Inc/devs/steering.h **** 	steering(const steering &) = default;
  15:Core/Inc/devs/steering.h **** 	steering &operator=(steering &&) = default;
  16:Core/Inc/devs/steering.h **** 	steering &operator=(const steering &) = default;
  17:Core/Inc/devs/steering.h **** 	~steering(){}
  18:Core/Inc/devs/steering.h ****         void set_config(motor_config *motor, encoder_config *encoder) { 
  19:Core/Inc/devs/steering.h **** 		motor__.set_config(motor);
  20:Core/Inc/devs/steering.h **** 		encoder__.set_config(encoder);
  21:Core/Inc/devs/steering.h **** 	}
  22:Core/Inc/devs/steering.h **** 	void set_PID_constants(float kp, float ki, float kd, float lower_limit, float upper_limit) {
  23:Core/Inc/devs/steering.h **** 		dpid_.set_P(kp);
  24:Core/Inc/devs/steering.h **** 		dpid_.set_I(ki);
ARM GAS  C:\Users\Prashant\AppData\Local\Temp\ccjUJDtj.s 			page 4


  25:Core/Inc/devs/steering.h **** 		dpid_.set_D(kd);
  26:Core/Inc/devs/steering.h **** 		dpid_.set_Limits(upper_limit, lower_limit);
  27:Core/Inc/devs/steering.h **** 	}
  28:Core/Inc/devs/steering.h **** 
  29:Core/Inc/devs/steering.h **** 	void set_omega(float omega);
  30:Core/Inc/devs/steering.h **** 	void reset_angle(float angle_in_radians);
  31:Core/Inc/devs/steering.h **** 	void calculate_omega();
  32:Core/Inc/devs/steering.h **** 
  33:Core/Inc/devs/steering.h **** 	float get_omega(void){return encoder__.get_omega();}
  34:Core/Inc/devs/steering.h **** 	float get_angle(void){return encoder__.get_angle();}
 101              		.loc 2 34 0
 102 0014 5848     		ldr	r0, .L53+4
 103 0016 FFF7FEFF 		bl	_ZN7encoder9get_angleEv
 104              	.LVL5:
 105              	.LBE27:
 106              	.LBE26:
  50:Core/Src/robot/robot.cpp **** 	{
  51:Core/Src/robot/robot.cpp **** 		//printf("raised");
  52:Core/Src/robot/robot.cpp **** 		if ((steering.get_angle() > -steering_angle_limit) && (steering.get_angle() < steering_angle_limi
 107              		.loc 1 52 0
 108 001a DFED587A 		vldr.32	s15, .L53+8
 109 001e B4EEE70A 		vcmpe.f32	s0, s15
 110 0022 F1EE10FA 		vmrs	APSR_nzcv, FPSCR
 111 0026 23DD     		ble	.L10
 112              	.LVL6:
 113              	.LBB28:
 114              	.LBB29:
 115              		.loc 2 34 0
 116 0028 5348     		ldr	r0, .L53+4
 117 002a FFF7FEFF 		bl	_ZN7encoder9get_angleEv
 118              	.LVL7:
 119              	.LBE29:
 120              	.LBE28:
 121              		.loc 1 52 0
 122 002e DFED547A 		vldr.32	s15, .L53+12
 123 0032 B4EEE70A 		vcmpe.f32	s0, s15
 124 0036 F1EE10FA 		vmrs	APSR_nzcv, FPSCR
 125 003a 19D5     		bpl	.L10
  53:Core/Src/robot/robot.cpp **** 		{
  54:Core/Src/robot/robot.cpp **** 			if (angle > (robot_angle + tolerance))
 126              		.loc 1 54 0
 127 003c 514B     		ldr	r3, .L53+16
 128 003e D3ED007A 		vldr.32	s15, [r3]
 129 0042 514B     		ldr	r3, .L53+20
 130 0044 93ED007A 		vldr.32	s14, [r3]
 131 0048 77EE876A 		vadd.f32	s13, s15, s14
 132 004c F4EEC86A 		vcmpe.f32	s13, s16
 133 0050 F1EE10FA 		vmrs	APSR_nzcv, FPSCR
 134 0054 1CD4     		bmi	.L51
  55:Core/Src/robot/robot.cpp **** 				steering.set_omega(steering_speed);
  56:Core/Src/robot/robot.cpp **** 
  57:Core/Src/robot/robot.cpp **** 			else if (angle < (robot_angle - tolerance))
 135              		.loc 1 57 0
 136 0056 77EEC77A 		vsub.f32	s15, s15, s14
 137 005a F4EEC87A 		vcmpe.f32	s15, s16
 138 005e F1EE10FA 		vmrs	APSR_nzcv, FPSCR
 139 0062 1BDD     		ble	.L44
ARM GAS  C:\Users\Prashant\AppData\Local\Temp\ccjUJDtj.s 			page 5


  58:Core/Src/robot/robot.cpp **** 				steering.set_omega(-steering_speed);
 140              		.loc 1 58 0
 141 0064 9FED490A 		vldr.32	s0, .L53+24
 142 0068 4948     		ldr	r0, .L53+28
 143 006a FFF7FEFF 		bl	_ZN8steering9set_omegaEf
 144              	.LVL8:
 145 006e 0CE0     		b	.L8
 146              	.L10:
 147              	.LVL9:
 148              	.LBB30:
 149              	.LBB31:
 150              		.loc 2 34 0 discriminator 4
 151 0070 4148     		ldr	r0, .L53+4
 152 0072 FFF7FEFF 		bl	_ZN7encoder9get_angleEv
 153              	.LVL10:
 154              	.LBE31:
 155              	.LBE30:
  59:Core/Src/robot/robot.cpp **** 
  60:Core/Src/robot/robot.cpp **** 			else
  61:Core/Src/robot/robot.cpp **** 				steering.set_omega(0);
  62:Core/Src/robot/robot.cpp **** 		}
  63:Core/Src/robot/robot.cpp **** 		else{
  64:Core/Src/robot/robot.cpp **** 			steering.set_omega((steering.get_angle() > 0) ? -steering_speed : steering_speed);  //for protec
 156              		.loc 1 64 0 discriminator 4
 157 0076 B5EEC00A 		vcmpe.f32	s0, #0
 158 007a F1EE10FA 		vmrs	APSR_nzcv, FPSCR
 159 007e 13DD     		ble	.L43
 160              		.loc 1 64 0 is_stmt 0
 161 0080 9FED420A 		vldr.32	s0, .L53+24
 162              	.L15:
 163              		.loc 1 64 0 discriminator 4
 164 0084 4248     		ldr	r0, .L53+28
 165 0086 FFF7FEFF 		bl	_ZN8steering9set_omegaEf
 166              	.LVL11:
 167              	.L8:
  65:Core/Src/robot/robot.cpp **** 		}
  66:Core/Src/robot/robot.cpp **** 	}
  67:Core/Src/robot/robot.cpp **** 	else if (leg[0].is_raised() == Leg_condition::FALLEN)
  68:Core/Src/robot/robot.cpp **** 	{
  69:Core/Src/robot/robot.cpp **** 		//printf ("fallen");
  70:Core/Src/robot/robot.cpp **** 		if (fabs(angle - robot_angle) <= steering_angle_limit)
  71:Core/Src/robot/robot.cpp **** 		{
  72:Core/Src/robot/robot.cpp **** 			if (steering.get_angle() > (tolerance)){
  73:Core/Src/robot/robot.cpp **** 				steering.set_omega(-steering_speed);}
  74:Core/Src/robot/robot.cpp **** 
  75:Core/Src/robot/robot.cpp **** 			else if (steering.get_angle() < (-tolerance)){
  76:Core/Src/robot/robot.cpp **** 				steering.set_omega(steering_speed);}
  77:Core/Src/robot/robot.cpp **** 
  78:Core/Src/robot/robot.cpp **** 			else{
  79:Core/Src/robot/robot.cpp **** 				steering.set_omega(0);}
  80:Core/Src/robot/robot.cpp **** 			// printf("center_alligned\t");
  81:Core/Src/robot/robot.cpp **** 		}
  82:Core/Src/robot/robot.cpp **** 		else{
  83:Core/Src/robot/robot.cpp **** 			
  84:Core/Src/robot/robot.cpp **** 			if(fabs(steering.get_angle()) < steering_angle_limit){
  85:Core/Src/robot/robot.cpp **** 				steering.set_omega((angle>0)? (-steering_speed):steering_speed);
  86:Core/Src/robot/robot.cpp **** 			}
ARM GAS  C:\Users\Prashant\AppData\Local\Temp\ccjUJDtj.s 			page 6


  87:Core/Src/robot/robot.cpp **** 			else{
  88:Core/Src/robot/robot.cpp **** 				steering.set_omega(0);
  89:Core/Src/robot/robot.cpp **** 			}			
  90:Core/Src/robot/robot.cpp **** 			//printf("peak_alligned\t");
  91:Core/Src/robot/robot.cpp **** 		}
  92:Core/Src/robot/robot.cpp **** 	}
  93:Core/Src/robot/robot.cpp **** 	else
  94:Core/Src/robot/robot.cpp **** 	{
  95:Core/Src/robot/robot.cpp **** 		// printf("nothing");
  96:Core/Src/robot/robot.cpp **** 		steering.set_omega(0);
  97:Core/Src/robot/robot.cpp **** 	}
  98:Core/Src/robot/robot.cpp **** }
 168              		.loc 1 98 0 is_stmt 1
 169 008a BDEC028B 		vldm	sp!, {d8}
 170              	.LCFI2:
 171              		.cfi_remember_state
 172              		.cfi_restore 80
 173              		.cfi_restore 81
 174              		.cfi_def_cfa_offset 8
 175              	.LVL12:
 176 008e 08BD     		pop	{r3, pc}
 177              	.LVL13:
 178              	.L51:
 179              	.LCFI3:
 180              		.cfi_restore_state
  55:Core/Src/robot/robot.cpp **** 
 181              		.loc 1 55 0
 182 0090 9FED400A 		vldr.32	s0, .L53+32
 183 0094 3E48     		ldr	r0, .L53+28
 184 0096 FFF7FEFF 		bl	_ZN8steering9set_omegaEf
 185              	.LVL14:
 186 009a F6E7     		b	.L8
 187              	.L44:
  61:Core/Src/robot/robot.cpp **** 		}
 188              		.loc 1 61 0
 189 009c 9FED3E0A 		vldr.32	s0, .L53+36
 190 00a0 3B48     		ldr	r0, .L53+28
 191 00a2 FFF7FEFF 		bl	_ZN8steering9set_omegaEf
 192              	.LVL15:
 193 00a6 F0E7     		b	.L8
 194              	.L43:
  64:Core/Src/robot/robot.cpp **** 		}
 195              		.loc 1 64 0
 196 00a8 9FED3A0A 		vldr.32	s0, .L53+32
 197 00ac EAE7     		b	.L15
 198              	.L9:
  67:Core/Src/robot/robot.cpp **** 	{
 199              		.loc 1 67 0
 200 00ae 3148     		ldr	r0, .L53
 201 00b0 FFF7FEFF 		bl	_ZN3leg9is_raisedEv
 202              	.LVL16:
 203 00b4 0128     		cmp	r0, #1
 204 00b6 57D1     		bne	.L20
  70:Core/Src/robot/robot.cpp **** 		{
 205              		.loc 1 70 0
 206 00b8 324B     		ldr	r3, .L53+16
 207 00ba D3ED007A 		vldr.32	s15, [r3]
ARM GAS  C:\Users\Prashant\AppData\Local\Temp\ccjUJDtj.s 			page 7


 208 00be 78EE677A 		vsub.f32	s15, s16, s15
 209              	.LVL17:
 210              	.LBB32:
 211              	.LBB33:
 212              		.file 3 "c:\\program files (x86)\\gnu tools arm embedded\\7 2017-q4-major\\arm-none-eabi\\include\
   1:c:\program files (x86)\gnu tools arm embedded\7 2017-q4-major\arm-none-eabi\include\c++\7.2.1\cmath **** // -*- C++ -*- C forwarding header.
   2:c:\program files (x86)\gnu tools arm embedded\7 2017-q4-major\arm-none-eabi\include\c++\7.2.1\cmath **** 
   3:c:\program files (x86)\gnu tools arm embedded\7 2017-q4-major\arm-none-eabi\include\c++\7.2.1\cmath **** // Copyright (C) 1997-2017 Free Software Foundation, Inc.
   4:c:\program files (x86)\gnu tools arm embedded\7 2017-q4-major\arm-none-eabi\include\c++\7.2.1\cmath **** //
   5:c:\program files (x86)\gnu tools arm embedded\7 2017-q4-major\arm-none-eabi\include\c++\7.2.1\cmath **** // This file is part of the GNU ISO C++ Library.  This library is free
   6:c:\program files (x86)\gnu tools arm embedded\7 2017-q4-major\arm-none-eabi\include\c++\7.2.1\cmath **** // software; you can redistribute it and/or modify it under the
   7:c:\program files (x86)\gnu tools arm embedded\7 2017-q4-major\arm-none-eabi\include\c++\7.2.1\cmath **** // terms of the GNU General Public License as published by the
   8:c:\program files (x86)\gnu tools arm embedded\7 2017-q4-major\arm-none-eabi\include\c++\7.2.1\cmath **** // Free Software Foundation; either version 3, or (at your option)
   9:c:\program files (x86)\gnu tools arm embedded\7 2017-q4-major\arm-none-eabi\include\c++\7.2.1\cmath **** // any later version.
  10:c:\program files (x86)\gnu tools arm embedded\7 2017-q4-major\arm-none-eabi\include\c++\7.2.1\cmath **** 
  11:c:\program files (x86)\gnu tools arm embedded\7 2017-q4-major\arm-none-eabi\include\c++\7.2.1\cmath **** // This library is distributed in the hope that it will be useful,
  12:c:\program files (x86)\gnu tools arm embedded\7 2017-q4-major\arm-none-eabi\include\c++\7.2.1\cmath **** // but WITHOUT ANY WARRANTY; without even the implied warranty of
  13:c:\program files (x86)\gnu tools arm embedded\7 2017-q4-major\arm-none-eabi\include\c++\7.2.1\cmath **** // MERCHANTABILITY or FITNESS FOR A PARTICULAR PURPOSE.  See the
  14:c:\program files (x86)\gnu tools arm embedded\7 2017-q4-major\arm-none-eabi\include\c++\7.2.1\cmath **** // GNU General Public License for more details.
  15:c:\program files (x86)\gnu tools arm embedded\7 2017-q4-major\arm-none-eabi\include\c++\7.2.1\cmath **** 
  16:c:\program files (x86)\gnu tools arm embedded\7 2017-q4-major\arm-none-eabi\include\c++\7.2.1\cmath **** // Under Section 7 of GPL version 3, you are granted additional
  17:c:\program files (x86)\gnu tools arm embedded\7 2017-q4-major\arm-none-eabi\include\c++\7.2.1\cmath **** // permissions described in the GCC Runtime Library Exception, version
  18:c:\program files (x86)\gnu tools arm embedded\7 2017-q4-major\arm-none-eabi\include\c++\7.2.1\cmath **** // 3.1, as published by the Free Software Foundation.
  19:c:\program files (x86)\gnu tools arm embedded\7 2017-q4-major\arm-none-eabi\include\c++\7.2.1\cmath **** 
  20:c:\program files (x86)\gnu tools arm embedded\7 2017-q4-major\arm-none-eabi\include\c++\7.2.1\cmath **** // You should have received a copy of the GNU General Public License and
  21:c:\program files (x86)\gnu tools arm embedded\7 2017-q4-major\arm-none-eabi\include\c++\7.2.1\cmath **** // a copy of the GCC Runtime Library Exception along with this program;
  22:c:\program files (x86)\gnu tools arm embedded\7 2017-q4-major\arm-none-eabi\include\c++\7.2.1\cmath **** // see the files COPYING3 and COPYING.RUNTIME respectively.  If not, see
  23:c:\program files (x86)\gnu tools arm embedded\7 2017-q4-major\arm-none-eabi\include\c++\7.2.1\cmath **** // <http://www.gnu.org/licenses/>.
  24:c:\program files (x86)\gnu tools arm embedded\7 2017-q4-major\arm-none-eabi\include\c++\7.2.1\cmath **** 
  25:c:\program files (x86)\gnu tools arm embedded\7 2017-q4-major\arm-none-eabi\include\c++\7.2.1\cmath **** /** @file include/cmath
  26:c:\program files (x86)\gnu tools arm embedded\7 2017-q4-major\arm-none-eabi\include\c++\7.2.1\cmath ****  *  This is a Standard C++ Library file.  You should @c \#include this file
  27:c:\program files (x86)\gnu tools arm embedded\7 2017-q4-major\arm-none-eabi\include\c++\7.2.1\cmath ****  *  in your programs, rather than any of the @a *.h implementation files.
  28:c:\program files (x86)\gnu tools arm embedded\7 2017-q4-major\arm-none-eabi\include\c++\7.2.1\cmath ****  *
  29:c:\program files (x86)\gnu tools arm embedded\7 2017-q4-major\arm-none-eabi\include\c++\7.2.1\cmath ****  *  This is the C++ version of the Standard C Library header @c math.h,
  30:c:\program files (x86)\gnu tools arm embedded\7 2017-q4-major\arm-none-eabi\include\c++\7.2.1\cmath ****  *  and its contents are (mostly) the same as that header, but are all
  31:c:\program files (x86)\gnu tools arm embedded\7 2017-q4-major\arm-none-eabi\include\c++\7.2.1\cmath ****  *  contained in the namespace @c std (except for names which are defined
  32:c:\program files (x86)\gnu tools arm embedded\7 2017-q4-major\arm-none-eabi\include\c++\7.2.1\cmath ****  *  as macros in C).
  33:c:\program files (x86)\gnu tools arm embedded\7 2017-q4-major\arm-none-eabi\include\c++\7.2.1\cmath ****  */
  34:c:\program files (x86)\gnu tools arm embedded\7 2017-q4-major\arm-none-eabi\include\c++\7.2.1\cmath **** 
  35:c:\program files (x86)\gnu tools arm embedded\7 2017-q4-major\arm-none-eabi\include\c++\7.2.1\cmath **** //
  36:c:\program files (x86)\gnu tools arm embedded\7 2017-q4-major\arm-none-eabi\include\c++\7.2.1\cmath **** // ISO C++ 14882: 26.5  C library
  37:c:\program files (x86)\gnu tools arm embedded\7 2017-q4-major\arm-none-eabi\include\c++\7.2.1\cmath **** //
  38:c:\program files (x86)\gnu tools arm embedded\7 2017-q4-major\arm-none-eabi\include\c++\7.2.1\cmath **** 
  39:c:\program files (x86)\gnu tools arm embedded\7 2017-q4-major\arm-none-eabi\include\c++\7.2.1\cmath **** #pragma GCC system_header
  40:c:\program files (x86)\gnu tools arm embedded\7 2017-q4-major\arm-none-eabi\include\c++\7.2.1\cmath **** 
  41:c:\program files (x86)\gnu tools arm embedded\7 2017-q4-major\arm-none-eabi\include\c++\7.2.1\cmath **** #include <bits/c++config.h>
  42:c:\program files (x86)\gnu tools arm embedded\7 2017-q4-major\arm-none-eabi\include\c++\7.2.1\cmath **** #include <bits/cpp_type_traits.h>
  43:c:\program files (x86)\gnu tools arm embedded\7 2017-q4-major\arm-none-eabi\include\c++\7.2.1\cmath **** #include <ext/type_traits.h>
  44:c:\program files (x86)\gnu tools arm embedded\7 2017-q4-major\arm-none-eabi\include\c++\7.2.1\cmath **** #define _GLIBCXX_INCLUDE_NEXT_C_HEADERS
  45:c:\program files (x86)\gnu tools arm embedded\7 2017-q4-major\arm-none-eabi\include\c++\7.2.1\cmath **** #include_next <math.h>
  46:c:\program files (x86)\gnu tools arm embedded\7 2017-q4-major\arm-none-eabi\include\c++\7.2.1\cmath **** #undef _GLIBCXX_INCLUDE_NEXT_C_HEADERS
  47:c:\program files (x86)\gnu tools arm embedded\7 2017-q4-major\arm-none-eabi\include\c++\7.2.1\cmath **** #include <bits/std_abs.h>
  48:c:\program files (x86)\gnu tools arm embedded\7 2017-q4-major\arm-none-eabi\include\c++\7.2.1\cmath **** 
  49:c:\program files (x86)\gnu tools arm embedded\7 2017-q4-major\arm-none-eabi\include\c++\7.2.1\cmath **** #ifndef _GLIBCXX_CMATH
  50:c:\program files (x86)\gnu tools arm embedded\7 2017-q4-major\arm-none-eabi\include\c++\7.2.1\cmath **** #define _GLIBCXX_CMATH 1
  51:c:\program files (x86)\gnu tools arm embedded\7 2017-q4-major\arm-none-eabi\include\c++\7.2.1\cmath **** 
  52:c:\program files (x86)\gnu tools arm embedded\7 2017-q4-major\arm-none-eabi\include\c++\7.2.1\cmath **** // Get rid of those macros defined in <math.h> in lieu of real functions.
ARM GAS  C:\Users\Prashant\AppData\Local\Temp\ccjUJDtj.s 			page 8


  53:c:\program files (x86)\gnu tools arm embedded\7 2017-q4-major\arm-none-eabi\include\c++\7.2.1\cmath **** #undef div
  54:c:\program files (x86)\gnu tools arm embedded\7 2017-q4-major\arm-none-eabi\include\c++\7.2.1\cmath **** #undef acos
  55:c:\program files (x86)\gnu tools arm embedded\7 2017-q4-major\arm-none-eabi\include\c++\7.2.1\cmath **** #undef asin
  56:c:\program files (x86)\gnu tools arm embedded\7 2017-q4-major\arm-none-eabi\include\c++\7.2.1\cmath **** #undef atan
  57:c:\program files (x86)\gnu tools arm embedded\7 2017-q4-major\arm-none-eabi\include\c++\7.2.1\cmath **** #undef atan2
  58:c:\program files (x86)\gnu tools arm embedded\7 2017-q4-major\arm-none-eabi\include\c++\7.2.1\cmath **** #undef ceil
  59:c:\program files (x86)\gnu tools arm embedded\7 2017-q4-major\arm-none-eabi\include\c++\7.2.1\cmath **** #undef cos
  60:c:\program files (x86)\gnu tools arm embedded\7 2017-q4-major\arm-none-eabi\include\c++\7.2.1\cmath **** #undef cosh
  61:c:\program files (x86)\gnu tools arm embedded\7 2017-q4-major\arm-none-eabi\include\c++\7.2.1\cmath **** #undef exp
  62:c:\program files (x86)\gnu tools arm embedded\7 2017-q4-major\arm-none-eabi\include\c++\7.2.1\cmath **** #undef fabs
  63:c:\program files (x86)\gnu tools arm embedded\7 2017-q4-major\arm-none-eabi\include\c++\7.2.1\cmath **** #undef floor
  64:c:\program files (x86)\gnu tools arm embedded\7 2017-q4-major\arm-none-eabi\include\c++\7.2.1\cmath **** #undef fmod
  65:c:\program files (x86)\gnu tools arm embedded\7 2017-q4-major\arm-none-eabi\include\c++\7.2.1\cmath **** #undef frexp
  66:c:\program files (x86)\gnu tools arm embedded\7 2017-q4-major\arm-none-eabi\include\c++\7.2.1\cmath **** #undef ldexp
  67:c:\program files (x86)\gnu tools arm embedded\7 2017-q4-major\arm-none-eabi\include\c++\7.2.1\cmath **** #undef log
  68:c:\program files (x86)\gnu tools arm embedded\7 2017-q4-major\arm-none-eabi\include\c++\7.2.1\cmath **** #undef log10
  69:c:\program files (x86)\gnu tools arm embedded\7 2017-q4-major\arm-none-eabi\include\c++\7.2.1\cmath **** #undef modf
  70:c:\program files (x86)\gnu tools arm embedded\7 2017-q4-major\arm-none-eabi\include\c++\7.2.1\cmath **** #undef pow
  71:c:\program files (x86)\gnu tools arm embedded\7 2017-q4-major\arm-none-eabi\include\c++\7.2.1\cmath **** #undef sin
  72:c:\program files (x86)\gnu tools arm embedded\7 2017-q4-major\arm-none-eabi\include\c++\7.2.1\cmath **** #undef sinh
  73:c:\program files (x86)\gnu tools arm embedded\7 2017-q4-major\arm-none-eabi\include\c++\7.2.1\cmath **** #undef sqrt
  74:c:\program files (x86)\gnu tools arm embedded\7 2017-q4-major\arm-none-eabi\include\c++\7.2.1\cmath **** #undef tan
  75:c:\program files (x86)\gnu tools arm embedded\7 2017-q4-major\arm-none-eabi\include\c++\7.2.1\cmath **** #undef tanh
  76:c:\program files (x86)\gnu tools arm embedded\7 2017-q4-major\arm-none-eabi\include\c++\7.2.1\cmath **** 
  77:c:\program files (x86)\gnu tools arm embedded\7 2017-q4-major\arm-none-eabi\include\c++\7.2.1\cmath **** extern "C++"
  78:c:\program files (x86)\gnu tools arm embedded\7 2017-q4-major\arm-none-eabi\include\c++\7.2.1\cmath **** {
  79:c:\program files (x86)\gnu tools arm embedded\7 2017-q4-major\arm-none-eabi\include\c++\7.2.1\cmath **** namespace std _GLIBCXX_VISIBILITY(default)
  80:c:\program files (x86)\gnu tools arm embedded\7 2017-q4-major\arm-none-eabi\include\c++\7.2.1\cmath **** {
  81:c:\program files (x86)\gnu tools arm embedded\7 2017-q4-major\arm-none-eabi\include\c++\7.2.1\cmath **** _GLIBCXX_BEGIN_NAMESPACE_VERSION
  82:c:\program files (x86)\gnu tools arm embedded\7 2017-q4-major\arm-none-eabi\include\c++\7.2.1\cmath **** 
  83:c:\program files (x86)\gnu tools arm embedded\7 2017-q4-major\arm-none-eabi\include\c++\7.2.1\cmath ****   using ::acos;
  84:c:\program files (x86)\gnu tools arm embedded\7 2017-q4-major\arm-none-eabi\include\c++\7.2.1\cmath **** 
  85:c:\program files (x86)\gnu tools arm embedded\7 2017-q4-major\arm-none-eabi\include\c++\7.2.1\cmath **** #ifndef __CORRECT_ISO_CPP_MATH_H_PROTO
  86:c:\program files (x86)\gnu tools arm embedded\7 2017-q4-major\arm-none-eabi\include\c++\7.2.1\cmath ****   inline _GLIBCXX_CONSTEXPR float
  87:c:\program files (x86)\gnu tools arm embedded\7 2017-q4-major\arm-none-eabi\include\c++\7.2.1\cmath ****   acos(float __x)
  88:c:\program files (x86)\gnu tools arm embedded\7 2017-q4-major\arm-none-eabi\include\c++\7.2.1\cmath ****   { return __builtin_acosf(__x); }
  89:c:\program files (x86)\gnu tools arm embedded\7 2017-q4-major\arm-none-eabi\include\c++\7.2.1\cmath **** 
  90:c:\program files (x86)\gnu tools arm embedded\7 2017-q4-major\arm-none-eabi\include\c++\7.2.1\cmath ****   inline _GLIBCXX_CONSTEXPR long double
  91:c:\program files (x86)\gnu tools arm embedded\7 2017-q4-major\arm-none-eabi\include\c++\7.2.1\cmath ****   acos(long double __x)
  92:c:\program files (x86)\gnu tools arm embedded\7 2017-q4-major\arm-none-eabi\include\c++\7.2.1\cmath ****   { return __builtin_acosl(__x); }
  93:c:\program files (x86)\gnu tools arm embedded\7 2017-q4-major\arm-none-eabi\include\c++\7.2.1\cmath **** #endif
  94:c:\program files (x86)\gnu tools arm embedded\7 2017-q4-major\arm-none-eabi\include\c++\7.2.1\cmath **** 
  95:c:\program files (x86)\gnu tools arm embedded\7 2017-q4-major\arm-none-eabi\include\c++\7.2.1\cmath ****   template<typename _Tp>
  96:c:\program files (x86)\gnu tools arm embedded\7 2017-q4-major\arm-none-eabi\include\c++\7.2.1\cmath ****     inline _GLIBCXX_CONSTEXPR
  97:c:\program files (x86)\gnu tools arm embedded\7 2017-q4-major\arm-none-eabi\include\c++\7.2.1\cmath ****     typename __gnu_cxx::__enable_if<__is_integer<_Tp>::__value, 
  98:c:\program files (x86)\gnu tools arm embedded\7 2017-q4-major\arm-none-eabi\include\c++\7.2.1\cmath ****                                     double>::__type
  99:c:\program files (x86)\gnu tools arm embedded\7 2017-q4-major\arm-none-eabi\include\c++\7.2.1\cmath ****     acos(_Tp __x)
 100:c:\program files (x86)\gnu tools arm embedded\7 2017-q4-major\arm-none-eabi\include\c++\7.2.1\cmath ****     { return __builtin_acos(__x); }
 101:c:\program files (x86)\gnu tools arm embedded\7 2017-q4-major\arm-none-eabi\include\c++\7.2.1\cmath **** 
 102:c:\program files (x86)\gnu tools arm embedded\7 2017-q4-major\arm-none-eabi\include\c++\7.2.1\cmath ****   using ::asin;
 103:c:\program files (x86)\gnu tools arm embedded\7 2017-q4-major\arm-none-eabi\include\c++\7.2.1\cmath **** 
 104:c:\program files (x86)\gnu tools arm embedded\7 2017-q4-major\arm-none-eabi\include\c++\7.2.1\cmath **** #ifndef __CORRECT_ISO_CPP_MATH_H_PROTO
 105:c:\program files (x86)\gnu tools arm embedded\7 2017-q4-major\arm-none-eabi\include\c++\7.2.1\cmath ****   inline _GLIBCXX_CONSTEXPR float
 106:c:\program files (x86)\gnu tools arm embedded\7 2017-q4-major\arm-none-eabi\include\c++\7.2.1\cmath ****   asin(float __x)
 107:c:\program files (x86)\gnu tools arm embedded\7 2017-q4-major\arm-none-eabi\include\c++\7.2.1\cmath ****   { return __builtin_asinf(__x); }
 108:c:\program files (x86)\gnu tools arm embedded\7 2017-q4-major\arm-none-eabi\include\c++\7.2.1\cmath **** 
 109:c:\program files (x86)\gnu tools arm embedded\7 2017-q4-major\arm-none-eabi\include\c++\7.2.1\cmath ****   inline _GLIBCXX_CONSTEXPR long double
ARM GAS  C:\Users\Prashant\AppData\Local\Temp\ccjUJDtj.s 			page 9


 110:c:\program files (x86)\gnu tools arm embedded\7 2017-q4-major\arm-none-eabi\include\c++\7.2.1\cmath ****   asin(long double __x)
 111:c:\program files (x86)\gnu tools arm embedded\7 2017-q4-major\arm-none-eabi\include\c++\7.2.1\cmath ****   { return __builtin_asinl(__x); }
 112:c:\program files (x86)\gnu tools arm embedded\7 2017-q4-major\arm-none-eabi\include\c++\7.2.1\cmath **** #endif
 113:c:\program files (x86)\gnu tools arm embedded\7 2017-q4-major\arm-none-eabi\include\c++\7.2.1\cmath **** 
 114:c:\program files (x86)\gnu tools arm embedded\7 2017-q4-major\arm-none-eabi\include\c++\7.2.1\cmath ****   template<typename _Tp>
 115:c:\program files (x86)\gnu tools arm embedded\7 2017-q4-major\arm-none-eabi\include\c++\7.2.1\cmath ****     inline _GLIBCXX_CONSTEXPR
 116:c:\program files (x86)\gnu tools arm embedded\7 2017-q4-major\arm-none-eabi\include\c++\7.2.1\cmath ****     typename __gnu_cxx::__enable_if<__is_integer<_Tp>::__value,
 117:c:\program files (x86)\gnu tools arm embedded\7 2017-q4-major\arm-none-eabi\include\c++\7.2.1\cmath ****                                     double>::__type
 118:c:\program files (x86)\gnu tools arm embedded\7 2017-q4-major\arm-none-eabi\include\c++\7.2.1\cmath ****     asin(_Tp __x)
 119:c:\program files (x86)\gnu tools arm embedded\7 2017-q4-major\arm-none-eabi\include\c++\7.2.1\cmath ****     { return __builtin_asin(__x); }
 120:c:\program files (x86)\gnu tools arm embedded\7 2017-q4-major\arm-none-eabi\include\c++\7.2.1\cmath **** 
 121:c:\program files (x86)\gnu tools arm embedded\7 2017-q4-major\arm-none-eabi\include\c++\7.2.1\cmath ****   using ::atan;
 122:c:\program files (x86)\gnu tools arm embedded\7 2017-q4-major\arm-none-eabi\include\c++\7.2.1\cmath **** 
 123:c:\program files (x86)\gnu tools arm embedded\7 2017-q4-major\arm-none-eabi\include\c++\7.2.1\cmath **** #ifndef __CORRECT_ISO_CPP_MATH_H_PROTO
 124:c:\program files (x86)\gnu tools arm embedded\7 2017-q4-major\arm-none-eabi\include\c++\7.2.1\cmath ****   inline _GLIBCXX_CONSTEXPR float
 125:c:\program files (x86)\gnu tools arm embedded\7 2017-q4-major\arm-none-eabi\include\c++\7.2.1\cmath ****   atan(float __x)
 126:c:\program files (x86)\gnu tools arm embedded\7 2017-q4-major\arm-none-eabi\include\c++\7.2.1\cmath ****   { return __builtin_atanf(__x); }
 127:c:\program files (x86)\gnu tools arm embedded\7 2017-q4-major\arm-none-eabi\include\c++\7.2.1\cmath **** 
 128:c:\program files (x86)\gnu tools arm embedded\7 2017-q4-major\arm-none-eabi\include\c++\7.2.1\cmath ****   inline _GLIBCXX_CONSTEXPR long double
 129:c:\program files (x86)\gnu tools arm embedded\7 2017-q4-major\arm-none-eabi\include\c++\7.2.1\cmath ****   atan(long double __x)
 130:c:\program files (x86)\gnu tools arm embedded\7 2017-q4-major\arm-none-eabi\include\c++\7.2.1\cmath ****   { return __builtin_atanl(__x); }
 131:c:\program files (x86)\gnu tools arm embedded\7 2017-q4-major\arm-none-eabi\include\c++\7.2.1\cmath **** #endif
 132:c:\program files (x86)\gnu tools arm embedded\7 2017-q4-major\arm-none-eabi\include\c++\7.2.1\cmath **** 
 133:c:\program files (x86)\gnu tools arm embedded\7 2017-q4-major\arm-none-eabi\include\c++\7.2.1\cmath ****   template<typename _Tp>
 134:c:\program files (x86)\gnu tools arm embedded\7 2017-q4-major\arm-none-eabi\include\c++\7.2.1\cmath ****     inline _GLIBCXX_CONSTEXPR
 135:c:\program files (x86)\gnu tools arm embedded\7 2017-q4-major\arm-none-eabi\include\c++\7.2.1\cmath ****     typename __gnu_cxx::__enable_if<__is_integer<_Tp>::__value,
 136:c:\program files (x86)\gnu tools arm embedded\7 2017-q4-major\arm-none-eabi\include\c++\7.2.1\cmath ****                                     double>::__type
 137:c:\program files (x86)\gnu tools arm embedded\7 2017-q4-major\arm-none-eabi\include\c++\7.2.1\cmath ****     atan(_Tp __x)
 138:c:\program files (x86)\gnu tools arm embedded\7 2017-q4-major\arm-none-eabi\include\c++\7.2.1\cmath ****     { return __builtin_atan(__x); }
 139:c:\program files (x86)\gnu tools arm embedded\7 2017-q4-major\arm-none-eabi\include\c++\7.2.1\cmath **** 
 140:c:\program files (x86)\gnu tools arm embedded\7 2017-q4-major\arm-none-eabi\include\c++\7.2.1\cmath ****   using ::atan2;
 141:c:\program files (x86)\gnu tools arm embedded\7 2017-q4-major\arm-none-eabi\include\c++\7.2.1\cmath **** 
 142:c:\program files (x86)\gnu tools arm embedded\7 2017-q4-major\arm-none-eabi\include\c++\7.2.1\cmath **** #ifndef __CORRECT_ISO_CPP_MATH_H_PROTO
 143:c:\program files (x86)\gnu tools arm embedded\7 2017-q4-major\arm-none-eabi\include\c++\7.2.1\cmath ****   inline _GLIBCXX_CONSTEXPR float
 144:c:\program files (x86)\gnu tools arm embedded\7 2017-q4-major\arm-none-eabi\include\c++\7.2.1\cmath ****   atan2(float __y, float __x)
 145:c:\program files (x86)\gnu tools arm embedded\7 2017-q4-major\arm-none-eabi\include\c++\7.2.1\cmath ****   { return __builtin_atan2f(__y, __x); }
 146:c:\program files (x86)\gnu tools arm embedded\7 2017-q4-major\arm-none-eabi\include\c++\7.2.1\cmath **** 
 147:c:\program files (x86)\gnu tools arm embedded\7 2017-q4-major\arm-none-eabi\include\c++\7.2.1\cmath ****   inline _GLIBCXX_CONSTEXPR long double
 148:c:\program files (x86)\gnu tools arm embedded\7 2017-q4-major\arm-none-eabi\include\c++\7.2.1\cmath ****   atan2(long double __y, long double __x)
 149:c:\program files (x86)\gnu tools arm embedded\7 2017-q4-major\arm-none-eabi\include\c++\7.2.1\cmath ****   { return __builtin_atan2l(__y, __x); }
 150:c:\program files (x86)\gnu tools arm embedded\7 2017-q4-major\arm-none-eabi\include\c++\7.2.1\cmath **** #endif
 151:c:\program files (x86)\gnu tools arm embedded\7 2017-q4-major\arm-none-eabi\include\c++\7.2.1\cmath **** 
 152:c:\program files (x86)\gnu tools arm embedded\7 2017-q4-major\arm-none-eabi\include\c++\7.2.1\cmath ****   template<typename _Tp, typename _Up>
 153:c:\program files (x86)\gnu tools arm embedded\7 2017-q4-major\arm-none-eabi\include\c++\7.2.1\cmath ****     inline _GLIBCXX_CONSTEXPR
 154:c:\program files (x86)\gnu tools arm embedded\7 2017-q4-major\arm-none-eabi\include\c++\7.2.1\cmath ****     typename __gnu_cxx::__promote_2<_Tp, _Up>::__type
 155:c:\program files (x86)\gnu tools arm embedded\7 2017-q4-major\arm-none-eabi\include\c++\7.2.1\cmath ****     atan2(_Tp __y, _Up __x)
 156:c:\program files (x86)\gnu tools arm embedded\7 2017-q4-major\arm-none-eabi\include\c++\7.2.1\cmath ****     {
 157:c:\program files (x86)\gnu tools arm embedded\7 2017-q4-major\arm-none-eabi\include\c++\7.2.1\cmath ****       typedef typename __gnu_cxx::__promote_2<_Tp, _Up>::__type __type;
 158:c:\program files (x86)\gnu tools arm embedded\7 2017-q4-major\arm-none-eabi\include\c++\7.2.1\cmath ****       return atan2(__type(__y), __type(__x));
 159:c:\program files (x86)\gnu tools arm embedded\7 2017-q4-major\arm-none-eabi\include\c++\7.2.1\cmath ****     }
 160:c:\program files (x86)\gnu tools arm embedded\7 2017-q4-major\arm-none-eabi\include\c++\7.2.1\cmath **** 
 161:c:\program files (x86)\gnu tools arm embedded\7 2017-q4-major\arm-none-eabi\include\c++\7.2.1\cmath ****   using ::ceil;
 162:c:\program files (x86)\gnu tools arm embedded\7 2017-q4-major\arm-none-eabi\include\c++\7.2.1\cmath **** 
 163:c:\program files (x86)\gnu tools arm embedded\7 2017-q4-major\arm-none-eabi\include\c++\7.2.1\cmath **** #ifndef __CORRECT_ISO_CPP_MATH_H_PROTO
 164:c:\program files (x86)\gnu tools arm embedded\7 2017-q4-major\arm-none-eabi\include\c++\7.2.1\cmath ****   inline _GLIBCXX_CONSTEXPR float
 165:c:\program files (x86)\gnu tools arm embedded\7 2017-q4-major\arm-none-eabi\include\c++\7.2.1\cmath ****   ceil(float __x)
 166:c:\program files (x86)\gnu tools arm embedded\7 2017-q4-major\arm-none-eabi\include\c++\7.2.1\cmath ****   { return __builtin_ceilf(__x); }
ARM GAS  C:\Users\Prashant\AppData\Local\Temp\ccjUJDtj.s 			page 10


 167:c:\program files (x86)\gnu tools arm embedded\7 2017-q4-major\arm-none-eabi\include\c++\7.2.1\cmath **** 
 168:c:\program files (x86)\gnu tools arm embedded\7 2017-q4-major\arm-none-eabi\include\c++\7.2.1\cmath ****   inline _GLIBCXX_CONSTEXPR long double
 169:c:\program files (x86)\gnu tools arm embedded\7 2017-q4-major\arm-none-eabi\include\c++\7.2.1\cmath ****   ceil(long double __x)
 170:c:\program files (x86)\gnu tools arm embedded\7 2017-q4-major\arm-none-eabi\include\c++\7.2.1\cmath ****   { return __builtin_ceill(__x); }
 171:c:\program files (x86)\gnu tools arm embedded\7 2017-q4-major\arm-none-eabi\include\c++\7.2.1\cmath **** #endif
 172:c:\program files (x86)\gnu tools arm embedded\7 2017-q4-major\arm-none-eabi\include\c++\7.2.1\cmath **** 
 173:c:\program files (x86)\gnu tools arm embedded\7 2017-q4-major\arm-none-eabi\include\c++\7.2.1\cmath ****   template<typename _Tp>
 174:c:\program files (x86)\gnu tools arm embedded\7 2017-q4-major\arm-none-eabi\include\c++\7.2.1\cmath ****     inline _GLIBCXX_CONSTEXPR
 175:c:\program files (x86)\gnu tools arm embedded\7 2017-q4-major\arm-none-eabi\include\c++\7.2.1\cmath ****     typename __gnu_cxx::__enable_if<__is_integer<_Tp>::__value, 
 176:c:\program files (x86)\gnu tools arm embedded\7 2017-q4-major\arm-none-eabi\include\c++\7.2.1\cmath ****                                     double>::__type
 177:c:\program files (x86)\gnu tools arm embedded\7 2017-q4-major\arm-none-eabi\include\c++\7.2.1\cmath ****     ceil(_Tp __x)
 178:c:\program files (x86)\gnu tools arm embedded\7 2017-q4-major\arm-none-eabi\include\c++\7.2.1\cmath ****     { return __builtin_ceil(__x); }
 179:c:\program files (x86)\gnu tools arm embedded\7 2017-q4-major\arm-none-eabi\include\c++\7.2.1\cmath **** 
 180:c:\program files (x86)\gnu tools arm embedded\7 2017-q4-major\arm-none-eabi\include\c++\7.2.1\cmath ****   using ::cos;
 181:c:\program files (x86)\gnu tools arm embedded\7 2017-q4-major\arm-none-eabi\include\c++\7.2.1\cmath **** 
 182:c:\program files (x86)\gnu tools arm embedded\7 2017-q4-major\arm-none-eabi\include\c++\7.2.1\cmath **** #ifndef __CORRECT_ISO_CPP_MATH_H_PROTO
 183:c:\program files (x86)\gnu tools arm embedded\7 2017-q4-major\arm-none-eabi\include\c++\7.2.1\cmath ****   inline _GLIBCXX_CONSTEXPR float
 184:c:\program files (x86)\gnu tools arm embedded\7 2017-q4-major\arm-none-eabi\include\c++\7.2.1\cmath ****   cos(float __x)
 185:c:\program files (x86)\gnu tools arm embedded\7 2017-q4-major\arm-none-eabi\include\c++\7.2.1\cmath ****   { return __builtin_cosf(__x); }
 186:c:\program files (x86)\gnu tools arm embedded\7 2017-q4-major\arm-none-eabi\include\c++\7.2.1\cmath **** 
 187:c:\program files (x86)\gnu tools arm embedded\7 2017-q4-major\arm-none-eabi\include\c++\7.2.1\cmath ****   inline _GLIBCXX_CONSTEXPR long double
 188:c:\program files (x86)\gnu tools arm embedded\7 2017-q4-major\arm-none-eabi\include\c++\7.2.1\cmath ****   cos(long double __x)
 189:c:\program files (x86)\gnu tools arm embedded\7 2017-q4-major\arm-none-eabi\include\c++\7.2.1\cmath ****   { return __builtin_cosl(__x); }
 190:c:\program files (x86)\gnu tools arm embedded\7 2017-q4-major\arm-none-eabi\include\c++\7.2.1\cmath **** #endif
 191:c:\program files (x86)\gnu tools arm embedded\7 2017-q4-major\arm-none-eabi\include\c++\7.2.1\cmath **** 
 192:c:\program files (x86)\gnu tools arm embedded\7 2017-q4-major\arm-none-eabi\include\c++\7.2.1\cmath ****   template<typename _Tp>
 193:c:\program files (x86)\gnu tools arm embedded\7 2017-q4-major\arm-none-eabi\include\c++\7.2.1\cmath ****     inline _GLIBCXX_CONSTEXPR
 194:c:\program files (x86)\gnu tools arm embedded\7 2017-q4-major\arm-none-eabi\include\c++\7.2.1\cmath ****     typename __gnu_cxx::__enable_if<__is_integer<_Tp>::__value,
 195:c:\program files (x86)\gnu tools arm embedded\7 2017-q4-major\arm-none-eabi\include\c++\7.2.1\cmath ****                                     double>::__type
 196:c:\program files (x86)\gnu tools arm embedded\7 2017-q4-major\arm-none-eabi\include\c++\7.2.1\cmath ****     cos(_Tp __x)
 197:c:\program files (x86)\gnu tools arm embedded\7 2017-q4-major\arm-none-eabi\include\c++\7.2.1\cmath ****     { return __builtin_cos(__x); }
 198:c:\program files (x86)\gnu tools arm embedded\7 2017-q4-major\arm-none-eabi\include\c++\7.2.1\cmath **** 
 199:c:\program files (x86)\gnu tools arm embedded\7 2017-q4-major\arm-none-eabi\include\c++\7.2.1\cmath ****   using ::cosh;
 200:c:\program files (x86)\gnu tools arm embedded\7 2017-q4-major\arm-none-eabi\include\c++\7.2.1\cmath **** 
 201:c:\program files (x86)\gnu tools arm embedded\7 2017-q4-major\arm-none-eabi\include\c++\7.2.1\cmath **** #ifndef __CORRECT_ISO_CPP_MATH_H_PROTO
 202:c:\program files (x86)\gnu tools arm embedded\7 2017-q4-major\arm-none-eabi\include\c++\7.2.1\cmath ****   inline _GLIBCXX_CONSTEXPR float
 203:c:\program files (x86)\gnu tools arm embedded\7 2017-q4-major\arm-none-eabi\include\c++\7.2.1\cmath ****   cosh(float __x)
 204:c:\program files (x86)\gnu tools arm embedded\7 2017-q4-major\arm-none-eabi\include\c++\7.2.1\cmath ****   { return __builtin_coshf(__x); }
 205:c:\program files (x86)\gnu tools arm embedded\7 2017-q4-major\arm-none-eabi\include\c++\7.2.1\cmath **** 
 206:c:\program files (x86)\gnu tools arm embedded\7 2017-q4-major\arm-none-eabi\include\c++\7.2.1\cmath ****   inline _GLIBCXX_CONSTEXPR long double
 207:c:\program files (x86)\gnu tools arm embedded\7 2017-q4-major\arm-none-eabi\include\c++\7.2.1\cmath ****   cosh(long double __x)
 208:c:\program files (x86)\gnu tools arm embedded\7 2017-q4-major\arm-none-eabi\include\c++\7.2.1\cmath ****   { return __builtin_coshl(__x); }
 209:c:\program files (x86)\gnu tools arm embedded\7 2017-q4-major\arm-none-eabi\include\c++\7.2.1\cmath **** #endif
 210:c:\program files (x86)\gnu tools arm embedded\7 2017-q4-major\arm-none-eabi\include\c++\7.2.1\cmath **** 
 211:c:\program files (x86)\gnu tools arm embedded\7 2017-q4-major\arm-none-eabi\include\c++\7.2.1\cmath ****   template<typename _Tp>
 212:c:\program files (x86)\gnu tools arm embedded\7 2017-q4-major\arm-none-eabi\include\c++\7.2.1\cmath ****     inline _GLIBCXX_CONSTEXPR
 213:c:\program files (x86)\gnu tools arm embedded\7 2017-q4-major\arm-none-eabi\include\c++\7.2.1\cmath ****     typename __gnu_cxx::__enable_if<__is_integer<_Tp>::__value,
 214:c:\program files (x86)\gnu tools arm embedded\7 2017-q4-major\arm-none-eabi\include\c++\7.2.1\cmath ****                                     double>::__type
 215:c:\program files (x86)\gnu tools arm embedded\7 2017-q4-major\arm-none-eabi\include\c++\7.2.1\cmath ****     cosh(_Tp __x)
 216:c:\program files (x86)\gnu tools arm embedded\7 2017-q4-major\arm-none-eabi\include\c++\7.2.1\cmath ****     { return __builtin_cosh(__x); }
 217:c:\program files (x86)\gnu tools arm embedded\7 2017-q4-major\arm-none-eabi\include\c++\7.2.1\cmath **** 
 218:c:\program files (x86)\gnu tools arm embedded\7 2017-q4-major\arm-none-eabi\include\c++\7.2.1\cmath ****   using ::exp;
 219:c:\program files (x86)\gnu tools arm embedded\7 2017-q4-major\arm-none-eabi\include\c++\7.2.1\cmath **** 
 220:c:\program files (x86)\gnu tools arm embedded\7 2017-q4-major\arm-none-eabi\include\c++\7.2.1\cmath **** #ifndef __CORRECT_ISO_CPP_MATH_H_PROTO
 221:c:\program files (x86)\gnu tools arm embedded\7 2017-q4-major\arm-none-eabi\include\c++\7.2.1\cmath ****   inline _GLIBCXX_CONSTEXPR float
 222:c:\program files (x86)\gnu tools arm embedded\7 2017-q4-major\arm-none-eabi\include\c++\7.2.1\cmath ****   exp(float __x)
 223:c:\program files (x86)\gnu tools arm embedded\7 2017-q4-major\arm-none-eabi\include\c++\7.2.1\cmath ****   { return __builtin_expf(__x); }
ARM GAS  C:\Users\Prashant\AppData\Local\Temp\ccjUJDtj.s 			page 11


 224:c:\program files (x86)\gnu tools arm embedded\7 2017-q4-major\arm-none-eabi\include\c++\7.2.1\cmath **** 
 225:c:\program files (x86)\gnu tools arm embedded\7 2017-q4-major\arm-none-eabi\include\c++\7.2.1\cmath ****   inline _GLIBCXX_CONSTEXPR long double
 226:c:\program files (x86)\gnu tools arm embedded\7 2017-q4-major\arm-none-eabi\include\c++\7.2.1\cmath ****   exp(long double __x)
 227:c:\program files (x86)\gnu tools arm embedded\7 2017-q4-major\arm-none-eabi\include\c++\7.2.1\cmath ****   { return __builtin_expl(__x); }
 228:c:\program files (x86)\gnu tools arm embedded\7 2017-q4-major\arm-none-eabi\include\c++\7.2.1\cmath **** #endif
 229:c:\program files (x86)\gnu tools arm embedded\7 2017-q4-major\arm-none-eabi\include\c++\7.2.1\cmath **** 
 230:c:\program files (x86)\gnu tools arm embedded\7 2017-q4-major\arm-none-eabi\include\c++\7.2.1\cmath ****   template<typename _Tp>
 231:c:\program files (x86)\gnu tools arm embedded\7 2017-q4-major\arm-none-eabi\include\c++\7.2.1\cmath ****     inline _GLIBCXX_CONSTEXPR
 232:c:\program files (x86)\gnu tools arm embedded\7 2017-q4-major\arm-none-eabi\include\c++\7.2.1\cmath ****     typename __gnu_cxx::__enable_if<__is_integer<_Tp>::__value,
 233:c:\program files (x86)\gnu tools arm embedded\7 2017-q4-major\arm-none-eabi\include\c++\7.2.1\cmath ****                                     double>::__type
 234:c:\program files (x86)\gnu tools arm embedded\7 2017-q4-major\arm-none-eabi\include\c++\7.2.1\cmath ****     exp(_Tp __x)
 235:c:\program files (x86)\gnu tools arm embedded\7 2017-q4-major\arm-none-eabi\include\c++\7.2.1\cmath ****     { return __builtin_exp(__x); }
 236:c:\program files (x86)\gnu tools arm embedded\7 2017-q4-major\arm-none-eabi\include\c++\7.2.1\cmath **** 
 237:c:\program files (x86)\gnu tools arm embedded\7 2017-q4-major\arm-none-eabi\include\c++\7.2.1\cmath ****   using ::fabs;
 238:c:\program files (x86)\gnu tools arm embedded\7 2017-q4-major\arm-none-eabi\include\c++\7.2.1\cmath **** 
 239:c:\program files (x86)\gnu tools arm embedded\7 2017-q4-major\arm-none-eabi\include\c++\7.2.1\cmath **** #ifndef __CORRECT_ISO_CPP_MATH_H_PROTO
 240:c:\program files (x86)\gnu tools arm embedded\7 2017-q4-major\arm-none-eabi\include\c++\7.2.1\cmath ****   inline _GLIBCXX_CONSTEXPR float
 241:c:\program files (x86)\gnu tools arm embedded\7 2017-q4-major\arm-none-eabi\include\c++\7.2.1\cmath ****   fabs(float __x)
 242:c:\program files (x86)\gnu tools arm embedded\7 2017-q4-major\arm-none-eabi\include\c++\7.2.1\cmath ****   { return __builtin_fabsf(__x); }
 213              		.loc 3 242 0
 214 00c2 F0EEE77A 		vabs.f32	s15, s15
 215              	.LVL18:
 216              	.LBE33:
 217              	.LBE32:
  70:Core/Src/robot/robot.cpp **** 		{
 218              		.loc 1 70 0
 219 00c6 9FED2E7A 		vldr.32	s14, .L53+12
 220 00ca F4EEC77A 		vcmpe.f32	s15, s14
 221 00ce F1EE10FA 		vmrs	APSR_nzcv, FPSCR
 222 00d2 29D8     		bhi	.L45
 223              	.LVL19:
 224              	.LBB34:
 225              	.LBB35:
 226              		.loc 2 34 0
 227 00d4 2848     		ldr	r0, .L53+4
 228 00d6 FFF7FEFF 		bl	_ZN7encoder9get_angleEv
 229              	.LVL20:
 230              	.LBE35:
 231              	.LBE34:
  72:Core/Src/robot/robot.cpp **** 				steering.set_omega(-steering_speed);}
 232              		.loc 1 72 0
 233 00da 2B4B     		ldr	r3, .L53+20
 234 00dc D3ED007A 		vldr.32	s15, [r3]
 235 00e0 F4EEC07A 		vcmpe.f32	s15, s0
 236 00e4 F1EE10FA 		vmrs	APSR_nzcv, FPSCR
 237 00e8 12D4     		bmi	.L52
 238              	.LVL21:
 239              	.LBB36:
 240              	.LBB37:
 241              		.loc 2 34 0
 242 00ea 2348     		ldr	r0, .L53+4
 243 00ec FFF7FEFF 		bl	_ZN7encoder9get_angleEv
 244              	.LVL22:
 245              	.LBE37:
 246              	.LBE36:
  75:Core/Src/robot/robot.cpp **** 				steering.set_omega(steering_speed);}
 247              		.loc 1 75 0
ARM GAS  C:\Users\Prashant\AppData\Local\Temp\ccjUJDtj.s 			page 12


 248 00f0 254B     		ldr	r3, .L53+20
 249 00f2 D3ED007A 		vldr.32	s15, [r3]
 250 00f6 F1EE677A 		vneg.f32	s15, s15
 251 00fa F4EEC07A 		vcmpe.f32	s15, s0
 252 00fe F1EE10FA 		vmrs	APSR_nzcv, FPSCR
 253 0102 0BDD     		ble	.L47
  76:Core/Src/robot/robot.cpp **** 
 254              		.loc 1 76 0
 255 0104 9FED230A 		vldr.32	s0, .L53+32
 256 0108 2148     		ldr	r0, .L53+28
 257 010a FFF7FEFF 		bl	_ZN8steering9set_omegaEf
 258              	.LVL23:
 259 010e BCE7     		b	.L8
 260              	.L52:
  73:Core/Src/robot/robot.cpp **** 
 261              		.loc 1 73 0
 262 0110 9FED1E0A 		vldr.32	s0, .L53+24
 263 0114 1E48     		ldr	r0, .L53+28
 264 0116 FFF7FEFF 		bl	_ZN8steering9set_omegaEf
 265              	.LVL24:
 266 011a B6E7     		b	.L8
 267              	.L47:
  79:Core/Src/robot/robot.cpp **** 			// printf("center_alligned\t");
 268              		.loc 1 79 0
 269 011c 9FED1E0A 		vldr.32	s0, .L53+36
 270 0120 1B48     		ldr	r0, .L53+28
 271 0122 FFF7FEFF 		bl	_ZN8steering9set_omegaEf
 272              	.LVL25:
 273 0126 B0E7     		b	.L8
 274              	.L45:
 275              	.LVL26:
 276              	.LBB38:
 277              	.LBB39:
 278              		.loc 2 34 0
 279 0128 1348     		ldr	r0, .L53+4
 280 012a FFF7FEFF 		bl	_ZN7encoder9get_angleEv
 281              	.LVL27:
 282              	.LBE39:
 283              	.LBE38:
 284              	.LBB40:
 285              	.LBB41:
 286              		.loc 3 242 0
 287 012e B0EEC00A 		vabs.f32	s0, s0
 288              	.LBE41:
 289              	.LBE40:
  84:Core/Src/robot/robot.cpp **** 				steering.set_omega((angle>0)? (-steering_speed):steering_speed);
 290              		.loc 1 84 0
 291 0132 DFED137A 		vldr.32	s15, .L53+12
 292 0136 B4EEE70A 		vcmpe.f32	s0, s15
 293 013a F1EE10FA 		vmrs	APSR_nzcv, FPSCR
 294 013e 0DD5     		bpl	.L48
  85:Core/Src/robot/robot.cpp **** 			}
 295              		.loc 1 85 0
 296 0140 B5EEC08A 		vcmpe.f32	s16, #0
 297 0144 F1EE10FA 		vmrs	APSR_nzcv, FPSCR
 298 0148 05DD     		ble	.L49
 299 014a 9FED100A 		vldr.32	s0, .L53+24
ARM GAS  C:\Users\Prashant\AppData\Local\Temp\ccjUJDtj.s 			page 13


 300              	.L29:
  85:Core/Src/robot/robot.cpp **** 			}
 301              		.loc 1 85 0 is_stmt 0 discriminator 4
 302 014e 1048     		ldr	r0, .L53+28
 303 0150 FFF7FEFF 		bl	_ZN8steering9set_omegaEf
 304              	.LVL28:
 305 0154 99E7     		b	.L8
 306              	.L49:
  85:Core/Src/robot/robot.cpp **** 			}
 307              		.loc 1 85 0
 308 0156 9FED0F0A 		vldr.32	s0, .L53+32
 309 015a F8E7     		b	.L29
 310              	.L48:
  88:Core/Src/robot/robot.cpp **** 			}			
 311              		.loc 1 88 0 is_stmt 1
 312 015c 9FED0E0A 		vldr.32	s0, .L53+36
 313 0160 0B48     		ldr	r0, .L53+28
 314 0162 FFF7FEFF 		bl	_ZN8steering9set_omegaEf
 315              	.LVL29:
 316 0166 90E7     		b	.L8
 317              	.L20:
  96:Core/Src/robot/robot.cpp **** 	}
 318              		.loc 1 96 0
 319 0168 9FED0B0A 		vldr.32	s0, .L53+36
 320 016c 0848     		ldr	r0, .L53+28
 321 016e FFF7FEFF 		bl	_ZN8steering9set_omegaEf
 322              	.LVL30:
 323              		.loc 1 98 0
 324 0172 8AE7     		b	.L8
 325              	.L54:
 326              		.align	2
 327              	.L53:
 328 0174 00000000 		.word	leg
 329 0178 0C000000 		.word	steering+12
 330 017c 35FA0EBE 		.word	-1106314699
 331 0180 35FA0E3E 		.word	1041168949
 332 0184 00000000 		.word	.LANCHOR1
 333 0188 00000000 		.word	.LANCHOR2
 334 018c 333333BF 		.word	-1087163597
 335 0190 00000000 		.word	steering
 336 0194 3333333F 		.word	1060320051
 337 0198 00000000 		.word	0
 338              		.cfi_endproc
 339              	.LFE462:
 341              		.section	.text._Z21calculate_robot_anglev,"ax",%progbits
 342              		.align	1
 343              		.global	_Z21calculate_robot_anglev
 344              		.syntax unified
 345              		.thumb
 346              		.thumb_func
 347              		.fpu fpv4-sp-d16
 349              	_Z21calculate_robot_anglev:
 350              	.LFB463:
  99:Core/Src/robot/robot.cpp **** 
 100:Core/Src/robot/robot.cpp **** void calculate_robot_angle()
 101:Core/Src/robot/robot.cpp **** {
 351              		.loc 1 101 0
ARM GAS  C:\Users\Prashant\AppData\Local\Temp\ccjUJDtj.s 			page 14


 352              		.cfi_startproc
 353              		@ args = 0, pretend = 0, frame = 0
 354              		@ frame_needed = 0, uses_anonymous_args = 0
 355 0000 08B5     		push	{r3, lr}
 356              	.LCFI4:
 357              		.cfi_def_cfa_offset 8
 358              		.cfi_offset 3, -8
 359              		.cfi_offset 14, -4
 360 0002 2DED028B 		vpush.64	{d8}
 361              	.LCFI5:
 362              		.cfi_def_cfa_offset 16
 363              		.cfi_offset 80, -16
 364              		.cfi_offset 81, -12
 102:Core/Src/robot/robot.cpp **** 	if (leg[0].is_raised_without_deadzone())
 365              		.loc 1 102 0
 366 0006 0F48     		ldr	r0, .L60
 367 0008 FFF7FEFF 		bl	_ZN3leg26is_raised_without_deadzoneEv
 368              	.LVL31:
 369 000c 68B9     		cbnz	r0, .L59
 103:Core/Src/robot/robot.cpp **** 	{
 104:Core/Src/robot/robot.cpp **** 		robot_angle = steering.get_angle() + temp_robot_angle;
 105:Core/Src/robot/robot.cpp **** 	}
 106:Core/Src/robot/robot.cpp **** 	else
 107:Core/Src/robot/robot.cpp **** 	{
 108:Core/Src/robot/robot.cpp **** 		temp_robot_angle = robot_angle - steering.get_angle();
 370              		.loc 1 108 0
 371 000e 0E4B     		ldr	r3, .L60+4
 372 0010 93ED008A 		vldr.32	s16, [r3]
 373              	.LVL32:
 374              	.LBB42:
 375              	.LBB43:
 376              		.loc 2 34 0
 377 0014 0D48     		ldr	r0, .L60+8
 378 0016 FFF7FEFF 		bl	_ZN7encoder9get_angleEv
 379              	.LVL33:
 380              	.LBE43:
 381              	.LBE42:
 382              		.loc 1 108 0
 383 001a 38EE400A 		vsub.f32	s0, s16, s0
 384 001e 0C4B     		ldr	r3, .L60+12
 385 0020 83ED000A 		vstr.32	s0, [r3]
 386              	.L55:
 109:Core/Src/robot/robot.cpp **** 	}
 110:Core/Src/robot/robot.cpp **** }
 387              		.loc 1 110 0
 388 0024 BDEC028B 		vldm	sp!, {d8}
 389              	.LCFI6:
 390              		.cfi_remember_state
 391              		.cfi_restore 80
 392              		.cfi_restore 81
 393              		.cfi_def_cfa_offset 8
 394 0028 08BD     		pop	{r3, pc}
 395              	.L59:
 396              	.LCFI7:
 397              		.cfi_restore_state
 398              	.LVL34:
 399              	.LBB44:
ARM GAS  C:\Users\Prashant\AppData\Local\Temp\ccjUJDtj.s 			page 15


 400              	.LBB45:
 401              		.loc 2 34 0
 402 002a 0848     		ldr	r0, .L60+8
 403 002c FFF7FEFF 		bl	_ZN7encoder9get_angleEv
 404              	.LVL35:
 405              	.LBE45:
 406              	.LBE44:
 104:Core/Src/robot/robot.cpp **** 	}
 407              		.loc 1 104 0
 408 0030 074B     		ldr	r3, .L60+12
 409 0032 D3ED007A 		vldr.32	s15, [r3]
 410 0036 30EE270A 		vadd.f32	s0, s0, s15
 411 003a 034B     		ldr	r3, .L60+4
 412 003c 83ED000A 		vstr.32	s0, [r3]
 413 0040 F0E7     		b	.L55
 414              	.L61:
 415 0042 00BF     		.align	2
 416              	.L60:
 417 0044 00000000 		.word	leg
 418 0048 00000000 		.word	.LANCHOR1
 419 004c 0C000000 		.word	steering+12
 420 0050 00000000 		.word	.LANCHOR3
 421              		.cfi_endproc
 422              	.LFE463:
 424              		.global	__aeabi_f2d
 425              		.global	__aeabi_dmul
 426              		.global	__aeabi_d2f
 427              		.global	__aeabi_dcmple
 428              		.section	.text._Z2goif,"ax",%progbits
 429              		.align	1
 430              		.global	_Z2goif
 431              		.syntax unified
 432              		.thumb
 433              		.thumb_func
 434              		.fpu fpv4-sp-d16
 436              	_Z2goif:
 437              	.LFB460:
  21:Core/Src/robot/robot.cpp **** 	angle *= PI / 180;
 438              		.loc 1 21 0
 439              		.cfi_startproc
 440              		@ args = 0, pretend = 0, frame = 0
 441              		@ frame_needed = 0, uses_anonymous_args = 0
 442              	.LVL36:
 443 0000 10B5     		push	{r4, lr}
 444              	.LCFI8:
 445              		.cfi_def_cfa_offset 8
 446              		.cfi_offset 4, -8
 447              		.cfi_offset 14, -4
 448 0002 2DED028B 		vpush.64	{d8}
 449              	.LCFI9:
 450              		.cfi_def_cfa_offset 16
 451              		.cfi_offset 80, -16
 452              		.cfi_offset 81, -12
 453 0006 0446     		mov	r4, r0
  22:Core/Src/robot/robot.cpp **** 	move_leg(steps, angle);
 454              		.loc 1 22 0
 455 0008 10EE100A 		vmov	r0, s0
ARM GAS  C:\Users\Prashant\AppData\Local\Temp\ccjUJDtj.s 			page 16


 456              	.LVL37:
 457 000c FFF7FEFF 		bl	__aeabi_f2d
 458              	.LVL38:
 459 0010 28A3     		adr	r3, .L69+28
 460 0012 D3E90023 		ldrd	r2, [r3]
 461 0016 FFF7FEFF 		bl	__aeabi_dmul
 462              	.LVL39:
 463 001a FFF7FEFF 		bl	__aeabi_d2f
 464              	.LVL40:
 465 001e 08EE100A 		vmov	s16, r0
 466              	.LVL41:
  23:Core/Src/robot/robot.cpp **** 	move_steering(steps, angle);
 467              		.loc 1 23 0
 468 0022 00EE100A 		vmov	s0, r0
 469 0026 2046     		mov	r0, r4
 470              	.LVL42:
 471 0028 FFF7FEFF 		bl	_Z8move_legif
 472              	.LVL43:
  24:Core/Src/robot/robot.cpp **** 
 473              		.loc 1 24 0
 474 002c B0EE480A 		vmov.f32	s0, s16
 475 0030 2046     		mov	r0, r4
 476 0032 FFF7FEFF 		bl	_Z13move_steeringif
 477              	.LVL44:
  26:Core/Src/robot/robot.cpp **** 	// printf("steps = %d \trobot angle = %d \t steering angle = %d\n",leg[0].steps,  (int)(robot_angl
 478              		.loc 1 26 0
 479 0036 FFF7FEFF 		bl	_Z21calculate_robot_anglev
 480              	.LVL45:
 481              	.LBB46:
 482              	.LBB47:
 483              		.file 4 "Core/Inc/devs/leg.h"
   1:Core/Inc/devs/leg.h **** #ifndef _LEG_H_
   2:Core/Inc/devs/leg.h **** #define _LEG_H_
   3:Core/Inc/devs/leg.h **** 
   4:Core/Inc/devs/leg.h **** #include "motor.h"
   5:Core/Inc/devs/leg.h **** #include "encoder.h"
   6:Core/Inc/devs/leg.h **** #include "pid.h"
   7:Core/Inc/devs/leg.h **** #include "limit_switch.h"
   8:Core/Inc/devs/leg.h **** #include "defines.h"
   9:Core/Inc/devs/leg.h **** #include "pid_algorithms.h"
  10:Core/Inc/devs/leg.h **** 
  11:Core/Inc/devs/leg.h **** enum Leg_condition{	RAISED, 
  12:Core/Inc/devs/leg.h **** 			FALLEN, 
  13:Core/Inc/devs/leg.h **** 			UNDEFINED};
  14:Core/Inc/devs/leg.h **** 
  15:Core/Inc/devs/leg.h **** class leg
  16:Core/Inc/devs/leg.h **** {
  17:Core/Inc/devs/leg.h **** public:
  18:Core/Inc/devs/leg.h **** 	leg() {}
  19:Core/Inc/devs/leg.h **** 	leg(leg &&) = default;
  20:Core/Inc/devs/leg.h **** 	leg(const leg &) = default;
  21:Core/Inc/devs/leg.h **** 	leg &operator=(leg &&) = default;
  22:Core/Inc/devs/leg.h **** 	leg &operator=(const leg &) = default;
  23:Core/Inc/devs/leg.h **** 	~leg(){}
  24:Core/Inc/devs/leg.h ****         void set_config(motor_config *motor0, motor_config *motor1, encoder_config *encoder) { 
  25:Core/Inc/devs/leg.h **** 		motor__[0].set_config(motor0);
  26:Core/Inc/devs/leg.h **** 		motor__[1].set_config(motor1);
ARM GAS  C:\Users\Prashant\AppData\Local\Temp\ccjUJDtj.s 			page 17


  27:Core/Inc/devs/leg.h **** 		encoder__.set_config(encoder);
  28:Core/Inc/devs/leg.h **** 	}
  29:Core/Inc/devs/leg.h **** 	void set_PID_constants(float kp, float ki, float kd, float lower_limit, float upper_limit) {
  30:Core/Inc/devs/leg.h **** 		dpid_.set_P(kp);
  31:Core/Inc/devs/leg.h **** 		dpid_.set_I(ki);
  32:Core/Inc/devs/leg.h **** 		dpid_.set_D(kd);
  33:Core/Inc/devs/leg.h **** 		dpid_.set_Limits(upper_limit, lower_limit);
  34:Core/Inc/devs/leg.h **** 	}
  35:Core/Inc/devs/leg.h **** 
  36:Core/Inc/devs/leg.h **** 	
  37:Core/Inc/devs/leg.h **** 	void set_omega(float omega);
  38:Core/Inc/devs/leg.h **** 	void set_gravity_compensator_constant(float kbody, float kleg){kb_ = kbody; kl_ = kleg;}
  39:Core/Inc/devs/leg.h **** 	void reset_angle(float angle_in_radians);
  40:Core/Inc/devs/leg.h **** 	void calculate_omega();
  41:Core/Inc/devs/leg.h **** 	Leg_condition is_raised();
  42:Core/Inc/devs/leg.h **** 	bool is_raised_without_deadzone();
  43:Core/Inc/devs/leg.h **** 
  44:Core/Inc/devs/leg.h **** 	int get_steps(){return steps;}
 484              		.loc 4 44 0
 485 003a 194B     		ldr	r3, .L69+8
 486 003c 1B69     		ldr	r3, [r3, #16]
 487              	.LVL46:
 488              	.LBE47:
 489              	.LBE46:
  29:Core/Src/robot/robot.cpp **** 	{
 490              		.loc 1 29 0
 491 003e 9C42     		cmp	r4, r3
 492 0040 10DC     		bgt	.L63
  29:Core/Src/robot/robot.cpp **** 	{
 493              		.loc 1 29 0 is_stmt 0 discriminator 1
 494 0042 184B     		ldr	r3, .L69+12
 495 0044 D3ED007A 		vldr.32	s15, [r3]
 496 0048 38EE678A 		vsub.f32	s16, s16, s15
 497              	.LVL47:
 498 004c F0EEC87A 		vabs.f32	s15, s16
 499 0050 17EE900A 		vmov	r0, s15
 500 0054 FFF7FEFF 		bl	__aeabi_f2d
 501              	.LVL48:
 502 0058 0FA3     		adr	r3, .L69
 503 005a D3E90023 		ldrd	r2, [r3]
 504 005e FFF7FEFF 		bl	__aeabi_dcmple
 505              	.LVL49:
 506 0062 48B9     		cbnz	r0, .L68
 507              	.L63:
  37:Core/Src/robot/robot.cpp **** 		return false;
 508              		.loc 1 37 0 is_stmt 1 discriminator 4
 509 0064 104B     		ldr	r3, .L69+16
 510 0066 93ED000A 		vldr.32	s0, [r3]
 511 006a 0D48     		ldr	r0, .L69+8
 512 006c FFF7FEFF 		bl	_ZN3leg9set_omegaEf
 513              	.LVL50:
  38:Core/Src/robot/robot.cpp **** 	}
 514              		.loc 1 38 0 discriminator 4
 515 0070 0020     		movs	r0, #0
 516              	.L65:
  40:Core/Src/robot/robot.cpp **** 
 517              		.loc 1 40 0
ARM GAS  C:\Users\Prashant\AppData\Local\Temp\ccjUJDtj.s 			page 18


 518 0072 BDEC028B 		vldm	sp!, {d8}
 519              	.LCFI10:
 520              		.cfi_remember_state
 521              		.cfi_restore 80
 522              		.cfi_restore 81
 523              		.cfi_def_cfa_offset 8
 524 0076 10BD     		pop	{r4, pc}
 525              	.LVL51:
 526              	.L68:
 527              	.LCFI11:
 528              		.cfi_restore_state
  31:Core/Src/robot/robot.cpp **** 		steering.set_omega(0);
 529              		.loc 1 31 0
 530 0078 9FED0C8A 		vldr.32	s16, .L69+20
 531 007c B0EE480A 		vmov.f32	s0, s16
 532 0080 0748     		ldr	r0, .L69+8
 533 0082 FFF7FEFF 		bl	_ZN3leg9set_omegaEf
 534              	.LVL52:
  32:Core/Src/robot/robot.cpp **** 		return true;
 535              		.loc 1 32 0
 536 0086 B0EE480A 		vmov.f32	s0, s16
 537 008a 0948     		ldr	r0, .L69+24
 538 008c FFF7FEFF 		bl	_ZN8steering9set_omegaEf
 539              	.LVL53:
  33:Core/Src/robot/robot.cpp **** 	}
 540              		.loc 1 33 0
 541 0090 0120     		movs	r0, #1
 542 0092 EEE7     		b	.L65
 543              	.L70:
 544 0094 AFF30080 		.align	3
 545              	.L69:
 546 0098 7B14AE47 		.word	1202590843
 547 009c E17AA43F 		.word	1067743969
 548 00a0 00000000 		.word	leg
 549 00a4 00000000 		.word	.LANCHOR1
 550 00a8 00000000 		.word	.LANCHOR0
 551 00ac 00000000 		.word	0
 552 00b0 00000000 		.word	steering
 553 00b4 399D52A2 		.word	-1571644103
 554 00b8 46DF913F 		.word	1066524486
 555              		.cfi_endproc
 556              	.LFE460:
 558              		.section	.text._Z15calculate_datasv,"ax",%progbits
 559              		.align	1
 560              		.global	_Z15calculate_datasv
 561              		.syntax unified
 562              		.thumb
 563              		.thumb_func
 564              		.fpu fpv4-sp-d16
 566              	_Z15calculate_datasv:
 567              	.LFB464:
 111:Core/Src/robot/robot.cpp **** 
 112:Core/Src/robot/robot.cpp **** void calculate_datas()
 113:Core/Src/robot/robot.cpp **** {
 568              		.loc 1 113 0
 569              		.cfi_startproc
 570              		@ args = 0, pretend = 0, frame = 0
ARM GAS  C:\Users\Prashant\AppData\Local\Temp\ccjUJDtj.s 			page 19


 571              		@ frame_needed = 0, uses_anonymous_args = 0
 572 0000 08B5     		push	{r3, lr}
 573              	.LCFI12:
 574              		.cfi_def_cfa_offset 8
 575              		.cfi_offset 3, -8
 576              		.cfi_offset 14, -4
 114:Core/Src/robot/robot.cpp **** 	leg[0].calculate_omega();
 577              		.loc 1 114 0
 578 0002 0348     		ldr	r0, .L73
 579 0004 FFF7FEFF 		bl	_ZN3leg15calculate_omegaEv
 580              	.LVL54:
 115:Core/Src/robot/robot.cpp **** 	steering.calculate_omega();
 581              		.loc 1 115 0
 582 0008 0248     		ldr	r0, .L73+4
 583 000a FFF7FEFF 		bl	_ZN8steering15calculate_omegaEv
 584              	.LVL55:
 116:Core/Src/robot/robot.cpp **** }
 585              		.loc 1 116 0
 586 000e 08BD     		pop	{r3, pc}
 587              	.L74:
 588              		.align	2
 589              	.L73:
 590 0010 00000000 		.word	leg
 591 0014 00000000 		.word	steering
 592              		.cfi_endproc
 593              	.LFE464:
 595              		.section	.text._Z4playv,"ax",%progbits
 596              		.align	1
 597              		.global	_Z4playv
 598              		.syntax unified
 599              		.thumb
 600              		.thumb_func
 601              		.fpu fpv4-sp-d16
 603              	_Z4playv:
 604              	.LFB465:
 117:Core/Src/robot/robot.cpp **** 
 118:Core/Src/robot/robot.cpp **** bool play()
 119:Core/Src/robot/robot.cpp **** {
 605              		.loc 1 119 0
 606              		.cfi_startproc
 607              		@ args = 0, pretend = 0, frame = 0
 608              		@ frame_needed = 0, uses_anonymous_args = 0
 609 0000 38B5     		push	{r3, r4, r5, lr}
 610              	.LCFI13:
 611              		.cfi_def_cfa_offset 16
 612              		.cfi_offset 3, -16
 613              		.cfi_offset 4, -12
 614              		.cfi_offset 5, -8
 615              		.cfi_offset 14, -4
 120:Core/Src/robot/robot.cpp **** 	uint32_t dt = HAL_GetTick();
 616              		.loc 1 120 0
 617 0002 FFF7FEFF 		bl	HAL_GetTick
 618              	.LVL56:
 619 0006 0446     		mov	r4, r0
 620              	.LVL57:
 621              	.L76:
 622              	.LBB48:
ARM GAS  C:\Users\Prashant\AppData\Local\Temp\ccjUJDtj.s 			page 20


 121:Core/Src/robot/robot.cpp **** 	while (true)
 122:Core/Src/robot/robot.cpp **** 		// {
 123:Core/Src/robot/robot.cpp **** 		// 	if ((HAL_GetTick() - dt) >= (int)(SAMPLE_TIME))
 124:Core/Src/robot/robot.cpp **** 		// 	{
 125:Core/Src/robot/robot.cpp **** 		// 		dt = HAL_GetTick();
 126:Core/Src/robot/robot.cpp **** 
 127:Core/Src/robot/robot.cpp **** 		// 		calculate_datas();
 128:Core/Src/robot/robot.cpp **** 		// 		if (go(8,45) == true)
 129:Core/Src/robot/robot.cpp **** 		// 			break;
 130:Core/Src/robot/robot.cpp **** 		// 	}
 131:Core/Src/robot/robot.cpp **** 		// }
 132:Core/Src/robot/robot.cpp **** 		for (int i = 0; i < 6; i++)
 623              		.loc 1 132 0
 624 0008 0025     		movs	r5, #0
 625              	.LVL58:
 626              	.L79:
 627              		.loc 1 132 0 is_stmt 0 discriminator 1
 628 000a 052D     		cmp	r5, #5
 629 000c FCDC     		bgt	.L76
 630              	.L77:
 133:Core/Src/robot/robot.cpp **** 		{
 134:Core/Src/robot/robot.cpp **** 			while (true)
 135:Core/Src/robot/robot.cpp **** 			{
 136:Core/Src/robot/robot.cpp **** 				if ((HAL_GetTick() - dt) >= (int)(SAMPLE_TIME))
 631              		.loc 1 136 0 is_stmt 1
 632 000e FFF7FEFF 		bl	HAL_GetTick
 633              	.LVL59:
 634 0012 001B     		subs	r0, r0, r4
 635 0014 0928     		cmp	r0, #9
 636 0016 FAD9     		bls	.L77
 137:Core/Src/robot/robot.cpp **** 				{
 138:Core/Src/robot/robot.cpp **** 					dt = HAL_GetTick();
 637              		.loc 1 138 0
 638 0018 FFF7FEFF 		bl	HAL_GetTick
 639              	.LVL60:
 640 001c 0446     		mov	r4, r0
 641              	.LVL61:
 139:Core/Src/robot/robot.cpp **** 					calculate_datas();
 642              		.loc 1 139 0
 643 001e FFF7FEFF 		bl	_Z15calculate_datasv
 644              	.LVL62:
 140:Core/Src/robot/robot.cpp **** 					if (go(steps[i], angles[i]) == true)
 645              		.loc 1 140 0
 646 0022 A900     		lsls	r1, r5, #2
 647 0024 0A4A     		ldr	r2, .L81
 648 0026 0A44     		add	r2, r2, r1
 649 0028 D2ED007A 		vldr.32	s15, [r2]
 650 002c 094B     		ldr	r3, .L81+4
 651 002e 0B44     		add	r3, r3, r1
 652 0030 93ED000A 		vldr.32	s0, [r3]
 653 0034 FDEEE77A 		vcvt.s32.f32	s15, s15
 654 0038 17EE900A 		vmov	r0, s15	@ int
 655 003c FFF7FEFF 		bl	_Z2goif
 656              	.LVL63:
 657 0040 0028     		cmp	r0, #0
 658 0042 E4D0     		beq	.L77
 141:Core/Src/robot/robot.cpp **** 						break;
ARM GAS  C:\Users\Prashant\AppData\Local\Temp\ccjUJDtj.s 			page 21


 142:Core/Src/robot/robot.cpp **** 				}
 143:Core/Src/robot/robot.cpp **** 			}
 144:Core/Src/robot/robot.cpp **** 			printf("\tstep=%d\t", i);
 659              		.loc 1 144 0 discriminator 2
 660 0044 2946     		mov	r1, r5
 661 0046 0448     		ldr	r0, .L81+8
 662 0048 FFF7FEFF 		bl	printf
 663              	.LVL64:
 132:Core/Src/robot/robot.cpp **** 		{
 664              		.loc 1 132 0 discriminator 2
 665 004c 0135     		adds	r5, r5, #1
 666              	.LVL65:
 667 004e DCE7     		b	.L79
 668              	.L82:
 669              		.align	2
 670              	.L81:
 671 0050 00000000 		.word	.LANCHOR4
 672 0054 00000000 		.word	.LANCHOR5
 673 0058 00000000 		.word	.LC0
 674              	.LBE48:
 675              		.cfi_endproc
 676              	.LFE465:
 678              		.global	angles
 679              		.global	steps
 680              		.global	tolerance
 681              		.global	robo_angle_flag
 682              		.global	temp_robot_angle
 683              		.global	robot_angle
 684              		.section	.bss.robot_angle,"aw",%nobits
 685              		.align	2
 686              		.set	.LANCHOR1,. + 0
 689              	robot_angle:
 690 0000 00000000 		.space	4
 691              		.section	.bss.temp_robot_angle,"aw",%nobits
 692              		.align	2
 693              		.set	.LANCHOR3,. + 0
 696              	temp_robot_angle:
 697 0000 00000000 		.space	4
 698              		.section	.data._ZL9leg_speed,"aw",%progbits
 699              		.align	2
 700              		.set	.LANCHOR0,. + 0
 703              	_ZL9leg_speed:
 704 0000 00004041 		.word	1094713344
 705              		.section	.data.angles,"aw",%progbits
 706              		.align	2
 707              		.set	.LANCHOR5,. + 0
 710              	angles:
 711 0000 00000000 		.word	0
 712 0004 00003442 		.word	1110704128
 713 0008 00003442 		.word	1110704128
 714 000c 00005C42 		.word	1113325568
 715 0010 000020C1 		.word	-1054867456
 716 0014 00000000 		.word	0
 717              		.section	.data.robo_angle_flag,"aw",%progbits
 720              	robo_angle_flag:
 721 0000 01       		.byte	1
 722              		.section	.data.steps,"aw",%progbits
ARM GAS  C:\Users\Prashant\AppData\Local\Temp\ccjUJDtj.s 			page 22


 723              		.align	2
 724              		.set	.LANCHOR4,. + 0
 727              	steps:
 728 0000 00004041 		.word	1094713344
 729 0004 00008841 		.word	1099431936
 730 0008 0000B841 		.word	1102577664
 731 000c 0000C841 		.word	1103626240
 732 0010 00003442 		.word	1110704128
 733 0014 0000A042 		.word	1117782016
 734              		.section	.data.tolerance,"aw",%progbits
 735              		.align	2
 736              		.set	.LANCHOR2,. + 0
 739              	tolerance:
 740 0000 35FA0E3C 		.word	1007614517
 741              		.section	.rodata._Z4playv.str1.4,"aMS",%progbits,1
 742              		.align	2
 743              	.LC0:
 744 0000 09737465 		.ascii	"\011step=%d\011\000"
 744      703D2564 
 744      0900
 745              		.text
 746              	.Letext0:
 747              		.file 5 "c:\\program files (x86)\\gnu tools arm embedded\\7 2017-q4-major\\arm-none-eabi\\include\
 748              		.file 6 "c:\\program files (x86)\\gnu tools arm embedded\\7 2017-q4-major\\arm-none-eabi\\include\
 749              		.file 7 "Drivers/CMSIS/Include/core_cm4.h"
 750              		.file 8 "Drivers/CMSIS/Device/ST/STM32F4xx/Include/system_stm32f4xx.h"
 751              		.file 9 "Drivers/CMSIS/Device/ST/STM32F4xx/Include/stm32f407xx.h"
 752              		.file 10 "c:\\program files (x86)\\gnu tools arm embedded\\7 2017-q4-major\\arm-none-eabi\\include
 753              		.file 11 "c:\\program files (x86)\\gnu tools arm embedded\\7 2017-q4-major\\arm-none-eabi\\include
 754              		.file 12 "c:\\program files (x86)\\gnu tools arm embedded\\7 2017-q4-major\\lib\\gcc\\arm-none-eab
 755              		.file 13 "c:\\program files (x86)\\gnu tools arm embedded\\7 2017-q4-major\\arm-none-eabi\\include
 756              		.file 14 "Drivers/STM32F4xx_HAL_Driver/Inc/stm32f4xx_hal_def.h"
 757              		.file 15 "Drivers/STM32F4xx_HAL_Driver/Inc/stm32f4xx_hal_dma.h"
 758              		.file 16 "Drivers/STM32F4xx_HAL_Driver/Inc/stm32f4xx_hal_tim.h"
 759              		.file 17 "Drivers/STM32F4xx_HAL_Driver/Inc/stm32f4xx_hal_uart.h"
 760              		.file 18 "Core/Inc/periphs/tim.h"
 761              		.file 19 "c:\\program files (x86)\\gnu tools arm embedded\\7 2017-q4-major\\arm-none-eabi\\include
 762              		.file 20 "c:\\program files (x86)\\gnu tools arm embedded\\7 2017-q4-major\\arm-none-eabi\\include
 763              		.file 21 "c:\\program files (x86)\\gnu tools arm embedded\\7 2017-q4-major\\arm-none-eabi\\include
 764              		.file 22 "c:\\program files (x86)\\gnu tools arm embedded\\7 2017-q4-major\\arm-none-eabi\\include
 765              		.file 23 "Core/Inc/devs/motor.h"
 766              		.file 24 "Core/Inc/devs/encoder.h"
 767              		.file 25 "Core/Inc/utils/pid_algorithms.h"
 768              		.file 26 "Core/Inc/devs/limit_switch.h"
 769              		.file 27 "Core/Inc/periphs/usart.h"
 770              		.file 28 "Drivers/STM32F4xx_HAL_Driver/Inc/stm32f4xx_hal.h"
 771              		.file 29 "c:\\program files (x86)\\gnu tools arm embedded\\7 2017-q4-major\\arm-none-eabi\\include
 772              		.file 30 "<built-in>"
ARM GAS  C:\Users\Prashant\AppData\Local\Temp\ccjUJDtj.s 			page 23

