ARM GAS  C:\Users\Prashant\AppData\Local\Temp\ccfG5dAc.s 			page 1


   1              		.cpu cortex-m4
   2              		.eabi_attribute 27, 1
   3              		.eabi_attribute 28, 1
   4              		.eabi_attribute 20, 1
   5              		.eabi_attribute 21, 1
   6              		.eabi_attribute 23, 3
   7              		.eabi_attribute 24, 1
   8              		.eabi_attribute 25, 1
   9              		.eabi_attribute 26, 1
  10              		.eabi_attribute 30, 1
  11              		.eabi_attribute 34, 1
  12              		.eabi_attribute 18, 4
  13              		.file	"robot.cpp"
  14              		.text
  15              	.Ltext0:
  16              		.cfi_sections	.debug_frame
  17              		.global	__aeabi_f2d
  18              		.global	__aeabi_dmul
  19              		.global	__aeabi_d2f
  20              		.global	__aeabi_dcmple
  21              		.section	.text._Z2goif,"ax",%progbits
  22              		.align	1
  23              		.global	_Z2goif
  24              		.syntax unified
  25              		.thumb
  26              		.thumb_func
  27              		.fpu fpv4-sp-d16
  29              	_Z2goif:
  30              	.LFB453:
  31              		.file 1 "Core/Src/robot/robot.cpp"
   1:Core/Src/robot/robot.cpp **** #include "robot.h"
   2:Core/Src/robot/robot.cpp **** 
   3:Core/Src/robot/robot.cpp **** static const float robot_speed = 15;
   4:Core/Src/robot/robot.cpp **** static float leg_speed = robot_speed;	 //38 is the 100%
   5:Core/Src/robot/robot.cpp **** static const float steering_speed = 0.6; // 1.35 is the 100%
   6:Core/Src/robot/robot.cpp **** static const float steering_angle_limit = 0.15;
   7:Core/Src/robot/robot.cpp **** extern leg leg[1];
   8:Core/Src/robot/robot.cpp **** extern steering steering;
   9:Core/Src/robot/robot.cpp **** float robot_angle = 0, temp_robot_angle = 0;
  10:Core/Src/robot/robot.cpp **** bool robo_angle_flag = true;
  11:Core/Src/robot/robot.cpp **** float tolerence = 1 *PI/180;
  12:Core/Src/robot/robot.cpp **** 
  13:Core/Src/robot/robot.cpp **** //float steps[6] = {15, 28, 33, 38, 48, 78};
  14:Core/Src/robot/robot.cpp **** //float angles[6] = {0, 45, 75, 35, -20, -20};
  15:Core/Src/robot/robot.cpp **** 
  16:Core/Src/robot/robot.cpp **** // float steps[6] = {15, 20, 30, 33, 55, 80};
  17:Core/Src/robot/robot.cpp **** // float angles[6] = {0, 45, 45, 60, 0, 0};
  18:Core/Src/robot/robot.cpp **** 
  19:Core/Src/robot/robot.cpp **** float steps[6] = {10, 15, 23, 26, 40, 80};
  20:Core/Src/robot/robot.cpp **** float angles[6] = {0, 45, 45, 50, 0, 0};
  21:Core/Src/robot/robot.cpp **** 
  22:Core/Src/robot/robot.cpp **** bool go(int steps, float angle)
  23:Core/Src/robot/robot.cpp **** {
  32              		.loc 1 23 0
  33              		.cfi_startproc
  34              		@ args = 0, pretend = 0, frame = 0
  35              		@ frame_needed = 0, uses_anonymous_args = 0
ARM GAS  C:\Users\Prashant\AppData\Local\Temp\ccfG5dAc.s 			page 2


  36              	.LVL0:
  37 0000 10B5     		push	{r4, lr}
  38              	.LCFI0:
  39              		.cfi_def_cfa_offset 8
  40              		.cfi_offset 4, -8
  41              		.cfi_offset 14, -4
  42 0002 2DED048B 		vpush.64	{d8, d9}
  43              	.LCFI1:
  44              		.cfi_def_cfa_offset 24
  45              		.cfi_offset 80, -24
  46              		.cfi_offset 81, -20
  47              		.cfi_offset 82, -16
  48              		.cfi_offset 83, -12
  49 0006 0446     		mov	r4, r0
  24:Core/Src/robot/robot.cpp **** 	angle *= PI / 180;
  50              		.loc 1 24 0
  51 0008 10EE100A 		vmov	r0, s0
  52              	.LVL1:
  53 000c FFF7FEFF 		bl	__aeabi_f2d
  54              	.LVL2:
  55 0010 9CA3     		adr	r3, .L41+84
  56 0012 D3E90023 		ldrd	r2, [r3]
  57 0016 FFF7FEFF 		bl	__aeabi_dmul
  58              	.LVL3:
  59 001a FFF7FEFF 		bl	__aeabi_d2f
  60              	.LVL4:
  61 001e 08EE900A 		vmov	s17, r0
  62              	.LVL5:
  25:Core/Src/robot/robot.cpp **** 	leg_speed = robot_speed;
  63              		.loc 1 25 0
  64 0022 854B     		ldr	r3, .L41+8
  65 0024 854A     		ldr	r2, .L41+12
  66 0026 1A60     		str	r2, [r3]	@ float
  26:Core/Src/robot/robot.cpp **** 
  27:Core/Src/robot/robot.cpp **** 	if(steps == 23 || steps == 50) {
  67              		.loc 1 27 0
  68 0028 172C     		cmp	r4, #23
  69 002a 01D0     		beq	.L2
  70              		.loc 1 27 0 is_stmt 0 discriminator 1
  71 002c 322C     		cmp	r4, #50
  72 002e 02D1     		bne	.L3
  73              	.L2:
  28:Core/Src/robot/robot.cpp **** 		leg_speed = robot_speed/1.5;
  74              		.loc 1 28 0 is_stmt 1
  75 0030 814B     		ldr	r3, .L41+8
  76 0032 834A     		ldr	r2, .L41+16
  77 0034 1A60     		str	r2, [r3]	@ float
  78              	.L3:
  29:Core/Src/robot/robot.cpp **** 	}
  30:Core/Src/robot/robot.cpp **** 	else
  31:Core/Src/robot/robot.cpp **** 	{
  32:Core/Src/robot/robot.cpp **** 		leg_speed = robot_speed;
  33:Core/Src/robot/robot.cpp **** 	}
  34:Core/Src/robot/robot.cpp **** 	
  35:Core/Src/robot/robot.cpp **** 	if (leg[0].get_steps() < steps)
  79              		.loc 1 35 0
  80 0036 8348     		ldr	r0, .L41+20
ARM GAS  C:\Users\Prashant\AppData\Local\Temp\ccfG5dAc.s 			page 3


  81              	.LVL6:
  82 0038 FFF7FEFF 		bl	_ZN3leg9get_stepsEv
  83              	.LVL7:
  84              	.LBB8:
  85              	.LBB9:
  86              		.file 2 "c:\\program files (x86)\\gnu tools arm embedded\\7 2017-q4-major\\arm-none-eabi\\include\
   1:c:\program files (x86)\gnu tools arm embedded\7 2017-q4-major\arm-none-eabi\include\c++\7.2.1\cmath **** // -*- C++ -*- C forwarding header.
   2:c:\program files (x86)\gnu tools arm embedded\7 2017-q4-major\arm-none-eabi\include\c++\7.2.1\cmath **** 
   3:c:\program files (x86)\gnu tools arm embedded\7 2017-q4-major\arm-none-eabi\include\c++\7.2.1\cmath **** // Copyright (C) 1997-2017 Free Software Foundation, Inc.
   4:c:\program files (x86)\gnu tools arm embedded\7 2017-q4-major\arm-none-eabi\include\c++\7.2.1\cmath **** //
   5:c:\program files (x86)\gnu tools arm embedded\7 2017-q4-major\arm-none-eabi\include\c++\7.2.1\cmath **** // This file is part of the GNU ISO C++ Library.  This library is free
   6:c:\program files (x86)\gnu tools arm embedded\7 2017-q4-major\arm-none-eabi\include\c++\7.2.1\cmath **** // software; you can redistribute it and/or modify it under the
   7:c:\program files (x86)\gnu tools arm embedded\7 2017-q4-major\arm-none-eabi\include\c++\7.2.1\cmath **** // terms of the GNU General Public License as published by the
   8:c:\program files (x86)\gnu tools arm embedded\7 2017-q4-major\arm-none-eabi\include\c++\7.2.1\cmath **** // Free Software Foundation; either version 3, or (at your option)
   9:c:\program files (x86)\gnu tools arm embedded\7 2017-q4-major\arm-none-eabi\include\c++\7.2.1\cmath **** // any later version.
  10:c:\program files (x86)\gnu tools arm embedded\7 2017-q4-major\arm-none-eabi\include\c++\7.2.1\cmath **** 
  11:c:\program files (x86)\gnu tools arm embedded\7 2017-q4-major\arm-none-eabi\include\c++\7.2.1\cmath **** // This library is distributed in the hope that it will be useful,
  12:c:\program files (x86)\gnu tools arm embedded\7 2017-q4-major\arm-none-eabi\include\c++\7.2.1\cmath **** // but WITHOUT ANY WARRANTY; without even the implied warranty of
  13:c:\program files (x86)\gnu tools arm embedded\7 2017-q4-major\arm-none-eabi\include\c++\7.2.1\cmath **** // MERCHANTABILITY or FITNESS FOR A PARTICULAR PURPOSE.  See the
  14:c:\program files (x86)\gnu tools arm embedded\7 2017-q4-major\arm-none-eabi\include\c++\7.2.1\cmath **** // GNU General Public License for more details.
  15:c:\program files (x86)\gnu tools arm embedded\7 2017-q4-major\arm-none-eabi\include\c++\7.2.1\cmath **** 
  16:c:\program files (x86)\gnu tools arm embedded\7 2017-q4-major\arm-none-eabi\include\c++\7.2.1\cmath **** // Under Section 7 of GPL version 3, you are granted additional
  17:c:\program files (x86)\gnu tools arm embedded\7 2017-q4-major\arm-none-eabi\include\c++\7.2.1\cmath **** // permissions described in the GCC Runtime Library Exception, version
  18:c:\program files (x86)\gnu tools arm embedded\7 2017-q4-major\arm-none-eabi\include\c++\7.2.1\cmath **** // 3.1, as published by the Free Software Foundation.
  19:c:\program files (x86)\gnu tools arm embedded\7 2017-q4-major\arm-none-eabi\include\c++\7.2.1\cmath **** 
  20:c:\program files (x86)\gnu tools arm embedded\7 2017-q4-major\arm-none-eabi\include\c++\7.2.1\cmath **** // You should have received a copy of the GNU General Public License and
  21:c:\program files (x86)\gnu tools arm embedded\7 2017-q4-major\arm-none-eabi\include\c++\7.2.1\cmath **** // a copy of the GCC Runtime Library Exception along with this program;
  22:c:\program files (x86)\gnu tools arm embedded\7 2017-q4-major\arm-none-eabi\include\c++\7.2.1\cmath **** // see the files COPYING3 and COPYING.RUNTIME respectively.  If not, see
  23:c:\program files (x86)\gnu tools arm embedded\7 2017-q4-major\arm-none-eabi\include\c++\7.2.1\cmath **** // <http://www.gnu.org/licenses/>.
  24:c:\program files (x86)\gnu tools arm embedded\7 2017-q4-major\arm-none-eabi\include\c++\7.2.1\cmath **** 
  25:c:\program files (x86)\gnu tools arm embedded\7 2017-q4-major\arm-none-eabi\include\c++\7.2.1\cmath **** /** @file include/cmath
  26:c:\program files (x86)\gnu tools arm embedded\7 2017-q4-major\arm-none-eabi\include\c++\7.2.1\cmath ****  *  This is a Standard C++ Library file.  You should @c \#include this file
  27:c:\program files (x86)\gnu tools arm embedded\7 2017-q4-major\arm-none-eabi\include\c++\7.2.1\cmath ****  *  in your programs, rather than any of the @a *.h implementation files.
  28:c:\program files (x86)\gnu tools arm embedded\7 2017-q4-major\arm-none-eabi\include\c++\7.2.1\cmath ****  *
  29:c:\program files (x86)\gnu tools arm embedded\7 2017-q4-major\arm-none-eabi\include\c++\7.2.1\cmath ****  *  This is the C++ version of the Standard C Library header @c math.h,
  30:c:\program files (x86)\gnu tools arm embedded\7 2017-q4-major\arm-none-eabi\include\c++\7.2.1\cmath ****  *  and its contents are (mostly) the same as that header, but are all
  31:c:\program files (x86)\gnu tools arm embedded\7 2017-q4-major\arm-none-eabi\include\c++\7.2.1\cmath ****  *  contained in the namespace @c std (except for names which are defined
  32:c:\program files (x86)\gnu tools arm embedded\7 2017-q4-major\arm-none-eabi\include\c++\7.2.1\cmath ****  *  as macros in C).
  33:c:\program files (x86)\gnu tools arm embedded\7 2017-q4-major\arm-none-eabi\include\c++\7.2.1\cmath ****  */
  34:c:\program files (x86)\gnu tools arm embedded\7 2017-q4-major\arm-none-eabi\include\c++\7.2.1\cmath **** 
  35:c:\program files (x86)\gnu tools arm embedded\7 2017-q4-major\arm-none-eabi\include\c++\7.2.1\cmath **** //
  36:c:\program files (x86)\gnu tools arm embedded\7 2017-q4-major\arm-none-eabi\include\c++\7.2.1\cmath **** // ISO C++ 14882: 26.5  C library
  37:c:\program files (x86)\gnu tools arm embedded\7 2017-q4-major\arm-none-eabi\include\c++\7.2.1\cmath **** //
  38:c:\program files (x86)\gnu tools arm embedded\7 2017-q4-major\arm-none-eabi\include\c++\7.2.1\cmath **** 
  39:c:\program files (x86)\gnu tools arm embedded\7 2017-q4-major\arm-none-eabi\include\c++\7.2.1\cmath **** #pragma GCC system_header
  40:c:\program files (x86)\gnu tools arm embedded\7 2017-q4-major\arm-none-eabi\include\c++\7.2.1\cmath **** 
  41:c:\program files (x86)\gnu tools arm embedded\7 2017-q4-major\arm-none-eabi\include\c++\7.2.1\cmath **** #include <bits/c++config.h>
  42:c:\program files (x86)\gnu tools arm embedded\7 2017-q4-major\arm-none-eabi\include\c++\7.2.1\cmath **** #include <bits/cpp_type_traits.h>
  43:c:\program files (x86)\gnu tools arm embedded\7 2017-q4-major\arm-none-eabi\include\c++\7.2.1\cmath **** #include <ext/type_traits.h>
  44:c:\program files (x86)\gnu tools arm embedded\7 2017-q4-major\arm-none-eabi\include\c++\7.2.1\cmath **** #define _GLIBCXX_INCLUDE_NEXT_C_HEADERS
  45:c:\program files (x86)\gnu tools arm embedded\7 2017-q4-major\arm-none-eabi\include\c++\7.2.1\cmath **** #include_next <math.h>
  46:c:\program files (x86)\gnu tools arm embedded\7 2017-q4-major\arm-none-eabi\include\c++\7.2.1\cmath **** #undef _GLIBCXX_INCLUDE_NEXT_C_HEADERS
  47:c:\program files (x86)\gnu tools arm embedded\7 2017-q4-major\arm-none-eabi\include\c++\7.2.1\cmath **** #include <bits/std_abs.h>
  48:c:\program files (x86)\gnu tools arm embedded\7 2017-q4-major\arm-none-eabi\include\c++\7.2.1\cmath **** 
  49:c:\program files (x86)\gnu tools arm embedded\7 2017-q4-major\arm-none-eabi\include\c++\7.2.1\cmath **** #ifndef _GLIBCXX_CMATH
  50:c:\program files (x86)\gnu tools arm embedded\7 2017-q4-major\arm-none-eabi\include\c++\7.2.1\cmath **** #define _GLIBCXX_CMATH 1
  51:c:\program files (x86)\gnu tools arm embedded\7 2017-q4-major\arm-none-eabi\include\c++\7.2.1\cmath **** 
ARM GAS  C:\Users\Prashant\AppData\Local\Temp\ccfG5dAc.s 			page 4


  52:c:\program files (x86)\gnu tools arm embedded\7 2017-q4-major\arm-none-eabi\include\c++\7.2.1\cmath **** // Get rid of those macros defined in <math.h> in lieu of real functions.
  53:c:\program files (x86)\gnu tools arm embedded\7 2017-q4-major\arm-none-eabi\include\c++\7.2.1\cmath **** #undef div
  54:c:\program files (x86)\gnu tools arm embedded\7 2017-q4-major\arm-none-eabi\include\c++\7.2.1\cmath **** #undef acos
  55:c:\program files (x86)\gnu tools arm embedded\7 2017-q4-major\arm-none-eabi\include\c++\7.2.1\cmath **** #undef asin
  56:c:\program files (x86)\gnu tools arm embedded\7 2017-q4-major\arm-none-eabi\include\c++\7.2.1\cmath **** #undef atan
  57:c:\program files (x86)\gnu tools arm embedded\7 2017-q4-major\arm-none-eabi\include\c++\7.2.1\cmath **** #undef atan2
  58:c:\program files (x86)\gnu tools arm embedded\7 2017-q4-major\arm-none-eabi\include\c++\7.2.1\cmath **** #undef ceil
  59:c:\program files (x86)\gnu tools arm embedded\7 2017-q4-major\arm-none-eabi\include\c++\7.2.1\cmath **** #undef cos
  60:c:\program files (x86)\gnu tools arm embedded\7 2017-q4-major\arm-none-eabi\include\c++\7.2.1\cmath **** #undef cosh
  61:c:\program files (x86)\gnu tools arm embedded\7 2017-q4-major\arm-none-eabi\include\c++\7.2.1\cmath **** #undef exp
  62:c:\program files (x86)\gnu tools arm embedded\7 2017-q4-major\arm-none-eabi\include\c++\7.2.1\cmath **** #undef fabs
  63:c:\program files (x86)\gnu tools arm embedded\7 2017-q4-major\arm-none-eabi\include\c++\7.2.1\cmath **** #undef floor
  64:c:\program files (x86)\gnu tools arm embedded\7 2017-q4-major\arm-none-eabi\include\c++\7.2.1\cmath **** #undef fmod
  65:c:\program files (x86)\gnu tools arm embedded\7 2017-q4-major\arm-none-eabi\include\c++\7.2.1\cmath **** #undef frexp
  66:c:\program files (x86)\gnu tools arm embedded\7 2017-q4-major\arm-none-eabi\include\c++\7.2.1\cmath **** #undef ldexp
  67:c:\program files (x86)\gnu tools arm embedded\7 2017-q4-major\arm-none-eabi\include\c++\7.2.1\cmath **** #undef log
  68:c:\program files (x86)\gnu tools arm embedded\7 2017-q4-major\arm-none-eabi\include\c++\7.2.1\cmath **** #undef log10
  69:c:\program files (x86)\gnu tools arm embedded\7 2017-q4-major\arm-none-eabi\include\c++\7.2.1\cmath **** #undef modf
  70:c:\program files (x86)\gnu tools arm embedded\7 2017-q4-major\arm-none-eabi\include\c++\7.2.1\cmath **** #undef pow
  71:c:\program files (x86)\gnu tools arm embedded\7 2017-q4-major\arm-none-eabi\include\c++\7.2.1\cmath **** #undef sin
  72:c:\program files (x86)\gnu tools arm embedded\7 2017-q4-major\arm-none-eabi\include\c++\7.2.1\cmath **** #undef sinh
  73:c:\program files (x86)\gnu tools arm embedded\7 2017-q4-major\arm-none-eabi\include\c++\7.2.1\cmath **** #undef sqrt
  74:c:\program files (x86)\gnu tools arm embedded\7 2017-q4-major\arm-none-eabi\include\c++\7.2.1\cmath **** #undef tan
  75:c:\program files (x86)\gnu tools arm embedded\7 2017-q4-major\arm-none-eabi\include\c++\7.2.1\cmath **** #undef tanh
  76:c:\program files (x86)\gnu tools arm embedded\7 2017-q4-major\arm-none-eabi\include\c++\7.2.1\cmath **** 
  77:c:\program files (x86)\gnu tools arm embedded\7 2017-q4-major\arm-none-eabi\include\c++\7.2.1\cmath **** extern "C++"
  78:c:\program files (x86)\gnu tools arm embedded\7 2017-q4-major\arm-none-eabi\include\c++\7.2.1\cmath **** {
  79:c:\program files (x86)\gnu tools arm embedded\7 2017-q4-major\arm-none-eabi\include\c++\7.2.1\cmath **** namespace std _GLIBCXX_VISIBILITY(default)
  80:c:\program files (x86)\gnu tools arm embedded\7 2017-q4-major\arm-none-eabi\include\c++\7.2.1\cmath **** {
  81:c:\program files (x86)\gnu tools arm embedded\7 2017-q4-major\arm-none-eabi\include\c++\7.2.1\cmath **** _GLIBCXX_BEGIN_NAMESPACE_VERSION
  82:c:\program files (x86)\gnu tools arm embedded\7 2017-q4-major\arm-none-eabi\include\c++\7.2.1\cmath **** 
  83:c:\program files (x86)\gnu tools arm embedded\7 2017-q4-major\arm-none-eabi\include\c++\7.2.1\cmath ****   using ::acos;
  84:c:\program files (x86)\gnu tools arm embedded\7 2017-q4-major\arm-none-eabi\include\c++\7.2.1\cmath **** 
  85:c:\program files (x86)\gnu tools arm embedded\7 2017-q4-major\arm-none-eabi\include\c++\7.2.1\cmath **** #ifndef __CORRECT_ISO_CPP_MATH_H_PROTO
  86:c:\program files (x86)\gnu tools arm embedded\7 2017-q4-major\arm-none-eabi\include\c++\7.2.1\cmath ****   inline _GLIBCXX_CONSTEXPR float
  87:c:\program files (x86)\gnu tools arm embedded\7 2017-q4-major\arm-none-eabi\include\c++\7.2.1\cmath ****   acos(float __x)
  88:c:\program files (x86)\gnu tools arm embedded\7 2017-q4-major\arm-none-eabi\include\c++\7.2.1\cmath ****   { return __builtin_acosf(__x); }
  89:c:\program files (x86)\gnu tools arm embedded\7 2017-q4-major\arm-none-eabi\include\c++\7.2.1\cmath **** 
  90:c:\program files (x86)\gnu tools arm embedded\7 2017-q4-major\arm-none-eabi\include\c++\7.2.1\cmath ****   inline _GLIBCXX_CONSTEXPR long double
  91:c:\program files (x86)\gnu tools arm embedded\7 2017-q4-major\arm-none-eabi\include\c++\7.2.1\cmath ****   acos(long double __x)
  92:c:\program files (x86)\gnu tools arm embedded\7 2017-q4-major\arm-none-eabi\include\c++\7.2.1\cmath ****   { return __builtin_acosl(__x); }
  93:c:\program files (x86)\gnu tools arm embedded\7 2017-q4-major\arm-none-eabi\include\c++\7.2.1\cmath **** #endif
  94:c:\program files (x86)\gnu tools arm embedded\7 2017-q4-major\arm-none-eabi\include\c++\7.2.1\cmath **** 
  95:c:\program files (x86)\gnu tools arm embedded\7 2017-q4-major\arm-none-eabi\include\c++\7.2.1\cmath ****   template<typename _Tp>
  96:c:\program files (x86)\gnu tools arm embedded\7 2017-q4-major\arm-none-eabi\include\c++\7.2.1\cmath ****     inline _GLIBCXX_CONSTEXPR
  97:c:\program files (x86)\gnu tools arm embedded\7 2017-q4-major\arm-none-eabi\include\c++\7.2.1\cmath ****     typename __gnu_cxx::__enable_if<__is_integer<_Tp>::__value, 
  98:c:\program files (x86)\gnu tools arm embedded\7 2017-q4-major\arm-none-eabi\include\c++\7.2.1\cmath ****                                     double>::__type
  99:c:\program files (x86)\gnu tools arm embedded\7 2017-q4-major\arm-none-eabi\include\c++\7.2.1\cmath ****     acos(_Tp __x)
 100:c:\program files (x86)\gnu tools arm embedded\7 2017-q4-major\arm-none-eabi\include\c++\7.2.1\cmath ****     { return __builtin_acos(__x); }
 101:c:\program files (x86)\gnu tools arm embedded\7 2017-q4-major\arm-none-eabi\include\c++\7.2.1\cmath **** 
 102:c:\program files (x86)\gnu tools arm embedded\7 2017-q4-major\arm-none-eabi\include\c++\7.2.1\cmath ****   using ::asin;
 103:c:\program files (x86)\gnu tools arm embedded\7 2017-q4-major\arm-none-eabi\include\c++\7.2.1\cmath **** 
 104:c:\program files (x86)\gnu tools arm embedded\7 2017-q4-major\arm-none-eabi\include\c++\7.2.1\cmath **** #ifndef __CORRECT_ISO_CPP_MATH_H_PROTO
 105:c:\program files (x86)\gnu tools arm embedded\7 2017-q4-major\arm-none-eabi\include\c++\7.2.1\cmath ****   inline _GLIBCXX_CONSTEXPR float
 106:c:\program files (x86)\gnu tools arm embedded\7 2017-q4-major\arm-none-eabi\include\c++\7.2.1\cmath ****   asin(float __x)
 107:c:\program files (x86)\gnu tools arm embedded\7 2017-q4-major\arm-none-eabi\include\c++\7.2.1\cmath ****   { return __builtin_asinf(__x); }
 108:c:\program files (x86)\gnu tools arm embedded\7 2017-q4-major\arm-none-eabi\include\c++\7.2.1\cmath **** 
ARM GAS  C:\Users\Prashant\AppData\Local\Temp\ccfG5dAc.s 			page 5


 109:c:\program files (x86)\gnu tools arm embedded\7 2017-q4-major\arm-none-eabi\include\c++\7.2.1\cmath ****   inline _GLIBCXX_CONSTEXPR long double
 110:c:\program files (x86)\gnu tools arm embedded\7 2017-q4-major\arm-none-eabi\include\c++\7.2.1\cmath ****   asin(long double __x)
 111:c:\program files (x86)\gnu tools arm embedded\7 2017-q4-major\arm-none-eabi\include\c++\7.2.1\cmath ****   { return __builtin_asinl(__x); }
 112:c:\program files (x86)\gnu tools arm embedded\7 2017-q4-major\arm-none-eabi\include\c++\7.2.1\cmath **** #endif
 113:c:\program files (x86)\gnu tools arm embedded\7 2017-q4-major\arm-none-eabi\include\c++\7.2.1\cmath **** 
 114:c:\program files (x86)\gnu tools arm embedded\7 2017-q4-major\arm-none-eabi\include\c++\7.2.1\cmath ****   template<typename _Tp>
 115:c:\program files (x86)\gnu tools arm embedded\7 2017-q4-major\arm-none-eabi\include\c++\7.2.1\cmath ****     inline _GLIBCXX_CONSTEXPR
 116:c:\program files (x86)\gnu tools arm embedded\7 2017-q4-major\arm-none-eabi\include\c++\7.2.1\cmath ****     typename __gnu_cxx::__enable_if<__is_integer<_Tp>::__value,
 117:c:\program files (x86)\gnu tools arm embedded\7 2017-q4-major\arm-none-eabi\include\c++\7.2.1\cmath ****                                     double>::__type
 118:c:\program files (x86)\gnu tools arm embedded\7 2017-q4-major\arm-none-eabi\include\c++\7.2.1\cmath ****     asin(_Tp __x)
 119:c:\program files (x86)\gnu tools arm embedded\7 2017-q4-major\arm-none-eabi\include\c++\7.2.1\cmath ****     { return __builtin_asin(__x); }
 120:c:\program files (x86)\gnu tools arm embedded\7 2017-q4-major\arm-none-eabi\include\c++\7.2.1\cmath **** 
 121:c:\program files (x86)\gnu tools arm embedded\7 2017-q4-major\arm-none-eabi\include\c++\7.2.1\cmath ****   using ::atan;
 122:c:\program files (x86)\gnu tools arm embedded\7 2017-q4-major\arm-none-eabi\include\c++\7.2.1\cmath **** 
 123:c:\program files (x86)\gnu tools arm embedded\7 2017-q4-major\arm-none-eabi\include\c++\7.2.1\cmath **** #ifndef __CORRECT_ISO_CPP_MATH_H_PROTO
 124:c:\program files (x86)\gnu tools arm embedded\7 2017-q4-major\arm-none-eabi\include\c++\7.2.1\cmath ****   inline _GLIBCXX_CONSTEXPR float
 125:c:\program files (x86)\gnu tools arm embedded\7 2017-q4-major\arm-none-eabi\include\c++\7.2.1\cmath ****   atan(float __x)
 126:c:\program files (x86)\gnu tools arm embedded\7 2017-q4-major\arm-none-eabi\include\c++\7.2.1\cmath ****   { return __builtin_atanf(__x); }
 127:c:\program files (x86)\gnu tools arm embedded\7 2017-q4-major\arm-none-eabi\include\c++\7.2.1\cmath **** 
 128:c:\program files (x86)\gnu tools arm embedded\7 2017-q4-major\arm-none-eabi\include\c++\7.2.1\cmath ****   inline _GLIBCXX_CONSTEXPR long double
 129:c:\program files (x86)\gnu tools arm embedded\7 2017-q4-major\arm-none-eabi\include\c++\7.2.1\cmath ****   atan(long double __x)
 130:c:\program files (x86)\gnu tools arm embedded\7 2017-q4-major\arm-none-eabi\include\c++\7.2.1\cmath ****   { return __builtin_atanl(__x); }
 131:c:\program files (x86)\gnu tools arm embedded\7 2017-q4-major\arm-none-eabi\include\c++\7.2.1\cmath **** #endif
 132:c:\program files (x86)\gnu tools arm embedded\7 2017-q4-major\arm-none-eabi\include\c++\7.2.1\cmath **** 
 133:c:\program files (x86)\gnu tools arm embedded\7 2017-q4-major\arm-none-eabi\include\c++\7.2.1\cmath ****   template<typename _Tp>
 134:c:\program files (x86)\gnu tools arm embedded\7 2017-q4-major\arm-none-eabi\include\c++\7.2.1\cmath ****     inline _GLIBCXX_CONSTEXPR
 135:c:\program files (x86)\gnu tools arm embedded\7 2017-q4-major\arm-none-eabi\include\c++\7.2.1\cmath ****     typename __gnu_cxx::__enable_if<__is_integer<_Tp>::__value,
 136:c:\program files (x86)\gnu tools arm embedded\7 2017-q4-major\arm-none-eabi\include\c++\7.2.1\cmath ****                                     double>::__type
 137:c:\program files (x86)\gnu tools arm embedded\7 2017-q4-major\arm-none-eabi\include\c++\7.2.1\cmath ****     atan(_Tp __x)
 138:c:\program files (x86)\gnu tools arm embedded\7 2017-q4-major\arm-none-eabi\include\c++\7.2.1\cmath ****     { return __builtin_atan(__x); }
 139:c:\program files (x86)\gnu tools arm embedded\7 2017-q4-major\arm-none-eabi\include\c++\7.2.1\cmath **** 
 140:c:\program files (x86)\gnu tools arm embedded\7 2017-q4-major\arm-none-eabi\include\c++\7.2.1\cmath ****   using ::atan2;
 141:c:\program files (x86)\gnu tools arm embedded\7 2017-q4-major\arm-none-eabi\include\c++\7.2.1\cmath **** 
 142:c:\program files (x86)\gnu tools arm embedded\7 2017-q4-major\arm-none-eabi\include\c++\7.2.1\cmath **** #ifndef __CORRECT_ISO_CPP_MATH_H_PROTO
 143:c:\program files (x86)\gnu tools arm embedded\7 2017-q4-major\arm-none-eabi\include\c++\7.2.1\cmath ****   inline _GLIBCXX_CONSTEXPR float
 144:c:\program files (x86)\gnu tools arm embedded\7 2017-q4-major\arm-none-eabi\include\c++\7.2.1\cmath ****   atan2(float __y, float __x)
 145:c:\program files (x86)\gnu tools arm embedded\7 2017-q4-major\arm-none-eabi\include\c++\7.2.1\cmath ****   { return __builtin_atan2f(__y, __x); }
 146:c:\program files (x86)\gnu tools arm embedded\7 2017-q4-major\arm-none-eabi\include\c++\7.2.1\cmath **** 
 147:c:\program files (x86)\gnu tools arm embedded\7 2017-q4-major\arm-none-eabi\include\c++\7.2.1\cmath ****   inline _GLIBCXX_CONSTEXPR long double
 148:c:\program files (x86)\gnu tools arm embedded\7 2017-q4-major\arm-none-eabi\include\c++\7.2.1\cmath ****   atan2(long double __y, long double __x)
 149:c:\program files (x86)\gnu tools arm embedded\7 2017-q4-major\arm-none-eabi\include\c++\7.2.1\cmath ****   { return __builtin_atan2l(__y, __x); }
 150:c:\program files (x86)\gnu tools arm embedded\7 2017-q4-major\arm-none-eabi\include\c++\7.2.1\cmath **** #endif
 151:c:\program files (x86)\gnu tools arm embedded\7 2017-q4-major\arm-none-eabi\include\c++\7.2.1\cmath **** 
 152:c:\program files (x86)\gnu tools arm embedded\7 2017-q4-major\arm-none-eabi\include\c++\7.2.1\cmath ****   template<typename _Tp, typename _Up>
 153:c:\program files (x86)\gnu tools arm embedded\7 2017-q4-major\arm-none-eabi\include\c++\7.2.1\cmath ****     inline _GLIBCXX_CONSTEXPR
 154:c:\program files (x86)\gnu tools arm embedded\7 2017-q4-major\arm-none-eabi\include\c++\7.2.1\cmath ****     typename __gnu_cxx::__promote_2<_Tp, _Up>::__type
 155:c:\program files (x86)\gnu tools arm embedded\7 2017-q4-major\arm-none-eabi\include\c++\7.2.1\cmath ****     atan2(_Tp __y, _Up __x)
 156:c:\program files (x86)\gnu tools arm embedded\7 2017-q4-major\arm-none-eabi\include\c++\7.2.1\cmath ****     {
 157:c:\program files (x86)\gnu tools arm embedded\7 2017-q4-major\arm-none-eabi\include\c++\7.2.1\cmath ****       typedef typename __gnu_cxx::__promote_2<_Tp, _Up>::__type __type;
 158:c:\program files (x86)\gnu tools arm embedded\7 2017-q4-major\arm-none-eabi\include\c++\7.2.1\cmath ****       return atan2(__type(__y), __type(__x));
 159:c:\program files (x86)\gnu tools arm embedded\7 2017-q4-major\arm-none-eabi\include\c++\7.2.1\cmath ****     }
 160:c:\program files (x86)\gnu tools arm embedded\7 2017-q4-major\arm-none-eabi\include\c++\7.2.1\cmath **** 
 161:c:\program files (x86)\gnu tools arm embedded\7 2017-q4-major\arm-none-eabi\include\c++\7.2.1\cmath ****   using ::ceil;
 162:c:\program files (x86)\gnu tools arm embedded\7 2017-q4-major\arm-none-eabi\include\c++\7.2.1\cmath **** 
 163:c:\program files (x86)\gnu tools arm embedded\7 2017-q4-major\arm-none-eabi\include\c++\7.2.1\cmath **** #ifndef __CORRECT_ISO_CPP_MATH_H_PROTO
 164:c:\program files (x86)\gnu tools arm embedded\7 2017-q4-major\arm-none-eabi\include\c++\7.2.1\cmath ****   inline _GLIBCXX_CONSTEXPR float
 165:c:\program files (x86)\gnu tools arm embedded\7 2017-q4-major\arm-none-eabi\include\c++\7.2.1\cmath ****   ceil(float __x)
ARM GAS  C:\Users\Prashant\AppData\Local\Temp\ccfG5dAc.s 			page 6


 166:c:\program files (x86)\gnu tools arm embedded\7 2017-q4-major\arm-none-eabi\include\c++\7.2.1\cmath ****   { return __builtin_ceilf(__x); }
 167:c:\program files (x86)\gnu tools arm embedded\7 2017-q4-major\arm-none-eabi\include\c++\7.2.1\cmath **** 
 168:c:\program files (x86)\gnu tools arm embedded\7 2017-q4-major\arm-none-eabi\include\c++\7.2.1\cmath ****   inline _GLIBCXX_CONSTEXPR long double
 169:c:\program files (x86)\gnu tools arm embedded\7 2017-q4-major\arm-none-eabi\include\c++\7.2.1\cmath ****   ceil(long double __x)
 170:c:\program files (x86)\gnu tools arm embedded\7 2017-q4-major\arm-none-eabi\include\c++\7.2.1\cmath ****   { return __builtin_ceill(__x); }
 171:c:\program files (x86)\gnu tools arm embedded\7 2017-q4-major\arm-none-eabi\include\c++\7.2.1\cmath **** #endif
 172:c:\program files (x86)\gnu tools arm embedded\7 2017-q4-major\arm-none-eabi\include\c++\7.2.1\cmath **** 
 173:c:\program files (x86)\gnu tools arm embedded\7 2017-q4-major\arm-none-eabi\include\c++\7.2.1\cmath ****   template<typename _Tp>
 174:c:\program files (x86)\gnu tools arm embedded\7 2017-q4-major\arm-none-eabi\include\c++\7.2.1\cmath ****     inline _GLIBCXX_CONSTEXPR
 175:c:\program files (x86)\gnu tools arm embedded\7 2017-q4-major\arm-none-eabi\include\c++\7.2.1\cmath ****     typename __gnu_cxx::__enable_if<__is_integer<_Tp>::__value, 
 176:c:\program files (x86)\gnu tools arm embedded\7 2017-q4-major\arm-none-eabi\include\c++\7.2.1\cmath ****                                     double>::__type
 177:c:\program files (x86)\gnu tools arm embedded\7 2017-q4-major\arm-none-eabi\include\c++\7.2.1\cmath ****     ceil(_Tp __x)
 178:c:\program files (x86)\gnu tools arm embedded\7 2017-q4-major\arm-none-eabi\include\c++\7.2.1\cmath ****     { return __builtin_ceil(__x); }
 179:c:\program files (x86)\gnu tools arm embedded\7 2017-q4-major\arm-none-eabi\include\c++\7.2.1\cmath **** 
 180:c:\program files (x86)\gnu tools arm embedded\7 2017-q4-major\arm-none-eabi\include\c++\7.2.1\cmath ****   using ::cos;
 181:c:\program files (x86)\gnu tools arm embedded\7 2017-q4-major\arm-none-eabi\include\c++\7.2.1\cmath **** 
 182:c:\program files (x86)\gnu tools arm embedded\7 2017-q4-major\arm-none-eabi\include\c++\7.2.1\cmath **** #ifndef __CORRECT_ISO_CPP_MATH_H_PROTO
 183:c:\program files (x86)\gnu tools arm embedded\7 2017-q4-major\arm-none-eabi\include\c++\7.2.1\cmath ****   inline _GLIBCXX_CONSTEXPR float
 184:c:\program files (x86)\gnu tools arm embedded\7 2017-q4-major\arm-none-eabi\include\c++\7.2.1\cmath ****   cos(float __x)
 185:c:\program files (x86)\gnu tools arm embedded\7 2017-q4-major\arm-none-eabi\include\c++\7.2.1\cmath ****   { return __builtin_cosf(__x); }
 186:c:\program files (x86)\gnu tools arm embedded\7 2017-q4-major\arm-none-eabi\include\c++\7.2.1\cmath **** 
 187:c:\program files (x86)\gnu tools arm embedded\7 2017-q4-major\arm-none-eabi\include\c++\7.2.1\cmath ****   inline _GLIBCXX_CONSTEXPR long double
 188:c:\program files (x86)\gnu tools arm embedded\7 2017-q4-major\arm-none-eabi\include\c++\7.2.1\cmath ****   cos(long double __x)
 189:c:\program files (x86)\gnu tools arm embedded\7 2017-q4-major\arm-none-eabi\include\c++\7.2.1\cmath ****   { return __builtin_cosl(__x); }
 190:c:\program files (x86)\gnu tools arm embedded\7 2017-q4-major\arm-none-eabi\include\c++\7.2.1\cmath **** #endif
 191:c:\program files (x86)\gnu tools arm embedded\7 2017-q4-major\arm-none-eabi\include\c++\7.2.1\cmath **** 
 192:c:\program files (x86)\gnu tools arm embedded\7 2017-q4-major\arm-none-eabi\include\c++\7.2.1\cmath ****   template<typename _Tp>
 193:c:\program files (x86)\gnu tools arm embedded\7 2017-q4-major\arm-none-eabi\include\c++\7.2.1\cmath ****     inline _GLIBCXX_CONSTEXPR
 194:c:\program files (x86)\gnu tools arm embedded\7 2017-q4-major\arm-none-eabi\include\c++\7.2.1\cmath ****     typename __gnu_cxx::__enable_if<__is_integer<_Tp>::__value,
 195:c:\program files (x86)\gnu tools arm embedded\7 2017-q4-major\arm-none-eabi\include\c++\7.2.1\cmath ****                                     double>::__type
 196:c:\program files (x86)\gnu tools arm embedded\7 2017-q4-major\arm-none-eabi\include\c++\7.2.1\cmath ****     cos(_Tp __x)
 197:c:\program files (x86)\gnu tools arm embedded\7 2017-q4-major\arm-none-eabi\include\c++\7.2.1\cmath ****     { return __builtin_cos(__x); }
 198:c:\program files (x86)\gnu tools arm embedded\7 2017-q4-major\arm-none-eabi\include\c++\7.2.1\cmath **** 
 199:c:\program files (x86)\gnu tools arm embedded\7 2017-q4-major\arm-none-eabi\include\c++\7.2.1\cmath ****   using ::cosh;
 200:c:\program files (x86)\gnu tools arm embedded\7 2017-q4-major\arm-none-eabi\include\c++\7.2.1\cmath **** 
 201:c:\program files (x86)\gnu tools arm embedded\7 2017-q4-major\arm-none-eabi\include\c++\7.2.1\cmath **** #ifndef __CORRECT_ISO_CPP_MATH_H_PROTO
 202:c:\program files (x86)\gnu tools arm embedded\7 2017-q4-major\arm-none-eabi\include\c++\7.2.1\cmath ****   inline _GLIBCXX_CONSTEXPR float
 203:c:\program files (x86)\gnu tools arm embedded\7 2017-q4-major\arm-none-eabi\include\c++\7.2.1\cmath ****   cosh(float __x)
 204:c:\program files (x86)\gnu tools arm embedded\7 2017-q4-major\arm-none-eabi\include\c++\7.2.1\cmath ****   { return __builtin_coshf(__x); }
 205:c:\program files (x86)\gnu tools arm embedded\7 2017-q4-major\arm-none-eabi\include\c++\7.2.1\cmath **** 
 206:c:\program files (x86)\gnu tools arm embedded\7 2017-q4-major\arm-none-eabi\include\c++\7.2.1\cmath ****   inline _GLIBCXX_CONSTEXPR long double
 207:c:\program files (x86)\gnu tools arm embedded\7 2017-q4-major\arm-none-eabi\include\c++\7.2.1\cmath ****   cosh(long double __x)
 208:c:\program files (x86)\gnu tools arm embedded\7 2017-q4-major\arm-none-eabi\include\c++\7.2.1\cmath ****   { return __builtin_coshl(__x); }
 209:c:\program files (x86)\gnu tools arm embedded\7 2017-q4-major\arm-none-eabi\include\c++\7.2.1\cmath **** #endif
 210:c:\program files (x86)\gnu tools arm embedded\7 2017-q4-major\arm-none-eabi\include\c++\7.2.1\cmath **** 
 211:c:\program files (x86)\gnu tools arm embedded\7 2017-q4-major\arm-none-eabi\include\c++\7.2.1\cmath ****   template<typename _Tp>
 212:c:\program files (x86)\gnu tools arm embedded\7 2017-q4-major\arm-none-eabi\include\c++\7.2.1\cmath ****     inline _GLIBCXX_CONSTEXPR
 213:c:\program files (x86)\gnu tools arm embedded\7 2017-q4-major\arm-none-eabi\include\c++\7.2.1\cmath ****     typename __gnu_cxx::__enable_if<__is_integer<_Tp>::__value,
 214:c:\program files (x86)\gnu tools arm embedded\7 2017-q4-major\arm-none-eabi\include\c++\7.2.1\cmath ****                                     double>::__type
 215:c:\program files (x86)\gnu tools arm embedded\7 2017-q4-major\arm-none-eabi\include\c++\7.2.1\cmath ****     cosh(_Tp __x)
 216:c:\program files (x86)\gnu tools arm embedded\7 2017-q4-major\arm-none-eabi\include\c++\7.2.1\cmath ****     { return __builtin_cosh(__x); }
 217:c:\program files (x86)\gnu tools arm embedded\7 2017-q4-major\arm-none-eabi\include\c++\7.2.1\cmath **** 
 218:c:\program files (x86)\gnu tools arm embedded\7 2017-q4-major\arm-none-eabi\include\c++\7.2.1\cmath ****   using ::exp;
 219:c:\program files (x86)\gnu tools arm embedded\7 2017-q4-major\arm-none-eabi\include\c++\7.2.1\cmath **** 
 220:c:\program files (x86)\gnu tools arm embedded\7 2017-q4-major\arm-none-eabi\include\c++\7.2.1\cmath **** #ifndef __CORRECT_ISO_CPP_MATH_H_PROTO
 221:c:\program files (x86)\gnu tools arm embedded\7 2017-q4-major\arm-none-eabi\include\c++\7.2.1\cmath ****   inline _GLIBCXX_CONSTEXPR float
 222:c:\program files (x86)\gnu tools arm embedded\7 2017-q4-major\arm-none-eabi\include\c++\7.2.1\cmath ****   exp(float __x)
ARM GAS  C:\Users\Prashant\AppData\Local\Temp\ccfG5dAc.s 			page 7


 223:c:\program files (x86)\gnu tools arm embedded\7 2017-q4-major\arm-none-eabi\include\c++\7.2.1\cmath ****   { return __builtin_expf(__x); }
 224:c:\program files (x86)\gnu tools arm embedded\7 2017-q4-major\arm-none-eabi\include\c++\7.2.1\cmath **** 
 225:c:\program files (x86)\gnu tools arm embedded\7 2017-q4-major\arm-none-eabi\include\c++\7.2.1\cmath ****   inline _GLIBCXX_CONSTEXPR long double
 226:c:\program files (x86)\gnu tools arm embedded\7 2017-q4-major\arm-none-eabi\include\c++\7.2.1\cmath ****   exp(long double __x)
 227:c:\program files (x86)\gnu tools arm embedded\7 2017-q4-major\arm-none-eabi\include\c++\7.2.1\cmath ****   { return __builtin_expl(__x); }
 228:c:\program files (x86)\gnu tools arm embedded\7 2017-q4-major\arm-none-eabi\include\c++\7.2.1\cmath **** #endif
 229:c:\program files (x86)\gnu tools arm embedded\7 2017-q4-major\arm-none-eabi\include\c++\7.2.1\cmath **** 
 230:c:\program files (x86)\gnu tools arm embedded\7 2017-q4-major\arm-none-eabi\include\c++\7.2.1\cmath ****   template<typename _Tp>
 231:c:\program files (x86)\gnu tools arm embedded\7 2017-q4-major\arm-none-eabi\include\c++\7.2.1\cmath ****     inline _GLIBCXX_CONSTEXPR
 232:c:\program files (x86)\gnu tools arm embedded\7 2017-q4-major\arm-none-eabi\include\c++\7.2.1\cmath ****     typename __gnu_cxx::__enable_if<__is_integer<_Tp>::__value,
 233:c:\program files (x86)\gnu tools arm embedded\7 2017-q4-major\arm-none-eabi\include\c++\7.2.1\cmath ****                                     double>::__type
 234:c:\program files (x86)\gnu tools arm embedded\7 2017-q4-major\arm-none-eabi\include\c++\7.2.1\cmath ****     exp(_Tp __x)
 235:c:\program files (x86)\gnu tools arm embedded\7 2017-q4-major\arm-none-eabi\include\c++\7.2.1\cmath ****     { return __builtin_exp(__x); }
 236:c:\program files (x86)\gnu tools arm embedded\7 2017-q4-major\arm-none-eabi\include\c++\7.2.1\cmath **** 
 237:c:\program files (x86)\gnu tools arm embedded\7 2017-q4-major\arm-none-eabi\include\c++\7.2.1\cmath ****   using ::fabs;
 238:c:\program files (x86)\gnu tools arm embedded\7 2017-q4-major\arm-none-eabi\include\c++\7.2.1\cmath **** 
 239:c:\program files (x86)\gnu tools arm embedded\7 2017-q4-major\arm-none-eabi\include\c++\7.2.1\cmath **** #ifndef __CORRECT_ISO_CPP_MATH_H_PROTO
 240:c:\program files (x86)\gnu tools arm embedded\7 2017-q4-major\arm-none-eabi\include\c++\7.2.1\cmath ****   inline _GLIBCXX_CONSTEXPR float
 241:c:\program files (x86)\gnu tools arm embedded\7 2017-q4-major\arm-none-eabi\include\c++\7.2.1\cmath ****   fabs(float __x)
 242:c:\program files (x86)\gnu tools arm embedded\7 2017-q4-major\arm-none-eabi\include\c++\7.2.1\cmath ****   { return __builtin_fabsf(__x); }
  87              		.loc 2 242 0
  88 003c B0EEE87A 		vabs.f32	s14, s17
  89              	.LVL8:
  90              	.LBE9:
  91              	.LBE8:
  36:Core/Src/robot/robot.cpp **** 	{
  37:Core/Src/robot/robot.cpp **** 		// leg[0].set_omega(leg_speed);
  38:Core/Src/robot/robot.cpp **** 	}
  39:Core/Src/robot/robot.cpp **** 
  40:Core/Src/robot/robot.cpp **** 	if (fabs(angle) != fabs(robot_angle))
  92              		.loc 1 40 0
  93 0040 814B     		ldr	r3, .L41+24
  94 0042 D3ED007A 		vldr.32	s15, [r3]
  95              	.LVL9:
  96              	.LBB10:
  97              	.LBB11:
  98              		.loc 2 242 0
  99 0046 F0EEE77A 		vabs.f32	s15, s15
 100              	.LVL10:
 101              	.LBE11:
 102              	.LBE10:
 103              		.loc 1 40 0
 104 004a B4EE677A 		vcmp.f32	s14, s15
 105 004e F1EE10FA 		vmrs	APSR_nzcv, FPSCR
 106 0052 00F08680 		beq	.L4
  41:Core/Src/robot/robot.cpp **** 	{
  42:Core/Src/robot/robot.cpp **** 		if (leg[0].is_raised())
 107              		.loc 1 42 0
 108 0056 7B48     		ldr	r0, .L41+20
 109 0058 FFF7FEFF 		bl	_ZN3leg9is_raisedEv
 110              	.LVL11:
 111 005c 0028     		cmp	r0, #0
 112 005e 53D0     		beq	.L5
  43:Core/Src/robot/robot.cpp **** 		{
  44:Core/Src/robot/robot.cpp **** 			if ((steering.get_angle() > -steering_angle_limit) && (steering.get_angle() < steering_angle_lim
 113              		.loc 1 44 0
 114 0060 7A48     		ldr	r0, .L41+28
ARM GAS  C:\Users\Prashant\AppData\Local\Temp\ccfG5dAc.s 			page 8


 115 0062 FFF7FEFF 		bl	_ZN8steering9get_angleEv
 116              	.LVL12:
 117 0066 DFED7A7A 		vldr.32	s15, .L41+32
 118 006a B4EEE70A 		vcmpe.f32	s0, s15
 119 006e F1EE10FA 		vmrs	APSR_nzcv, FPSCR
 120 0072 29DD     		ble	.L6
 121              		.loc 1 44 0 is_stmt 0 discriminator 1
 122 0074 7548     		ldr	r0, .L41+28
 123 0076 FFF7FEFF 		bl	_ZN8steering9get_angleEv
 124              	.LVL13:
 125 007a DFED767A 		vldr.32	s15, .L41+36
 126 007e B4EEE70A 		vcmpe.f32	s0, s15
 127 0082 F1EE10FA 		vmrs	APSR_nzcv, FPSCR
 128 0086 1FD5     		bpl	.L6
  45:Core/Src/robot/robot.cpp **** 			{
  46:Core/Src/robot/robot.cpp **** 				if (angle > (robot_angle + tolerence))
 129              		.loc 1 46 0 is_stmt 1
 130 0088 6F4B     		ldr	r3, .L41+24
 131 008a D3ED007A 		vldr.32	s15, [r3]
 132 008e 724B     		ldr	r3, .L41+40
 133 0090 93ED007A 		vldr.32	s14, [r3]
 134 0094 77EE876A 		vadd.f32	s13, s15, s14
 135 0098 F4EEE86A 		vcmpe.f32	s13, s17
 136 009c F1EE10FA 		vmrs	APSR_nzcv, FPSCR
 137 00a0 20D4     		bmi	.L40
  47:Core/Src/robot/robot.cpp **** 				{
  48:Core/Src/robot/robot.cpp **** 					steering.set_omega(steering_speed);
  49:Core/Src/robot/robot.cpp **** 					printf("+++");
  50:Core/Src/robot/robot.cpp **** 				}
  51:Core/Src/robot/robot.cpp **** 				else if (angle < (robot_angle - tolerence))
 138              		.loc 1 51 0
 139 00a2 77EEC77A 		vsub.f32	s15, s15, s14
 140 00a6 F4EEE87A 		vcmpe.f32	s15, s17
 141 00aa F1EE10FA 		vmrs	APSR_nzcv, FPSCR
 142 00ae 22DD     		ble	.L36
  52:Core/Src/robot/robot.cpp **** 				{
  53:Core/Src/robot/robot.cpp **** 					steering.set_omega(-steering_speed);
 143              		.loc 1 53 0
 144 00b0 9FED6A0A 		vldr.32	s0, .L41+44
 145 00b4 6548     		ldr	r0, .L41+28
 146 00b6 FFF7FEFF 		bl	_ZN8steering9set_omegaEf
 147              	.LVL14:
  54:Core/Src/robot/robot.cpp **** 					printf("---");
 148              		.loc 1 54 0
 149 00ba 6948     		ldr	r0, .L41+48
 150 00bc FFF7FEFF 		bl	printf
 151              	.LVL15:
 152              	.L13:
  55:Core/Src/robot/robot.cpp **** 				}
  56:Core/Src/robot/robot.cpp **** 				else
  57:Core/Src/robot/robot.cpp **** 				{
  58:Core/Src/robot/robot.cpp **** 					steering.set_omega(0);
  59:Core/Src/robot/robot.cpp **** 				}
  60:Core/Src/robot/robot.cpp **** 				printf("setting steering\t");
 153              		.loc 1 60 0
 154 00c0 6848     		ldr	r0, .L41+52
 155 00c2 FFF7FEFF 		bl	printf
ARM GAS  C:\Users\Prashant\AppData\Local\Temp\ccfG5dAc.s 			page 9


 156              	.LVL16:
 157 00c6 51E0     		b	.L16
 158              	.L6:
  61:Core/Src/robot/robot.cpp **** 			}
  62:Core/Src/robot/robot.cpp **** 			else
  63:Core/Src/robot/robot.cpp **** 			{
  64:Core/Src/robot/robot.cpp **** 				steering.set_omega((steering.get_angle()>0)?-steering_speed:steering_speed);
 159              		.loc 1 64 0 discriminator 4
 160 00c8 6048     		ldr	r0, .L41+28
 161 00ca FFF7FEFF 		bl	_ZN8steering9get_angleEv
 162              	.LVL17:
 163 00ce B5EEC00A 		vcmpe.f32	s0, #0
 164 00d2 F1EE10FA 		vmrs	APSR_nzcv, FPSCR
 165 00d6 14DD     		ble	.L35
 166              		.loc 1 64 0 is_stmt 0
 167 00d8 9FED600A 		vldr.32	s0, .L41+44
 168              	.L11:
 169              		.loc 1 64 0 discriminator 4
 170 00dc 5B48     		ldr	r0, .L41+28
 171 00de FFF7FEFF 		bl	_ZN8steering9set_omegaEf
 172              	.LVL18:
 173 00e2 43E0     		b	.L16
 174              	.L40:
  48:Core/Src/robot/robot.cpp **** 					printf("+++");
 175              		.loc 1 48 0 is_stmt 1
 176 00e4 9FED600A 		vldr.32	s0, .L41+56
 177 00e8 5848     		ldr	r0, .L41+28
 178 00ea FFF7FEFF 		bl	_ZN8steering9set_omegaEf
 179              	.LVL19:
  49:Core/Src/robot/robot.cpp **** 				}
 180              		.loc 1 49 0
 181 00ee 5F48     		ldr	r0, .L41+60
 182 00f0 FFF7FEFF 		bl	printf
 183              	.LVL20:
 184 00f4 E4E7     		b	.L13
 185              	.L36:
  58:Core/Src/robot/robot.cpp **** 				}
 186              		.loc 1 58 0
 187 00f6 9FED5E0A 		vldr.32	s0, .L41+64
 188 00fa 5448     		ldr	r0, .L41+28
 189 00fc FFF7FEFF 		bl	_ZN8steering9set_omegaEf
 190              	.LVL21:
 191 0100 DEE7     		b	.L13
 192              	.L35:
 193              		.loc 1 64 0
 194 0102 9FED590A 		vldr.32	s0, .L41+56
 195 0106 E9E7     		b	.L11
 196              	.L5:
  65:Core/Src/robot/robot.cpp **** 				//steering.set_omega(0);
  66:Core/Src/robot/robot.cpp **** 			}
  67:Core/Src/robot/robot.cpp **** 		}
  68:Core/Src/robot/robot.cpp **** 		else
  69:Core/Src/robot/robot.cpp **** 		{
  70:Core/Src/robot/robot.cpp **** 			if (steering.get_angle() > (tolerence))
 197              		.loc 1 70 0
 198 0108 5048     		ldr	r0, .L41+28
 199 010a FFF7FEFF 		bl	_ZN8steering9get_angleEv
ARM GAS  C:\Users\Prashant\AppData\Local\Temp\ccfG5dAc.s 			page 10


 200              	.LVL22:
 201 010e 524B     		ldr	r3, .L41+40
 202 0110 D3ED007A 		vldr.32	s15, [r3]
 203 0114 B4EEE70A 		vcmpe.f32	s0, s15
 204 0118 F1EE10FA 		vmrs	APSR_nzcv, FPSCR
 205 011c 08DD     		ble	.L37
  71:Core/Src/robot/robot.cpp **** 			{
  72:Core/Src/robot/robot.cpp **** 				steering.set_omega(-steering_speed);
 206              		.loc 1 72 0
 207 011e 9FED4F0A 		vldr.32	s0, .L41+44
 208 0122 4A48     		ldr	r0, .L41+28
 209 0124 FFF7FEFF 		bl	_ZN8steering9set_omegaEf
 210              	.LVL23:
 211              	.L19:
  73:Core/Src/robot/robot.cpp **** 			}
  74:Core/Src/robot/robot.cpp **** 			else if (steering.get_angle() < (-tolerence))
  75:Core/Src/robot/robot.cpp **** 			{
  76:Core/Src/robot/robot.cpp **** 				steering.set_omega(steering_speed);
  77:Core/Src/robot/robot.cpp **** 			}
  78:Core/Src/robot/robot.cpp **** 			else
  79:Core/Src/robot/robot.cpp **** 			{
  80:Core/Src/robot/robot.cpp **** 				steering.set_omega(0);
  81:Core/Src/robot/robot.cpp **** 			}
  82:Core/Src/robot/robot.cpp **** 			printf("resetting steering\t");
 212              		.loc 1 82 0
 213 0128 5248     		ldr	r0, .L41+68
 214 012a FFF7FEFF 		bl	printf
 215              	.LVL24:
 216 012e 1DE0     		b	.L16
 217              	.L37:
  74:Core/Src/robot/robot.cpp **** 			{
 218              		.loc 1 74 0
 219 0130 4648     		ldr	r0, .L41+28
 220 0132 FFF7FEFF 		bl	_ZN8steering9get_angleEv
 221              	.LVL25:
 222 0136 484B     		ldr	r3, .L41+40
 223 0138 D3ED007A 		vldr.32	s15, [r3]
 224 013c F1EE677A 		vneg.f32	s15, s15
 225 0140 B4EEE70A 		vcmpe.f32	s0, s15
 226 0144 F1EE10FA 		vmrs	APSR_nzcv, FPSCR
 227 0148 05D5     		bpl	.L38
  76:Core/Src/robot/robot.cpp **** 			}
 228              		.loc 1 76 0
 229 014a 9FED470A 		vldr.32	s0, .L41+56
 230 014e 3F48     		ldr	r0, .L41+28
 231 0150 FFF7FEFF 		bl	_ZN8steering9set_omegaEf
 232              	.LVL26:
 233 0154 E8E7     		b	.L19
 234              	.L38:
  80:Core/Src/robot/robot.cpp **** 			}
 235              		.loc 1 80 0
 236 0156 9FED460A 		vldr.32	s0, .L41+64
 237 015a 3C48     		ldr	r0, .L41+28
 238 015c FFF7FEFF 		bl	_ZN8steering9set_omegaEf
 239              	.LVL27:
 240 0160 E2E7     		b	.L19
 241              	.L4:
ARM GAS  C:\Users\Prashant\AppData\Local\Temp\ccfG5dAc.s 			page 11


  83:Core/Src/robot/robot.cpp **** 		}
  84:Core/Src/robot/robot.cpp **** 	}
  85:Core/Src/robot/robot.cpp **** 	else
  86:Core/Src/robot/robot.cpp **** 	{
  87:Core/Src/robot/robot.cpp **** 		steering.set_omega(0);
 242              		.loc 1 87 0
 243 0162 9FED430A 		vldr.32	s0, .L41+64
 244 0166 3948     		ldr	r0, .L41+28
 245 0168 FFF7FEFF 		bl	_ZN8steering9set_omegaEf
 246              	.LVL28:
 247              	.L16:
  88:Core/Src/robot/robot.cpp **** 	}
  89:Core/Src/robot/robot.cpp **** 
  90:Core/Src/robot/robot.cpp **** 	printf("\nrobot_angle = %d \t steering_angle = %d", (int)(robot_angle*100), (int)(steering.get_ang
 248              		.loc 1 90 0
 249 016c 364B     		ldr	r3, .L41+24
 250 016e 93ED009A 		vldr.32	s18, [r3]
 251 0172 9FED418A 		vldr.32	s16, .L41+72
 252 0176 29EE089A 		vmul.f32	s18, s18, s16
 253 017a 3448     		ldr	r0, .L41+28
 254 017c FFF7FEFF 		bl	_ZN8steering9get_angleEv
 255              	.LVL29:
 256 0180 20EE080A 		vmul.f32	s0, s0, s16
 257 0184 FDEEC07A 		vcvt.s32.f32	s15, s0
 258 0188 17EE902A 		vmov	r2, s15	@ int
 259 018c FDEEC97A 		vcvt.s32.f32	s15, s18
 260 0190 17EE901A 		vmov	r1, s15	@ int
 261 0194 3948     		ldr	r0, .L41+76
 262 0196 FFF7FEFF 		bl	printf
 263              	.LVL30:
  91:Core/Src/robot/robot.cpp **** 
  92:Core/Src/robot/robot.cpp **** 
  93:Core/Src/robot/robot.cpp **** 	if (leg[0].is_raised())
 264              		.loc 1 93 0
 265 019a 2A48     		ldr	r0, .L41+20
 266 019c FFF7FEFF 		bl	_ZN3leg9is_raisedEv
 267              	.LVL31:
 268 01a0 50B3     		cbz	r0, .L22
  94:Core/Src/robot/robot.cpp **** 	{
  95:Core/Src/robot/robot.cpp **** 		robot_angle = steering.get_angle() + temp_robot_angle;
 269              		.loc 1 95 0
 270 01a2 2A48     		ldr	r0, .L41+28
 271 01a4 FFF7FEFF 		bl	_ZN8steering9get_angleEv
 272              	.LVL32:
 273 01a8 354B     		ldr	r3, .L41+80
 274 01aa D3ED007A 		vldr.32	s15, [r3]
 275 01ae 30EE270A 		vadd.f32	s0, s0, s15
 276 01b2 254B     		ldr	r3, .L41+24
 277 01b4 83ED000A 		vstr.32	s0, [r3]
 278              	.L23:
  96:Core/Src/robot/robot.cpp **** 	}
  97:Core/Src/robot/robot.cpp **** 	else
  98:Core/Src/robot/robot.cpp **** 	{
  99:Core/Src/robot/robot.cpp **** 		temp_robot_angle = robot_angle - steering.get_angle();
 100:Core/Src/robot/robot.cpp **** 	}
 101:Core/Src/robot/robot.cpp **** 
 102:Core/Src/robot/robot.cpp **** 	if ((leg[0].get_steps() >= steps) && (fabs(angle-robot_angle) <= 0.05 ))
ARM GAS  C:\Users\Prashant\AppData\Local\Temp\ccfG5dAc.s 			page 12


 279              		.loc 1 102 0
 280 01b8 2248     		ldr	r0, .L41+20
 281 01ba FFF7FEFF 		bl	_ZN3leg9get_stepsEv
 282              	.LVL33:
 283 01be A042     		cmp	r0, r4
 284 01c0 10DB     		blt	.L24
 285              		.loc 1 102 0 is_stmt 0 discriminator 1
 286 01c2 214B     		ldr	r3, .L41+24
 287 01c4 D3ED007A 		vldr.32	s15, [r3]
 288 01c8 78EEE78A 		vsub.f32	s17, s17, s15
 289              	.LVL34:
 290 01cc F0EEE87A 		vabs.f32	s15, s17
 291 01d0 17EE900A 		vmov	r0, s15
 292 01d4 FFF7FEFF 		bl	__aeabi_f2d
 293              	.LVL35:
 294 01d8 15A3     		adr	r3, .L41
 295 01da D3E90023 		ldrd	r2, [r3]
 296 01de FFF7FEFF 		bl	__aeabi_dcmple
 297              	.LVL36:
 298 01e2 A8B9     		cbnz	r0, .L25
 299              	.L24:
 103:Core/Src/robot/robot.cpp **** 	{
 104:Core/Src/robot/robot.cpp **** 		leg[0].set_omega(0);
 105:Core/Src/robot/robot.cpp **** 		steering.set_omega(0);
 106:Core/Src/robot/robot.cpp **** 		//printf("Completed\n");
 107:Core/Src/robot/robot.cpp **** 		return true;
 108:Core/Src/robot/robot.cpp **** 	}
 109:Core/Src/robot/robot.cpp **** 	else
 110:Core/Src/robot/robot.cpp **** 	{
 111:Core/Src/robot/robot.cpp **** 		leg[0].set_omega(leg_speed);
 300              		.loc 1 111 0 is_stmt 1 discriminator 4
 301 01e4 144B     		ldr	r3, .L41+8
 302 01e6 93ED000A 		vldr.32	s0, [r3]
 303 01ea 1648     		ldr	r0, .L41+20
 304 01ec FFF7FEFF 		bl	_ZN3leg9set_omegaEf
 305              	.LVL37:
 112:Core/Src/robot/robot.cpp **** 		//printf("Not Completed\n");
 113:Core/Src/robot/robot.cpp **** 		return false;
 306              		.loc 1 113 0 discriminator 4
 307 01f0 0020     		movs	r0, #0
 308              	.L26:
 114:Core/Src/robot/robot.cpp **** 	}
 115:Core/Src/robot/robot.cpp **** }
 309              		.loc 1 115 0
 310 01f2 BDEC048B 		vldm	sp!, {d8-d9}
 311              	.LCFI2:
 312              		.cfi_remember_state
 313              		.cfi_restore 82
 314              		.cfi_restore 83
 315              		.cfi_restore 80
 316              		.cfi_restore 81
 317              		.cfi_def_cfa_offset 8
 318 01f6 10BD     		pop	{r4, pc}
 319              	.LVL38:
 320              	.L22:
 321              	.LCFI3:
 322              		.cfi_restore_state
ARM GAS  C:\Users\Prashant\AppData\Local\Temp\ccfG5dAc.s 			page 13


  99:Core/Src/robot/robot.cpp **** 	}
 323              		.loc 1 99 0
 324 01f8 134B     		ldr	r3, .L41+24
 325 01fa 93ED008A 		vldr.32	s16, [r3]
 326 01fe 1348     		ldr	r0, .L41+28
 327 0200 FFF7FEFF 		bl	_ZN8steering9get_angleEv
 328              	.LVL39:
 329 0204 38EE400A 		vsub.f32	s0, s16, s0
 330 0208 1D4B     		ldr	r3, .L41+80
 331 020a 83ED000A 		vstr.32	s0, [r3]
 332 020e D3E7     		b	.L23
 333              	.LVL40:
 334              	.L25:
 104:Core/Src/robot/robot.cpp **** 		steering.set_omega(0);
 335              		.loc 1 104 0
 336 0210 9FED178A 		vldr.32	s16, .L41+64
 337 0214 B0EE480A 		vmov.f32	s0, s16
 338 0218 0A48     		ldr	r0, .L41+20
 339 021a FFF7FEFF 		bl	_ZN3leg9set_omegaEf
 340              	.LVL41:
 105:Core/Src/robot/robot.cpp **** 		//printf("Completed\n");
 341              		.loc 1 105 0
 342 021e B0EE480A 		vmov.f32	s0, s16
 343 0222 0A48     		ldr	r0, .L41+28
 344 0224 FFF7FEFF 		bl	_ZN8steering9set_omegaEf
 345              	.LVL42:
 107:Core/Src/robot/robot.cpp **** 	}
 346              		.loc 1 107 0
 347 0228 0120     		movs	r0, #1
 348 022a E2E7     		b	.L26
 349              	.L42:
 350 022c AFF30080 		.align	3
 351              	.L41:
 352 0230 9A999999 		.word	-1717986918
 353 0234 9999A93F 		.word	1068079513
 354 0238 00000000 		.word	.LANCHOR0
 355 023c 00007041 		.word	1097859072
 356 0240 00002041 		.word	1092616192
 357 0244 00000000 		.word	leg
 358 0248 00000000 		.word	.LANCHOR1
 359 024c 00000000 		.word	steering
 360 0250 9A9919BE 		.word	-1105618534
 361 0254 9A99193E 		.word	1041865114
 362 0258 00000000 		.word	.LANCHOR2
 363 025c 9A9919BF 		.word	-1088841318
 364 0260 04000000 		.word	.LC1
 365 0264 08000000 		.word	.LC2
 366 0268 9A99193F 		.word	1058642330
 367 026c 00000000 		.word	.LC0
 368 0270 00000000 		.word	0
 369 0274 1C000000 		.word	.LC3
 370 0278 0000C842 		.word	1120403456
 371 027c 30000000 		.word	.LC4
 372 0280 00000000 		.word	.LANCHOR3
 373 0284 399D52A2 		.word	-1571644103
 374 0288 46DF913F 		.word	1066524486
 375              		.cfi_endproc
ARM GAS  C:\Users\Prashant\AppData\Local\Temp\ccfG5dAc.s 			page 14


 376              	.LFE453:
 378              		.section	.text._Z4playv,"ax",%progbits
 379              		.align	1
 380              		.global	_Z4playv
 381              		.syntax unified
 382              		.thumb
 383              		.thumb_func
 384              		.fpu fpv4-sp-d16
 386              	_Z4playv:
 387              	.LFB454:
 116:Core/Src/robot/robot.cpp **** 
 117:Core/Src/robot/robot.cpp **** bool play()
 118:Core/Src/robot/robot.cpp **** {
 388              		.loc 1 118 0
 389              		.cfi_startproc
 390              		@ args = 0, pretend = 0, frame = 0
 391              		@ frame_needed = 0, uses_anonymous_args = 0
 392 0000 38B5     		push	{r3, r4, r5, lr}
 393              	.LCFI4:
 394              		.cfi_def_cfa_offset 16
 395              		.cfi_offset 3, -16
 396              		.cfi_offset 4, -12
 397              		.cfi_offset 5, -8
 398              		.cfi_offset 14, -4
 119:Core/Src/robot/robot.cpp **** 	uint32_t dt = HAL_GetTick();
 399              		.loc 1 119 0
 400 0002 FFF7FEFF 		bl	HAL_GetTick
 401              	.LVL43:
 402 0006 0446     		mov	r4, r0
 403              	.LVL44:
 404              	.L44:
 405              	.LBB12:
 120:Core/Src/robot/robot.cpp **** 	while (true)
 121:Core/Src/robot/robot.cpp **** 	// {
 122:Core/Src/robot/robot.cpp **** 	// 	if ((HAL_GetTick() - dt) >= (int)(SAMPLE_TIME))
 123:Core/Src/robot/robot.cpp **** 	// 	{
 124:Core/Src/robot/robot.cpp **** 	// 		dt = HAL_GetTick();
 125:Core/Src/robot/robot.cpp **** 	// 		if (go(6,0) == true)
 126:Core/Src/robot/robot.cpp **** 	// 			break;
 127:Core/Src/robot/robot.cpp **** 	// 	}
 128:Core/Src/robot/robot.cpp **** 	// }
 129:Core/Src/robot/robot.cpp **** 	for (int i = 0; i < 6; i++)
 406              		.loc 1 129 0
 407 0008 0025     		movs	r5, #0
 408              	.LVL45:
 409              	.L47:
 410              		.loc 1 129 0 is_stmt 0 discriminator 1
 411 000a 052D     		cmp	r5, #5
 412 000c FCDC     		bgt	.L44
 413              	.L45:
 130:Core/Src/robot/robot.cpp **** 	{
 131:Core/Src/robot/robot.cpp **** 		while (true)
 132:Core/Src/robot/robot.cpp **** 		{
 133:Core/Src/robot/robot.cpp **** 			if ((HAL_GetTick() - dt) >= (int)(SAMPLE_TIME))
 414              		.loc 1 133 0 is_stmt 1
 415 000e FFF7FEFF 		bl	HAL_GetTick
 416              	.LVL46:
ARM GAS  C:\Users\Prashant\AppData\Local\Temp\ccfG5dAc.s 			page 15


 417 0012 001B     		subs	r0, r0, r4
 418 0014 0928     		cmp	r0, #9
 419 0016 FAD9     		bls	.L45
 134:Core/Src/robot/robot.cpp **** 			{
 135:Core/Src/robot/robot.cpp **** 				dt = HAL_GetTick();
 420              		.loc 1 135 0
 421 0018 FFF7FEFF 		bl	HAL_GetTick
 422              	.LVL47:
 423 001c 0446     		mov	r4, r0
 424              	.LVL48:
 136:Core/Src/robot/robot.cpp **** 				if (go(steps[i], angles[i]) == true)
 425              		.loc 1 136 0
 426 001e A900     		lsls	r1, r5, #2
 427 0020 0A4A     		ldr	r2, .L49
 428 0022 0A44     		add	r2, r2, r1
 429 0024 D2ED007A 		vldr.32	s15, [r2]
 430 0028 094B     		ldr	r3, .L49+4
 431 002a 0B44     		add	r3, r3, r1
 432 002c 93ED000A 		vldr.32	s0, [r3]
 433 0030 FDEEE77A 		vcvt.s32.f32	s15, s15
 434 0034 17EE900A 		vmov	r0, s15	@ int
 435              	.LVL49:
 436 0038 FFF7FEFF 		bl	_Z2goif
 437              	.LVL50:
 438 003c 0028     		cmp	r0, #0
 439 003e E6D0     		beq	.L45
 137:Core/Src/robot/robot.cpp **** 					break;
 138:Core/Src/robot/robot.cpp **** 			}
 139:Core/Src/robot/robot.cpp **** 		}
 140:Core/Src/robot/robot.cpp **** 		printf ("\tstep=%d\t", i);
 440              		.loc 1 140 0 discriminator 2
 441 0040 2946     		mov	r1, r5
 442 0042 0448     		ldr	r0, .L49+8
 443 0044 FFF7FEFF 		bl	printf
 444              	.LVL51:
 129:Core/Src/robot/robot.cpp **** 	{
 445              		.loc 1 129 0 discriminator 2
 446 0048 0135     		adds	r5, r5, #1
 447              	.LVL52:
 448 004a DEE7     		b	.L47
 449              	.L50:
 450              		.align	2
 451              	.L49:
 452 004c 00000000 		.word	.LANCHOR4
 453 0050 00000000 		.word	.LANCHOR5
 454 0054 00000000 		.word	.LC5
 455              	.LBE12:
 456              		.cfi_endproc
 457              	.LFE454:
 459              		.global	angles
 460              		.global	steps
 461              		.global	tolerence
 462              		.global	robo_angle_flag
 463              		.global	temp_robot_angle
 464              		.global	robot_angle
 465              		.section	.bss.robot_angle,"aw",%nobits
 466              		.align	2
ARM GAS  C:\Users\Prashant\AppData\Local\Temp\ccfG5dAc.s 			page 16


 467              		.set	.LANCHOR1,. + 0
 470              	robot_angle:
 471 0000 00000000 		.space	4
 472              		.section	.bss.temp_robot_angle,"aw",%nobits
 473              		.align	2
 474              		.set	.LANCHOR3,. + 0
 477              	temp_robot_angle:
 478 0000 00000000 		.space	4
 479              		.section	.data._ZL9leg_speed,"aw",%progbits
 480              		.align	2
 481              		.set	.LANCHOR0,. + 0
 484              	_ZL9leg_speed:
 485 0000 00007041 		.word	1097859072
 486              		.section	.data.angles,"aw",%progbits
 487              		.align	2
 488              		.set	.LANCHOR5,. + 0
 491              	angles:
 492 0000 00000000 		.word	0
 493 0004 00003442 		.word	1110704128
 494 0008 00003442 		.word	1110704128
 495 000c 00004842 		.word	1112014848
 496 0010 00000000 		.word	0
 497 0014 00000000 		.word	0
 498              		.section	.data.robo_angle_flag,"aw",%progbits
 501              	robo_angle_flag:
 502 0000 01       		.byte	1
 503              		.section	.data.steps,"aw",%progbits
 504              		.align	2
 505              		.set	.LANCHOR4,. + 0
 508              	steps:
 509 0000 00002041 		.word	1092616192
 510 0004 00007041 		.word	1097859072
 511 0008 0000B841 		.word	1102577664
 512 000c 0000D041 		.word	1104150528
 513 0010 00002042 		.word	1109393408
 514 0014 0000A042 		.word	1117782016
 515              		.section	.data.tolerence,"aw",%progbits
 516              		.align	2
 517              		.set	.LANCHOR2,. + 0
 520              	tolerence:
 521 0000 35FA8E3C 		.word	1016003125
 522              		.section	.rodata._Z2goif.str1.4,"aMS",%progbits,1
 523              		.align	2
 524              	.LC0:
 525 0000 2B2B2B00 		.ascii	"+++\000"
 526              	.LC1:
 527 0004 2D2D2D00 		.ascii	"---\000"
 528              	.LC2:
 529 0008 73657474 		.ascii	"setting steering\011\000"
 529      696E6720 
 529      73746565 
 529      72696E67 
 529      0900
 530 001a 0000     		.space	2
 531              	.LC3:
 532 001c 72657365 		.ascii	"resetting steering\011\000"
 532      7474696E 
ARM GAS  C:\Users\Prashant\AppData\Local\Temp\ccfG5dAc.s 			page 17


 532      67207374 
 532      65657269 
 532      6E670900 
 533              	.LC4:
 534 0030 0A726F62 		.ascii	"\012robot_angle = %d \011 steering_angle = %d\000"
 534      6F745F61 
 534      6E676C65 
 534      203D2025 
 534      64200920 
 535              		.section	.rodata._Z4playv.str1.4,"aMS",%progbits,1
 536              		.align	2
 537              	.LC5:
 538 0000 09737465 		.ascii	"\011step=%d\011\000"
 538      703D2564 
 538      0900
 539              		.text
 540              	.Letext0:
 541              		.file 3 "c:\\program files (x86)\\gnu tools arm embedded\\7 2017-q4-major\\arm-none-eabi\\include\
 542              		.file 4 "c:\\program files (x86)\\gnu tools arm embedded\\7 2017-q4-major\\arm-none-eabi\\include\
 543              		.file 5 "Drivers/CMSIS/Include/core_cm4.h"
 544              		.file 6 "Drivers/CMSIS/Device/ST/STM32F4xx/Include/system_stm32f4xx.h"
 545              		.file 7 "Drivers/CMSIS/Device/ST/STM32F4xx/Include/stm32f407xx.h"
 546              		.file 8 "c:\\program files (x86)\\gnu tools arm embedded\\7 2017-q4-major\\arm-none-eabi\\include\
 547              		.file 9 "c:\\program files (x86)\\gnu tools arm embedded\\7 2017-q4-major\\arm-none-eabi\\include\
 548              		.file 10 "c:\\program files (x86)\\gnu tools arm embedded\\7 2017-q4-major\\lib\\gcc\\arm-none-eab
 549              		.file 11 "c:\\program files (x86)\\gnu tools arm embedded\\7 2017-q4-major\\arm-none-eabi\\include
 550              		.file 12 "Drivers/STM32F4xx_HAL_Driver/Inc/stm32f4xx_hal_def.h"
 551              		.file 13 "Drivers/STM32F4xx_HAL_Driver/Inc/stm32f4xx_hal_dma.h"
 552              		.file 14 "Drivers/STM32F4xx_HAL_Driver/Inc/stm32f4xx_hal_tim.h"
 553              		.file 15 "Drivers/STM32F4xx_HAL_Driver/Inc/stm32f4xx_hal_uart.h"
 554              		.file 16 "Core/Inc/periphs/tim.h"
 555              		.file 17 "c:\\program files (x86)\\gnu tools arm embedded\\7 2017-q4-major\\arm-none-eabi\\include
 556              		.file 18 "c:\\program files (x86)\\gnu tools arm embedded\\7 2017-q4-major\\arm-none-eabi\\include
 557              		.file 19 "c:\\program files (x86)\\gnu tools arm embedded\\7 2017-q4-major\\arm-none-eabi\\include
 558              		.file 20 "c:\\program files (x86)\\gnu tools arm embedded\\7 2017-q4-major\\arm-none-eabi\\include
 559              		.file 21 "Core/Inc/devs/motor.h"
 560              		.file 22 "Core/Inc/devs/encoder.h"
 561              		.file 23 "Core/Inc/utils/pid_algorithms.h"
 562              		.file 24 "Core/Inc/devs/limit_switch.h"
 563              		.file 25 "Core/Inc/devs/leg.h"
 564              		.file 26 "Core/Inc/devs/steering.h"
 565              		.file 27 "Core/Inc/periphs/usart.h"
 566              		.file 28 "Drivers/STM32F4xx_HAL_Driver/Inc/stm32f4xx_hal.h"
 567              		.file 29 "c:\\program files (x86)\\gnu tools arm embedded\\7 2017-q4-major\\arm-none-eabi\\include
 568              		.file 30 "<built-in>"
ARM GAS  C:\Users\Prashant\AppData\Local\Temp\ccfG5dAc.s 			page 18


DEFINED SYMBOLS
                            *ABS*:00000000 robot.cpp
C:\Users\Prashant\AppData\Local\Temp\ccfG5dAc.s:22     .text._Z2goif:00000000 $t
C:\Users\Prashant\AppData\Local\Temp\ccfG5dAc.s:29     .text._Z2goif:00000000 _Z2goif
C:\Users\Prashant\AppData\Local\Temp\ccfG5dAc.s:352    .text._Z2goif:00000230 $d
C:\Users\Prashant\AppData\Local\Temp\ccfG5dAc.s:379    .text._Z4playv:00000000 $t
C:\Users\Prashant\AppData\Local\Temp\ccfG5dAc.s:386    .text._Z4playv:00000000 _Z4playv
C:\Users\Prashant\AppData\Local\Temp\ccfG5dAc.s:452    .text._Z4playv:0000004c $d
C:\Users\Prashant\AppData\Local\Temp\ccfG5dAc.s:491    .data.angles:00000000 angles
C:\Users\Prashant\AppData\Local\Temp\ccfG5dAc.s:508    .data.steps:00000000 steps
C:\Users\Prashant\AppData\Local\Temp\ccfG5dAc.s:520    .data.tolerence:00000000 tolerence
C:\Users\Prashant\AppData\Local\Temp\ccfG5dAc.s:501    .data.robo_angle_flag:00000000 robo_angle_flag
C:\Users\Prashant\AppData\Local\Temp\ccfG5dAc.s:477    .bss.temp_robot_angle:00000000 temp_robot_angle
C:\Users\Prashant\AppData\Local\Temp\ccfG5dAc.s:470    .bss.robot_angle:00000000 robot_angle
C:\Users\Prashant\AppData\Local\Temp\ccfG5dAc.s:466    .bss.robot_angle:00000000 $d
C:\Users\Prashant\AppData\Local\Temp\ccfG5dAc.s:473    .bss.temp_robot_angle:00000000 $d
C:\Users\Prashant\AppData\Local\Temp\ccfG5dAc.s:480    .data._ZL9leg_speed:00000000 $d
C:\Users\Prashant\AppData\Local\Temp\ccfG5dAc.s:484    .data._ZL9leg_speed:00000000 _ZL9leg_speed
C:\Users\Prashant\AppData\Local\Temp\ccfG5dAc.s:487    .data.angles:00000000 $d
C:\Users\Prashant\AppData\Local\Temp\ccfG5dAc.s:504    .data.steps:00000000 $d
C:\Users\Prashant\AppData\Local\Temp\ccfG5dAc.s:516    .data.tolerence:00000000 $d
C:\Users\Prashant\AppData\Local\Temp\ccfG5dAc.s:523    .rodata._Z2goif.str1.4:00000000 $d
C:\Users\Prashant\AppData\Local\Temp\ccfG5dAc.s:536    .rodata._Z4playv.str1.4:00000000 $d

UNDEFINED SYMBOLS
__aeabi_f2d
__aeabi_dmul
__aeabi_d2f
__aeabi_dcmple
_ZN3leg9get_stepsEv
_ZN3leg9is_raisedEv
_ZN8steering9get_angleEv
_ZN8steering9set_omegaEf
printf
_ZN3leg9set_omegaEf
leg
steering
HAL_GetTick
