ARM GAS  C:\Users\Prashant\AppData\Local\Temp\ccjmGCBP.s 			page 1


   1              		.cpu cortex-m4
   2              		.eabi_attribute 27, 1
   3              		.eabi_attribute 28, 1
   4              		.eabi_attribute 20, 1
   5              		.eabi_attribute 21, 1
   6              		.eabi_attribute 23, 3
   7              		.eabi_attribute 24, 1
   8              		.eabi_attribute 25, 1
   9              		.eabi_attribute 26, 1
  10              		.eabi_attribute 30, 1
  11              		.eabi_attribute 34, 1
  12              		.eabi_attribute 18, 4
  13              		.file	"steering.cpp"
  14              		.text
  15              	.Ltext0:
  16              		.cfi_sections	.debug_frame
  17              		.section	.text._ZN8steering9set_omegaEf,"ax",%progbits
  18              		.align	1
  19              		.global	_ZN8steering9set_omegaEf
  20              		.syntax unified
  21              		.thumb
  22              		.thumb_func
  23              		.fpu fpv4-sp-d16
  25              	_ZN8steering9set_omegaEf:
  26              	.LFB383:
  27              		.file 1 "Core/Src/devs/steering.cpp"
   1:Core/Src/devs/steering.cpp **** #include "steering.h"
   2:Core/Src/devs/steering.cpp **** 
   3:Core/Src/devs/steering.cpp **** void steering::set_omega(float omega){
  28              		.loc 1 3 0
  29              		.cfi_startproc
  30              		@ args = 0, pretend = 0, frame = 0
  31              		@ frame_needed = 0, uses_anonymous_args = 0
  32              	.LVL0:
  33 0000 70B5     		push	{r4, r5, r6, lr}
  34              	.LCFI0:
  35              		.cfi_def_cfa_offset 16
  36              		.cfi_offset 4, -16
  37              		.cfi_offset 5, -12
  38              		.cfi_offset 6, -8
  39              		.cfi_offset 14, -4
  40 0002 2DED028B 		vpush.64	{d8}
  41              	.LCFI1:
  42              		.cfi_def_cfa_offset 24
  43              		.cfi_offset 80, -24
  44              		.cfi_offset 81, -20
  45 0006 0446     		mov	r4, r0
  46 0008 B0EE408A 		vmov.f32	s16, s0
   4:Core/Src/devs/steering.cpp **** 	encoder__.calculate_omega();
  47              		.loc 1 4 0
  48 000c 00F10C06 		add	r6, r0, #12
  49 0010 3046     		mov	r0, r6
  50              	.LVL1:
  51 0012 FFF7FEFF 		bl	_ZN7encoder15calculate_omegaEv
  52              	.LVL2:
   5:Core/Src/devs/steering.cpp **** 	motor__.set_omega(omega);
  53              		.loc 1 5 0
ARM GAS  C:\Users\Prashant\AppData\Local\Temp\ccjmGCBP.s 			page 2


  54 0016 04F10805 		add	r5, r4, #8
  55 001a B0EE480A 		vmov.f32	s0, s16
  56 001e 2846     		mov	r0, r5
  57 0020 FFF7FEFF 		bl	_ZN5motor9set_omegaEf
  58              	.LVL3:
   6:Core/Src/devs/steering.cpp **** 	float computed_omega = pid__.compute_pid(encoder__.get_omega(), omega);
  59              		.loc 1 6 0
  60 0024 1C34     		adds	r4, r4, #28
  61              	.LVL4:
  62 0026 3046     		mov	r0, r6
  63 0028 FFF7FEFF 		bl	_ZN7encoder9get_omegaEv
  64              	.LVL5:
  65 002c F0EE480A 		vmov.f32	s1, s16
  66 0030 2046     		mov	r0, r4
  67 0032 FFF7FEFF 		bl	_ZN3pid11compute_pidEff
  68              	.LVL6:
   7:Core/Src/devs/steering.cpp **** 	motor__.set_omega(computed_omega);
  69              		.loc 1 7 0
  70 0036 2846     		mov	r0, r5
  71 0038 FFF7FEFF 		bl	_ZN5motor9set_omegaEf
  72              	.LVL7:
   8:Core/Src/devs/steering.cpp **** }
  73              		.loc 1 8 0
  74 003c BDEC028B 		vldm	sp!, {d8}
  75              	.LCFI2:
  76              		.cfi_restore 80
  77              		.cfi_restore 81
  78              		.cfi_def_cfa_offset 16
  79              	.LVL8:
  80 0040 70BD     		pop	{r4, r5, r6, pc}
  81              		.cfi_endproc
  82              	.LFE383:
  84              		.section	.text._ZN8steering9get_omegaEv,"ax",%progbits
  85              		.align	1
  86              		.global	_ZN8steering9get_omegaEv
  87              		.syntax unified
  88              		.thumb
  89              		.thumb_func
  90              		.fpu fpv4-sp-d16
  92              	_ZN8steering9get_omegaEv:
  93              	.LFB384:
   9:Core/Src/devs/steering.cpp **** 
  10:Core/Src/devs/steering.cpp **** float steering::get_omega(void){
  94              		.loc 1 10 0
  95              		.cfi_startproc
  96              		@ args = 0, pretend = 0, frame = 0
  97              		@ frame_needed = 0, uses_anonymous_args = 0
  98              	.LVL9:
  99 0000 08B5     		push	{r3, lr}
 100              	.LCFI3:
 101              		.cfi_def_cfa_offset 8
 102              		.cfi_offset 3, -8
 103              		.cfi_offset 14, -4
  11:Core/Src/devs/steering.cpp **** 	return encoder__.get_omega();
 104              		.loc 1 11 0
 105 0002 0C30     		adds	r0, r0, #12
 106              	.LVL10:
ARM GAS  C:\Users\Prashant\AppData\Local\Temp\ccjmGCBP.s 			page 3


 107 0004 FFF7FEFF 		bl	_ZN7encoder9get_omegaEv
 108              	.LVL11:
  12:Core/Src/devs/steering.cpp **** }
 109              		.loc 1 12 0
 110 0008 08BD     		pop	{r3, pc}
 111              		.cfi_endproc
 112              	.LFE384:
 114              		.section	.text._ZN8steering11reset_angleEf,"ax",%progbits
 115              		.align	1
 116              		.global	_ZN8steering11reset_angleEf
 117              		.syntax unified
 118              		.thumb
 119              		.thumb_func
 120              		.fpu fpv4-sp-d16
 122              	_ZN8steering11reset_angleEf:
 123              	.LFB385:
  13:Core/Src/devs/steering.cpp **** 
  14:Core/Src/devs/steering.cpp **** void steering::reset_angle(float angle_in_radians){
 124              		.loc 1 14 0
 125              		.cfi_startproc
 126              		@ args = 0, pretend = 0, frame = 0
 127              		@ frame_needed = 0, uses_anonymous_args = 0
 128              	.LVL12:
 129 0000 08B5     		push	{r3, lr}
 130              	.LCFI4:
 131              		.cfi_def_cfa_offset 8
 132              		.cfi_offset 3, -8
 133              		.cfi_offset 14, -4
  15:Core/Src/devs/steering.cpp **** 	encoder__.reset_angle(angle_in_radians);
 134              		.loc 1 15 0
 135 0002 0C30     		adds	r0, r0, #12
 136              	.LVL13:
 137 0004 FFF7FEFF 		bl	_ZN7encoder11reset_angleEf
 138              	.LVL14:
  16:Core/Src/devs/steering.cpp **** }
 139              		.loc 1 16 0
 140 0008 08BD     		pop	{r3, pc}
 141              		.cfi_endproc
 142              	.LFE385:
 144              		.section	.text._ZN8steering9get_angleEv,"ax",%progbits
 145              		.align	1
 146              		.global	_ZN8steering9get_angleEv
 147              		.syntax unified
 148              		.thumb
 149              		.thumb_func
 150              		.fpu fpv4-sp-d16
 152              	_ZN8steering9get_angleEv:
 153              	.LFB386:
  17:Core/Src/devs/steering.cpp **** 
  18:Core/Src/devs/steering.cpp **** float steering::get_angle(void){
 154              		.loc 1 18 0
 155              		.cfi_startproc
 156              		@ args = 0, pretend = 0, frame = 0
 157              		@ frame_needed = 0, uses_anonymous_args = 0
 158              	.LVL15:
 159 0000 08B5     		push	{r3, lr}
 160              	.LCFI5:
ARM GAS  C:\Users\Prashant\AppData\Local\Temp\ccjmGCBP.s 			page 4


 161              		.cfi_def_cfa_offset 8
 162              		.cfi_offset 3, -8
 163              		.cfi_offset 14, -4
  19:Core/Src/devs/steering.cpp **** 	return encoder__.get_angle();
 164              		.loc 1 19 0
 165 0002 0C30     		adds	r0, r0, #12
 166              	.LVL16:
 167 0004 FFF7FEFF 		bl	_ZN7encoder9get_angleEv
 168              	.LVL17:
  20:Core/Src/devs/steering.cpp **** }...
 169              		.loc 1 20 0
 170 0008 08BD     		pop	{r3, pc}
 171              		.cfi_endproc
 172              	.LFE386:
 174              		.text
 175              	.Letext0:
 176              		.file 2 "c:\\program files (x86)\\gnu tools arm embedded\\7 2017-q4-major\\arm-none-eabi\\include\
 177              		.file 3 "c:\\program files (x86)\\gnu tools arm embedded\\7 2017-q4-major\\arm-none-eabi\\include\
 178              		.file 4 "Drivers/CMSIS/Include/core_cm4.h"
 179              		.file 5 "Drivers/CMSIS/Device/ST/STM32F4xx/Include/system_stm32f4xx.h"
 180              		.file 6 "Drivers/CMSIS/Device/ST/STM32F4xx/Include/stm32f407xx.h"
 181              		.file 7 "c:\\program files (x86)\\gnu tools arm embedded\\7 2017-q4-major\\arm-none-eabi\\include\
 182              		.file 8 "c:\\program files (x86)\\gnu tools arm embedded\\7 2017-q4-major\\arm-none-eabi\\include\
 183              		.file 9 "c:\\program files (x86)\\gnu tools arm embedded\\7 2017-q4-major\\lib\\gcc\\arm-none-eabi
 184              		.file 10 "c:\\program files (x86)\\gnu tools arm embedded\\7 2017-q4-major\\arm-none-eabi\\include
 185              		.file 11 "Drivers/STM32F4xx_HAL_Driver/Inc/stm32f4xx_hal_def.h"
 186              		.file 12 "Drivers/STM32F4xx_HAL_Driver/Inc/stm32f4xx_hal_dma.h"
 187              		.file 13 "Drivers/STM32F4xx_HAL_Driver/Inc/stm32f4xx_hal_tim.h"
 188              		.file 14 "Core/Inc/periphs/tim.h"
 189              		.file 15 "c:\\program files (x86)\\gnu tools arm embedded\\7 2017-q4-major\\arm-none-eabi\\include
 190              		.file 16 "c:\\program files (x86)\\gnu tools arm embedded\\7 2017-q4-major\\arm-none-eabi\\include
 191              		.file 17 "c:\\program files (x86)\\gnu tools arm embedded\\7 2017-q4-major\\arm-none-eabi\\include
 192              		.file 18 "c:\\program files (x86)\\gnu tools arm embedded\\7 2017-q4-major\\arm-none-eabi\\include
 193              		.file 19 "c:\\program files (x86)\\gnu tools arm embedded\\7 2017-q4-major\\arm-none-eabi\\include
 194              		.file 20 "Core/Inc/devs/motor.h"
 195              		.file 21 "Core/Inc/devs/encoder.h"
 196              		.file 22 "Core/Inc/devs/pid.h"
 197              		.file 23 "Core/Inc/devs/limit_switch.h"
 198              		.file 24 "Core/Inc/devs/steering.h"
 199              		.file 25 "<built-in>"
ARM GAS  C:\Users\Prashant\AppData\Local\Temp\ccjmGCBP.s 			page 5

