ARM GAS  C:\Users\n-is\AppData\Local\Temp\cc6WTnM6.s 			page 1


   1              		.cpu cortex-m4
   2              		.eabi_attribute 27, 1
   3              		.eabi_attribute 28, 1
   4              		.eabi_attribute 20, 1
   5              		.eabi_attribute 21, 1
   6              		.eabi_attribute 23, 3
   7              		.eabi_attribute 24, 1
   8              		.eabi_attribute 25, 1
   9              		.eabi_attribute 26, 1
  10              		.eabi_attribute 30, 1
  11              		.eabi_attribute 34, 1
  12              		.eabi_attribute 18, 4
  13              		.file	"tim.c"
  14              		.text
  15              	.Ltext0:
  16              		.cfi_sections	.debug_frame
  17              		.section	.text.MX_TIM3_Init,"ax",%progbits
  18              		.align	1
  19              		.global	MX_TIM3_Init
  20              		.syntax unified
  21              		.thumb
  22              		.thumb_func
  23              		.fpu fpv4-sp-d16
  25              	MX_TIM3_Init:
  26              	.LFB126:
  27              		.file 1 "Core/Src/tim.c"
   1:Core/Src/tim.c **** /**
   2:Core/Src/tim.c ****   ******************************************************************************
   3:Core/Src/tim.c ****   * File Name          : TIM.c
   4:Core/Src/tim.c ****   * Description        : This file provides code for the configuration
   5:Core/Src/tim.c ****   *                      of the TIM instances.
   6:Core/Src/tim.c ****   ******************************************************************************
   7:Core/Src/tim.c ****   ** This notice applies to any and all portions of this file
   8:Core/Src/tim.c ****   * that are not between comment pairs USER CODE BEGIN and
   9:Core/Src/tim.c ****   * USER CODE END. Other portions of this file, whether 
  10:Core/Src/tim.c ****   * inserted by the user or by software development tools
  11:Core/Src/tim.c ****   * are owned by their respective copyright owners.
  12:Core/Src/tim.c ****   *
  13:Core/Src/tim.c ****   * COPYRIGHT(c) 2018 STMicroelectronics
  14:Core/Src/tim.c ****   *
  15:Core/Src/tim.c ****   * Redistribution and use in source and binary forms, with or without modification,
  16:Core/Src/tim.c ****   * are permitted provided that the following conditions are met:
  17:Core/Src/tim.c ****   *   1. Redistributions of source code must retain the above copyright notice,
  18:Core/Src/tim.c ****   *      this list of conditions and the following disclaimer.
  19:Core/Src/tim.c ****   *   2. Redistributions in binary form must reproduce the above copyright notice,
  20:Core/Src/tim.c ****   *      this list of conditions and the following disclaimer in the documentation
  21:Core/Src/tim.c ****   *      and/or other materials provided with the distribution.
  22:Core/Src/tim.c ****   *   3. Neither the name of STMicroelectronics nor the names of its contributors
  23:Core/Src/tim.c ****   *      may be used to endorse or promote products derived from this software
  24:Core/Src/tim.c ****   *      without specific prior written permission.
  25:Core/Src/tim.c ****   *
  26:Core/Src/tim.c ****   * THIS SOFTWARE IS PROVIDED BY THE COPYRIGHT HOLDERS AND CONTRIBUTORS "AS IS"
  27:Core/Src/tim.c ****   * AND ANY EXPRESS OR IMPLIED WARRANTIES, INCLUDING, BUT NOT LIMITED TO, THE
  28:Core/Src/tim.c ****   * IMPLIED WARRANTIES OF MERCHANTABILITY AND FITNESS FOR A PARTICULAR PURPOSE ARE
  29:Core/Src/tim.c ****   * DISCLAIMED. IN NO EVENT SHALL THE COPYRIGHT HOLDER OR CONTRIBUTORS BE LIABLE
  30:Core/Src/tim.c ****   * FOR ANY DIRECT, INDIRECT, INCIDENTAL, SPECIAL, EXEMPLARY, OR CONSEQUENTIAL
  31:Core/Src/tim.c ****   * DAMAGES (INCLUDING, BUT NOT LIMITED TO, PROCUREMENT OF SUBSTITUTE GOODS OR
ARM GAS  C:\Users\n-is\AppData\Local\Temp\cc6WTnM6.s 			page 2


  32:Core/Src/tim.c ****   * SERVICES; LOSS OF USE, DATA, OR PROFITS; OR BUSINESS INTERRUPTION) HOWEVER
  33:Core/Src/tim.c ****   * CAUSED AND ON ANY THEORY OF LIABILITY, WHETHER IN CONTRACT, STRICT LIABILITY,
  34:Core/Src/tim.c ****   * OR TORT (INCLUDING NEGLIGENCE OR OTHERWISE) ARISING IN ANY WAY OUT OF THE USE
  35:Core/Src/tim.c ****   * OF THIS SOFTWARE, EVEN IF ADVISED OF THE POSSIBILITY OF SUCH DAMAGE.
  36:Core/Src/tim.c ****   *
  37:Core/Src/tim.c ****   ******************************************************************************
  38:Core/Src/tim.c ****   */
  39:Core/Src/tim.c **** 
  40:Core/Src/tim.c **** /* Includes ------------------------------------------------------------------*/
  41:Core/Src/tim.c **** #include "tim.h"
  42:Core/Src/tim.c **** 
  43:Core/Src/tim.c **** #include "gpio.h"
  44:Core/Src/tim.c **** 
  45:Core/Src/tim.c **** /* USER CODE BEGIN 0 */
  46:Core/Src/tim.c **** 
  47:Core/Src/tim.c **** /* USER CODE END 0 */
  48:Core/Src/tim.c **** 
  49:Core/Src/tim.c **** TIM_HandleTypeDef htim3;
  50:Core/Src/tim.c **** TIM_HandleTypeDef htim4;
  51:Core/Src/tim.c **** TIM_HandleTypeDef htim5;
  52:Core/Src/tim.c **** TIM_HandleTypeDef htim8;
  53:Core/Src/tim.c **** TIM_HandleTypeDef htim14;
  54:Core/Src/tim.c **** 
  55:Core/Src/tim.c **** /* TIM3 init function */
  56:Core/Src/tim.c **** void MX_TIM3_Init(void)
  57:Core/Src/tim.c **** {
  28              		.loc 1 57 0
  29              		.cfi_startproc
  30              		@ args = 0, pretend = 0, frame = 48
  31              		@ frame_needed = 0, uses_anonymous_args = 0
  32 0000 00B5     		push	{lr}
  33              	.LCFI0:
  34              		.cfi_def_cfa_offset 4
  35              		.cfi_offset 14, -4
  36 0002 8DB0     		sub	sp, sp, #52
  37              	.LCFI1:
  38              		.cfi_def_cfa_offset 56
  58:Core/Src/tim.c ****   TIM_Encoder_InitTypeDef sConfig;
  59:Core/Src/tim.c ****   TIM_MasterConfigTypeDef sMasterConfig;
  60:Core/Src/tim.c **** 
  61:Core/Src/tim.c ****   htim3.Instance = TIM3;
  39              		.loc 1 61 0
  40 0004 1548     		ldr	r0, .L7
  41 0006 164B     		ldr	r3, .L7+4
  42 0008 0360     		str	r3, [r0]
  62:Core/Src/tim.c ****   htim3.Init.Prescaler = 0;
  43              		.loc 1 62 0
  44 000a 0023     		movs	r3, #0
  45 000c 4360     		str	r3, [r0, #4]
  63:Core/Src/tim.c ****   htim3.Init.CounterMode = TIM_COUNTERMODE_UP;
  46              		.loc 1 63 0
  47 000e 8360     		str	r3, [r0, #8]
  64:Core/Src/tim.c ****   htim3.Init.Period = 0;
  48              		.loc 1 64 0
  49 0010 C360     		str	r3, [r0, #12]
  65:Core/Src/tim.c ****   htim3.Init.ClockDivision = TIM_CLOCKDIVISION_DIV1;
  50              		.loc 1 65 0
ARM GAS  C:\Users\n-is\AppData\Local\Temp\cc6WTnM6.s 			page 3


  51 0012 0361     		str	r3, [r0, #16]
  66:Core/Src/tim.c ****   sConfig.EncoderMode = TIM_ENCODERMODE_TI1;
  52              		.loc 1 66 0
  53 0014 0122     		movs	r2, #1
  54 0016 0392     		str	r2, [sp, #12]
  67:Core/Src/tim.c ****   sConfig.IC1Polarity = TIM_ICPOLARITY_RISING;
  55              		.loc 1 67 0
  56 0018 0493     		str	r3, [sp, #16]
  68:Core/Src/tim.c ****   sConfig.IC1Selection = TIM_ICSELECTION_DIRECTTI;
  57              		.loc 1 68 0
  58 001a 0592     		str	r2, [sp, #20]
  69:Core/Src/tim.c ****   sConfig.IC1Prescaler = TIM_ICPSC_DIV1;
  59              		.loc 1 69 0
  60 001c 0693     		str	r3, [sp, #24]
  70:Core/Src/tim.c ****   sConfig.IC1Filter = 0;
  61              		.loc 1 70 0
  62 001e 0793     		str	r3, [sp, #28]
  71:Core/Src/tim.c ****   sConfig.IC2Polarity = TIM_ICPOLARITY_RISING;
  63              		.loc 1 71 0
  64 0020 0893     		str	r3, [sp, #32]
  72:Core/Src/tim.c ****   sConfig.IC2Selection = TIM_ICSELECTION_DIRECTTI;
  65              		.loc 1 72 0
  66 0022 0992     		str	r2, [sp, #36]
  73:Core/Src/tim.c ****   sConfig.IC2Prescaler = TIM_ICPSC_DIV1;
  67              		.loc 1 73 0
  68 0024 0A93     		str	r3, [sp, #40]
  74:Core/Src/tim.c ****   sConfig.IC2Filter = 0;
  69              		.loc 1 74 0
  70 0026 0B93     		str	r3, [sp, #44]
  75:Core/Src/tim.c ****   if (HAL_TIM_Encoder_Init(&htim3, &sConfig) != HAL_OK)
  71              		.loc 1 75 0
  72 0028 03A9     		add	r1, sp, #12
  73 002a FFF7FEFF 		bl	HAL_TIM_Encoder_Init
  74              	.LVL0:
  75 002e 50B9     		cbnz	r0, .L5
  76              	.L2:
  76:Core/Src/tim.c ****   {
  77:Core/Src/tim.c ****     _Error_Handler(__FILE__, __LINE__);
  78:Core/Src/tim.c ****   }
  79:Core/Src/tim.c **** 
  80:Core/Src/tim.c ****   sMasterConfig.MasterOutputTrigger = TIM_TRGO_RESET;
  77              		.loc 1 80 0
  78 0030 0023     		movs	r3, #0
  79 0032 0193     		str	r3, [sp, #4]
  81:Core/Src/tim.c ****   sMasterConfig.MasterSlaveMode = TIM_MASTERSLAVEMODE_DISABLE;
  80              		.loc 1 81 0
  81 0034 0293     		str	r3, [sp, #8]
  82:Core/Src/tim.c ****   if (HAL_TIMEx_MasterConfigSynchronization(&htim3, &sMasterConfig) != HAL_OK)
  82              		.loc 1 82 0
  83 0036 01A9     		add	r1, sp, #4
  84 0038 0848     		ldr	r0, .L7
  85 003a FFF7FEFF 		bl	HAL_TIMEx_MasterConfigSynchronization
  86              	.LVL1:
  87 003e 38B9     		cbnz	r0, .L6
  88              	.L1:
  83:Core/Src/tim.c ****   {
  84:Core/Src/tim.c ****     _Error_Handler(__FILE__, __LINE__);
ARM GAS  C:\Users\n-is\AppData\Local\Temp\cc6WTnM6.s 			page 4


  85:Core/Src/tim.c ****   }
  86:Core/Src/tim.c **** 
  87:Core/Src/tim.c **** }
  89              		.loc 1 87 0
  90 0040 0DB0     		add	sp, sp, #52
  91              	.LCFI2:
  92              		.cfi_remember_state
  93              		.cfi_def_cfa_offset 4
  94              		@ sp needed
  95 0042 5DF804FB 		ldr	pc, [sp], #4
  96              	.L5:
  97              	.LCFI3:
  98              		.cfi_restore_state
  77:Core/Src/tim.c ****   }
  99              		.loc 1 77 0
 100 0046 4D21     		movs	r1, #77
 101 0048 0648     		ldr	r0, .L7+8
 102 004a FFF7FEFF 		bl	_Error_Handler
 103              	.LVL2:
 104 004e EFE7     		b	.L2
 105              	.L6:
  84:Core/Src/tim.c ****   }
 106              		.loc 1 84 0
 107 0050 5421     		movs	r1, #84
 108 0052 0448     		ldr	r0, .L7+8
 109 0054 FFF7FEFF 		bl	_Error_Handler
 110              	.LVL3:
 111              		.loc 1 87 0
 112 0058 F2E7     		b	.L1
 113              	.L8:
 114 005a 00BF     		.align	2
 115              	.L7:
 116 005c 00000000 		.word	htim3
 117 0060 00040040 		.word	1073742848
 118 0064 00000000 		.word	.LC0
 119              		.cfi_endproc
 120              	.LFE126:
 122              		.section	.text.MX_TIM4_Init,"ax",%progbits
 123              		.align	1
 124              		.global	MX_TIM4_Init
 125              		.syntax unified
 126              		.thumb
 127              		.thumb_func
 128              		.fpu fpv4-sp-d16
 130              	MX_TIM4_Init:
 131              	.LFB127:
  88:Core/Src/tim.c **** /* TIM4 init function */
  89:Core/Src/tim.c **** void MX_TIM4_Init(void)
  90:Core/Src/tim.c **** {
 132              		.loc 1 90 0
 133              		.cfi_startproc
 134              		@ args = 0, pretend = 0, frame = 48
 135              		@ frame_needed = 0, uses_anonymous_args = 0
 136 0000 00B5     		push	{lr}
 137              	.LCFI4:
 138              		.cfi_def_cfa_offset 4
 139              		.cfi_offset 14, -4
ARM GAS  C:\Users\n-is\AppData\Local\Temp\cc6WTnM6.s 			page 5


 140 0002 8DB0     		sub	sp, sp, #52
 141              	.LCFI5:
 142              		.cfi_def_cfa_offset 56
  91:Core/Src/tim.c ****   TIM_Encoder_InitTypeDef sConfig;
  92:Core/Src/tim.c ****   TIM_MasterConfigTypeDef sMasterConfig;
  93:Core/Src/tim.c **** 
  94:Core/Src/tim.c ****   htim4.Instance = TIM4;
 143              		.loc 1 94 0
 144 0004 1548     		ldr	r0, .L15
 145 0006 164B     		ldr	r3, .L15+4
 146 0008 0360     		str	r3, [r0]
  95:Core/Src/tim.c ****   htim4.Init.Prescaler = 0;
 147              		.loc 1 95 0
 148 000a 0023     		movs	r3, #0
 149 000c 4360     		str	r3, [r0, #4]
  96:Core/Src/tim.c ****   htim4.Init.CounterMode = TIM_COUNTERMODE_UP;
 150              		.loc 1 96 0
 151 000e 8360     		str	r3, [r0, #8]
  97:Core/Src/tim.c ****   htim4.Init.Period = 0;
 152              		.loc 1 97 0
 153 0010 C360     		str	r3, [r0, #12]
  98:Core/Src/tim.c ****   htim4.Init.ClockDivision = TIM_CLOCKDIVISION_DIV1;
 154              		.loc 1 98 0
 155 0012 0361     		str	r3, [r0, #16]
  99:Core/Src/tim.c ****   sConfig.EncoderMode = TIM_ENCODERMODE_TI1;
 156              		.loc 1 99 0
 157 0014 0122     		movs	r2, #1
 158 0016 0392     		str	r2, [sp, #12]
 100:Core/Src/tim.c ****   sConfig.IC1Polarity = TIM_ICPOLARITY_RISING;
 159              		.loc 1 100 0
 160 0018 0493     		str	r3, [sp, #16]
 101:Core/Src/tim.c ****   sConfig.IC1Selection = TIM_ICSELECTION_DIRECTTI;
 161              		.loc 1 101 0
 162 001a 0592     		str	r2, [sp, #20]
 102:Core/Src/tim.c ****   sConfig.IC1Prescaler = TIM_ICPSC_DIV1;
 163              		.loc 1 102 0
 164 001c 0693     		str	r3, [sp, #24]
 103:Core/Src/tim.c ****   sConfig.IC1Filter = 0;
 165              		.loc 1 103 0
 166 001e 0793     		str	r3, [sp, #28]
 104:Core/Src/tim.c ****   sConfig.IC2Polarity = TIM_ICPOLARITY_RISING;
 167              		.loc 1 104 0
 168 0020 0893     		str	r3, [sp, #32]
 105:Core/Src/tim.c ****   sConfig.IC2Selection = TIM_ICSELECTION_DIRECTTI;
 169              		.loc 1 105 0
 170 0022 0992     		str	r2, [sp, #36]
 106:Core/Src/tim.c ****   sConfig.IC2Prescaler = TIM_ICPSC_DIV1;
 171              		.loc 1 106 0
 172 0024 0A93     		str	r3, [sp, #40]
 107:Core/Src/tim.c ****   sConfig.IC2Filter = 0;
 173              		.loc 1 107 0
 174 0026 0B93     		str	r3, [sp, #44]
 108:Core/Src/tim.c ****   if (HAL_TIM_Encoder_Init(&htim4, &sConfig) != HAL_OK)
 175              		.loc 1 108 0
 176 0028 03A9     		add	r1, sp, #12
 177 002a FFF7FEFF 		bl	HAL_TIM_Encoder_Init
 178              	.LVL4:
ARM GAS  C:\Users\n-is\AppData\Local\Temp\cc6WTnM6.s 			page 6


 179 002e 50B9     		cbnz	r0, .L13
 180              	.L10:
 109:Core/Src/tim.c ****   {
 110:Core/Src/tim.c ****     _Error_Handler(__FILE__, __LINE__);
 111:Core/Src/tim.c ****   }
 112:Core/Src/tim.c **** 
 113:Core/Src/tim.c ****   sMasterConfig.MasterOutputTrigger = TIM_TRGO_RESET;
 181              		.loc 1 113 0
 182 0030 0023     		movs	r3, #0
 183 0032 0193     		str	r3, [sp, #4]
 114:Core/Src/tim.c ****   sMasterConfig.MasterSlaveMode = TIM_MASTERSLAVEMODE_DISABLE;
 184              		.loc 1 114 0
 185 0034 0293     		str	r3, [sp, #8]
 115:Core/Src/tim.c ****   if (HAL_TIMEx_MasterConfigSynchronization(&htim4, &sMasterConfig) != HAL_OK)
 186              		.loc 1 115 0
 187 0036 01A9     		add	r1, sp, #4
 188 0038 0848     		ldr	r0, .L15
 189 003a FFF7FEFF 		bl	HAL_TIMEx_MasterConfigSynchronization
 190              	.LVL5:
 191 003e 38B9     		cbnz	r0, .L14
 192              	.L9:
 116:Core/Src/tim.c ****   {
 117:Core/Src/tim.c ****     _Error_Handler(__FILE__, __LINE__);
 118:Core/Src/tim.c ****   }
 119:Core/Src/tim.c **** 
 120:Core/Src/tim.c **** }
 193              		.loc 1 120 0
 194 0040 0DB0     		add	sp, sp, #52
 195              	.LCFI6:
 196              		.cfi_remember_state
 197              		.cfi_def_cfa_offset 4
 198              		@ sp needed
 199 0042 5DF804FB 		ldr	pc, [sp], #4
 200              	.L13:
 201              	.LCFI7:
 202              		.cfi_restore_state
 110:Core/Src/tim.c ****   }
 203              		.loc 1 110 0
 204 0046 6E21     		movs	r1, #110
 205 0048 0648     		ldr	r0, .L15+8
 206 004a FFF7FEFF 		bl	_Error_Handler
 207              	.LVL6:
 208 004e EFE7     		b	.L10
 209              	.L14:
 117:Core/Src/tim.c ****   }
 210              		.loc 1 117 0
 211 0050 7521     		movs	r1, #117
 212 0052 0448     		ldr	r0, .L15+8
 213 0054 FFF7FEFF 		bl	_Error_Handler
 214              	.LVL7:
 215              		.loc 1 120 0
 216 0058 F2E7     		b	.L9
 217              	.L16:
 218 005a 00BF     		.align	2
 219              	.L15:
 220 005c 00000000 		.word	htim4
 221 0060 00080040 		.word	1073743872
ARM GAS  C:\Users\n-is\AppData\Local\Temp\cc6WTnM6.s 			page 7


 222 0064 00000000 		.word	.LC0
 223              		.cfi_endproc
 224              	.LFE127:
 226              		.section	.text.MX_TIM5_Init,"ax",%progbits
 227              		.align	1
 228              		.global	MX_TIM5_Init
 229              		.syntax unified
 230              		.thumb
 231              		.thumb_func
 232              		.fpu fpv4-sp-d16
 234              	MX_TIM5_Init:
 235              	.LFB128:
 121:Core/Src/tim.c **** /* TIM5 init function */
 122:Core/Src/tim.c **** void MX_TIM5_Init(void)
 123:Core/Src/tim.c **** {
 236              		.loc 1 123 0
 237              		.cfi_startproc
 238              		@ args = 0, pretend = 0, frame = 48
 239              		@ frame_needed = 0, uses_anonymous_args = 0
 240 0000 00B5     		push	{lr}
 241              	.LCFI8:
 242              		.cfi_def_cfa_offset 4
 243              		.cfi_offset 14, -4
 244 0002 8DB0     		sub	sp, sp, #52
 245              	.LCFI9:
 246              		.cfi_def_cfa_offset 56
 124:Core/Src/tim.c ****   TIM_Encoder_InitTypeDef sConfig;
 125:Core/Src/tim.c ****   TIM_MasterConfigTypeDef sMasterConfig;
 126:Core/Src/tim.c **** 
 127:Core/Src/tim.c ****   htim5.Instance = TIM5;
 247              		.loc 1 127 0
 248 0004 1548     		ldr	r0, .L23
 249 0006 164B     		ldr	r3, .L23+4
 250 0008 0360     		str	r3, [r0]
 128:Core/Src/tim.c ****   htim5.Init.Prescaler = 0;
 251              		.loc 1 128 0
 252 000a 0023     		movs	r3, #0
 253 000c 4360     		str	r3, [r0, #4]
 129:Core/Src/tim.c ****   htim5.Init.CounterMode = TIM_COUNTERMODE_UP;
 254              		.loc 1 129 0
 255 000e 8360     		str	r3, [r0, #8]
 130:Core/Src/tim.c ****   htim5.Init.Period = 0;
 256              		.loc 1 130 0
 257 0010 C360     		str	r3, [r0, #12]
 131:Core/Src/tim.c ****   htim5.Init.ClockDivision = TIM_CLOCKDIVISION_DIV1;
 258              		.loc 1 131 0
 259 0012 0361     		str	r3, [r0, #16]
 132:Core/Src/tim.c ****   sConfig.EncoderMode = TIM_ENCODERMODE_TI1;
 260              		.loc 1 132 0
 261 0014 0122     		movs	r2, #1
 262 0016 0392     		str	r2, [sp, #12]
 133:Core/Src/tim.c ****   sConfig.IC1Polarity = TIM_ICPOLARITY_RISING;
 263              		.loc 1 133 0
 264 0018 0493     		str	r3, [sp, #16]
 134:Core/Src/tim.c ****   sConfig.IC1Selection = TIM_ICSELECTION_DIRECTTI;
 265              		.loc 1 134 0
 266 001a 0592     		str	r2, [sp, #20]
ARM GAS  C:\Users\n-is\AppData\Local\Temp\cc6WTnM6.s 			page 8


 135:Core/Src/tim.c ****   sConfig.IC1Prescaler = TIM_ICPSC_DIV1;
 267              		.loc 1 135 0
 268 001c 0693     		str	r3, [sp, #24]
 136:Core/Src/tim.c ****   sConfig.IC1Filter = 0;
 269              		.loc 1 136 0
 270 001e 0793     		str	r3, [sp, #28]
 137:Core/Src/tim.c ****   sConfig.IC2Polarity = TIM_ICPOLARITY_RISING;
 271              		.loc 1 137 0
 272 0020 0893     		str	r3, [sp, #32]
 138:Core/Src/tim.c ****   sConfig.IC2Selection = TIM_ICSELECTION_DIRECTTI;
 273              		.loc 1 138 0
 274 0022 0992     		str	r2, [sp, #36]
 139:Core/Src/tim.c ****   sConfig.IC2Prescaler = TIM_ICPSC_DIV1;
 275              		.loc 1 139 0
 276 0024 0A93     		str	r3, [sp, #40]
 140:Core/Src/tim.c ****   sConfig.IC2Filter = 0;
 277              		.loc 1 140 0
 278 0026 0B93     		str	r3, [sp, #44]
 141:Core/Src/tim.c ****   if (HAL_TIM_Encoder_Init(&htim5, &sConfig) != HAL_OK)
 279              		.loc 1 141 0
 280 0028 03A9     		add	r1, sp, #12
 281 002a FFF7FEFF 		bl	HAL_TIM_Encoder_Init
 282              	.LVL8:
 283 002e 50B9     		cbnz	r0, .L21
 284              	.L18:
 142:Core/Src/tim.c ****   {
 143:Core/Src/tim.c ****     _Error_Handler(__FILE__, __LINE__);
 144:Core/Src/tim.c ****   }
 145:Core/Src/tim.c **** 
 146:Core/Src/tim.c ****   sMasterConfig.MasterOutputTrigger = TIM_TRGO_RESET;
 285              		.loc 1 146 0
 286 0030 0023     		movs	r3, #0
 287 0032 0193     		str	r3, [sp, #4]
 147:Core/Src/tim.c ****   sMasterConfig.MasterSlaveMode = TIM_MASTERSLAVEMODE_DISABLE;
 288              		.loc 1 147 0
 289 0034 0293     		str	r3, [sp, #8]
 148:Core/Src/tim.c ****   if (HAL_TIMEx_MasterConfigSynchronization(&htim5, &sMasterConfig) != HAL_OK)
 290              		.loc 1 148 0
 291 0036 01A9     		add	r1, sp, #4
 292 0038 0848     		ldr	r0, .L23
 293 003a FFF7FEFF 		bl	HAL_TIMEx_MasterConfigSynchronization
 294              	.LVL9:
 295 003e 38B9     		cbnz	r0, .L22
 296              	.L17:
 149:Core/Src/tim.c ****   {
 150:Core/Src/tim.c ****     _Error_Handler(__FILE__, __LINE__);
 151:Core/Src/tim.c ****   }
 152:Core/Src/tim.c **** 
 153:Core/Src/tim.c **** }
 297              		.loc 1 153 0
 298 0040 0DB0     		add	sp, sp, #52
 299              	.LCFI10:
 300              		.cfi_remember_state
 301              		.cfi_def_cfa_offset 4
 302              		@ sp needed
 303 0042 5DF804FB 		ldr	pc, [sp], #4
 304              	.L21:
ARM GAS  C:\Users\n-is\AppData\Local\Temp\cc6WTnM6.s 			page 9


 305              	.LCFI11:
 306              		.cfi_restore_state
 143:Core/Src/tim.c ****   }
 307              		.loc 1 143 0
 308 0046 8F21     		movs	r1, #143
 309 0048 0648     		ldr	r0, .L23+8
 310 004a FFF7FEFF 		bl	_Error_Handler
 311              	.LVL10:
 312 004e EFE7     		b	.L18
 313              	.L22:
 150:Core/Src/tim.c ****   }
 314              		.loc 1 150 0
 315 0050 9621     		movs	r1, #150
 316 0052 0448     		ldr	r0, .L23+8
 317 0054 FFF7FEFF 		bl	_Error_Handler
 318              	.LVL11:
 319              		.loc 1 153 0
 320 0058 F2E7     		b	.L17
 321              	.L24:
 322 005a 00BF     		.align	2
 323              	.L23:
 324 005c 00000000 		.word	htim5
 325 0060 000C0040 		.word	1073744896
 326 0064 00000000 		.word	.LC0
 327              		.cfi_endproc
 328              	.LFE128:
 330              		.section	.text.MX_TIM14_Init,"ax",%progbits
 331              		.align	1
 332              		.global	MX_TIM14_Init
 333              		.syntax unified
 334              		.thumb
 335              		.thumb_func
 336              		.fpu fpv4-sp-d16
 338              	MX_TIM14_Init:
 339              	.LFB130:
 154:Core/Src/tim.c **** /* TIM8 init function */
 155:Core/Src/tim.c **** void MX_TIM8_Init(void)
 156:Core/Src/tim.c **** {
 157:Core/Src/tim.c ****   TIM_MasterConfigTypeDef sMasterConfig;
 158:Core/Src/tim.c ****   TIM_OC_InitTypeDef sConfigOC;
 159:Core/Src/tim.c ****   TIM_BreakDeadTimeConfigTypeDef sBreakDeadTimeConfig;
 160:Core/Src/tim.c **** 
 161:Core/Src/tim.c ****   htim8.Instance = TIM8;
 162:Core/Src/tim.c ****   htim8.Init.Prescaler = 0;
 163:Core/Src/tim.c ****   htim8.Init.CounterMode = TIM_COUNTERMODE_CENTERALIGNED1;
 164:Core/Src/tim.c ****   htim8.Init.Period = 10000;
 165:Core/Src/tim.c ****   htim8.Init.ClockDivision = TIM_CLOCKDIVISION_DIV1;
 166:Core/Src/tim.c ****   htim8.Init.RepetitionCounter = 0;
 167:Core/Src/tim.c ****   if (HAL_TIM_PWM_Init(&htim8) != HAL_OK)
 168:Core/Src/tim.c ****   {
 169:Core/Src/tim.c ****     _Error_Handler(__FILE__, __LINE__);
 170:Core/Src/tim.c ****   }
 171:Core/Src/tim.c **** 
 172:Core/Src/tim.c ****   sMasterConfig.MasterOutputTrigger = TIM_TRGO_RESET;
 173:Core/Src/tim.c ****   sMasterConfig.MasterSlaveMode = TIM_MASTERSLAVEMODE_DISABLE;
 174:Core/Src/tim.c ****   if (HAL_TIMEx_MasterConfigSynchronization(&htim8, &sMasterConfig) != HAL_OK)
 175:Core/Src/tim.c ****   {
ARM GAS  C:\Users\n-is\AppData\Local\Temp\cc6WTnM6.s 			page 10


 176:Core/Src/tim.c ****     _Error_Handler(__FILE__, __LINE__);
 177:Core/Src/tim.c ****   }
 178:Core/Src/tim.c **** 
 179:Core/Src/tim.c ****   sConfigOC.OCMode = TIM_OCMODE_PWM1;
 180:Core/Src/tim.c ****   sConfigOC.Pulse = 0;
 181:Core/Src/tim.c ****   sConfigOC.OCPolarity = TIM_OCPOLARITY_HIGH;
 182:Core/Src/tim.c ****   sConfigOC.OCNPolarity = TIM_OCNPOLARITY_HIGH;
 183:Core/Src/tim.c ****   sConfigOC.OCFastMode = TIM_OCFAST_DISABLE;
 184:Core/Src/tim.c ****   sConfigOC.OCIdleState = TIM_OCIDLESTATE_RESET;
 185:Core/Src/tim.c ****   sConfigOC.OCNIdleState = TIM_OCNIDLESTATE_RESET;
 186:Core/Src/tim.c ****   if (HAL_TIM_PWM_ConfigChannel(&htim8, &sConfigOC, TIM_CHANNEL_1) != HAL_OK)
 187:Core/Src/tim.c ****   {
 188:Core/Src/tim.c ****     _Error_Handler(__FILE__, __LINE__);
 189:Core/Src/tim.c ****   }
 190:Core/Src/tim.c **** 
 191:Core/Src/tim.c ****   if (HAL_TIM_PWM_ConfigChannel(&htim8, &sConfigOC, TIM_CHANNEL_2) != HAL_OK)
 192:Core/Src/tim.c ****   {
 193:Core/Src/tim.c ****     _Error_Handler(__FILE__, __LINE__);
 194:Core/Src/tim.c ****   }
 195:Core/Src/tim.c **** 
 196:Core/Src/tim.c ****   if (HAL_TIM_PWM_ConfigChannel(&htim8, &sConfigOC, TIM_CHANNEL_3) != HAL_OK)
 197:Core/Src/tim.c ****   {
 198:Core/Src/tim.c ****     _Error_Handler(__FILE__, __LINE__);
 199:Core/Src/tim.c ****   }
 200:Core/Src/tim.c **** 
 201:Core/Src/tim.c ****   if (HAL_TIM_PWM_ConfigChannel(&htim8, &sConfigOC, TIM_CHANNEL_4) != HAL_OK)
 202:Core/Src/tim.c ****   {
 203:Core/Src/tim.c ****     _Error_Handler(__FILE__, __LINE__);
 204:Core/Src/tim.c ****   }
 205:Core/Src/tim.c **** 
 206:Core/Src/tim.c ****   sBreakDeadTimeConfig.OffStateRunMode = TIM_OSSR_DISABLE;
 207:Core/Src/tim.c ****   sBreakDeadTimeConfig.OffStateIDLEMode = TIM_OSSI_DISABLE;
 208:Core/Src/tim.c ****   sBreakDeadTimeConfig.LockLevel = TIM_LOCKLEVEL_OFF;
 209:Core/Src/tim.c ****   sBreakDeadTimeConfig.DeadTime = 0;
 210:Core/Src/tim.c ****   sBreakDeadTimeConfig.BreakState = TIM_BREAK_DISABLE;
 211:Core/Src/tim.c ****   sBreakDeadTimeConfig.BreakPolarity = TIM_BREAKPOLARITY_HIGH;
 212:Core/Src/tim.c ****   sBreakDeadTimeConfig.AutomaticOutput = TIM_AUTOMATICOUTPUT_DISABLE;
 213:Core/Src/tim.c ****   if (HAL_TIMEx_ConfigBreakDeadTime(&htim8, &sBreakDeadTimeConfig) != HAL_OK)
 214:Core/Src/tim.c ****   {
 215:Core/Src/tim.c ****     _Error_Handler(__FILE__, __LINE__);
 216:Core/Src/tim.c ****   }
 217:Core/Src/tim.c **** 
 218:Core/Src/tim.c ****   HAL_TIM_MspPostInit(&htim8);
 219:Core/Src/tim.c **** 
 220:Core/Src/tim.c **** }
 221:Core/Src/tim.c **** /* TIM14 init function */
 222:Core/Src/tim.c **** void MX_TIM14_Init(void)
 223:Core/Src/tim.c **** {
 340              		.loc 1 223 0
 341              		.cfi_startproc
 342              		@ args = 0, pretend = 0, frame = 0
 343              		@ frame_needed = 0, uses_anonymous_args = 0
 344 0000 08B5     		push	{r3, lr}
 345              	.LCFI12:
 346              		.cfi_def_cfa_offset 8
 347              		.cfi_offset 3, -8
 348              		.cfi_offset 14, -4
ARM GAS  C:\Users\n-is\AppData\Local\Temp\cc6WTnM6.s 			page 11


 224:Core/Src/tim.c **** 
 225:Core/Src/tim.c ****   htim14.Instance = TIM14;
 349              		.loc 1 225 0
 350 0002 0A48     		ldr	r0, .L29
 351 0004 0A4B     		ldr	r3, .L29+4
 352 0006 0360     		str	r3, [r0]
 226:Core/Src/tim.c ****   htim14.Init.Prescaler = 41999;
 353              		.loc 1 226 0
 354 0008 4AF20F43 		movw	r3, #41999
 355 000c 4360     		str	r3, [r0, #4]
 227:Core/Src/tim.c ****   htim14.Init.CounterMode = TIM_COUNTERMODE_UP;
 356              		.loc 1 227 0
 357 000e 0023     		movs	r3, #0
 358 0010 8360     		str	r3, [r0, #8]
 228:Core/Src/tim.c ****   htim14.Init.Period = 99;
 359              		.loc 1 228 0
 360 0012 6322     		movs	r2, #99
 361 0014 C260     		str	r2, [r0, #12]
 229:Core/Src/tim.c ****   htim14.Init.ClockDivision = TIM_CLOCKDIVISION_DIV1;
 362              		.loc 1 229 0
 363 0016 0361     		str	r3, [r0, #16]
 230:Core/Src/tim.c ****   if (HAL_TIM_Base_Init(&htim14) != HAL_OK)
 364              		.loc 1 230 0
 365 0018 FFF7FEFF 		bl	HAL_TIM_Base_Init
 366              	.LVL12:
 367 001c 00B9     		cbnz	r0, .L28
 368              	.L25:
 231:Core/Src/tim.c ****   {
 232:Core/Src/tim.c ****     _Error_Handler(__FILE__, __LINE__);
 233:Core/Src/tim.c ****   }
 234:Core/Src/tim.c **** 
 235:Core/Src/tim.c **** }
 369              		.loc 1 235 0
 370 001e 08BD     		pop	{r3, pc}
 371              	.L28:
 232:Core/Src/tim.c ****   }
 372              		.loc 1 232 0
 373 0020 E821     		movs	r1, #232
 374 0022 0448     		ldr	r0, .L29+8
 375 0024 FFF7FEFF 		bl	_Error_Handler
 376              	.LVL13:
 377              		.loc 1 235 0
 378 0028 F9E7     		b	.L25
 379              	.L30:
 380 002a 00BF     		.align	2
 381              	.L29:
 382 002c 00000000 		.word	htim14
 383 0030 00200040 		.word	1073750016
 384 0034 00000000 		.word	.LC0
 385              		.cfi_endproc
 386              	.LFE130:
 388              		.section	.text.HAL_TIM_Encoder_MspInit,"ax",%progbits
 389              		.align	1
 390              		.global	HAL_TIM_Encoder_MspInit
 391              		.syntax unified
 392              		.thumb
 393              		.thumb_func
ARM GAS  C:\Users\n-is\AppData\Local\Temp\cc6WTnM6.s 			page 12


 394              		.fpu fpv4-sp-d16
 396              	HAL_TIM_Encoder_MspInit:
 397              	.LFB131:
 236:Core/Src/tim.c **** 
 237:Core/Src/tim.c **** void HAL_TIM_Encoder_MspInit(TIM_HandleTypeDef* tim_encoderHandle)
 238:Core/Src/tim.c **** {
 398              		.loc 1 238 0
 399              		.cfi_startproc
 400              		@ args = 0, pretend = 0, frame = 32
 401              		@ frame_needed = 0, uses_anonymous_args = 0
 402              	.LVL14:
 403 0000 00B5     		push	{lr}
 404              	.LCFI13:
 405              		.cfi_def_cfa_offset 4
 406              		.cfi_offset 14, -4
 407 0002 89B0     		sub	sp, sp, #36
 408              	.LCFI14:
 409              		.cfi_def_cfa_offset 40
 239:Core/Src/tim.c **** 
 240:Core/Src/tim.c ****   GPIO_InitTypeDef GPIO_InitStruct;
 241:Core/Src/tim.c ****   if(tim_encoderHandle->Instance==TIM3)
 410              		.loc 1 241 0
 411 0004 0368     		ldr	r3, [r0]
 412 0006 2C4A     		ldr	r2, .L39
 413 0008 9342     		cmp	r3, r2
 414 000a 08D0     		beq	.L36
 242:Core/Src/tim.c ****   {
 243:Core/Src/tim.c ****   /* USER CODE BEGIN TIM3_MspInit 0 */
 244:Core/Src/tim.c **** 
 245:Core/Src/tim.c ****   /* USER CODE END TIM3_MspInit 0 */
 246:Core/Src/tim.c ****     /* TIM3 clock enable */
 247:Core/Src/tim.c ****     __HAL_RCC_TIM3_CLK_ENABLE();
 248:Core/Src/tim.c ****   
 249:Core/Src/tim.c ****     /**TIM3 GPIO Configuration    
 250:Core/Src/tim.c ****     PA6     ------> TIM3_CH1
 251:Core/Src/tim.c ****     PA7     ------> TIM3_CH2 
 252:Core/Src/tim.c ****     */
 253:Core/Src/tim.c ****     GPIO_InitStruct.Pin = GPIO_PIN_6|GPIO_PIN_7;
 254:Core/Src/tim.c ****     GPIO_InitStruct.Mode = GPIO_MODE_AF_PP;
 255:Core/Src/tim.c ****     GPIO_InitStruct.Pull = GPIO_NOPULL;
 256:Core/Src/tim.c ****     GPIO_InitStruct.Speed = GPIO_SPEED_FREQ_LOW;
 257:Core/Src/tim.c ****     GPIO_InitStruct.Alternate = GPIO_AF2_TIM3;
 258:Core/Src/tim.c ****     HAL_GPIO_Init(GPIOA, &GPIO_InitStruct);
 259:Core/Src/tim.c **** 
 260:Core/Src/tim.c ****   /* USER CODE BEGIN TIM3_MspInit 1 */
 261:Core/Src/tim.c **** 
 262:Core/Src/tim.c ****   /* USER CODE END TIM3_MspInit 1 */
 263:Core/Src/tim.c ****   }
 264:Core/Src/tim.c ****   else if(tim_encoderHandle->Instance==TIM4)
 415              		.loc 1 264 0
 416 000c 2B4A     		ldr	r2, .L39+4
 417 000e 9342     		cmp	r3, r2
 418 0010 1ED0     		beq	.L37
 265:Core/Src/tim.c ****   {
 266:Core/Src/tim.c ****   /* USER CODE BEGIN TIM4_MspInit 0 */
 267:Core/Src/tim.c **** 
 268:Core/Src/tim.c ****   /* USER CODE END TIM4_MspInit 0 */
ARM GAS  C:\Users\n-is\AppData\Local\Temp\cc6WTnM6.s 			page 13


 269:Core/Src/tim.c ****     /* TIM4 clock enable */
 270:Core/Src/tim.c ****     __HAL_RCC_TIM4_CLK_ENABLE();
 271:Core/Src/tim.c ****   
 272:Core/Src/tim.c ****     /**TIM4 GPIO Configuration    
 273:Core/Src/tim.c ****     PD12     ------> TIM4_CH1
 274:Core/Src/tim.c ****     PD13     ------> TIM4_CH2 
 275:Core/Src/tim.c ****     */
 276:Core/Src/tim.c ****     GPIO_InitStruct.Pin = GPIO_PIN_12|GPIO_PIN_13;
 277:Core/Src/tim.c ****     GPIO_InitStruct.Mode = GPIO_MODE_AF_PP;
 278:Core/Src/tim.c ****     GPIO_InitStruct.Pull = GPIO_NOPULL;
 279:Core/Src/tim.c ****     GPIO_InitStruct.Speed = GPIO_SPEED_FREQ_LOW;
 280:Core/Src/tim.c ****     GPIO_InitStruct.Alternate = GPIO_AF2_TIM4;
 281:Core/Src/tim.c ****     HAL_GPIO_Init(GPIOD, &GPIO_InitStruct);
 282:Core/Src/tim.c **** 
 283:Core/Src/tim.c ****   /* USER CODE BEGIN TIM4_MspInit 1 */
 284:Core/Src/tim.c **** 
 285:Core/Src/tim.c ****   /* USER CODE END TIM4_MspInit 1 */
 286:Core/Src/tim.c ****   }
 287:Core/Src/tim.c ****   else if(tim_encoderHandle->Instance==TIM5)
 419              		.loc 1 287 0
 420 0012 2B4A     		ldr	r2, .L39+8
 421 0014 9342     		cmp	r3, r2
 422 0016 35D0     		beq	.L38
 423              	.LVL15:
 424              	.L31:
 288:Core/Src/tim.c ****   {
 289:Core/Src/tim.c ****   /* USER CODE BEGIN TIM5_MspInit 0 */
 290:Core/Src/tim.c **** 
 291:Core/Src/tim.c ****   /* USER CODE END TIM5_MspInit 0 */
 292:Core/Src/tim.c ****     /* TIM5 clock enable */
 293:Core/Src/tim.c ****     __HAL_RCC_TIM5_CLK_ENABLE();
 294:Core/Src/tim.c ****   
 295:Core/Src/tim.c ****     /**TIM5 GPIO Configuration    
 296:Core/Src/tim.c ****     PA0-WKUP     ------> TIM5_CH1
 297:Core/Src/tim.c ****     PA1     ------> TIM5_CH2 
 298:Core/Src/tim.c ****     */
 299:Core/Src/tim.c ****     GPIO_InitStruct.Pin = GPIO_PIN_0|GPIO_PIN_1;
 300:Core/Src/tim.c ****     GPIO_InitStruct.Mode = GPIO_MODE_AF_PP;
 301:Core/Src/tim.c ****     GPIO_InitStruct.Pull = GPIO_NOPULL;
 302:Core/Src/tim.c ****     GPIO_InitStruct.Speed = GPIO_SPEED_FREQ_LOW;
 303:Core/Src/tim.c ****     GPIO_InitStruct.Alternate = GPIO_AF2_TIM5;
 304:Core/Src/tim.c ****     HAL_GPIO_Init(GPIOA, &GPIO_InitStruct);
 305:Core/Src/tim.c **** 
 306:Core/Src/tim.c ****   /* USER CODE BEGIN TIM5_MspInit 1 */
 307:Core/Src/tim.c **** 
 308:Core/Src/tim.c ****   /* USER CODE END TIM5_MspInit 1 */
 309:Core/Src/tim.c ****   }
 310:Core/Src/tim.c **** }
 425              		.loc 1 310 0
 426 0018 09B0     		add	sp, sp, #36
 427              	.LCFI15:
 428              		.cfi_remember_state
 429              		.cfi_def_cfa_offset 4
 430              		@ sp needed
 431 001a 5DF804FB 		ldr	pc, [sp], #4
 432              	.LVL16:
 433              	.L36:
ARM GAS  C:\Users\n-is\AppData\Local\Temp\cc6WTnM6.s 			page 14


 434              	.LCFI16:
 435              		.cfi_restore_state
 436              	.LBB2:
 247:Core/Src/tim.c ****   
 437              		.loc 1 247 0
 438 001e 0023     		movs	r3, #0
 439 0020 0093     		str	r3, [sp]
 440 0022 02F50D32 		add	r2, r2, #144384
 441 0026 116C     		ldr	r1, [r2, #64]
 442 0028 41F00201 		orr	r1, r1, #2
 443 002c 1164     		str	r1, [r2, #64]
 444 002e 126C     		ldr	r2, [r2, #64]
 445 0030 02F00202 		and	r2, r2, #2
 446 0034 0092     		str	r2, [sp]
 447 0036 009A     		ldr	r2, [sp]
 448              	.LBE2:
 253:Core/Src/tim.c ****     GPIO_InitStruct.Mode = GPIO_MODE_AF_PP;
 449              		.loc 1 253 0
 450 0038 C022     		movs	r2, #192
 451 003a 0392     		str	r2, [sp, #12]
 254:Core/Src/tim.c ****     GPIO_InitStruct.Pull = GPIO_NOPULL;
 452              		.loc 1 254 0
 453 003c 0222     		movs	r2, #2
 454 003e 0492     		str	r2, [sp, #16]
 255:Core/Src/tim.c ****     GPIO_InitStruct.Speed = GPIO_SPEED_FREQ_LOW;
 455              		.loc 1 255 0
 456 0040 0593     		str	r3, [sp, #20]
 256:Core/Src/tim.c ****     GPIO_InitStruct.Alternate = GPIO_AF2_TIM3;
 457              		.loc 1 256 0
 458 0042 0693     		str	r3, [sp, #24]
 257:Core/Src/tim.c ****     HAL_GPIO_Init(GPIOA, &GPIO_InitStruct);
 459              		.loc 1 257 0
 460 0044 0792     		str	r2, [sp, #28]
 258:Core/Src/tim.c **** 
 461              		.loc 1 258 0
 462 0046 03A9     		add	r1, sp, #12
 463 0048 1E48     		ldr	r0, .L39+12
 464              	.LVL17:
 465 004a FFF7FEFF 		bl	HAL_GPIO_Init
 466              	.LVL18:
 467 004e E3E7     		b	.L31
 468              	.LVL19:
 469              	.L37:
 470              	.LBB3:
 270:Core/Src/tim.c ****   
 471              		.loc 1 270 0
 472 0050 0023     		movs	r3, #0
 473 0052 0193     		str	r3, [sp, #4]
 474 0054 02F50C32 		add	r2, r2, #143360
 475 0058 116C     		ldr	r1, [r2, #64]
 476 005a 41F00401 		orr	r1, r1, #4
 477 005e 1164     		str	r1, [r2, #64]
 478 0060 126C     		ldr	r2, [r2, #64]
 479 0062 02F00402 		and	r2, r2, #4
 480 0066 0192     		str	r2, [sp, #4]
 481 0068 019A     		ldr	r2, [sp, #4]
 482              	.LBE3:
ARM GAS  C:\Users\n-is\AppData\Local\Temp\cc6WTnM6.s 			page 15


 276:Core/Src/tim.c ****     GPIO_InitStruct.Mode = GPIO_MODE_AF_PP;
 483              		.loc 1 276 0
 484 006a 4FF44052 		mov	r2, #12288
 485 006e 0392     		str	r2, [sp, #12]
 277:Core/Src/tim.c ****     GPIO_InitStruct.Pull = GPIO_NOPULL;
 486              		.loc 1 277 0
 487 0070 0222     		movs	r2, #2
 488 0072 0492     		str	r2, [sp, #16]
 278:Core/Src/tim.c ****     GPIO_InitStruct.Speed = GPIO_SPEED_FREQ_LOW;
 489              		.loc 1 278 0
 490 0074 0593     		str	r3, [sp, #20]
 279:Core/Src/tim.c ****     GPIO_InitStruct.Alternate = GPIO_AF2_TIM4;
 491              		.loc 1 279 0
 492 0076 0693     		str	r3, [sp, #24]
 280:Core/Src/tim.c ****     HAL_GPIO_Init(GPIOD, &GPIO_InitStruct);
 493              		.loc 1 280 0
 494 0078 0792     		str	r2, [sp, #28]
 281:Core/Src/tim.c **** 
 495              		.loc 1 281 0
 496 007a 03A9     		add	r1, sp, #12
 497 007c 1248     		ldr	r0, .L39+16
 498              	.LVL20:
 499 007e FFF7FEFF 		bl	HAL_GPIO_Init
 500              	.LVL21:
 501 0082 C9E7     		b	.L31
 502              	.LVL22:
 503              	.L38:
 504              	.LBB4:
 293:Core/Src/tim.c ****   
 505              		.loc 1 293 0
 506 0084 0023     		movs	r3, #0
 507 0086 0293     		str	r3, [sp, #8]
 508 0088 02F50B32 		add	r2, r2, #142336
 509 008c 116C     		ldr	r1, [r2, #64]
 510 008e 41F00801 		orr	r1, r1, #8
 511 0092 1164     		str	r1, [r2, #64]
 512 0094 126C     		ldr	r2, [r2, #64]
 513 0096 02F00802 		and	r2, r2, #8
 514 009a 0292     		str	r2, [sp, #8]
 515 009c 029A     		ldr	r2, [sp, #8]
 516              	.LBE4:
 299:Core/Src/tim.c ****     GPIO_InitStruct.Mode = GPIO_MODE_AF_PP;
 517              		.loc 1 299 0
 518 009e 0322     		movs	r2, #3
 519 00a0 0392     		str	r2, [sp, #12]
 300:Core/Src/tim.c ****     GPIO_InitStruct.Pull = GPIO_NOPULL;
 520              		.loc 1 300 0
 521 00a2 0222     		movs	r2, #2
 522 00a4 0492     		str	r2, [sp, #16]
 301:Core/Src/tim.c ****     GPIO_InitStruct.Speed = GPIO_SPEED_FREQ_LOW;
 523              		.loc 1 301 0
 524 00a6 0593     		str	r3, [sp, #20]
 302:Core/Src/tim.c ****     GPIO_InitStruct.Alternate = GPIO_AF2_TIM5;
 525              		.loc 1 302 0
 526 00a8 0693     		str	r3, [sp, #24]
 303:Core/Src/tim.c ****     HAL_GPIO_Init(GPIOA, &GPIO_InitStruct);
 527              		.loc 1 303 0
ARM GAS  C:\Users\n-is\AppData\Local\Temp\cc6WTnM6.s 			page 16


 528 00aa 0792     		str	r2, [sp, #28]
 304:Core/Src/tim.c **** 
 529              		.loc 1 304 0
 530 00ac 03A9     		add	r1, sp, #12
 531 00ae 0548     		ldr	r0, .L39+12
 532              	.LVL23:
 533 00b0 FFF7FEFF 		bl	HAL_GPIO_Init
 534              	.LVL24:
 535              		.loc 1 310 0
 536 00b4 B0E7     		b	.L31
 537              	.L40:
 538 00b6 00BF     		.align	2
 539              	.L39:
 540 00b8 00040040 		.word	1073742848
 541 00bc 00080040 		.word	1073743872
 542 00c0 000C0040 		.word	1073744896
 543 00c4 00000240 		.word	1073872896
 544 00c8 000C0240 		.word	1073875968
 545              		.cfi_endproc
 546              	.LFE131:
 548              		.section	.text.HAL_TIM_PWM_MspInit,"ax",%progbits
 549              		.align	1
 550              		.global	HAL_TIM_PWM_MspInit
 551              		.syntax unified
 552              		.thumb
 553              		.thumb_func
 554              		.fpu fpv4-sp-d16
 556              	HAL_TIM_PWM_MspInit:
 557              	.LFB132:
 311:Core/Src/tim.c **** 
 312:Core/Src/tim.c **** void HAL_TIM_PWM_MspInit(TIM_HandleTypeDef* tim_pwmHandle)
 313:Core/Src/tim.c **** {
 558              		.loc 1 313 0
 559              		.cfi_startproc
 560              		@ args = 0, pretend = 0, frame = 8
 561              		@ frame_needed = 0, uses_anonymous_args = 0
 562              	.LVL25:
 314:Core/Src/tim.c **** 
 315:Core/Src/tim.c ****   if(tim_pwmHandle->Instance==TIM8)
 563              		.loc 1 315 0
 564 0000 0268     		ldr	r2, [r0]
 565 0002 0E4B     		ldr	r3, .L48
 566 0004 9A42     		cmp	r2, r3
 567 0006 00D0     		beq	.L47
 568 0008 7047     		bx	lr
 569              	.L47:
 313:Core/Src/tim.c **** 
 570              		.loc 1 313 0
 571 000a 00B5     		push	{lr}
 572              	.LCFI17:
 573              		.cfi_def_cfa_offset 4
 574              		.cfi_offset 14, -4
 575 000c 83B0     		sub	sp, sp, #12
 576              	.LCFI18:
 577              		.cfi_def_cfa_offset 16
 578              	.LBB5:
 316:Core/Src/tim.c ****   {
ARM GAS  C:\Users\n-is\AppData\Local\Temp\cc6WTnM6.s 			page 17


 317:Core/Src/tim.c ****   /* USER CODE BEGIN TIM8_MspInit 0 */
 318:Core/Src/tim.c **** 
 319:Core/Src/tim.c ****   /* USER CODE END TIM8_MspInit 0 */
 320:Core/Src/tim.c ****     /* TIM8 clock enable */
 321:Core/Src/tim.c ****     __HAL_RCC_TIM8_CLK_ENABLE();
 579              		.loc 1 321 0
 580 000e 0021     		movs	r1, #0
 581 0010 0191     		str	r1, [sp, #4]
 582 0012 03F59A33 		add	r3, r3, #78848
 583 0016 5A6C     		ldr	r2, [r3, #68]
 584 0018 42F00202 		orr	r2, r2, #2
 585 001c 5A64     		str	r2, [r3, #68]
 586 001e 5B6C     		ldr	r3, [r3, #68]
 587 0020 03F00203 		and	r3, r3, #2
 588 0024 0193     		str	r3, [sp, #4]
 589 0026 019B     		ldr	r3, [sp, #4]
 590              	.LBE5:
 322:Core/Src/tim.c **** 
 323:Core/Src/tim.c ****     /* TIM8 interrupt Init */
 324:Core/Src/tim.c ****     HAL_NVIC_SetPriority(TIM8_TRG_COM_TIM14_IRQn, 0, 0);
 591              		.loc 1 324 0
 592 0028 0A46     		mov	r2, r1
 593 002a 2D20     		movs	r0, #45
 594              	.LVL26:
 595 002c FFF7FEFF 		bl	HAL_NVIC_SetPriority
 596              	.LVL27:
 325:Core/Src/tim.c ****     HAL_NVIC_EnableIRQ(TIM8_TRG_COM_TIM14_IRQn);
 597              		.loc 1 325 0
 598 0030 2D20     		movs	r0, #45
 599 0032 FFF7FEFF 		bl	HAL_NVIC_EnableIRQ
 600              	.LVL28:
 326:Core/Src/tim.c ****   /* USER CODE BEGIN TIM8_MspInit 1 */
 327:Core/Src/tim.c **** 
 328:Core/Src/tim.c ****   /* USER CODE END TIM8_MspInit 1 */
 329:Core/Src/tim.c ****   }
 330:Core/Src/tim.c **** }
 601              		.loc 1 330 0
 602 0036 03B0     		add	sp, sp, #12
 603              	.LCFI19:
 604              		.cfi_def_cfa_offset 4
 605              		@ sp needed
 606 0038 5DF804FB 		ldr	pc, [sp], #4
 607              	.L49:
 608              		.align	2
 609              	.L48:
 610 003c 00040140 		.word	1073808384
 611              		.cfi_endproc
 612              	.LFE132:
 614              		.section	.text.HAL_TIM_Base_MspInit,"ax",%progbits
 615              		.align	1
 616              		.global	HAL_TIM_Base_MspInit
 617              		.syntax unified
 618              		.thumb
 619              		.thumb_func
 620              		.fpu fpv4-sp-d16
 622              	HAL_TIM_Base_MspInit:
 623              	.LFB133:
ARM GAS  C:\Users\n-is\AppData\Local\Temp\cc6WTnM6.s 			page 18


 331:Core/Src/tim.c **** 
 332:Core/Src/tim.c **** void HAL_TIM_Base_MspInit(TIM_HandleTypeDef* tim_baseHandle)
 333:Core/Src/tim.c **** {
 624              		.loc 1 333 0
 625              		.cfi_startproc
 626              		@ args = 0, pretend = 0, frame = 8
 627              		@ frame_needed = 0, uses_anonymous_args = 0
 628              	.LVL29:
 334:Core/Src/tim.c **** 
 335:Core/Src/tim.c ****   if(tim_baseHandle->Instance==TIM14)
 629              		.loc 1 335 0
 630 0000 0268     		ldr	r2, [r0]
 631 0002 0E4B     		ldr	r3, .L57
 632 0004 9A42     		cmp	r2, r3
 633 0006 00D0     		beq	.L56
 634 0008 7047     		bx	lr
 635              	.L56:
 333:Core/Src/tim.c **** 
 636              		.loc 1 333 0
 637 000a 00B5     		push	{lr}
 638              	.LCFI20:
 639              		.cfi_def_cfa_offset 4
 640              		.cfi_offset 14, -4
 641 000c 83B0     		sub	sp, sp, #12
 642              	.LCFI21:
 643              		.cfi_def_cfa_offset 16
 644              	.LBB6:
 336:Core/Src/tim.c ****   {
 337:Core/Src/tim.c ****   /* USER CODE BEGIN TIM14_MspInit 0 */
 338:Core/Src/tim.c **** 
 339:Core/Src/tim.c ****   /* USER CODE END TIM14_MspInit 0 */
 340:Core/Src/tim.c ****     /* TIM14 clock enable */
 341:Core/Src/tim.c ****     __HAL_RCC_TIM14_CLK_ENABLE();
 645              		.loc 1 341 0
 646 000e 0021     		movs	r1, #0
 647 0010 0191     		str	r1, [sp, #4]
 648 0012 03F50633 		add	r3, r3, #137216
 649 0016 1A6C     		ldr	r2, [r3, #64]
 650 0018 42F48072 		orr	r2, r2, #256
 651 001c 1A64     		str	r2, [r3, #64]
 652 001e 1B6C     		ldr	r3, [r3, #64]
 653 0020 03F48073 		and	r3, r3, #256
 654 0024 0193     		str	r3, [sp, #4]
 655 0026 019B     		ldr	r3, [sp, #4]
 656              	.LBE6:
 342:Core/Src/tim.c **** 
 343:Core/Src/tim.c ****     /* TIM14 interrupt Init */
 344:Core/Src/tim.c ****     HAL_NVIC_SetPriority(TIM8_TRG_COM_TIM14_IRQn, 0, 0);
 657              		.loc 1 344 0
 658 0028 0A46     		mov	r2, r1
 659 002a 2D20     		movs	r0, #45
 660              	.LVL30:
 661 002c FFF7FEFF 		bl	HAL_NVIC_SetPriority
 662              	.LVL31:
 345:Core/Src/tim.c ****     HAL_NVIC_EnableIRQ(TIM8_TRG_COM_TIM14_IRQn);
 663              		.loc 1 345 0
 664 0030 2D20     		movs	r0, #45
ARM GAS  C:\Users\n-is\AppData\Local\Temp\cc6WTnM6.s 			page 19


 665 0032 FFF7FEFF 		bl	HAL_NVIC_EnableIRQ
 666              	.LVL32:
 346:Core/Src/tim.c ****   /* USER CODE BEGIN TIM14_MspInit 1 */
 347:Core/Src/tim.c **** 
 348:Core/Src/tim.c ****   /* USER CODE END TIM14_MspInit 1 */
 349:Core/Src/tim.c ****   }
 350:Core/Src/tim.c **** }
 667              		.loc 1 350 0
 668 0036 03B0     		add	sp, sp, #12
 669              	.LCFI22:
 670              		.cfi_def_cfa_offset 4
 671              		@ sp needed
 672 0038 5DF804FB 		ldr	pc, [sp], #4
 673              	.L58:
 674              		.align	2
 675              	.L57:
 676 003c 00200040 		.word	1073750016
 677              		.cfi_endproc
 678              	.LFE133:
 680              		.section	.text.HAL_TIM_MspPostInit,"ax",%progbits
 681              		.align	1
 682              		.global	HAL_TIM_MspPostInit
 683              		.syntax unified
 684              		.thumb
 685              		.thumb_func
 686              		.fpu fpv4-sp-d16
 688              	HAL_TIM_MspPostInit:
 689              	.LFB134:
 351:Core/Src/tim.c **** void HAL_TIM_MspPostInit(TIM_HandleTypeDef* timHandle)
 352:Core/Src/tim.c **** {
 690              		.loc 1 352 0
 691              		.cfi_startproc
 692              		@ args = 0, pretend = 0, frame = 24
 693              		@ frame_needed = 0, uses_anonymous_args = 0
 694              	.LVL33:
 353:Core/Src/tim.c **** 
 354:Core/Src/tim.c ****   GPIO_InitTypeDef GPIO_InitStruct;
 355:Core/Src/tim.c ****   if(timHandle->Instance==TIM8)
 695              		.loc 1 355 0
 696 0000 0268     		ldr	r2, [r0]
 697 0002 0B4B     		ldr	r3, .L66
 698 0004 9A42     		cmp	r2, r3
 699 0006 00D0     		beq	.L65
 700 0008 7047     		bx	lr
 701              	.L65:
 352:Core/Src/tim.c **** 
 702              		.loc 1 352 0
 703 000a 00B5     		push	{lr}
 704              	.LCFI23:
 705              		.cfi_def_cfa_offset 4
 706              		.cfi_offset 14, -4
 707 000c 87B0     		sub	sp, sp, #28
 708              	.LCFI24:
 709              		.cfi_def_cfa_offset 32
 356:Core/Src/tim.c ****   {
 357:Core/Src/tim.c ****   /* USER CODE BEGIN TIM8_MspPostInit 0 */
 358:Core/Src/tim.c **** 
ARM GAS  C:\Users\n-is\AppData\Local\Temp\cc6WTnM6.s 			page 20


 359:Core/Src/tim.c ****   /* USER CODE END TIM8_MspPostInit 0 */
 360:Core/Src/tim.c ****   
 361:Core/Src/tim.c ****     /**TIM8 GPIO Configuration    
 362:Core/Src/tim.c ****     PC6     ------> TIM8_CH1
 363:Core/Src/tim.c ****     PC7     ------> TIM8_CH2
 364:Core/Src/tim.c ****     PC8     ------> TIM8_CH3
 365:Core/Src/tim.c ****     PC9     ------> TIM8_CH4 
 366:Core/Src/tim.c ****     */
 367:Core/Src/tim.c ****     GPIO_InitStruct.Pin = GPIO_PIN_6|GPIO_PIN_7|GPIO_PIN_8|GPIO_PIN_9;
 710              		.loc 1 367 0
 711 000e 4FF47073 		mov	r3, #960
 712 0012 0193     		str	r3, [sp, #4]
 368:Core/Src/tim.c ****     GPIO_InitStruct.Mode = GPIO_MODE_AF_PP;
 713              		.loc 1 368 0
 714 0014 0223     		movs	r3, #2
 715 0016 0293     		str	r3, [sp, #8]
 369:Core/Src/tim.c ****     GPIO_InitStruct.Pull = GPIO_NOPULL;
 716              		.loc 1 369 0
 717 0018 0023     		movs	r3, #0
 718 001a 0393     		str	r3, [sp, #12]
 370:Core/Src/tim.c ****     GPIO_InitStruct.Speed = GPIO_SPEED_FREQ_LOW;
 719              		.loc 1 370 0
 720 001c 0493     		str	r3, [sp, #16]
 371:Core/Src/tim.c ****     GPIO_InitStruct.Alternate = GPIO_AF3_TIM8;
 721              		.loc 1 371 0
 722 001e 0323     		movs	r3, #3
 723 0020 0593     		str	r3, [sp, #20]
 372:Core/Src/tim.c ****     HAL_GPIO_Init(GPIOC, &GPIO_InitStruct);
 724              		.loc 1 372 0
 725 0022 01A9     		add	r1, sp, #4
 726 0024 0348     		ldr	r0, .L66+4
 727              	.LVL34:
 728 0026 FFF7FEFF 		bl	HAL_GPIO_Init
 729              	.LVL35:
 373:Core/Src/tim.c **** 
 374:Core/Src/tim.c ****   /* USER CODE BEGIN TIM8_MspPostInit 1 */
 375:Core/Src/tim.c **** 
 376:Core/Src/tim.c ****   /* USER CODE END TIM8_MspPostInit 1 */
 377:Core/Src/tim.c ****   }
 378:Core/Src/tim.c **** 
 379:Core/Src/tim.c **** }
 730              		.loc 1 379 0
 731 002a 07B0     		add	sp, sp, #28
 732              	.LCFI25:
 733              		.cfi_def_cfa_offset 4
 734              		@ sp needed
 735 002c 5DF804FB 		ldr	pc, [sp], #4
 736              	.L67:
 737              		.align	2
 738              	.L66:
 739 0030 00040140 		.word	1073808384
 740 0034 00080240 		.word	1073874944
 741              		.cfi_endproc
 742              	.LFE134:
 744              		.section	.text.MX_TIM8_Init,"ax",%progbits
 745              		.align	1
 746              		.global	MX_TIM8_Init
ARM GAS  C:\Users\n-is\AppData\Local\Temp\cc6WTnM6.s 			page 21


 747              		.syntax unified
 748              		.thumb
 749              		.thumb_func
 750              		.fpu fpv4-sp-d16
 752              	MX_TIM8_Init:
 753              	.LFB129:
 156:Core/Src/tim.c ****   TIM_MasterConfigTypeDef sMasterConfig;
 754              		.loc 1 156 0
 755              		.cfi_startproc
 756              		@ args = 0, pretend = 0, frame = 64
 757              		@ frame_needed = 0, uses_anonymous_args = 0
 758 0000 00B5     		push	{lr}
 759              	.LCFI26:
 760              		.cfi_def_cfa_offset 4
 761              		.cfi_offset 14, -4
 762 0002 91B0     		sub	sp, sp, #68
 763              	.LCFI27:
 764              		.cfi_def_cfa_offset 72
 161:Core/Src/tim.c ****   htim8.Init.Prescaler = 0;
 765              		.loc 1 161 0
 766 0004 3948     		ldr	r0, .L84
 767 0006 3A4B     		ldr	r3, .L84+4
 768 0008 0360     		str	r3, [r0]
 162:Core/Src/tim.c ****   htim8.Init.CounterMode = TIM_COUNTERMODE_CENTERALIGNED1;
 769              		.loc 1 162 0
 770 000a 0023     		movs	r3, #0
 771 000c 4360     		str	r3, [r0, #4]
 163:Core/Src/tim.c ****   htim8.Init.Period = 10000;
 772              		.loc 1 163 0
 773 000e 2022     		movs	r2, #32
 774 0010 8260     		str	r2, [r0, #8]
 164:Core/Src/tim.c ****   htim8.Init.ClockDivision = TIM_CLOCKDIVISION_DIV1;
 775              		.loc 1 164 0
 776 0012 42F21072 		movw	r2, #10000
 777 0016 C260     		str	r2, [r0, #12]
 165:Core/Src/tim.c ****   htim8.Init.RepetitionCounter = 0;
 778              		.loc 1 165 0
 779 0018 0361     		str	r3, [r0, #16]
 166:Core/Src/tim.c ****   if (HAL_TIM_PWM_Init(&htim8) != HAL_OK)
 780              		.loc 1 166 0
 781 001a 4361     		str	r3, [r0, #20]
 167:Core/Src/tim.c ****   {
 782              		.loc 1 167 0
 783 001c FFF7FEFF 		bl	HAL_TIM_PWM_Init
 784              	.LVL36:
 785 0020 0028     		cmp	r0, #0
 786 0022 3FD1     		bne	.L77
 787              	.L69:
 172:Core/Src/tim.c ****   sMasterConfig.MasterSlaveMode = TIM_MASTERSLAVEMODE_DISABLE;
 788              		.loc 1 172 0
 789 0024 0023     		movs	r3, #0
 790 0026 0E93     		str	r3, [sp, #56]
 173:Core/Src/tim.c ****   if (HAL_TIMEx_MasterConfigSynchronization(&htim8, &sMasterConfig) != HAL_OK)
 791              		.loc 1 173 0
 792 0028 0F93     		str	r3, [sp, #60]
 174:Core/Src/tim.c ****   {
 793              		.loc 1 174 0
ARM GAS  C:\Users\n-is\AppData\Local\Temp\cc6WTnM6.s 			page 22


 794 002a 0EA9     		add	r1, sp, #56
 795 002c 2F48     		ldr	r0, .L84
 796 002e FFF7FEFF 		bl	HAL_TIMEx_MasterConfigSynchronization
 797              	.LVL37:
 798 0032 0028     		cmp	r0, #0
 799 0034 3BD1     		bne	.L78
 800              	.L70:
 179:Core/Src/tim.c ****   sConfigOC.Pulse = 0;
 801              		.loc 1 179 0
 802 0036 6023     		movs	r3, #96
 803 0038 0793     		str	r3, [sp, #28]
 180:Core/Src/tim.c ****   sConfigOC.OCPolarity = TIM_OCPOLARITY_HIGH;
 804              		.loc 1 180 0
 805 003a 0022     		movs	r2, #0
 806 003c 0892     		str	r2, [sp, #32]
 181:Core/Src/tim.c ****   sConfigOC.OCNPolarity = TIM_OCNPOLARITY_HIGH;
 807              		.loc 1 181 0
 808 003e 0992     		str	r2, [sp, #36]
 182:Core/Src/tim.c ****   sConfigOC.OCFastMode = TIM_OCFAST_DISABLE;
 809              		.loc 1 182 0
 810 0040 0A92     		str	r2, [sp, #40]
 183:Core/Src/tim.c ****   sConfigOC.OCIdleState = TIM_OCIDLESTATE_RESET;
 811              		.loc 1 183 0
 812 0042 0B92     		str	r2, [sp, #44]
 184:Core/Src/tim.c ****   sConfigOC.OCNIdleState = TIM_OCNIDLESTATE_RESET;
 813              		.loc 1 184 0
 814 0044 0C92     		str	r2, [sp, #48]
 185:Core/Src/tim.c ****   if (HAL_TIM_PWM_ConfigChannel(&htim8, &sConfigOC, TIM_CHANNEL_1) != HAL_OK)
 815              		.loc 1 185 0
 816 0046 0D92     		str	r2, [sp, #52]
 186:Core/Src/tim.c ****   {
 817              		.loc 1 186 0
 818 0048 07A9     		add	r1, sp, #28
 819 004a 2848     		ldr	r0, .L84
 820 004c FFF7FEFF 		bl	HAL_TIM_PWM_ConfigChannel
 821              	.LVL38:
 822 0050 0028     		cmp	r0, #0
 823 0052 31D1     		bne	.L79
 824              	.L71:
 191:Core/Src/tim.c ****   {
 825              		.loc 1 191 0
 826 0054 0422     		movs	r2, #4
 827 0056 07A9     		add	r1, sp, #28
 828 0058 2448     		ldr	r0, .L84
 829 005a FFF7FEFF 		bl	HAL_TIM_PWM_ConfigChannel
 830              	.LVL39:
 831 005e 0028     		cmp	r0, #0
 832 0060 2FD1     		bne	.L80
 833              	.L72:
 196:Core/Src/tim.c ****   {
 834              		.loc 1 196 0
 835 0062 0822     		movs	r2, #8
 836 0064 07A9     		add	r1, sp, #28
 837 0066 2148     		ldr	r0, .L84
 838 0068 FFF7FEFF 		bl	HAL_TIM_PWM_ConfigChannel
 839              	.LVL40:
 840 006c 70BB     		cbnz	r0, .L81
ARM GAS  C:\Users\n-is\AppData\Local\Temp\cc6WTnM6.s 			page 23


 841              	.L73:
 201:Core/Src/tim.c ****   {
 842              		.loc 1 201 0
 843 006e 0C22     		movs	r2, #12
 844 0070 07A9     		add	r1, sp, #28
 845 0072 1E48     		ldr	r0, .L84
 846 0074 FFF7FEFF 		bl	HAL_TIM_PWM_ConfigChannel
 847              	.LVL41:
 848 0078 68BB     		cbnz	r0, .L82
 849              	.L74:
 206:Core/Src/tim.c ****   sBreakDeadTimeConfig.OffStateIDLEMode = TIM_OSSI_DISABLE;
 850              		.loc 1 206 0
 851 007a 0023     		movs	r3, #0
 852 007c 0093     		str	r3, [sp]
 207:Core/Src/tim.c ****   sBreakDeadTimeConfig.LockLevel = TIM_LOCKLEVEL_OFF;
 853              		.loc 1 207 0
 854 007e 0193     		str	r3, [sp, #4]
 208:Core/Src/tim.c ****   sBreakDeadTimeConfig.DeadTime = 0;
 855              		.loc 1 208 0
 856 0080 0293     		str	r3, [sp, #8]
 209:Core/Src/tim.c ****   sBreakDeadTimeConfig.BreakState = TIM_BREAK_DISABLE;
 857              		.loc 1 209 0
 858 0082 0393     		str	r3, [sp, #12]
 210:Core/Src/tim.c ****   sBreakDeadTimeConfig.BreakPolarity = TIM_BREAKPOLARITY_HIGH;
 859              		.loc 1 210 0
 860 0084 0493     		str	r3, [sp, #16]
 211:Core/Src/tim.c ****   sBreakDeadTimeConfig.AutomaticOutput = TIM_AUTOMATICOUTPUT_DISABLE;
 861              		.loc 1 211 0
 862 0086 4FF40052 		mov	r2, #8192
 863 008a 0592     		str	r2, [sp, #20]
 212:Core/Src/tim.c ****   if (HAL_TIMEx_ConfigBreakDeadTime(&htim8, &sBreakDeadTimeConfig) != HAL_OK)
 864              		.loc 1 212 0
 865 008c 0693     		str	r3, [sp, #24]
 213:Core/Src/tim.c ****   {
 866              		.loc 1 213 0
 867 008e 6946     		mov	r1, sp
 868 0090 1648     		ldr	r0, .L84
 869 0092 FFF7FEFF 		bl	HAL_TIMEx_ConfigBreakDeadTime
 870              	.LVL42:
 871 0096 18BB     		cbnz	r0, .L83
 872              	.L75:
 218:Core/Src/tim.c **** 
 873              		.loc 1 218 0
 874 0098 1448     		ldr	r0, .L84
 875 009a FFF7FEFF 		bl	HAL_TIM_MspPostInit
 876              	.LVL43:
 220:Core/Src/tim.c **** /* TIM14 init function */
 877              		.loc 1 220 0
 878 009e 11B0     		add	sp, sp, #68
 879              	.LCFI28:
 880              		.cfi_remember_state
 881              		.cfi_def_cfa_offset 4
 882              		@ sp needed
 883 00a0 5DF804FB 		ldr	pc, [sp], #4
 884              	.L77:
 885              	.LCFI29:
 886              		.cfi_restore_state
ARM GAS  C:\Users\n-is\AppData\Local\Temp\cc6WTnM6.s 			page 24


 169:Core/Src/tim.c ****   }
 887              		.loc 1 169 0
 888 00a4 A921     		movs	r1, #169
 889 00a6 1348     		ldr	r0, .L84+8
 890 00a8 FFF7FEFF 		bl	_Error_Handler
 891              	.LVL44:
 892 00ac BAE7     		b	.L69
 893              	.L78:
 176:Core/Src/tim.c ****   }
 894              		.loc 1 176 0
 895 00ae B021     		movs	r1, #176
 896 00b0 1048     		ldr	r0, .L84+8
 897 00b2 FFF7FEFF 		bl	_Error_Handler
 898              	.LVL45:
 899 00b6 BEE7     		b	.L70
 900              	.L79:
 188:Core/Src/tim.c ****   }
 901              		.loc 1 188 0
 902 00b8 BC21     		movs	r1, #188
 903 00ba 0E48     		ldr	r0, .L84+8
 904 00bc FFF7FEFF 		bl	_Error_Handler
 905              	.LVL46:
 906 00c0 C8E7     		b	.L71
 907              	.L80:
 193:Core/Src/tim.c ****   }
 908              		.loc 1 193 0
 909 00c2 C121     		movs	r1, #193
 910 00c4 0B48     		ldr	r0, .L84+8
 911 00c6 FFF7FEFF 		bl	_Error_Handler
 912              	.LVL47:
 913 00ca CAE7     		b	.L72
 914              	.L81:
 198:Core/Src/tim.c ****   }
 915              		.loc 1 198 0
 916 00cc C621     		movs	r1, #198
 917 00ce 0948     		ldr	r0, .L84+8
 918 00d0 FFF7FEFF 		bl	_Error_Handler
 919              	.LVL48:
 920 00d4 CBE7     		b	.L73
 921              	.L82:
 203:Core/Src/tim.c ****   }
 922              		.loc 1 203 0
 923 00d6 CB21     		movs	r1, #203
 924 00d8 0648     		ldr	r0, .L84+8
 925 00da FFF7FEFF 		bl	_Error_Handler
 926              	.LVL49:
 927 00de CCE7     		b	.L74
 928              	.L83:
 215:Core/Src/tim.c ****   }
 929              		.loc 1 215 0
 930 00e0 D721     		movs	r1, #215
 931 00e2 0448     		ldr	r0, .L84+8
 932 00e4 FFF7FEFF 		bl	_Error_Handler
 933              	.LVL50:
 934 00e8 D6E7     		b	.L75
 935              	.L85:
 936 00ea 00BF     		.align	2
ARM GAS  C:\Users\n-is\AppData\Local\Temp\cc6WTnM6.s 			page 25


 937              	.L84:
 938 00ec 00000000 		.word	htim8
 939 00f0 00040140 		.word	1073808384
 940 00f4 00000000 		.word	.LC0
 941              		.cfi_endproc
 942              	.LFE129:
 944              		.section	.text.HAL_TIM_Encoder_MspDeInit,"ax",%progbits
 945              		.align	1
 946              		.global	HAL_TIM_Encoder_MspDeInit
 947              		.syntax unified
 948              		.thumb
 949              		.thumb_func
 950              		.fpu fpv4-sp-d16
 952              	HAL_TIM_Encoder_MspDeInit:
 953              	.LFB135:
 380:Core/Src/tim.c **** 
 381:Core/Src/tim.c **** void HAL_TIM_Encoder_MspDeInit(TIM_HandleTypeDef* tim_encoderHandle)
 382:Core/Src/tim.c **** {
 954              		.loc 1 382 0
 955              		.cfi_startproc
 956              		@ args = 0, pretend = 0, frame = 0
 957              		@ frame_needed = 0, uses_anonymous_args = 0
 958              	.LVL51:
 959 0000 08B5     		push	{r3, lr}
 960              	.LCFI30:
 961              		.cfi_def_cfa_offset 8
 962              		.cfi_offset 3, -8
 963              		.cfi_offset 14, -4
 383:Core/Src/tim.c **** 
 384:Core/Src/tim.c ****   if(tim_encoderHandle->Instance==TIM3)
 964              		.loc 1 384 0
 965 0002 0368     		ldr	r3, [r0]
 966 0004 154A     		ldr	r2, .L94
 967 0006 9342     		cmp	r3, r2
 968 0008 06D0     		beq	.L91
 385:Core/Src/tim.c ****   {
 386:Core/Src/tim.c ****   /* USER CODE BEGIN TIM3_MspDeInit 0 */
 387:Core/Src/tim.c **** 
 388:Core/Src/tim.c ****   /* USER CODE END TIM3_MspDeInit 0 */
 389:Core/Src/tim.c ****     /* Peripheral clock disable */
 390:Core/Src/tim.c ****     __HAL_RCC_TIM3_CLK_DISABLE();
 391:Core/Src/tim.c ****   
 392:Core/Src/tim.c ****     /**TIM3 GPIO Configuration    
 393:Core/Src/tim.c ****     PA6     ------> TIM3_CH1
 394:Core/Src/tim.c ****     PA7     ------> TIM3_CH2 
 395:Core/Src/tim.c ****     */
 396:Core/Src/tim.c ****     HAL_GPIO_DeInit(GPIOA, GPIO_PIN_6|GPIO_PIN_7);
 397:Core/Src/tim.c **** 
 398:Core/Src/tim.c ****   /* USER CODE BEGIN TIM3_MspDeInit 1 */
 399:Core/Src/tim.c **** 
 400:Core/Src/tim.c ****   /* USER CODE END TIM3_MspDeInit 1 */
 401:Core/Src/tim.c ****   }
 402:Core/Src/tim.c ****   else if(tim_encoderHandle->Instance==TIM4)
 969              		.loc 1 402 0
 970 000a 154A     		ldr	r2, .L94+4
 971 000c 9342     		cmp	r3, r2
 972 000e 0ED0     		beq	.L92
ARM GAS  C:\Users\n-is\AppData\Local\Temp\cc6WTnM6.s 			page 26


 403:Core/Src/tim.c ****   {
 404:Core/Src/tim.c ****   /* USER CODE BEGIN TIM4_MspDeInit 0 */
 405:Core/Src/tim.c **** 
 406:Core/Src/tim.c ****   /* USER CODE END TIM4_MspDeInit 0 */
 407:Core/Src/tim.c ****     /* Peripheral clock disable */
 408:Core/Src/tim.c ****     __HAL_RCC_TIM4_CLK_DISABLE();
 409:Core/Src/tim.c ****   
 410:Core/Src/tim.c ****     /**TIM4 GPIO Configuration    
 411:Core/Src/tim.c ****     PD12     ------> TIM4_CH1
 412:Core/Src/tim.c ****     PD13     ------> TIM4_CH2 
 413:Core/Src/tim.c ****     */
 414:Core/Src/tim.c ****     HAL_GPIO_DeInit(GPIOD, GPIO_PIN_12|GPIO_PIN_13);
 415:Core/Src/tim.c **** 
 416:Core/Src/tim.c ****   /* USER CODE BEGIN TIM4_MspDeInit 1 */
 417:Core/Src/tim.c **** 
 418:Core/Src/tim.c ****   /* USER CODE END TIM4_MspDeInit 1 */
 419:Core/Src/tim.c ****   }
 420:Core/Src/tim.c ****   else if(tim_encoderHandle->Instance==TIM5)
 973              		.loc 1 420 0
 974 0010 144A     		ldr	r2, .L94+8
 975 0012 9342     		cmp	r3, r2
 976 0014 17D0     		beq	.L93
 977              	.LVL52:
 978              	.L86:
 421:Core/Src/tim.c ****   {
 422:Core/Src/tim.c ****   /* USER CODE BEGIN TIM5_MspDeInit 0 */
 423:Core/Src/tim.c **** 
 424:Core/Src/tim.c ****   /* USER CODE END TIM5_MspDeInit 0 */
 425:Core/Src/tim.c ****     /* Peripheral clock disable */
 426:Core/Src/tim.c ****     __HAL_RCC_TIM5_CLK_DISABLE();
 427:Core/Src/tim.c ****   
 428:Core/Src/tim.c ****     /**TIM5 GPIO Configuration    
 429:Core/Src/tim.c ****     PA0-WKUP     ------> TIM5_CH1
 430:Core/Src/tim.c ****     PA1     ------> TIM5_CH2 
 431:Core/Src/tim.c ****     */
 432:Core/Src/tim.c ****     HAL_GPIO_DeInit(GPIOA, GPIO_PIN_0|GPIO_PIN_1);
 433:Core/Src/tim.c **** 
 434:Core/Src/tim.c ****   /* USER CODE BEGIN TIM5_MspDeInit 1 */
 435:Core/Src/tim.c **** 
 436:Core/Src/tim.c ****   /* USER CODE END TIM5_MspDeInit 1 */
 437:Core/Src/tim.c ****   }
 438:Core/Src/tim.c **** }
 979              		.loc 1 438 0
 980 0016 08BD     		pop	{r3, pc}
 981              	.LVL53:
 982              	.L91:
 390:Core/Src/tim.c ****   
 983              		.loc 1 390 0
 984 0018 02F50D32 		add	r2, r2, #144384
 985 001c 136C     		ldr	r3, [r2, #64]
 986 001e 23F00203 		bic	r3, r3, #2
 987 0022 1364     		str	r3, [r2, #64]
 396:Core/Src/tim.c **** 
 988              		.loc 1 396 0
 989 0024 C021     		movs	r1, #192
 990 0026 1048     		ldr	r0, .L94+12
 991              	.LVL54:
ARM GAS  C:\Users\n-is\AppData\Local\Temp\cc6WTnM6.s 			page 27


 992 0028 FFF7FEFF 		bl	HAL_GPIO_DeInit
 993              	.LVL55:
 994 002c F3E7     		b	.L86
 995              	.LVL56:
 996              	.L92:
 408:Core/Src/tim.c ****   
 997              		.loc 1 408 0
 998 002e 02F50C32 		add	r2, r2, #143360
 999 0032 136C     		ldr	r3, [r2, #64]
 1000 0034 23F00403 		bic	r3, r3, #4
 1001 0038 1364     		str	r3, [r2, #64]
 414:Core/Src/tim.c **** 
 1002              		.loc 1 414 0
 1003 003a 4FF44051 		mov	r1, #12288
 1004 003e 0B48     		ldr	r0, .L94+16
 1005              	.LVL57:
 1006 0040 FFF7FEFF 		bl	HAL_GPIO_DeInit
 1007              	.LVL58:
 1008 0044 E7E7     		b	.L86
 1009              	.LVL59:
 1010              	.L93:
 426:Core/Src/tim.c ****   
 1011              		.loc 1 426 0
 1012 0046 02F50B32 		add	r2, r2, #142336
 1013 004a 136C     		ldr	r3, [r2, #64]
 1014 004c 23F00803 		bic	r3, r3, #8
 1015 0050 1364     		str	r3, [r2, #64]
 432:Core/Src/tim.c **** 
 1016              		.loc 1 432 0
 1017 0052 0321     		movs	r1, #3
 1018 0054 0448     		ldr	r0, .L94+12
 1019              	.LVL60:
 1020 0056 FFF7FEFF 		bl	HAL_GPIO_DeInit
 1021              	.LVL61:
 1022              		.loc 1 438 0
 1023 005a DCE7     		b	.L86
 1024              	.L95:
 1025              		.align	2
 1026              	.L94:
 1027 005c 00040040 		.word	1073742848
 1028 0060 00080040 		.word	1073743872
 1029 0064 000C0040 		.word	1073744896
 1030 0068 00000240 		.word	1073872896
 1031 006c 000C0240 		.word	1073875968
 1032              		.cfi_endproc
 1033              	.LFE135:
 1035              		.section	.text.HAL_TIM_PWM_MspDeInit,"ax",%progbits
 1036              		.align	1
 1037              		.global	HAL_TIM_PWM_MspDeInit
 1038              		.syntax unified
 1039              		.thumb
 1040              		.thumb_func
 1041              		.fpu fpv4-sp-d16
 1043              	HAL_TIM_PWM_MspDeInit:
 1044              	.LFB136:
 439:Core/Src/tim.c **** 
 440:Core/Src/tim.c **** void HAL_TIM_PWM_MspDeInit(TIM_HandleTypeDef* tim_pwmHandle)
ARM GAS  C:\Users\n-is\AppData\Local\Temp\cc6WTnM6.s 			page 28


 441:Core/Src/tim.c **** {
 1045              		.loc 1 441 0
 1046              		.cfi_startproc
 1047              		@ args = 0, pretend = 0, frame = 0
 1048              		@ frame_needed = 0, uses_anonymous_args = 0
 1049              		@ link register save eliminated.
 1050              	.LVL62:
 442:Core/Src/tim.c **** 
 443:Core/Src/tim.c ****   if(tim_pwmHandle->Instance==TIM8)
 1051              		.loc 1 443 0
 1052 0000 0268     		ldr	r2, [r0]
 1053 0002 054B     		ldr	r3, .L99
 1054 0004 9A42     		cmp	r2, r3
 1055 0006 00D0     		beq	.L98
 1056              	.L96:
 444:Core/Src/tim.c ****   {
 445:Core/Src/tim.c ****   /* USER CODE BEGIN TIM8_MspDeInit 0 */
 446:Core/Src/tim.c **** 
 447:Core/Src/tim.c ****   /* USER CODE END TIM8_MspDeInit 0 */
 448:Core/Src/tim.c ****     /* Peripheral clock disable */
 449:Core/Src/tim.c ****     __HAL_RCC_TIM8_CLK_DISABLE();
 450:Core/Src/tim.c **** 
 451:Core/Src/tim.c ****     /* TIM8 interrupt Deinit */
 452:Core/Src/tim.c ****   /* USER CODE BEGIN TIM8:TIM8_TRG_COM_TIM14_IRQn disable */
 453:Core/Src/tim.c ****     /**
 454:Core/Src/tim.c ****     * Uncomment the line below to disable the "TIM8_TRG_COM_TIM14_IRQn" interrupt
 455:Core/Src/tim.c ****     * Be aware, disabling shared interrupt may affect other IPs
 456:Core/Src/tim.c ****     */
 457:Core/Src/tim.c ****     /* HAL_NVIC_DisableIRQ(TIM8_TRG_COM_TIM14_IRQn); */
 458:Core/Src/tim.c ****   /* USER CODE END TIM8:TIM8_TRG_COM_TIM14_IRQn disable */
 459:Core/Src/tim.c **** 
 460:Core/Src/tim.c ****   /* USER CODE BEGIN TIM8_MspDeInit 1 */
 461:Core/Src/tim.c **** 
 462:Core/Src/tim.c ****   /* USER CODE END TIM8_MspDeInit 1 */
 463:Core/Src/tim.c ****   }
 464:Core/Src/tim.c **** }
 1057              		.loc 1 464 0
 1058 0008 7047     		bx	lr
 1059              	.L98:
 449:Core/Src/tim.c **** 
 1060              		.loc 1 449 0
 1061 000a 044A     		ldr	r2, .L99+4
 1062 000c 536C     		ldr	r3, [r2, #68]
 1063 000e 23F00203 		bic	r3, r3, #2
 1064 0012 5364     		str	r3, [r2, #68]
 1065              		.loc 1 464 0
 1066 0014 F8E7     		b	.L96
 1067              	.L100:
 1068 0016 00BF     		.align	2
 1069              	.L99:
 1070 0018 00040140 		.word	1073808384
 1071 001c 00380240 		.word	1073887232
 1072              		.cfi_endproc
 1073              	.LFE136:
 1075              		.section	.text.HAL_TIM_Base_MspDeInit,"ax",%progbits
 1076              		.align	1
 1077              		.global	HAL_TIM_Base_MspDeInit
ARM GAS  C:\Users\n-is\AppData\Local\Temp\cc6WTnM6.s 			page 29


 1078              		.syntax unified
 1079              		.thumb
 1080              		.thumb_func
 1081              		.fpu fpv4-sp-d16
 1083              	HAL_TIM_Base_MspDeInit:
 1084              	.LFB137:
 465:Core/Src/tim.c **** 
 466:Core/Src/tim.c **** void HAL_TIM_Base_MspDeInit(TIM_HandleTypeDef* tim_baseHandle)
 467:Core/Src/tim.c **** {
 1085              		.loc 1 467 0
 1086              		.cfi_startproc
 1087              		@ args = 0, pretend = 0, frame = 0
 1088              		@ frame_needed = 0, uses_anonymous_args = 0
 1089              		@ link register save eliminated.
 1090              	.LVL63:
 468:Core/Src/tim.c **** 
 469:Core/Src/tim.c ****   if(tim_baseHandle->Instance==TIM14)
 1091              		.loc 1 469 0
 1092 0000 0268     		ldr	r2, [r0]
 1093 0002 054B     		ldr	r3, .L104
 1094 0004 9A42     		cmp	r2, r3
 1095 0006 00D0     		beq	.L103
 1096              	.L101:
 470:Core/Src/tim.c ****   {
 471:Core/Src/tim.c ****   /* USER CODE BEGIN TIM14_MspDeInit 0 */
 472:Core/Src/tim.c **** 
 473:Core/Src/tim.c ****   /* USER CODE END TIM14_MspDeInit 0 */
 474:Core/Src/tim.c ****     /* Peripheral clock disable */
 475:Core/Src/tim.c ****     __HAL_RCC_TIM14_CLK_DISABLE();
 476:Core/Src/tim.c **** 
 477:Core/Src/tim.c ****     /* TIM14 interrupt Deinit */
 478:Core/Src/tim.c ****   /* USER CODE BEGIN TIM14:TIM8_TRG_COM_TIM14_IRQn disable */
 479:Core/Src/tim.c ****     /**
 480:Core/Src/tim.c ****     * Uncomment the line below to disable the "TIM8_TRG_COM_TIM14_IRQn" interrupt
 481:Core/Src/tim.c ****     * Be aware, disabling shared interrupt may affect other IPs
 482:Core/Src/tim.c ****     */
 483:Core/Src/tim.c ****     /* HAL_NVIC_DisableIRQ(TIM8_TRG_COM_TIM14_IRQn); */
 484:Core/Src/tim.c ****   /* USER CODE END TIM14:TIM8_TRG_COM_TIM14_IRQn disable */
 485:Core/Src/tim.c **** 
 486:Core/Src/tim.c ****   /* USER CODE BEGIN TIM14_MspDeInit 1 */
 487:Core/Src/tim.c **** 
 488:Core/Src/tim.c ****   /* USER CODE END TIM14_MspDeInit 1 */
 489:Core/Src/tim.c ****   }
 490:Core/Src/tim.c **** } 
 1097              		.loc 1 490 0
 1098 0008 7047     		bx	lr
 1099              	.L103:
 475:Core/Src/tim.c **** 
 1100              		.loc 1 475 0
 1101 000a 044A     		ldr	r2, .L104+4
 1102 000c 136C     		ldr	r3, [r2, #64]
 1103 000e 23F48073 		bic	r3, r3, #256
 1104 0012 1364     		str	r3, [r2, #64]
 1105              		.loc 1 490 0
 1106 0014 F8E7     		b	.L101
 1107              	.L105:
 1108 0016 00BF     		.align	2
ARM GAS  C:\Users\n-is\AppData\Local\Temp\cc6WTnM6.s 			page 30


 1109              	.L104:
 1110 0018 00200040 		.word	1073750016
 1111 001c 00380240 		.word	1073887232
 1112              		.cfi_endproc
 1113              	.LFE137:
 1115              		.comm	htim14,60,4
 1116              		.comm	htim8,60,4
 1117              		.comm	htim5,60,4
 1118              		.comm	htim4,60,4
 1119              		.comm	htim3,60,4
 1120              		.section	.rodata.MX_TIM3_Init.str1.4,"aMS",%progbits,1
 1121              		.align	2
 1122              	.LC0:
 1123 0000 436F7265 		.ascii	"Core/Src/tim.c\000"
 1123      2F537263 
 1123      2F74696D 
 1123      2E6300
 1124              		.text
 1125              	.Letext0:
 1126              		.file 2 "c:\\program files (x86)\\gnu tools arm embedded\\7 2018-q2-update\\arm-none-eabi\\include
 1127              		.file 3 "c:\\program files (x86)\\gnu tools arm embedded\\7 2018-q2-update\\arm-none-eabi\\include
 1128              		.file 4 "Drivers/CMSIS/Include/core_cm4.h"
 1129              		.file 5 "Drivers/CMSIS/Device/ST/STM32F4xx/Include/system_stm32f4xx.h"
 1130              		.file 6 "Drivers/CMSIS/Device/ST/STM32F4xx/Include/stm32f407xx.h"
 1131              		.file 7 "c:\\program files (x86)\\gnu tools arm embedded\\7 2018-q2-update\\arm-none-eabi\\include
 1132              		.file 8 "c:\\program files (x86)\\gnu tools arm embedded\\7 2018-q2-update\\arm-none-eabi\\include
 1133              		.file 9 "c:\\program files (x86)\\gnu tools arm embedded\\7 2018-q2-update\\lib\\gcc\\arm-none-eab
 1134              		.file 10 "c:\\program files (x86)\\gnu tools arm embedded\\7 2018-q2-update\\arm-none-eabi\\includ
 1135              		.file 11 "Drivers/STM32F4xx_HAL_Driver/Inc/stm32f4xx_hal_def.h"
 1136              		.file 12 "Drivers/STM32F4xx_HAL_Driver/Inc/stm32f4xx_hal_gpio.h"
 1137              		.file 13 "Drivers/STM32F4xx_HAL_Driver/Inc/stm32f4xx_hal_dma.h"
 1138              		.file 14 "Drivers/STM32F4xx_HAL_Driver/Inc/stm32f4xx_hal_tim.h"
 1139              		.file 15 "Drivers/STM32F4xx_HAL_Driver/Inc/stm32f4xx_hal_tim_ex.h"
 1140              		.file 16 "Core/Inc/tim.h"
 1141              		.file 17 "Drivers/STM32F4xx_HAL_Driver/Inc/stm32f4xx_hal_cortex.h"
ARM GAS  C:\Users\n-is\AppData\Local\Temp\cc6WTnM6.s 			page 31

