ARM GAS  C:\Users\Prashant\AppData\Local\Temp\ccWTVu7M.s 			page 1


   1              		.cpu cortex-m4
   2              		.eabi_attribute 27, 1
   3              		.eabi_attribute 28, 1
   4              		.eabi_attribute 20, 1
   5              		.eabi_attribute 21, 1
   6              		.eabi_attribute 23, 3
   7              		.eabi_attribute 24, 1
   8              		.eabi_attribute 25, 1
   9              		.eabi_attribute 26, 1
  10              		.eabi_attribute 30, 1
  11              		.eabi_attribute 34, 1
  12              		.eabi_attribute 18, 4
  13              		.file	"check.c"
  14              		.text
  15              	.Ltext0:
  16              		.cfi_sections	.debug_frame
  17              		.section	.text.checkAngle,"ax",%progbits
  18              		.align	1
  19              		.global	checkAngle
  20              		.syntax unified
  21              		.thumb
  22              		.thumb_func
  23              		.fpu fpv4-sp-d16
  25              	checkAngle:
  26              	.LFB126:
  27              		.file 1 "Core/Src/check.c"
   1:Core/Src/check.c **** /*27-1-2019*/
   2:Core/Src/check.c **** 
   3:Core/Src/check.c **** #include "check.h"
   4:Core/Src/check.c **** 
   5:Core/Src/check.c **** int checkAngle(int motor_index)
   6:Core/Src/check.c **** {
  28              		.loc 1 6 0
  29              		.cfi_startproc
  30              		@ args = 0, pretend = 0, frame = 0
  31              		@ frame_needed = 0, uses_anonymous_args = 0
  32              		@ link register save eliminated.
  33              	.LVL0:
  34 0000 30B4     		push	{r4, r5}
  35              	.LCFI0:
  36              		.cfi_def_cfa_offset 8
  37              		.cfi_offset 4, -8
  38              		.cfi_offset 5, -4
  39              	.LVL1:
  40              	.LBB2:
   7:Core/Src/check.c ****     int temp_check_variable = 1;
   8:Core/Src/check.c ****     for (uint8_t i = 0; i < 4; i++)
  41              		.loc 1 8 0
  42 0002 0023     		movs	r3, #0
  43              	.LBE2:
   7:Core/Src/check.c ****     int temp_check_variable = 1;
  44              		.loc 1 7 0
  45 0004 0124     		movs	r4, #1
  46              	.LBB3:
  47              		.loc 1 8 0
  48 0006 12E0     		b	.L2
  49              	.LVL2:
ARM GAS  C:\Users\Prashant\AppData\Local\Temp\ccWTVu7M.s 			page 2


  50              	.L3:
   9:Core/Src/check.c ****     {
  10:Core/Src/check.c ****         if (i != motor_index)
  11:Core/Src/check.c ****         {
  12:Core/Src/check.c ****             if (ff_arr[i].status == ffCOMPLETE)
  13:Core/Src/check.c ****             {
  14:Core/Src/check.c ****                 temp_check_variable = temp_check_variable * 10 + 1;
  15:Core/Src/check.c ****             }
  16:Core/Src/check.c ****         }
  17:Core/Src/check.c **** 
  18:Core/Src/check.c ****         else
  19:Core/Src/check.c ****         {
  20:Core/Src/check.c ****             if (int_arr[i].intState == STATE_A)
  51              		.loc 1 20 0
  52 0008 03EB4301 		add	r1, r3, r3, lsl #1
  53 000c 8D00     		lsls	r5, r1, #2
  54 000e 1549     		ldr	r1, .L11
  55 0010 2944     		add	r1, r1, r5
  56 0012 897A     		ldrb	r1, [r1, #10]	@ zero_extendqisi2
  57 0014 49B9     		cbnz	r1, .L4
  21:Core/Src/check.c ****             {
  22:Core/Src/check.c ****                 temp_check_variable = temp_check_variable * 10 + 1;
  58              		.loc 1 22 0
  59 0016 04EB8404 		add	r4, r4, r4, lsl #2
  60              	.LVL3:
  61 001a 6100     		lsls	r1, r4, #1
  62 001c 4C1C     		adds	r4, r1, #1
  63              	.LVL4:
  23:Core/Src/check.c ****                 motor_arr[i].update_omega = 0;
  64              		.loc 1 23 0
  65 001e 1249     		ldr	r1, .L11+4
  66 0020 3425     		movs	r5, #52
  67 0022 05FB0312 		mla	r2, r5, r3, r1
  68 0026 0021     		movs	r1, #0
  69 0028 1161     		str	r1, [r2, #16]	@ float
  70              	.L4:
   8:Core/Src/check.c ****     {
  71              		.loc 1 8 0 discriminator 2
  72 002a 0133     		adds	r3, r3, #1
  73              	.LVL5:
  74 002c DBB2     		uxtb	r3, r3
  75              	.LVL6:
  76              	.L2:
   8:Core/Src/check.c ****     {
  77              		.loc 1 8 0 is_stmt 0 discriminator 1
  78 002e 032B     		cmp	r3, #3
  79 0030 0FD8     		bhi	.L9
  10:Core/Src/check.c ****         {
  80              		.loc 1 10 0 is_stmt 1
  81 0032 8342     		cmp	r3, r0
  82 0034 E8D0     		beq	.L3
  12:Core/Src/check.c ****             {
  83              		.loc 1 12 0
  84 0036 C3EB0312 		rsb	r2, r3, r3, lsl #4
  85 003a 9100     		lsls	r1, r2, #2
  86 003c 0B4A     		ldr	r2, .L11+8
  87 003e 0A44     		add	r2, r2, r1
ARM GAS  C:\Users\Prashant\AppData\Local\Temp\ccWTVu7M.s 			page 3


  88 0040 92F83820 		ldrb	r2, [r2, #56]	@ zero_extendqisi2
  89 0044 012A     		cmp	r2, #1
  90 0046 F0D1     		bne	.L4
  14:Core/Src/check.c ****             }
  91              		.loc 1 14 0
  92 0048 04EB8404 		add	r4, r4, r4, lsl #2
  93              	.LVL7:
  94 004c 6200     		lsls	r2, r4, #1
  95 004e 541C     		adds	r4, r2, #1
  96              	.LVL8:
  97 0050 EBE7     		b	.L4
  98              	.L9:
  99              	.LBE3:
  24:Core/Src/check.c ****             }
  25:Core/Src/check.c ****                  
  26:Core/Src/check.c ****         }
  27:Core/Src/check.c ****     }
  28:Core/Src/check.c **** 
  29:Core/Src/check.c ****     if (temp_check_variable == 11111)
 100              		.loc 1 29 0
 101 0052 42F66733 		movw	r3, #11111
 102              	.LVL9:
 103 0056 9C42     		cmp	r4, r3
 104 0058 02D0     		beq	.L10
  30:Core/Src/check.c ****         return 1;
  31:Core/Src/check.c **** 
  32:Core/Src/check.c ****     else
  33:Core/Src/check.c ****         return 0;
 105              		.loc 1 33 0
 106 005a 0020     		movs	r0, #0
 107              	.LVL10:
 108              	.L1:
  34:Core/Src/check.c **** }
 109              		.loc 1 34 0
 110 005c 30BC     		pop	{r4, r5}
 111              	.LCFI1:
 112              		.cfi_remember_state
 113              		.cfi_restore 5
 114              		.cfi_restore 4
 115              		.cfi_def_cfa_offset 0
 116              	.LVL11:
 117 005e 7047     		bx	lr
 118              	.LVL12:
 119              	.L10:
 120              	.LCFI2:
 121              		.cfi_restore_state
  30:Core/Src/check.c ****         return 1;
 122              		.loc 1 30 0
 123 0060 0120     		movs	r0, #1
 124              	.LVL13:
 125 0062 FBE7     		b	.L1
 126              	.L12:
 127              		.align	2
 128              	.L11:
 129 0064 00000000 		.word	int_arr
 130 0068 00000000 		.word	motor_arr
 131 006c 00000000 		.word	ff_arr
ARM GAS  C:\Users\Prashant\AppData\Local\Temp\ccWTVu7M.s 			page 4


 132              		.cfi_endproc
 133              	.LFE126:
 135              		.section	.text.checkHomePosition,"ax",%progbits
 136              		.align	1
 137              		.global	checkHomePosition
 138              		.syntax unified
 139              		.thumb
 140              		.thumb_func
 141              		.fpu fpv4-sp-d16
 143              	checkHomePosition:
 144              	.LFB127:
  35:Core/Src/check.c **** 
  36:Core/Src/check.c **** int checkHomePosition(void)
  37:Core/Src/check.c **** {
 145              		.loc 1 37 0
 146              		.cfi_startproc
 147              		@ args = 0, pretend = 0, frame = 0
 148              		@ frame_needed = 0, uses_anonymous_args = 0
 149              		@ link register save eliminated.
 150              	.LVL14:
 151              	.LBB4:
  38:Core/Src/check.c ****     uint8_t check_variable = 0;
  39:Core/Src/check.c **** 
  40:Core/Src/check.c ****     for (uint8_t i = 0; i < 4; i++)
 152              		.loc 1 40 0
 153 0000 0023     		movs	r3, #0
 154              	.LBE4:
  38:Core/Src/check.c ****     uint8_t check_variable = 0;
 155              		.loc 1 38 0
 156 0002 1A46     		mov	r2, r3
 157              	.LBB5:
 158              		.loc 1 40 0
 159 0004 09E0     		b	.L14
 160              	.LVL15:
 161              	.L15:
  41:Core/Src/check.c ****     {
  42:Core/Src/check.c ****         check_variable += int_arr[i].fhome_pos;
 162              		.loc 1 42 0 discriminator 3
 163 0006 03EB4301 		add	r1, r3, r3, lsl #1
 164 000a 8800     		lsls	r0, r1, #2
 165 000c 0949     		ldr	r1, .L19
 166 000e 0144     		add	r1, r1, r0
 167 0010 4978     		ldrb	r1, [r1, #1]	@ zero_extendqisi2
 168 0012 0A44     		add	r2, r2, r1
 169              	.LVL16:
 170 0014 D2B2     		uxtb	r2, r2
 171              	.LVL17:
  40:Core/Src/check.c ****     {
 172              		.loc 1 40 0 discriminator 3
 173 0016 0133     		adds	r3, r3, #1
 174              	.LVL18:
 175 0018 DBB2     		uxtb	r3, r3
 176              	.LVL19:
 177              	.L14:
  40:Core/Src/check.c ****     {
 178              		.loc 1 40 0 is_stmt 0 discriminator 1
 179 001a 032B     		cmp	r3, #3
ARM GAS  C:\Users\Prashant\AppData\Local\Temp\ccWTVu7M.s 			page 5


 180 001c F3D9     		bls	.L15
 181              	.LBE5:
  43:Core/Src/check.c ****     }
  44:Core/Src/check.c **** 
  45:Core/Src/check.c ****     check_variable += blnc_int_arr[2].fhome_pos;
 182              		.loc 1 45 0 is_stmt 1
 183 001e 064B     		ldr	r3, .L19+4
 184              	.LVL20:
 185 0020 5B7E     		ldrb	r3, [r3, #25]	@ zero_extendqisi2
 186 0022 1A44     		add	r2, r2, r3
 187              	.LVL21:
 188 0024 D2B2     		uxtb	r2, r2
 189              	.LVL22:
  46:Core/Src/check.c ****     if (check_variable == 4)
 190              		.loc 1 46 0
 191 0026 042A     		cmp	r2, #4
 192 0028 01D0     		beq	.L18
  47:Core/Src/check.c ****         return 1;
  48:Core/Src/check.c ****     else
  49:Core/Src/check.c ****         return 0;
 193              		.loc 1 49 0
 194 002a 0020     		movs	r0, #0
  50:Core/Src/check.c **** }
 195              		.loc 1 50 0
 196 002c 7047     		bx	lr
 197              	.L18:
  47:Core/Src/check.c ****         return 1;
 198              		.loc 1 47 0
 199 002e 0120     		movs	r0, #1
 200 0030 7047     		bx	lr
 201              	.L20:
 202 0032 00BF     		.align	2
 203              	.L19:
 204 0034 00000000 		.word	int_arr
 205 0038 00000000 		.word	blnc_int_arr
 206              		.cfi_endproc
 207              	.LFE127:
 209              		.text
 210              	.Letext0:
 211              		.file 2 "c:\\program files (x86)\\gnu tools arm embedded\\7 2017-q4-major\\arm-none-eabi\\include\
 212              		.file 3 "c:\\program files (x86)\\gnu tools arm embedded\\7 2017-q4-major\\arm-none-eabi\\include\
 213              		.file 4 "C:/Users/Prashant/STM32Cube/Repository/STM32Cube_FW_F4_V1.21.0/Drivers/CMSIS/Include/core
 214              		.file 5 "C:/Users/Prashant/STM32Cube/Repository/STM32Cube_FW_F4_V1.21.0/Drivers/CMSIS/Device/ST/ST
 215              		.file 6 "C:/Users/Prashant/STM32Cube/Repository/STM32Cube_FW_F4_V1.21.0/Drivers/CMSIS/Device/ST/ST
 216              		.file 7 "c:\\program files (x86)\\gnu tools arm embedded\\7 2017-q4-major\\arm-none-eabi\\include\
 217              		.file 8 "c:\\program files (x86)\\gnu tools arm embedded\\7 2017-q4-major\\arm-none-eabi\\include\
 218              		.file 9 "c:\\program files (x86)\\gnu tools arm embedded\\7 2017-q4-major\\lib\\gcc\\arm-none-eabi
 219              		.file 10 "c:\\program files (x86)\\gnu tools arm embedded\\7 2017-q4-major\\arm-none-eabi\\include
 220              		.file 11 "C:/Users/Prashant/STM32Cube/Repository/STM32Cube_FW_F4_V1.21.0/Drivers/STM32F4xx_HAL_Dri
 221              		.file 12 "C:/Users/Prashant/STM32Cube/Repository/STM32Cube_FW_F4_V1.21.0/Drivers/STM32F4xx_HAL_Dri
 222              		.file 13 "C:/Users/Prashant/STM32Cube/Repository/STM32Cube_FW_F4_V1.21.0/Drivers/STM32F4xx_HAL_Dri
 223              		.file 14 "Core/Inc\\periphs/tim.h"
 224              		.file 15 "Core/Inc/feed_forward.h"
 225              		.file 16 "Core/Inc/pneumatic.h"
 226              		.file 17 "Core/Inc/interrupt.h"
 227              		.file 18 "Core/Inc/encoder.h"
 228              		.file 19 "Core/Inc/motor.h"
ARM GAS  C:\Users\Prashant\AppData\Local\Temp\ccWTVu7M.s 			page 6


 229              		.file 20 "Core/Inc/pid.h"
 230              		.file 21 "Core/Inc/fsm.h"
 231              		.file 22 "Core/Inc/robo_init.h"
ARM GAS  C:\Users\Prashant\AppData\Local\Temp\ccWTVu7M.s 			page 7

