ARM GAS  C:\Users\Prashant\AppData\Local\Temp\ccJYun8i.s 			page 1


   1              		.cpu cortex-m4
   2              		.eabi_attribute 27, 1
   3              		.eabi_attribute 28, 1
   4              		.eabi_attribute 20, 1
   5              		.eabi_attribute 21, 1
   6              		.eabi_attribute 23, 3
   7              		.eabi_attribute 24, 1
   8              		.eabi_attribute 25, 1
   9              		.eabi_attribute 26, 1
  10              		.eabi_attribute 30, 1
  11              		.eabi_attribute 34, 1
  12              		.eabi_attribute 18, 4
  13              		.file	"fsm.cpp"
  14              		.text
  15              	.Ltext0:
  16              		.cfi_sections	.debug_frame
  17              		.section	.text._Z8startFSMP6fsmStr,"ax",%progbits
  18              		.align	1
  19              		.global	_Z8startFSMP6fsmStr
  20              		.syntax unified
  21              		.thumb
  22              		.thumb_func
  23              		.fpu fpv4-sp-d16
  25              	_Z8startFSMP6fsmStr:
  26              	.LFB136:
  27              		.file 1 "Core/Src/robot/fsm.cpp"
   1:Core/Src/robot/fsm.cpp **** /*27-1-2019*/
   2:Core/Src/robot/fsm.cpp **** // 238.34
   3:Core/Src/robot/fsm.cpp **** 
   4:Core/Src/robot/fsm.cpp **** #include "fsm.h"
   5:Core/Src/robot/fsm.cpp **** #include "fsm_tasks.h"
   6:Core/Src/robot/fsm.cpp **** #include "robo_states.h"
   7:Core/Src/robot/fsm.cpp **** 
   8:Core/Src/robot/fsm.cpp **** extern State gHorse_State;
   9:Core/Src/robot/fsm.cpp **** extern bool gReady_To_Go;
  10:Core/Src/robot/fsm.cpp **** 
  11:Core/Src/robot/fsm.cpp **** void startFSM(struct fsmStr *sfsm)
  12:Core/Src/robot/fsm.cpp **** {
  28              		.loc 1 12 0
  29              		.cfi_startproc
  30              		@ args = 0, pretend = 0, frame = 0
  31              		@ frame_needed = 0, uses_anonymous_args = 0
  32              	.LVL0:
  33 0000 10B5     		push	{r4, lr}
  34              	.LCFI0:
  35              		.cfi_def_cfa_offset 8
  36              		.cfi_offset 4, -8
  37              		.cfi_offset 14, -4
  38 0002 0446     		mov	r4, r0
  13:Core/Src/robot/fsm.cpp ****         switch (gHorse_State.get_ID())
  39              		.loc 1 13 0
  40 0004 4648     		ldr	r0, .L12
  41              	.LVL1:
  42 0006 FFF7FEFF 		bl	_ZN5State6get_IDEv
  43              	.LVL2:
  44 000a 0428     		cmp	r0, #4
  45 000c 51D8     		bhi	.L1
ARM GAS  C:\Users\Prashant\AppData\Local\Temp\ccJYun8i.s 			page 2


  46 000e DFE800F0 		tbb	[pc, r0]
  47              	.L4:
  48 0012 03       		.byte	(.L3-.L4)/2
  49 0013 10       		.byte	(.L5-.L4)/2
  50 0014 2E       		.byte	(.L6-.L4)/2
  51 0015 4A       		.byte	(.L7-.L4)/2
  52 0016 4D       		.byte	(.L8-.L4)/2
  53 0017 00       		.p2align 1
  54              	.L3:
  14:Core/Src/robot/fsm.cpp ****         {
  15:Core/Src/robot/fsm.cpp ****         case State_ID::HOME:
  16:Core/Src/robot/fsm.cpp ****                 homePositionChores(sfsm);
  55              		.loc 1 16 0
  56 0018 2046     		mov	r0, r4
  57 001a FFF7FEFF 		bl	_Z18homePositionChoresP6fsmStr
  58              	.LVL3:
  17:Core/Src/robot/fsm.cpp ****                 if (checkHomePosition())
  59              		.loc 1 17 0
  60 001e FFF7FEFF 		bl	_Z17checkHomePositionv
  61              	.LVL4:
  62 0022 0028     		cmp	r0, #0
  63 0024 45D0     		beq	.L1
  18:Core/Src/robot/fsm.cpp ****                 {
  19:Core/Src/robot/fsm.cpp ****                         printf("PHASE_1\n");
  64              		.loc 1 19 0
  65 0026 3F48     		ldr	r0, .L12+4
  66 0028 FFF7FEFF 		bl	puts
  67              	.LVL5:
  20:Core/Src/robot/fsm.cpp ****                         stateReset();
  68              		.loc 1 20 0
  69 002c FFF7FEFF 		bl	_Z10stateResetv
  70              	.LVL6:
  71 0030 3FE0     		b	.L1
  72              	.L5:
  21:Core/Src/robot/fsm.cpp ****                 }
  22:Core/Src/robot/fsm.cpp ****                 break;
  23:Core/Src/robot/fsm.cpp **** 
  24:Core/Src/robot/fsm.cpp **** 	case State_ID::WS1:
  25:Core/Src/robot/fsm.cpp **** 		if (gReady_To_Go)
  73              		.loc 1 25 0
  74 0032 3D4B     		ldr	r3, .L12+8
  75 0034 1B78     		ldrb	r3, [r3]	@ zero_extendqisi2
  76 0036 002B     		cmp	r3, #0
  77 0038 3BD0     		beq	.L1
  26:Core/Src/robot/fsm.cpp **** 		{
  27:Core/Src/robot/fsm.cpp **** 			phaseOneChores(sfsm);
  78              		.loc 1 27 0
  79 003a 2046     		mov	r0, r4
  80 003c FFF7FEFF 		bl	_Z14phaseOneChoresP6fsmStr
  81              	.LVL7:
  28:Core/Src/robot/fsm.cpp **** 			if (checkAngle(0))
  82              		.loc 1 28 0
  83 0040 0020     		movs	r0, #0
  84 0042 FFF7FEFF 		bl	_Z10checkAnglei
  85              	.LVL8:
  86 0046 0028     		cmp	r0, #0
  87 0048 33D0     		beq	.L1
ARM GAS  C:\Users\Prashant\AppData\Local\Temp\ccJYun8i.s 			page 3


  29:Core/Src/robot/fsm.cpp **** 			{
  30:Core/Src/robot/fsm.cpp **** 				printf("PHASE_2\n");
  88              		.loc 1 30 0
  89 004a 3848     		ldr	r0, .L12+12
  90 004c FFF7FEFF 		bl	puts
  91              	.LVL9:
  31:Core/Src/robot/fsm.cpp **** 				gReady_To_Go = false;
  92              		.loc 1 31 0
  93 0050 354B     		ldr	r3, .L12+8
  94 0052 0022     		movs	r2, #0
  95 0054 1A70     		strb	r2, [r3]
  32:Core/Src/robot/fsm.cpp **** 				gHorse_State.update_State();
  96              		.loc 1 32 0
  97 0056 3248     		ldr	r0, .L12
  98 0058 FFF7FEFF 		bl	_ZN5State12update_StateEv
  99              	.LVL10:
  33:Core/Src/robot/fsm.cpp **** 				stateReset();
 100              		.loc 1 33 0
 101 005c FFF7FEFF 		bl	_Z10stateResetv
 102              	.LVL11:
  34:Core/Src/robot/fsm.cpp **** 
  35:Core/Src/robot/fsm.cpp **** 				motor_arr[0].encoder->last_count = motor_arr[0].encoder->htim->Instance->CNT;
 103              		.loc 1 35 0
 104 0060 334B     		ldr	r3, .L12+16
 105 0062 1B6B     		ldr	r3, [r3, #48]
 106 0064 DA68     		ldr	r2, [r3, #12]
 107 0066 1268     		ldr	r2, [r2]
 108 0068 526A     		ldr	r2, [r2, #36]
 109 006a 9A80     		strh	r2, [r3, #4]	@ movhi
 110 006c 21E0     		b	.L1
 111              	.L6:
  36:Core/Src/robot/fsm.cpp **** 
  37:Core/Src/robot/fsm.cpp **** 				//HAL_Delay(300);
  38:Core/Src/robot/fsm.cpp **** 			}
  39:Core/Src/robot/fsm.cpp **** 		}
  40:Core/Src/robot/fsm.cpp **** 		break;
  41:Core/Src/robot/fsm.cpp **** 
  42:Core/Src/robot/fsm.cpp **** 	case State_ID::WS2:
  43:Core/Src/robot/fsm.cpp **** 		if (gReady_To_Go)
 112              		.loc 1 43 0
 113 006e 2E4B     		ldr	r3, .L12+8
 114 0070 1B78     		ldrb	r3, [r3]	@ zero_extendqisi2
 115 0072 F3B1     		cbz	r3, .L1
  44:Core/Src/robot/fsm.cpp **** 		{
  45:Core/Src/robot/fsm.cpp **** 			phaseTwoChores(sfsm);
 116              		.loc 1 45 0
 117 0074 2046     		mov	r0, r4
 118 0076 FFF7FEFF 		bl	_Z14phaseTwoChoresP6fsmStr
 119              	.LVL12:
  46:Core/Src/robot/fsm.cpp **** 			if (checkAngle(1))
 120              		.loc 1 46 0
 121 007a 0120     		movs	r0, #1
 122 007c FFF7FEFF 		bl	_Z10checkAnglei
 123              	.LVL13:
 124 0080 B8B1     		cbz	r0, .L1
  47:Core/Src/robot/fsm.cpp **** 			{
  48:Core/Src/robot/fsm.cpp **** 				printf("PHASE_3\n");
ARM GAS  C:\Users\Prashant\AppData\Local\Temp\ccJYun8i.s 			page 4


 125              		.loc 1 48 0
 126 0082 2C48     		ldr	r0, .L12+20
 127 0084 FFF7FEFF 		bl	puts
 128              	.LVL14:
  49:Core/Src/robot/fsm.cpp **** 				gReady_To_Go = false;
 129              		.loc 1 49 0
 130 0088 274B     		ldr	r3, .L12+8
 131 008a 0022     		movs	r2, #0
 132 008c 1A70     		strb	r2, [r3]
  50:Core/Src/robot/fsm.cpp **** 
  51:Core/Src/robot/fsm.cpp **** 				gHorse_State.update_State();
 133              		.loc 1 51 0
 134 008e 2448     		ldr	r0, .L12
 135 0090 FFF7FEFF 		bl	_ZN5State12update_StateEv
 136              	.LVL15:
  52:Core/Src/robot/fsm.cpp **** 				stateReset();
 137              		.loc 1 52 0
 138 0094 FFF7FEFF 		bl	_Z10stateResetv
 139              	.LVL16:
  53:Core/Src/robot/fsm.cpp **** 
  54:Core/Src/robot/fsm.cpp **** 				motor_arr[1].encoder->last_count = motor_arr[1].encoder->htim->Instance->CNT;
 140              		.loc 1 54 0
 141 0098 254B     		ldr	r3, .L12+16
 142 009a 5B6E     		ldr	r3, [r3, #100]
 143 009c DA68     		ldr	r2, [r3, #12]
 144 009e 1268     		ldr	r2, [r2]
 145 00a0 526A     		ldr	r2, [r2, #36]
 146 00a2 9A80     		strh	r2, [r3, #4]	@ movhi
 147 00a4 05E0     		b	.L1
 148              	.L7:
  55:Core/Src/robot/fsm.cpp **** 
  56:Core/Src/robot/fsm.cpp **** 				//HAL_Delay(300);
  57:Core/Src/robot/fsm.cpp **** 			
  58:Core/Src/robot/fsm.cpp **** 			}
  59:Core/Src/robot/fsm.cpp **** 		}
  60:Core/Src/robot/fsm.cpp **** 		break;
  61:Core/Src/robot/fsm.cpp **** 
  62:Core/Src/robot/fsm.cpp **** 	case State_ID::WS3:
  63:Core/Src/robot/fsm.cpp **** 		if (gReady_To_Go)
 149              		.loc 1 63 0
 150 00a6 204B     		ldr	r3, .L12+8
 151 00a8 1B78     		ldrb	r3, [r3]	@ zero_extendqisi2
 152 00aa 1BB9     		cbnz	r3, .L10
 153              	.L8:
  64:Core/Src/robot/fsm.cpp **** 		{
  65:Core/Src/robot/fsm.cpp **** 			phaseThreeChores(sfsm);
  66:Core/Src/robot/fsm.cpp **** 			if (checkAngle(2))
  67:Core/Src/robot/fsm.cpp **** 			{
  68:Core/Src/robot/fsm.cpp **** 				printf("PHASE_4\n");
  69:Core/Src/robot/fsm.cpp **** 				gReady_To_Go = false;
  70:Core/Src/robot/fsm.cpp **** 
  71:Core/Src/robot/fsm.cpp **** 				gHorse_State.update_State();
  72:Core/Src/robot/fsm.cpp **** 				stateReset();
  73:Core/Src/robot/fsm.cpp **** 
  74:Core/Src/robot/fsm.cpp **** 				motor_arr[2].encoder->last_count = motor_arr[2].encoder->htim->Instance->CNT;
  75:Core/Src/robot/fsm.cpp **** 			
  76:Core/Src/robot/fsm.cpp **** 				//HAL_Delay(300);
ARM GAS  C:\Users\Prashant\AppData\Local\Temp\ccJYun8i.s 			page 5


  77:Core/Src/robot/fsm.cpp **** 			
  78:Core/Src/robot/fsm.cpp **** 			}
  79:Core/Src/robot/fsm.cpp **** 			break;
  80:Core/Src/robot/fsm.cpp **** 		}
  81:Core/Src/robot/fsm.cpp **** 	case State_ID::WS4:
  82:Core/Src/robot/fsm.cpp **** 		if (gReady_To_Go)
 154              		.loc 1 82 0
 155 00ac 1E4B     		ldr	r3, .L12+8
 156 00ae 1B78     		ldrb	r3, [r3]	@ zero_extendqisi2
 157 00b0 DBB9     		cbnz	r3, .L11
 158              	.L1:
  83:Core/Src/robot/fsm.cpp **** 		{
  84:Core/Src/robot/fsm.cpp **** 			phaseFourChores(sfsm);
  85:Core/Src/robot/fsm.cpp **** 			if (checkAngle(3))
  86:Core/Src/robot/fsm.cpp **** 			{
  87:Core/Src/robot/fsm.cpp **** 				printf("PHASE_1\n");
  88:Core/Src/robot/fsm.cpp **** 				gReady_To_Go = false;
  89:Core/Src/robot/fsm.cpp **** 
  90:Core/Src/robot/fsm.cpp **** 				gHorse_State.update_State();
  91:Core/Src/robot/fsm.cpp **** 				stateReset();
  92:Core/Src/robot/fsm.cpp **** 
  93:Core/Src/robot/fsm.cpp **** 				motor_arr[3].encoder->last_count = motor_arr[3].encoder->htim->Instance->CNT;
  94:Core/Src/robot/fsm.cpp **** 			
  95:Core/Src/robot/fsm.cpp **** 				//HAL_Delay(300);
  96:Core/Src/robot/fsm.cpp **** 			
  97:Core/Src/robot/fsm.cpp **** 			}
  98:Core/Src/robot/fsm.cpp **** 		}
  99:Core/Src/robot/fsm.cpp **** 		break;
 100:Core/Src/robot/fsm.cpp **** 	}
 101:Core/Src/robot/fsm.cpp **** }
 159              		.loc 1 101 0
 160 00b2 10BD     		pop	{r4, pc}
 161              	.LVL17:
 162              	.L10:
  65:Core/Src/robot/fsm.cpp **** 			if (checkAngle(2))
 163              		.loc 1 65 0
 164 00b4 2046     		mov	r0, r4
 165 00b6 FFF7FEFF 		bl	_Z16phaseThreeChoresP6fsmStr
 166              	.LVL18:
  66:Core/Src/robot/fsm.cpp **** 			{
 167              		.loc 1 66 0
 168 00ba 0220     		movs	r0, #2
 169 00bc FFF7FEFF 		bl	_Z10checkAnglei
 170              	.LVL19:
 171 00c0 0028     		cmp	r0, #0
 172 00c2 F6D0     		beq	.L1
  68:Core/Src/robot/fsm.cpp **** 				gReady_To_Go = false;
 173              		.loc 1 68 0
 174 00c4 1C48     		ldr	r0, .L12+24
 175 00c6 FFF7FEFF 		bl	puts
 176              	.LVL20:
  69:Core/Src/robot/fsm.cpp **** 
 177              		.loc 1 69 0
 178 00ca 174B     		ldr	r3, .L12+8
 179 00cc 0022     		movs	r2, #0
 180 00ce 1A70     		strb	r2, [r3]
  71:Core/Src/robot/fsm.cpp **** 				stateReset();
ARM GAS  C:\Users\Prashant\AppData\Local\Temp\ccJYun8i.s 			page 6


 181              		.loc 1 71 0
 182 00d0 1348     		ldr	r0, .L12
 183 00d2 FFF7FEFF 		bl	_ZN5State12update_StateEv
 184              	.LVL21:
  72:Core/Src/robot/fsm.cpp **** 
 185              		.loc 1 72 0
 186 00d6 FFF7FEFF 		bl	_Z10stateResetv
 187              	.LVL22:
  74:Core/Src/robot/fsm.cpp **** 			
 188              		.loc 1 74 0
 189 00da 154B     		ldr	r3, .L12+16
 190 00dc D3F89830 		ldr	r3, [r3, #152]
 191 00e0 DA68     		ldr	r2, [r3, #12]
 192 00e2 1268     		ldr	r2, [r2]
 193 00e4 526A     		ldr	r2, [r2, #36]
 194 00e6 9A80     		strh	r2, [r3, #4]	@ movhi
 195 00e8 E3E7     		b	.L1
 196              	.L11:
  84:Core/Src/robot/fsm.cpp **** 			if (checkAngle(3))
 197              		.loc 1 84 0
 198 00ea 2046     		mov	r0, r4
 199 00ec FFF7FEFF 		bl	_Z15phaseFourChoresP6fsmStr
 200              	.LVL23:
  85:Core/Src/robot/fsm.cpp **** 			{
 201              		.loc 1 85 0
 202 00f0 0320     		movs	r0, #3
 203 00f2 FFF7FEFF 		bl	_Z10checkAnglei
 204              	.LVL24:
 205 00f6 0028     		cmp	r0, #0
 206 00f8 DBD0     		beq	.L1
  87:Core/Src/robot/fsm.cpp **** 				gReady_To_Go = false;
 207              		.loc 1 87 0
 208 00fa 0A48     		ldr	r0, .L12+4
 209 00fc FFF7FEFF 		bl	puts
 210              	.LVL25:
  88:Core/Src/robot/fsm.cpp **** 
 211              		.loc 1 88 0
 212 0100 094B     		ldr	r3, .L12+8
 213 0102 0022     		movs	r2, #0
 214 0104 1A70     		strb	r2, [r3]
  90:Core/Src/robot/fsm.cpp **** 				stateReset();
 215              		.loc 1 90 0
 216 0106 0648     		ldr	r0, .L12
 217 0108 FFF7FEFF 		bl	_ZN5State12update_StateEv
 218              	.LVL26:
  91:Core/Src/robot/fsm.cpp **** 
 219              		.loc 1 91 0
 220 010c FFF7FEFF 		bl	_Z10stateResetv
 221              	.LVL27:
  93:Core/Src/robot/fsm.cpp **** 			
 222              		.loc 1 93 0
 223 0110 074B     		ldr	r3, .L12+16
 224 0112 D3F8CC30 		ldr	r3, [r3, #204]
 225 0116 DA68     		ldr	r2, [r3, #12]
 226 0118 1268     		ldr	r2, [r2]
 227 011a 526A     		ldr	r2, [r2, #36]
 228 011c 9A80     		strh	r2, [r3, #4]	@ movhi
ARM GAS  C:\Users\Prashant\AppData\Local\Temp\ccJYun8i.s 			page 7


 229              		.loc 1 101 0
 230 011e C8E7     		b	.L1
 231              	.L13:
 232              		.align	2
 233              	.L12:
 234 0120 00000000 		.word	gHorse_State
 235 0124 00000000 		.word	.LC0
 236 0128 00000000 		.word	gReady_To_Go
 237 012c 08000000 		.word	.LC1
 238 0130 00000000 		.word	motor_arr
 239 0134 10000000 		.word	.LC2
 240 0138 18000000 		.word	.LC3
 241              		.cfi_endproc
 242              	.LFE136:
 244              		.section	.rodata._Z8startFSMP6fsmStr.str1.4,"aMS",%progbits,1
 245              		.align	2
 246              	.LC0:
 247 0000 50484153 		.ascii	"PHASE_1\000"
 247      455F3100 
 248              	.LC1:
 249 0008 50484153 		.ascii	"PHASE_2\000"
 249      455F3200 
 250              	.LC2:
 251 0010 50484153 		.ascii	"PHASE_3\000"
 251      455F3300 
 252              	.LC3:
 253 0018 50484153 		.ascii	"PHASE_4\000"
 253      455F3400 
 254              		.text
 255              	.Letext0:
 256              		.file 2 "c:\\program files (x86)\\gnu tools arm embedded\\7 2017-q4-major\\arm-none-eabi\\include\
 257              		.file 3 "c:\\program files (x86)\\gnu tools arm embedded\\7 2017-q4-major\\arm-none-eabi\\include\
 258              		.file 4 "C:/Users/Prashant/STM32Cube/Repository/STM32Cube_FW_F4_V1.23.0/Drivers/CMSIS/Include/core
 259              		.file 5 "C:/Users/Prashant/STM32Cube/Repository/STM32Cube_FW_F4_V1.23.0/Drivers/CMSIS/Device/ST/ST
 260              		.file 6 "C:/Users/Prashant/STM32Cube/Repository/STM32Cube_FW_F4_V1.23.0/Drivers/CMSIS/Device/ST/ST
 261              		.file 7 "c:\\program files (x86)\\gnu tools arm embedded\\7 2017-q4-major\\arm-none-eabi\\include\
 262              		.file 8 "c:\\program files (x86)\\gnu tools arm embedded\\7 2017-q4-major\\arm-none-eabi\\include\
 263              		.file 9 "c:\\program files (x86)\\gnu tools arm embedded\\7 2017-q4-major\\lib\\gcc\\arm-none-eabi
 264              		.file 10 "c:\\program files (x86)\\gnu tools arm embedded\\7 2017-q4-major\\arm-none-eabi\\include
 265              		.file 11 "C:/Users/Prashant/STM32Cube/Repository/STM32Cube_FW_F4_V1.23.0/Drivers/STM32F4xx_HAL_Dri
 266              		.file 12 "C:/Users/Prashant/STM32Cube/Repository/STM32Cube_FW_F4_V1.23.0/Drivers/STM32F4xx_HAL_Dri
 267              		.file 13 "C:/Users/Prashant/STM32Cube/Repository/STM32Cube_FW_F4_V1.23.0/Drivers/STM32F4xx_HAL_Dri
 268              		.file 14 "Core/Inc/periphs/tim.h"
 269              		.file 15 "Core/Inc/robot/feed_forward.h"
 270              		.file 16 "Core/Inc/robot/interrupt.h"
 271              		.file 17 "Core/Inc/devs/encoder.h"
 272              		.file 18 "Core/Inc/devs/motor.h"
 273              		.file 19 "Core/Inc/utils/pid.h"
 274              		.file 20 "Core/Inc/robot/robo_init.h"
 275              		.file 21 "Core/Inc/robot/fsm.h"
 276              		.file 22 "Core/Inc/robot/robo_states.h"
 277              		.file 23 "Core/Inc/robot/fsm_tasks.h"
 278              		.file 24 "Core/Inc/robot/check.h"
ARM GAS  C:\Users\Prashant\AppData\Local\Temp\ccJYun8i.s 			page 8


DEFINED SYMBOLS
                            *ABS*:00000000 fsm.cpp
C:\Users\Prashant\AppData\Local\Temp\ccJYun8i.s:18     .text._Z8startFSMP6fsmStr:00000000 $t
C:\Users\Prashant\AppData\Local\Temp\ccJYun8i.s:25     .text._Z8startFSMP6fsmStr:00000000 _Z8startFSMP6fsmStr
C:\Users\Prashant\AppData\Local\Temp\ccJYun8i.s:48     .text._Z8startFSMP6fsmStr:00000012 $d
C:\Users\Prashant\AppData\Local\Temp\ccJYun8i.s:234    .text._Z8startFSMP6fsmStr:00000120 $d
C:\Users\Prashant\AppData\Local\Temp\ccJYun8i.s:245    .rodata._Z8startFSMP6fsmStr.str1.4:00000000 $d
C:\Users\Prashant\AppData\Local\Temp\ccJYun8i.s:53     .text._Z8startFSMP6fsmStr:00000017 $d
C:\Users\Prashant\AppData\Local\Temp\ccJYun8i.s:53     .text._Z8startFSMP6fsmStr:00000018 $t

UNDEFINED SYMBOLS
_ZN5State6get_IDEv
_Z18homePositionChoresP6fsmStr
_Z17checkHomePositionv
puts
_Z10stateResetv
_Z14phaseOneChoresP6fsmStr
_Z10checkAnglei
_ZN5State12update_StateEv
_Z14phaseTwoChoresP6fsmStr
_Z16phaseThreeChoresP6fsmStr
_Z15phaseFourChoresP6fsmStr
gHorse_State
gReady_To_Go
motor_arr
