ARM GAS  C:\Users\Prashant\AppData\Local\Temp\ccThzLOf.s 			page 1


   1              		.cpu cortex-m4
   2              		.eabi_attribute 27, 1
   3              		.eabi_attribute 28, 1
   4              		.eabi_attribute 20, 1
   5              		.eabi_attribute 21, 1
   6              		.eabi_attribute 23, 3
   7              		.eabi_attribute 24, 1
   8              		.eabi_attribute 25, 1
   9              		.eabi_attribute 26, 1
  10              		.eabi_attribute 30, 1
  11              		.eabi_attribute 34, 1
  12              		.eabi_attribute 18, 4
  13              		.file	"interrupt.c"
  14              		.text
  15              	.Ltext0:
  16              		.cfi_sections	.debug_frame
  17              		.section	.text.HAL_GPIO_EXTI_Callback,"ax",%progbits
  18              		.align	1
  19              		.global	HAL_GPIO_EXTI_Callback
  20              		.syntax unified
  21              		.thumb
  22              		.thumb_func
  23              		.fpu fpv4-sp-d16
  25              	HAL_GPIO_EXTI_Callback:
  26              	.LFB126:
  27              		.file 1 "Core/Src/interrupt.c"
   1:Core/Src/interrupt.c **** /*1-27-2019*/
   2:Core/Src/interrupt.c **** 
   3:Core/Src/interrupt.c **** #include "interrupt.h"
   4:Core/Src/interrupt.c **** #include "robo_init.h"
   5:Core/Src/interrupt.c **** 
   6:Core/Src/interrupt.c **** void HAL_GPIO_EXTI_Callback(uint16_t GPIO_PIN)
   7:Core/Src/interrupt.c **** {
  28              		.loc 1 7 0
  29              		.cfi_startproc
  30              		@ args = 0, pretend = 0, frame = 0
  31              		@ frame_needed = 0, uses_anonymous_args = 0
  32              	.LVL0:
  33 0000 10B5     		push	{r4, lr}
  34              	.LCFI0:
  35              		.cfi_def_cfa_offset 8
  36              		.cfi_offset 4, -8
  37              		.cfi_offset 14, -4
  38 0002 0446     		mov	r4, r0
   8:Core/Src/interrupt.c ****         if (GPIO_PIN == int_arr[0].int_pin)
  39              		.loc 1 8 0
  40 0004 2C4B     		ldr	r3, .L19
  41 0006 1B89     		ldrh	r3, [r3, #8]
  42 0008 8342     		cmp	r3, r0
  43 000a 0CD0     		beq	.L11
  44              	.LVL1:
  45              	.L2:
   9:Core/Src/interrupt.c ****         {
  10:Core/Src/interrupt.c ****                 printf("Motor_1 \n");
  11:Core/Src/interrupt.c ****                 if (int_arr[0].intState == STATE_B)
  12:Core/Src/interrupt.c ****                 {
  13:Core/Src/interrupt.c ****                         int_arr[0].intState = STATE_A;
ARM GAS  C:\Users\Prashant\AppData\Local\Temp\ccThzLOf.s 			page 2


  14:Core/Src/interrupt.c ****                 }
  15:Core/Src/interrupt.c ****                 else if (int_arr[0].intState == STATE_HOME) {
  16:Core/Src/interrupt.c ****                         int_arr[0].fhome_pos = 1;
  17:Core/Src/interrupt.c ****                 }
  18:Core/Src/interrupt.c ****         }
  19:Core/Src/interrupt.c **** 
  20:Core/Src/interrupt.c ****         if (GPIO_PIN == int_arr[1].int_pin)
  46              		.loc 1 20 0
  47 000c 2A4B     		ldr	r3, .L19
  48 000e 9B8A     		ldrh	r3, [r3, #20]
  49 0010 A342     		cmp	r3, r4
  50 0012 19D0     		beq	.L12
  51              	.L4:
  21:Core/Src/interrupt.c ****         {
  22:Core/Src/interrupt.c ****                 printf("Motor_2 \n");
  23:Core/Src/interrupt.c ****                 if (int_arr[1].intState == STATE_B)
  24:Core/Src/interrupt.c ****                 {
  25:Core/Src/interrupt.c ****                         int_arr[1].intState = STATE_A;
  26:Core/Src/interrupt.c ****                 }
  27:Core/Src/interrupt.c ****                 else if (int_arr[1].intState == STATE_HOME) {
  28:Core/Src/interrupt.c ****                         int_arr[1].fhome_pos = 1;
  29:Core/Src/interrupt.c ****                 }
  30:Core/Src/interrupt.c ****         }
  31:Core/Src/interrupt.c **** 
  32:Core/Src/interrupt.c ****         if (GPIO_PIN == int_arr[2].int_pin)
  52              		.loc 1 32 0
  53 0014 284B     		ldr	r3, .L19
  54 0016 1B8C     		ldrh	r3, [r3, #32]
  55 0018 A342     		cmp	r3, r4
  56 001a 26D0     		beq	.L13
  57              	.L6:
  33:Core/Src/interrupt.c ****         {
  34:Core/Src/interrupt.c ****                 printf("Motor_3 \n");
  35:Core/Src/interrupt.c ****                 if (int_arr[2].intState == STATE_B)
  36:Core/Src/interrupt.c ****                 {
  37:Core/Src/interrupt.c ****                         int_arr[2].intState = STATE_A;
  38:Core/Src/interrupt.c ****                 }
  39:Core/Src/interrupt.c ****                 else if (int_arr[2].intState == STATE_HOME) {
  40:Core/Src/interrupt.c ****                         int_arr[2].fhome_pos = 1;
  41:Core/Src/interrupt.c ****                 }
  42:Core/Src/interrupt.c ****         }
  43:Core/Src/interrupt.c **** 
  44:Core/Src/interrupt.c ****         if (GPIO_PIN == int_arr[3].int_pin)
  58              		.loc 1 44 0
  59 001c 264B     		ldr	r3, .L19
  60 001e 9B8D     		ldrh	r3, [r3, #44]
  61 0020 A342     		cmp	r3, r4
  62 0022 35D0     		beq	.L14
  63              	.L1:
  45:Core/Src/interrupt.c ****         {
  46:Core/Src/interrupt.c ****                 printf("Motor_4 \n");
  47:Core/Src/interrupt.c ****                 if (int_arr[3].intState == STATE_B)
  48:Core/Src/interrupt.c ****                 {
  49:Core/Src/interrupt.c ****                         int_arr[3].intState = STATE_A;
  50:Core/Src/interrupt.c ****                 }
  51:Core/Src/interrupt.c ****                 else if (int_arr[3].intState == STATE_HOME) {
  52:Core/Src/interrupt.c ****                         int_arr[3].fhome_pos = 1;
ARM GAS  C:\Users\Prashant\AppData\Local\Temp\ccThzLOf.s 			page 3


  53:Core/Src/interrupt.c ****                 }
  54:Core/Src/interrupt.c ****         }
  55:Core/Src/interrupt.c ****         /*
  56:Core/Src/interrupt.c ****     if (GPIO_PIN == blnc_int_arr[0].int_pin)
  57:Core/Src/interrupt.c ****     {
  58:Core/Src/interrupt.c ****         //printf("A\n");
  59:Core/Src/interrupt.c ****         blnc_int_arr[0].fhome_pos = 1; 
  60:Core/Src/interrupt.c ****     }
  61:Core/Src/interrupt.c ****     
  62:Core/Src/interrupt.c ****     if (GPIO_PIN == blnc_int_arr[1].int_pin)
  63:Core/Src/interrupt.c ****     {
  64:Core/Src/interrupt.c ****         //printf("B\n");
  65:Core/Src/interrupt.c ****         blnc_int_arr[1].fhome_pos = 1;
  66:Core/Src/interrupt.c ****     }
  67:Core/Src/interrupt.c ****     
  68:Core/Src/interrupt.c ****     if (GPIO_PIN == blnc_int_arr[2].int_pin)
  69:Core/Src/interrupt.c ****     {
  70:Core/Src/interrupt.c ****         blnc_int_arr[2].fhome_pos = 1;
  71:Core/Src/interrupt.c ****         printf("C\n");
  72:Core/Src/interrupt.c ****     }
  73:Core/Src/interrupt.c ****     
  74:Core/Src/interrupt.c ****     if (GPIO_PIN == blnc_int_arr[3].int_pin)
  75:Core/Src/interrupt.c ****     {
  76:Core/Src/interrupt.c ****         blnc_int_arr[3].fhome_pos = 1;
  77:Core/Src/interrupt.c ****         printf("D\n");
  78:Core/Src/interrupt.c ****     }
  79:Core/Src/interrupt.c ****      */
  80:Core/Src/interrupt.c **** }
  64              		.loc 1 80 0
  65 0024 10BD     		pop	{r4, pc}
  66              	.LVL2:
  67              	.L11:
  10:Core/Src/interrupt.c ****                 if (int_arr[0].intState == STATE_B)
  68              		.loc 1 10 0
  69 0026 2548     		ldr	r0, .L19+4
  70              	.LVL3:
  71 0028 FFF7FEFF 		bl	puts
  72              	.LVL4:
  11:Core/Src/interrupt.c ****                 {
  73              		.loc 1 11 0
  74 002c 224B     		ldr	r3, .L19
  75 002e 9B7A     		ldrb	r3, [r3, #10]	@ zero_extendqisi2
  76 0030 012B     		cmp	r3, #1
  77 0032 05D0     		beq	.L15
  15:Core/Src/interrupt.c ****                         int_arr[0].fhome_pos = 1;
  78              		.loc 1 15 0
  79 0034 022B     		cmp	r3, #2
  80 0036 E9D1     		bne	.L2
  16:Core/Src/interrupt.c ****                 }
  81              		.loc 1 16 0
  82 0038 1F4B     		ldr	r3, .L19
  83 003a 0122     		movs	r2, #1
  84 003c 5A70     		strb	r2, [r3, #1]
  85 003e E5E7     		b	.L2
  86              	.L15:
  13:Core/Src/interrupt.c ****                 }
  87              		.loc 1 13 0
ARM GAS  C:\Users\Prashant\AppData\Local\Temp\ccThzLOf.s 			page 4


  88 0040 1D4B     		ldr	r3, .L19
  89 0042 0022     		movs	r2, #0
  90 0044 9A72     		strb	r2, [r3, #10]
  91 0046 E1E7     		b	.L2
  92              	.L12:
  22:Core/Src/interrupt.c ****                 if (int_arr[1].intState == STATE_B)
  93              		.loc 1 22 0
  94 0048 1D48     		ldr	r0, .L19+8
  95 004a FFF7FEFF 		bl	puts
  96              	.LVL5:
  23:Core/Src/interrupt.c ****                 {
  97              		.loc 1 23 0
  98 004e 1A4B     		ldr	r3, .L19
  99 0050 9B7D     		ldrb	r3, [r3, #22]	@ zero_extendqisi2
 100 0052 012B     		cmp	r3, #1
 101 0054 05D0     		beq	.L16
  27:Core/Src/interrupt.c ****                         int_arr[1].fhome_pos = 1;
 102              		.loc 1 27 0
 103 0056 022B     		cmp	r3, #2
 104 0058 DCD1     		bne	.L4
  28:Core/Src/interrupt.c ****                 }
 105              		.loc 1 28 0
 106 005a 174B     		ldr	r3, .L19
 107 005c 0122     		movs	r2, #1
 108 005e 5A73     		strb	r2, [r3, #13]
 109 0060 D8E7     		b	.L4
 110              	.L16:
  25:Core/Src/interrupt.c ****                 }
 111              		.loc 1 25 0
 112 0062 154B     		ldr	r3, .L19
 113 0064 0022     		movs	r2, #0
 114 0066 9A75     		strb	r2, [r3, #22]
 115 0068 D4E7     		b	.L4
 116              	.L13:
  34:Core/Src/interrupt.c ****                 if (int_arr[2].intState == STATE_B)
 117              		.loc 1 34 0
 118 006a 1648     		ldr	r0, .L19+12
 119 006c FFF7FEFF 		bl	puts
 120              	.LVL6:
  35:Core/Src/interrupt.c ****                 {
 121              		.loc 1 35 0
 122 0070 114B     		ldr	r3, .L19
 123 0072 93F82230 		ldrb	r3, [r3, #34]	@ zero_extendqisi2
 124 0076 012B     		cmp	r3, #1
 125 0078 05D0     		beq	.L17
  39:Core/Src/interrupt.c ****                         int_arr[2].fhome_pos = 1;
 126              		.loc 1 39 0
 127 007a 022B     		cmp	r3, #2
 128 007c CED1     		bne	.L6
  40:Core/Src/interrupt.c ****                 }
 129              		.loc 1 40 0
 130 007e 0E4B     		ldr	r3, .L19
 131 0080 0122     		movs	r2, #1
 132 0082 5A76     		strb	r2, [r3, #25]
 133 0084 CAE7     		b	.L6
 134              	.L17:
  37:Core/Src/interrupt.c ****                 }
ARM GAS  C:\Users\Prashant\AppData\Local\Temp\ccThzLOf.s 			page 5


 135              		.loc 1 37 0
 136 0086 0C4B     		ldr	r3, .L19
 137 0088 0022     		movs	r2, #0
 138 008a 83F82220 		strb	r2, [r3, #34]
 139 008e C5E7     		b	.L6
 140              	.L14:
  46:Core/Src/interrupt.c ****                 if (int_arr[3].intState == STATE_B)
 141              		.loc 1 46 0
 142 0090 0D48     		ldr	r0, .L19+16
 143 0092 FFF7FEFF 		bl	puts
 144              	.LVL7:
  47:Core/Src/interrupt.c ****                 {
 145              		.loc 1 47 0
 146 0096 084B     		ldr	r3, .L19
 147 0098 93F82E30 		ldrb	r3, [r3, #46]	@ zero_extendqisi2
 148 009c 012B     		cmp	r3, #1
 149 009e 06D0     		beq	.L18
  51:Core/Src/interrupt.c ****                         int_arr[3].fhome_pos = 1;
 150              		.loc 1 51 0
 151 00a0 022B     		cmp	r3, #2
 152 00a2 BFD1     		bne	.L1
  52:Core/Src/interrupt.c ****                 }
 153              		.loc 1 52 0
 154 00a4 044B     		ldr	r3, .L19
 155 00a6 0122     		movs	r2, #1
 156 00a8 83F82520 		strb	r2, [r3, #37]
 157              		.loc 1 80 0
 158 00ac BAE7     		b	.L1
 159              	.L18:
  49:Core/Src/interrupt.c ****                 }
 160              		.loc 1 49 0
 161 00ae 024B     		ldr	r3, .L19
 162 00b0 0022     		movs	r2, #0
 163 00b2 83F82E20 		strb	r2, [r3, #46]
 164 00b6 B5E7     		b	.L1
 165              	.L20:
 166              		.align	2
 167              	.L19:
 168 00b8 00000000 		.word	int_arr
 169 00bc 00000000 		.word	.LC0
 170 00c0 0C000000 		.word	.LC1
 171 00c4 18000000 		.word	.LC2
 172 00c8 24000000 		.word	.LC3
 173              		.cfi_endproc
 174              	.LFE126:
 176              		.section	.rodata.HAL_GPIO_EXTI_Callback.str1.4,"aMS",%progbits,1
 177              		.align	2
 178              	.LC0:
 179 0000 4D6F746F 		.ascii	"Motor_1 \000"
 179      725F3120 
 179      00
 180 0009 000000   		.space	3
 181              	.LC1:
 182 000c 4D6F746F 		.ascii	"Motor_2 \000"
 182      725F3220 
 182      00
 183 0015 000000   		.space	3
ARM GAS  C:\Users\Prashant\AppData\Local\Temp\ccThzLOf.s 			page 6


 184              	.LC2:
 185 0018 4D6F746F 		.ascii	"Motor_3 \000"
 185      725F3320 
 185      00
 186 0021 000000   		.space	3
 187              	.LC3:
 188 0024 4D6F746F 		.ascii	"Motor_4 \000"
 188      725F3420 
 188      00
 189              		.text
 190              	.Letext0:
 191              		.file 2 "c:\\program files (x86)\\gnu tools arm embedded\\7 2017-q4-major\\arm-none-eabi\\include\
 192              		.file 3 "c:\\program files (x86)\\gnu tools arm embedded\\7 2017-q4-major\\arm-none-eabi\\include\
 193              		.file 4 "C:/Users/Prashant/STM32Cube/Repository/STM32Cube_FW_F4_V1.21.0/Drivers/CMSIS/Include/core
 194              		.file 5 "C:/Users/Prashant/STM32Cube/Repository/STM32Cube_FW_F4_V1.21.0/Drivers/CMSIS/Device/ST/ST
 195              		.file 6 "C:/Users/Prashant/STM32Cube/Repository/STM32Cube_FW_F4_V1.21.0/Drivers/CMSIS/Device/ST/ST
 196              		.file 7 "c:\\program files (x86)\\gnu tools arm embedded\\7 2017-q4-major\\arm-none-eabi\\include\
 197              		.file 8 "c:\\program files (x86)\\gnu tools arm embedded\\7 2017-q4-major\\arm-none-eabi\\include\
 198              		.file 9 "c:\\program files (x86)\\gnu tools arm embedded\\7 2017-q4-major\\lib\\gcc\\arm-none-eabi
 199              		.file 10 "c:\\program files (x86)\\gnu tools arm embedded\\7 2017-q4-major\\arm-none-eabi\\include
 200              		.file 11 "C:/Users/Prashant/STM32Cube/Repository/STM32Cube_FW_F4_V1.21.0/Drivers/STM32F4xx_HAL_Dri
 201              		.file 12 "C:/Users/Prashant/STM32Cube/Repository/STM32Cube_FW_F4_V1.21.0/Drivers/STM32F4xx_HAL_Dri
 202              		.file 13 "C:/Users/Prashant/STM32Cube/Repository/STM32Cube_FW_F4_V1.21.0/Drivers/STM32F4xx_HAL_Dri
 203              		.file 14 "Core/Inc/interrupt.h"
 204              		.file 15 "Core/Inc\\periphs/tim.h"
 205              		.file 16 "Core/Inc/feed_forward.h"
 206              		.file 17 "Core/Inc/pneumatic.h"
 207              		.file 18 "Core/Inc/encoder.h"
 208              		.file 19 "Core/Inc/motor.h"
 209              		.file 20 "Core/Inc/pid.h"
 210              		.file 21 "Core/Inc/fsm.h"
 211              		.file 22 "Core/Inc/robo_init.h"
 212              		.file 23 "<built-in>"
ARM GAS  C:\Users\Prashant\AppData\Local\Temp\ccThzLOf.s 			page 7


DEFINED SYMBOLS
                            *ABS*:00000000 interrupt.c
C:\Users\Prashant\AppData\Local\Temp\ccThzLOf.s:18     .text.HAL_GPIO_EXTI_Callback:00000000 $t
C:\Users\Prashant\AppData\Local\Temp\ccThzLOf.s:25     .text.HAL_GPIO_EXTI_Callback:00000000 HAL_GPIO_EXTI_Callback
C:\Users\Prashant\AppData\Local\Temp\ccThzLOf.s:168    .text.HAL_GPIO_EXTI_Callback:000000b8 $d
C:\Users\Prashant\AppData\Local\Temp\ccThzLOf.s:177    .rodata.HAL_GPIO_EXTI_Callback.str1.4:00000000 $d

UNDEFINED SYMBOLS
puts
int_arr
