ARM GAS  C:\Users\Prashant\AppData\Local\Temp\ccyFuuYJ.s 			page 1


   1              		.cpu cortex-m4
   2              		.eabi_attribute 27, 1
   3              		.eabi_attribute 28, 1
   4              		.eabi_attribute 20, 1
   5              		.eabi_attribute 21, 1
   6              		.eabi_attribute 23, 3
   7              		.eabi_attribute 24, 1
   8              		.eabi_attribute 25, 1
   9              		.eabi_attribute 26, 1
  10              		.eabi_attribute 30, 1
  11              		.eabi_attribute 34, 1
  12              		.eabi_attribute 18, 4
  13              		.file	"robo_init.c"
  14              		.text
  15              	.Ltext0:
  16              		.cfi_sections	.debug_frame
  17              		.section	.text.feedForwardInit,"ax",%progbits
  18              		.align	1
  19              		.global	feedForwardInit
  20              		.syntax unified
  21              		.thumb
  22              		.thumb_func
  23              		.fpu fpv4-sp-d16
  25              	feedForwardInit:
  26              	.LFB127:
  27              		.file 1 "Core/Src/robo_init.c"
   1:Core/Src/robo_init.c **** /*22-1-2019*/
   2:Core/Src/robo_init.c **** 
   3:Core/Src/robo_init.c **** #include "robo_init.h"
   4:Core/Src/robo_init.c **** 
   5:Core/Src/robo_init.c **** struct interruptStr blnc_int_arr[4];
   6:Core/Src/robo_init.c **** struct encoderStr encoder_arr[4];
   7:Core/Src/robo_init.c **** struct motorStr motor_arr[4];
   8:Core/Src/robo_init.c **** struct pneumaticStr pneu_arr[4];
   9:Core/Src/robo_init.c **** struct interruptStr int_arr[4];
  10:Core/Src/robo_init.c **** struct pidStr pid_arr[4];
  11:Core/Src/robo_init.c **** struct feedStr ff_arr[4];
  12:Core/Src/robo_init.c **** struct fsmStr fsm;
  13:Core/Src/robo_init.c **** 
  14:Core/Src/robo_init.c **** struct motorStr balance_motor;
  15:Core/Src/robo_init.c **** 
  16:Core/Src/robo_init.c **** // Motor 1 started working after changing interrupt pin from PE3 to PB9
  17:Core/Src/robo_init.c **** 
  18:Core/Src/robo_init.c **** void roboInit(void)
  19:Core/Src/robo_init.c **** {
  20:Core/Src/robo_init.c ****         pidInit();
  21:Core/Src/robo_init.c ****         motorInit();
  22:Core/Src/robo_init.c ****         encoderInit(); // Initialized after HOME_POSITION
  23:Core/Src/robo_init.c ****         interruptInit();
  24:Core/Src/robo_init.c ****         pneumaticInit();
  25:Core/Src/robo_init.c ****         feedForwardInit();
  26:Core/Src/robo_init.c **** }
  27:Core/Src/robo_init.c **** 
  28:Core/Src/robo_init.c **** void feedForwardInit(void)
  29:Core/Src/robo_init.c **** {
  28              		.loc 1 29 0
  29              		.cfi_startproc
ARM GAS  C:\Users\Prashant\AppData\Local\Temp\ccyFuuYJ.s 			page 2


  30              		@ args = 0, pretend = 0, frame = 0
  31              		@ frame_needed = 0, uses_anonymous_args = 0
  32 0000 10B5     		push	{r4, lr}
  33              	.LCFI0:
  34              		.cfi_def_cfa_offset 8
  35              		.cfi_offset 4, -8
  36              		.cfi_offset 14, -4
  37              	.LVL0:
  38              	.LBB2:
  30:Core/Src/robo_init.c ****         for (uint8_t i = 0; i < 4; i++)
  39              		.loc 1 30 0
  40 0002 0024     		movs	r4, #0
  41 0004 0EE0     		b	.L2
  42              	.LVL1:
  43              	.L3:
  31:Core/Src/robo_init.c ****         {
  32:Core/Src/robo_init.c ****                 ffInit(&ff_arr[i], 5, 20, dt_secs);
  44              		.loc 1 32 0 discriminator 3
  45 0006 C4EB0412 		rsb	r2, r4, r4, lsl #4
  46 000a 9300     		lsls	r3, r2, #2
  47 000c 9FED071A 		vldr.32	s2, .L5
  48 0010 F3EE040A 		vmov.f32	s1, #2.0e+1
  49 0014 B1EE040A 		vmov.f32	s0, #5.0e+0
  50 0018 0548     		ldr	r0, .L5+4
  51 001a 1844     		add	r0, r0, r3
  52 001c FFF7FEFF 		bl	ffInit
  53              	.LVL2:
  30:Core/Src/robo_init.c ****         for (uint8_t i = 0; i < 4; i++)
  54              		.loc 1 30 0 discriminator 3
  55 0020 0134     		adds	r4, r4, #1
  56              	.LVL3:
  57 0022 E4B2     		uxtb	r4, r4
  58              	.LVL4:
  59              	.L2:
  30:Core/Src/robo_init.c ****         for (uint8_t i = 0; i < 4; i++)
  60              		.loc 1 30 0 is_stmt 0 discriminator 1
  61 0024 032C     		cmp	r4, #3
  62 0026 EED9     		bls	.L3
  63              	.LBE2:
  33:Core/Src/robo_init.c ****         }
  34:Core/Src/robo_init.c **** }
  64              		.loc 1 34 0 is_stmt 1
  65 0028 10BD     		pop	{r4, pc}
  66              	.LVL5:
  67              	.L6:
  68 002a 00BF     		.align	2
  69              	.L5:
  70 002c 0AD7233C 		.word	1008981770
  71 0030 00000000 		.word	ff_arr
  72              		.cfi_endproc
  73              	.LFE127:
  75              		.section	.text.interruptInit,"ax",%progbits
  76              		.align	1
  77              		.global	interruptInit
  78              		.syntax unified
  79              		.thumb
  80              		.thumb_func
ARM GAS  C:\Users\Prashant\AppData\Local\Temp\ccyFuuYJ.s 			page 3


  81              		.fpu fpv4-sp-d16
  83              	interruptInit:
  84              	.LFB128:
  35:Core/Src/robo_init.c **** 
  36:Core/Src/robo_init.c **** void interruptInit(void)
  37:Core/Src/robo_init.c **** {
  85              		.loc 1 37 0
  86              		.cfi_startproc
  87              		@ args = 0, pretend = 0, frame = 0
  88              		@ frame_needed = 0, uses_anonymous_args = 0
  89              		@ link register save eliminated.
  38:Core/Src/robo_init.c ****         // Motor interrupts
  39:Core/Src/robo_init.c ****         int_arr[0].int_pin = GPIO_PIN_9;
  90              		.loc 1 39 0
  91 0000 154B     		ldr	r3, .L14
  92 0002 4FF40072 		mov	r2, #512
  93 0006 1A81     		strh	r2, [r3, #8]	@ movhi
  40:Core/Src/robo_init.c ****         int_arr[1].int_pin = GPIO_PIN_13;
  94              		.loc 1 40 0
  95 0008 4FF40052 		mov	r2, #8192
  96 000c 9A82     		strh	r2, [r3, #20]	@ movhi
  41:Core/Src/robo_init.c ****         int_arr[2].int_pin = GPIO_PIN_1;
  97              		.loc 1 41 0
  98 000e 0222     		movs	r2, #2
  99 0010 1A84     		strh	r2, [r3, #32]	@ movhi
  42:Core/Src/robo_init.c ****         int_arr[3].int_pin = GPIO_PIN_5;
 100              		.loc 1 42 0
 101 0012 2022     		movs	r2, #32
 102 0014 9A85     		strh	r2, [r3, #44]	@ movhi
  43:Core/Src/robo_init.c **** 
  44:Core/Src/robo_init.c ****         // Balance interrupts
  45:Core/Src/robo_init.c ****         blnc_int_arr[0].int_pin = GPIO_PIN_14;
 103              		.loc 1 45 0
 104 0016 114B     		ldr	r3, .L14+4
 105 0018 4FF48042 		mov	r2, #16384
 106 001c 1A81     		strh	r2, [r3, #8]	@ movhi
  46:Core/Src/robo_init.c ****         blnc_int_arr[1].int_pin = GPIO_PIN_15;
 107              		.loc 1 46 0
 108 001e 4FF40042 		mov	r2, #32768
 109 0022 9A82     		strh	r2, [r3, #20]	@ movhi
  47:Core/Src/robo_init.c ****         blnc_int_arr[2].int_pin = GPIO_PIN_7;
 110              		.loc 1 47 0
 111 0024 8022     		movs	r2, #128
 112 0026 1A84     		strh	r2, [r3, #32]	@ movhi
  48:Core/Src/robo_init.c ****         blnc_int_arr[3].int_pin = GPIO_PIN_3;
 113              		.loc 1 48 0
 114 0028 0822     		movs	r2, #8
 115 002a 9A85     		strh	r2, [r3, #44]	@ movhi
 116              	.LVL6:
 117              	.LBB3:
  49:Core/Src/robo_init.c **** 
  50:Core/Src/robo_init.c ****         for (uint8_t i = 0; i < 4; i++)
 118              		.loc 1 50 0
 119 002c 0023     		movs	r3, #0
 120              	.LVL7:
 121 002e 032B     		cmp	r3, #3
 122 0030 10D8     		bhi	.L13
ARM GAS  C:\Users\Prashant\AppData\Local\Temp\ccyFuuYJ.s 			page 4


 123              	.LBE3:
  37:Core/Src/robo_init.c ****         // Motor interrupts
 124              		.loc 1 37 0
 125 0032 30B4     		push	{r4, r5}
 126              	.LCFI1:
 127              		.cfi_def_cfa_offset 8
 128              		.cfi_offset 4, -8
 129              		.cfi_offset 5, -4
 130              	.L9:
 131              	.LBB4:
  51:Core/Src/robo_init.c ****         {
  52:Core/Src/robo_init.c ****                 int_arr[i].fhome_pos = 0;
 132              		.loc 1 52 0 discriminator 3
 133 0034 084A     		ldr	r2, .L14
 134 0036 5900     		lsls	r1, r3, #1
 135 0038 CC18     		adds	r4, r1, r3
 136 003a A000     		lsls	r0, r4, #2
 137 003c 1518     		adds	r5, r2, r0
 138 003e 0024     		movs	r4, #0
 139 0040 6C70     		strb	r4, [r5, #1]
  53:Core/Src/robo_init.c ****                 int_arr[i].fangle_reset = 0;
 140              		.loc 1 53 0 discriminator 3
 141 0042 1454     		strb	r4, [r2, r0]
  54:Core/Src/robo_init.c ****                 int_arr[i].intState = STATE_HOME;
 142              		.loc 1 54 0 discriminator 3
 143 0044 0221     		movs	r1, #2
 144 0046 A972     		strb	r1, [r5, #10]
  50:Core/Src/robo_init.c ****         {
 145              		.loc 1 50 0 discriminator 3
 146 0048 0133     		adds	r3, r3, #1
 147              	.LVL8:
 148 004a DBB2     		uxtb	r3, r3
 149              	.LVL9:
 150 004c 032B     		cmp	r3, #3
 151 004e F1D9     		bls	.L9
 152              	.LBE4:
  55:Core/Src/robo_init.c ****         }
  56:Core/Src/robo_init.c **** }
 153              		.loc 1 56 0
 154 0050 30BC     		pop	{r4, r5}
 155              	.LCFI2:
 156              		.cfi_restore 5
 157              		.cfi_restore 4
 158              		.cfi_def_cfa_offset 0
 159 0052 7047     		bx	lr
 160              	.L13:
 161 0054 7047     		bx	lr
 162              	.L15:
 163 0056 00BF     		.align	2
 164              	.L14:
 165 0058 00000000 		.word	int_arr
 166 005c 00000000 		.word	blnc_int_arr
 167              		.cfi_endproc
 168              	.LFE128:
 170              		.section	.text.pidInit,"ax",%progbits
 171              		.align	1
 172              		.global	pidInit
ARM GAS  C:\Users\Prashant\AppData\Local\Temp\ccyFuuYJ.s 			page 5


 173              		.syntax unified
 174              		.thumb
 175              		.thumb_func
 176              		.fpu fpv4-sp-d16
 178              	pidInit:
 179              	.LFB129:
  57:Core/Src/robo_init.c **** 
  58:Core/Src/robo_init.c **** void pidInit(void)
  59:Core/Src/robo_init.c **** {
 180              		.loc 1 59 0
 181              		.cfi_startproc
 182              		@ args = 0, pretend = 0, frame = 0
 183              		@ frame_needed = 0, uses_anonymous_args = 0
 184 0000 F8B5     		push	{r3, r4, r5, r6, r7, lr}
 185              	.LCFI3:
 186              		.cfi_def_cfa_offset 24
 187              		.cfi_offset 3, -24
 188              		.cfi_offset 4, -20
 189              		.cfi_offset 5, -16
 190              		.cfi_offset 6, -12
 191              		.cfi_offset 7, -8
 192              		.cfi_offset 14, -4
 193              	.LVL10:
 194              	.LBB5:
  60:Core/Src/robo_init.c ****         for (uint8_t i = 0; i < 4; i++)
 195              		.loc 1 60 0
 196 0002 0025     		movs	r5, #0
 197 0004 1CE0     		b	.L17
 198              	.LVL11:
 199              	.L18:
  61:Core/Src/robo_init.c ****         {
  62:Core/Src/robo_init.c ****                 PID_Init(&pid_arr[i]);
 200              		.loc 1 62 0 discriminator 3
 201 0006 EE00     		lsls	r6, r5, #3
 202 0008 731B     		subs	r3, r6, r5
 203 000a DC00     		lsls	r4, r3, #3
 204 000c 124F     		ldr	r7, .L20+16
 205 000e 3C44     		add	r4, r4, r7
 206 0010 2046     		mov	r0, r4
 207 0012 FFF7FEFF 		bl	PID_Init
 208              	.LVL12:
  63:Core/Src/robo_init.c **** 
  64:Core/Src/robo_init.c ****                 pid_arr[i].max_output = 17;
 209              		.loc 1 64 0 discriminator 3
 210 0016 114B     		ldr	r3, .L20+20
 211 0018 2362     		str	r3, [r4, #32]	@ float
  65:Core/Src/robo_init.c ****                 pid_arr[i].min_output = -17;
 212              		.loc 1 65 0 discriminator 3
 213 001a 114B     		ldr	r3, .L20+24
 214 001c 6362     		str	r3, [r4, #36]	@ float
  66:Core/Src/robo_init.c **** 
  67:Core/Src/robo_init.c ****                 pid_arr[i].kp = 0.3;
 215              		.loc 1 67 0 discriminator 3
 216 001e 0AA3     		adr	r3, .L20
 217 0020 D3E90023 		ldrd	r2, [r3]
 218 0024 C4E90023 		strd	r2, [r4]
  68:Core/Src/robo_init.c ****                 pid_arr[i].ki = 0.02;
ARM GAS  C:\Users\Prashant\AppData\Local\Temp\ccyFuuYJ.s 			page 6


 219              		.loc 1 68 0 discriminator 3
 220 0028 09A3     		adr	r3, .L20+8
 221 002a D3E90023 		ldrd	r2, [r3]
 222 002e C4E90223 		strd	r2, [r4, #8]
  69:Core/Src/robo_init.c **** 
  70:Core/Src/robo_init.c ****                 pid_arr[i].last_error = 0;
 223              		.loc 1 70 0 discriminator 3
 224 0032 0022     		movs	r2, #0
 225 0034 E262     		str	r2, [r4, #44]	@ float
  71:Core/Src/robo_init.c ****                 pid_arr[i].output = 0;
 226              		.loc 1 71 0 discriminator 3
 227 0036 E261     		str	r2, [r4, #28]	@ float
  72:Core/Src/robo_init.c ****                 pid_arr[i].previous_error = 0;
 228              		.loc 1 72 0 discriminator 3
 229 0038 2263     		str	r2, [r4, #48]	@ float
  73:Core/Src/robo_init.c ****                 pid_arr[i].last_output = 0;
 230              		.loc 1 73 0 discriminator 3
 231 003a A262     		str	r2, [r4, #40]	@ float
  60:Core/Src/robo_init.c ****         {
 232              		.loc 1 60 0 discriminator 3
 233 003c 0135     		adds	r5, r5, #1
 234              	.LVL13:
 235 003e EDB2     		uxtb	r5, r5
 236              	.LVL14:
 237              	.L17:
  60:Core/Src/robo_init.c ****         {
 238              		.loc 1 60 0 is_stmt 0 discriminator 1
 239 0040 032D     		cmp	r5, #3
 240 0042 E0D9     		bls	.L18
 241              	.LBE5:
  74:Core/Src/robo_init.c ****         }
  75:Core/Src/robo_init.c **** }
 242              		.loc 1 75 0 is_stmt 1
 243 0044 F8BD     		pop	{r3, r4, r5, r6, r7, pc}
 244              	.LVL15:
 245              	.L21:
 246 0046 00BF     		.align	3
 247              	.L20:
 248 0048 33333333 		.word	858993459
 249 004c 3333D33F 		.word	1070805811
 250 0050 7B14AE47 		.word	1202590843
 251 0054 E17A943F 		.word	1066695393
 252 0058 00000000 		.word	pid_arr
 253 005c 00008841 		.word	1099431936
 254 0060 000088C1 		.word	-1048051712
 255              		.cfi_endproc
 256              	.LFE129:
 258              		.section	.text.encoderInit,"ax",%progbits
 259              		.align	1
 260              		.global	encoderInit
 261              		.syntax unified
 262              		.thumb
 263              		.thumb_func
 264              		.fpu fpv4-sp-d16
 266              	encoderInit:
 267              	.LFB130:
  76:Core/Src/robo_init.c **** 
ARM GAS  C:\Users\Prashant\AppData\Local\Temp\ccyFuuYJ.s 			page 7


  77:Core/Src/robo_init.c **** void encoderInit(void)
  78:Core/Src/robo_init.c **** {
 268              		.loc 1 78 0
 269              		.cfi_startproc
 270              		@ args = 0, pretend = 0, frame = 0
 271              		@ frame_needed = 0, uses_anonymous_args = 0
 272 0000 38B5     		push	{r3, r4, r5, lr}
 273              	.LCFI4:
 274              		.cfi_def_cfa_offset 16
 275              		.cfi_offset 3, -16
 276              		.cfi_offset 4, -12
 277              		.cfi_offset 5, -8
 278              		.cfi_offset 14, -4
  79:Core/Src/robo_init.c ****         encoder_arr[0].htim = &htim3;
 279              		.loc 1 79 0
 280 0002 0F4B     		ldr	r3, .L26
 281 0004 0F4A     		ldr	r2, .L26+4
 282 0006 9A60     		str	r2, [r3, #8]
  80:Core/Src/robo_init.c ****         encoder_arr[1].htim = &htim4;
 283              		.loc 1 80 0
 284 0008 0F4A     		ldr	r2, .L26+8
 285 000a 5A61     		str	r2, [r3, #20]
  81:Core/Src/robo_init.c ****         encoder_arr[2].htim = &htim1;
 286              		.loc 1 81 0
 287 000c 0F4A     		ldr	r2, .L26+12
 288 000e 1A62     		str	r2, [r3, #32]
  82:Core/Src/robo_init.c ****         encoder_arr[3].htim = &htim2;
 289              		.loc 1 82 0
 290 0010 0F4A     		ldr	r2, .L26+16
 291 0012 DA62     		str	r2, [r3, #44]
 292              	.LVL16:
 293              	.LBB6:
  83:Core/Src/robo_init.c **** 
  84:Core/Src/robo_init.c ****         for (uint8_t i = 0; i < 4; i++)
 294              		.loc 1 84 0
 295 0014 0024     		movs	r4, #0
 296 0016 10E0     		b	.L23
 297              	.LVL17:
 298              	.L24:
  85:Core/Src/robo_init.c ****         {
  86:Core/Src/robo_init.c ****                 // Gear reduction ratio = 4 and X4_MODE
  87:Core/Src/robo_init.c ****                 encoder_arr[i].ppr = PPR_VIET_MOTOR * 4 * 4;
 299              		.loc 1 87 0 discriminator 3
 300 0018 094B     		ldr	r3, .L26
 301 001a 6200     		lsls	r2, r4, #1
 302 001c 1019     		adds	r0, r2, r4
 303 001e 8100     		lsls	r1, r0, #2
 304 0020 5818     		adds	r0, r3, r1
 305 0022 4FF47A65 		mov	r5, #4000
 306 0026 5D52     		strh	r5, [r3, r1]	@ movhi
  88:Core/Src/robo_init.c **** 
  89:Core/Src/robo_init.c ****                 encoder_arr[i].ref_count = 0;
 307              		.loc 1 89 0 discriminator 3
 308 0028 0021     		movs	r1, #0
 309 002a 4180     		strh	r1, [r0, #2]	@ movhi
  90:Core/Src/robo_init.c ****                 encoder_arr[i].last_count = 0;
 310              		.loc 1 90 0 discriminator 3
ARM GAS  C:\Users\Prashant\AppData\Local\Temp\ccyFuuYJ.s 			page 8


 311 002c 8180     		strh	r1, [r0, #4]	@ movhi
  91:Core/Src/robo_init.c **** 
  92:Core/Src/robo_init.c ****                 // Start encoder-mode
  93:Core/Src/robo_init.c ****                 HAL_TIM_Encoder_Start(encoder_arr[i].htim, TIM_CHANNEL_ALL);
 312              		.loc 1 93 0 discriminator 3
 313 002e 1821     		movs	r1, #24
 314 0030 8068     		ldr	r0, [r0, #8]
 315 0032 FFF7FEFF 		bl	HAL_TIM_Encoder_Start
 316              	.LVL18:
  84:Core/Src/robo_init.c ****         {
 317              		.loc 1 84 0 discriminator 3
 318 0036 0134     		adds	r4, r4, #1
 319              	.LVL19:
 320 0038 E4B2     		uxtb	r4, r4
 321              	.LVL20:
 322              	.L23:
  84:Core/Src/robo_init.c ****         {
 323              		.loc 1 84 0 is_stmt 0 discriminator 1
 324 003a 032C     		cmp	r4, #3
 325 003c ECD9     		bls	.L24
 326              	.LBE6:
  94:Core/Src/robo_init.c ****         }
  95:Core/Src/robo_init.c **** }
 327              		.loc 1 95 0 is_stmt 1
 328 003e 38BD     		pop	{r3, r4, r5, pc}
 329              	.LVL21:
 330              	.L27:
 331              		.align	2
 332              	.L26:
 333 0040 00000000 		.word	encoder_arr
 334 0044 00000000 		.word	htim3
 335 0048 00000000 		.word	htim4
 336 004c 00000000 		.word	htim1
 337 0050 00000000 		.word	htim2
 338              		.cfi_endproc
 339              	.LFE130:
 341              		.section	.text.pneumaticInit,"ax",%progbits
 342              		.align	1
 343              		.global	pneumaticInit
 344              		.syntax unified
 345              		.thumb
 346              		.thumb_func
 347              		.fpu fpv4-sp-d16
 349              	pneumaticInit:
 350              	.LFB131:
  96:Core/Src/robo_init.c **** 
  97:Core/Src/robo_init.c **** void pneumaticInit(void)
  98:Core/Src/robo_init.c **** {
 351              		.loc 1 98 0
 352              		.cfi_startproc
 353              		@ args = 0, pretend = 0, frame = 0
 354              		@ frame_needed = 0, uses_anonymous_args = 0
 355              		@ link register save eliminated.
  99:Core/Src/robo_init.c ****         pneu_arr[0].pneu_port = GPIOC;
 356              		.loc 1 99 0
 357 0000 084B     		ldr	r3, .L29
 358 0002 094A     		ldr	r2, .L29+4
ARM GAS  C:\Users\Prashant\AppData\Local\Temp\ccyFuuYJ.s 			page 9


 359 0004 1A60     		str	r2, [r3]
 100:Core/Src/robo_init.c ****         pneu_arr[0].pneu_pin = GPIO_PIN_1;
 360              		.loc 1 100 0
 361 0006 0221     		movs	r1, #2
 362 0008 9980     		strh	r1, [r3, #4]	@ movhi
 101:Core/Src/robo_init.c **** 
 102:Core/Src/robo_init.c ****         pneu_arr[1].pneu_port = GPIOE;
 363              		.loc 1 102 0
 364 000a 0849     		ldr	r1, .L29+8
 365 000c 9960     		str	r1, [r3, #8]
 103:Core/Src/robo_init.c ****         pneu_arr[1].pneu_pin = GPIO_PIN_8;
 366              		.loc 1 103 0
 367 000e 4FF48071 		mov	r1, #256
 368 0012 9981     		strh	r1, [r3, #12]	@ movhi
 104:Core/Src/robo_init.c **** 
 105:Core/Src/robo_init.c ****         pneu_arr[2].pneu_port = GPIOB;
 369              		.loc 1 105 0
 370 0014 0649     		ldr	r1, .L29+12
 371 0016 1961     		str	r1, [r3, #16]
 106:Core/Src/robo_init.c ****         pneu_arr[2].pneu_pin = GPIO_PIN_2;
 372              		.loc 1 106 0
 373 0018 0421     		movs	r1, #4
 374 001a 9982     		strh	r1, [r3, #20]	@ movhi
 107:Core/Src/robo_init.c **** 
 108:Core/Src/robo_init.c ****         pneu_arr[3].pneu_port = GPIOC;
 375              		.loc 1 108 0
 376 001c 9A61     		str	r2, [r3, #24]
 109:Core/Src/robo_init.c ****         pneu_arr[3].pneu_pin = GPIO_PIN_3;
 377              		.loc 1 109 0
 378 001e 0822     		movs	r2, #8
 379 0020 9A83     		strh	r2, [r3, #28]	@ movhi
 110:Core/Src/robo_init.c **** }
 380              		.loc 1 110 0
 381 0022 7047     		bx	lr
 382              	.L30:
 383              		.align	2
 384              	.L29:
 385 0024 00000000 		.word	pneu_arr
 386 0028 00080240 		.word	1073874944
 387 002c 00100240 		.word	1073876992
 388 0030 00040240 		.word	1073873920
 389              		.cfi_endproc
 390              	.LFE131:
 392              		.section	.text.motorInit,"ax",%progbits
 393              		.align	1
 394              		.global	motorInit
 395              		.syntax unified
 396              		.thumb
 397              		.thumb_func
 398              		.fpu fpv4-sp-d16
 400              	motorInit:
 401              	.LFB132:
 111:Core/Src/robo_init.c **** void motorInit(void)
 112:Core/Src/robo_init.c **** {
 402              		.loc 1 112 0
 403              		.cfi_startproc
 404              		@ args = 0, pretend = 0, frame = 0
ARM GAS  C:\Users\Prashant\AppData\Local\Temp\ccyFuuYJ.s 			page 10


 405              		@ frame_needed = 0, uses_anonymous_args = 0
 406 0000 70B5     		push	{r4, r5, r6, lr}
 407              	.LCFI5:
 408              		.cfi_def_cfa_offset 16
 409              		.cfi_offset 4, -16
 410              		.cfi_offset 5, -12
 411              		.cfi_offset 6, -8
 412              		.cfi_offset 14, -4
 113:Core/Src/robo_init.c ****         // Mass balancing motor
 114:Core/Src/robo_init.c ****         balance_motor.dir1_port = GPIOA;
 413              		.loc 1 114 0
 414 0002 2D4C     		ldr	r4, .L35
 415 0004 2D4E     		ldr	r6, .L35+4
 416 0006 A661     		str	r6, [r4, #24]
 115:Core/Src/robo_init.c ****         balance_motor.dir2_port = GPIOA;
 417              		.loc 1 115 0
 418 0008 2662     		str	r6, [r4, #32]
 116:Core/Src/robo_init.c ****         balance_motor.dir1_pin = GPIO_PIN_3;
 419              		.loc 1 116 0
 420 000a 0825     		movs	r5, #8
 421 000c A583     		strh	r5, [r4, #28]	@ movhi
 117:Core/Src/robo_init.c ****         balance_motor.dir2_pin = GPIO_PIN_3;
 422              		.loc 1 117 0
 423 000e A584     		strh	r5, [r4, #36]	@ movhi
 118:Core/Src/robo_init.c **** 
 119:Core/Src/robo_init.c ****         balance_motor.htim = &htim5;
 424              		.loc 1 119 0
 425 0010 2B48     		ldr	r0, .L35+8
 426 0012 A062     		str	r0, [r4, #40]
 120:Core/Src/robo_init.c ****         balance_motor.channel = TIM_CHANNEL_3;
 427              		.loc 1 120 0
 428 0014 E562     		str	r5, [r4, #44]
 121:Core/Src/robo_init.c ****         HAL_TIM_Base_Start(balance_motor.htim);
 429              		.loc 1 121 0
 430 0016 FFF7FEFF 		bl	HAL_TIM_Base_Start
 431              	.LVL22:
 122:Core/Src/robo_init.c ****         HAL_TIM_PWM_Start(balance_motor.htim, balance_motor.channel);
 432              		.loc 1 122 0
 433 001a E16A     		ldr	r1, [r4, #44]
 434 001c A06A     		ldr	r0, [r4, #40]
 435 001e FFF7FEFF 		bl	HAL_TIM_PWM_Start
 436              	.LVL23:
 123:Core/Src/robo_init.c **** 
 124:Core/Src/robo_init.c ****         // Motors for gait
 125:Core/Src/robo_init.c ****         // motor1
 126:Core/Src/robo_init.c ****         motor_arr[0].dir1_port = GPIOA;
 437              		.loc 1 126 0
 438 0022 284B     		ldr	r3, .L35+12
 439 0024 9E61     		str	r6, [r3, #24]
 127:Core/Src/robo_init.c ****         motor_arr[0].dir1_pin = GPIO_PIN_15;
 440              		.loc 1 127 0
 441 0026 4FF40042 		mov	r2, #32768
 442 002a 9A83     		strh	r2, [r3, #28]	@ movhi
 128:Core/Src/robo_init.c ****         motor_arr[0].dir2_port = GPIOA;
 443              		.loc 1 128 0
 444 002c 1E62     		str	r6, [r3, #32]
 129:Core/Src/robo_init.c ****         motor_arr[0].dir2_pin = GPIO_PIN_8;
ARM GAS  C:\Users\Prashant\AppData\Local\Temp\ccyFuuYJ.s 			page 11


 445              		.loc 1 129 0
 446 002e 4FF48072 		mov	r2, #256
 447 0032 9A84     		strh	r2, [r3, #36]	@ movhi
 130:Core/Src/robo_init.c ****         motor_arr[0].channel = TIM_CHANNEL_1;
 448              		.loc 1 130 0
 449 0034 0024     		movs	r4, #0
 450 0036 DC62     		str	r4, [r3, #44]
 131:Core/Src/robo_init.c **** 
 132:Core/Src/robo_init.c ****         // motor2
 133:Core/Src/robo_init.c ****         motor_arr[1].dir1_port = GPIOC;
 451              		.loc 1 133 0
 452 0038 234A     		ldr	r2, .L35+16
 453 003a DA64     		str	r2, [r3, #76]
 134:Core/Src/robo_init.c ****         motor_arr[1].dir1_pin = GPIO_PIN_11;
 454              		.loc 1 134 0
 455 003c 4FF40062 		mov	r2, #2048
 456 0040 A3F85020 		strh	r2, [r3, #80]	@ movhi
 135:Core/Src/robo_init.c ****         motor_arr[1].dir2_port = GPIOD;
 457              		.loc 1 135 0
 458 0044 214A     		ldr	r2, .L35+20
 459 0046 5A65     		str	r2, [r3, #84]
 136:Core/Src/robo_init.c ****         motor_arr[1].dir2_pin = GPIO_PIN_3;
 460              		.loc 1 136 0
 461 0048 A3F85850 		strh	r5, [r3, #88]	@ movhi
 137:Core/Src/robo_init.c ****         motor_arr[1].channel = TIM_CHANNEL_2;
 462              		.loc 1 137 0
 463 004c 0421     		movs	r1, #4
 464 004e 1966     		str	r1, [r3, #96]
 138:Core/Src/robo_init.c **** 
 139:Core/Src/robo_init.c ****         // motor3
 140:Core/Src/robo_init.c ****         motor_arr[2].dir1_port = GPIOD;
 465              		.loc 1 140 0
 466 0050 C3F88020 		str	r2, [r3, #128]
 141:Core/Src/robo_init.c ****         motor_arr[2].dir1_pin = GPIO_PIN_5;
 467              		.loc 1 141 0
 468 0054 2021     		movs	r1, #32
 469 0056 A3F88410 		strh	r1, [r3, #132]	@ movhi
 142:Core/Src/robo_init.c ****         motor_arr[2].dir2_port = GPIOD;
 470              		.loc 1 142 0
 471 005a C3F88820 		str	r2, [r3, #136]
 143:Core/Src/robo_init.c ****         motor_arr[2].dir2_pin = GPIO_PIN_4;
 472              		.loc 1 143 0
 473 005e 1020     		movs	r0, #16
 474 0060 A3F88C00 		strh	r0, [r3, #140]	@ movhi
 144:Core/Src/robo_init.c ****         motor_arr[2].channel = TIM_CHANNEL_3;
 475              		.loc 1 144 0
 476 0064 C3F89450 		str	r5, [r3, #148]
 145:Core/Src/robo_init.c **** 
 146:Core/Src/robo_init.c ****         // motor4
 147:Core/Src/robo_init.c ****         motor_arr[3].dir1_port = GPIOD;
 477              		.loc 1 147 0
 478 0068 C3F8B420 		str	r2, [r3, #180]
 148:Core/Src/robo_init.c ****         motor_arr[3].dir1_pin = GPIO_PIN_7;
 479              		.loc 1 148 0
 480 006c 8022     		movs	r2, #128
 481 006e A3F8B820 		strh	r2, [r3, #184]	@ movhi
 149:Core/Src/robo_init.c ****         motor_arr[3].dir2_port = GPIOB;
ARM GAS  C:\Users\Prashant\AppData\Local\Temp\ccyFuuYJ.s 			page 12


 482              		.loc 1 149 0
 483 0072 174A     		ldr	r2, .L35+24
 484 0074 C3F8BC20 		str	r2, [r3, #188]
 150:Core/Src/robo_init.c ****         motor_arr[3].dir2_pin = GPIO_PIN_5;
 485              		.loc 1 150 0
 486 0078 A3F8C010 		strh	r1, [r3, #192]	@ movhi
 151:Core/Src/robo_init.c ****         motor_arr[3].channel = TIM_CHANNEL_4;
 487              		.loc 1 151 0
 488 007c 0C22     		movs	r2, #12
 489 007e C3F8C820 		str	r2, [r3, #200]
 490              	.LVL24:
 491              	.LBB7:
 152:Core/Src/robo_init.c **** 
 153:Core/Src/robo_init.c ****         for (uint8_t i = 0; i < 4; i++)
 492              		.loc 1 153 0
 493 0082 15E0     		b	.L32
 494              	.LVL25:
 495              	.L33:
 154:Core/Src/robo_init.c ****         {
 155:Core/Src/robo_init.c ****                 motor_arr[i].update_omega = 0;
 496              		.loc 1 155 0 discriminator 3
 497 0084 0F4B     		ldr	r3, .L35+12
 498 0086 3425     		movs	r5, #52
 499 0088 05FB0435 		mla	r5, r5, r4, r3
 500 008c 0023     		movs	r3, #0
 501 008e 2B61     		str	r3, [r5, #16]	@ float
 156:Core/Src/robo_init.c ****                 motor_arr[i].htim = &htim8;
 502              		.loc 1 156 0 discriminator 3
 503 0090 1048     		ldr	r0, .L35+28
 504 0092 A862     		str	r0, [r5, #40]
 157:Core/Src/robo_init.c ****                 motor_arr[i].encoder = &encoder_arr[i];
 505              		.loc 1 157 0 discriminator 3
 506 0094 04EB4402 		add	r2, r4, r4, lsl #1
 507 0098 9300     		lsls	r3, r2, #2
 508 009a 0F4A     		ldr	r2, .L35+32
 509 009c 1344     		add	r3, r3, r2
 510 009e 2B63     		str	r3, [r5, #48]
 158:Core/Src/robo_init.c **** 
 159:Core/Src/robo_init.c ****                 HAL_TIM_Base_Start(motor_arr[i].htim);
 511              		.loc 1 159 0 discriminator 3
 512 00a0 FFF7FEFF 		bl	HAL_TIM_Base_Start
 513              	.LVL26:
 160:Core/Src/robo_init.c ****                 HAL_TIM_PWM_Start(motor_arr[i].htim, motor_arr[i].channel);
 514              		.loc 1 160 0 discriminator 3
 515 00a4 E96A     		ldr	r1, [r5, #44]
 516 00a6 A86A     		ldr	r0, [r5, #40]
 517 00a8 FFF7FEFF 		bl	HAL_TIM_PWM_Start
 518              	.LVL27:
 153:Core/Src/robo_init.c ****         {
 519              		.loc 1 153 0 discriminator 3
 520 00ac 0134     		adds	r4, r4, #1
 521              	.LVL28:
 522 00ae E4B2     		uxtb	r4, r4
 523              	.LVL29:
 524              	.L32:
 153:Core/Src/robo_init.c ****         {
 525              		.loc 1 153 0 is_stmt 0 discriminator 1
ARM GAS  C:\Users\Prashant\AppData\Local\Temp\ccyFuuYJ.s 			page 13


 526 00b0 032C     		cmp	r4, #3
 527 00b2 E7D9     		bls	.L33
 528              	.LBE7:
 161:Core/Src/robo_init.c ****         }
 162:Core/Src/robo_init.c **** }
 529              		.loc 1 162 0 is_stmt 1
 530 00b4 70BD     		pop	{r4, r5, r6, pc}
 531              	.LVL30:
 532              	.L36:
 533 00b6 00BF     		.align	2
 534              	.L35:
 535 00b8 00000000 		.word	balance_motor
 536 00bc 00000240 		.word	1073872896
 537 00c0 00000000 		.word	htim5
 538 00c4 00000000 		.word	motor_arr
 539 00c8 00080240 		.word	1073874944
 540 00cc 000C0240 		.word	1073875968
 541 00d0 00040240 		.word	1073873920
 542 00d4 00000000 		.word	htim8
 543 00d8 00000000 		.word	encoder_arr
 544              		.cfi_endproc
 545              	.LFE132:
 547              		.section	.text.roboInit,"ax",%progbits
 548              		.align	1
 549              		.global	roboInit
 550              		.syntax unified
 551              		.thumb
 552              		.thumb_func
 553              		.fpu fpv4-sp-d16
 555              	roboInit:
 556              	.LFB126:
  19:Core/Src/robo_init.c ****         pidInit();
 557              		.loc 1 19 0
 558              		.cfi_startproc
 559              		@ args = 0, pretend = 0, frame = 0
 560              		@ frame_needed = 0, uses_anonymous_args = 0
 561 0000 08B5     		push	{r3, lr}
 562              	.LCFI6:
 563              		.cfi_def_cfa_offset 8
 564              		.cfi_offset 3, -8
 565              		.cfi_offset 14, -4
  20:Core/Src/robo_init.c ****         motorInit();
 566              		.loc 1 20 0
 567 0002 FFF7FEFF 		bl	pidInit
 568              	.LVL31:
  21:Core/Src/robo_init.c ****         encoderInit(); // Initialized after HOME_POSITION
 569              		.loc 1 21 0
 570 0006 FFF7FEFF 		bl	motorInit
 571              	.LVL32:
  22:Core/Src/robo_init.c ****         interruptInit();
 572              		.loc 1 22 0
 573 000a FFF7FEFF 		bl	encoderInit
 574              	.LVL33:
  23:Core/Src/robo_init.c ****         pneumaticInit();
 575              		.loc 1 23 0
 576 000e FFF7FEFF 		bl	interruptInit
 577              	.LVL34:
ARM GAS  C:\Users\Prashant\AppData\Local\Temp\ccyFuuYJ.s 			page 14


  24:Core/Src/robo_init.c ****         feedForwardInit();
 578              		.loc 1 24 0
 579 0012 FFF7FEFF 		bl	pneumaticInit
 580              	.LVL35:
  25:Core/Src/robo_init.c **** }
 581              		.loc 1 25 0
 582 0016 FFF7FEFF 		bl	feedForwardInit
 583              	.LVL36:
  26:Core/Src/robo_init.c **** 
 584              		.loc 1 26 0
 585 001a 08BD     		pop	{r3, pc}
 586              		.cfi_endproc
 587              	.LFE126:
 589              		.section	.text.fsmInit,"ax",%progbits
 590              		.align	1
 591              		.global	fsmInit
 592              		.syntax unified
 593              		.thumb
 594              		.thumb_func
 595              		.fpu fpv4-sp-d16
 597              	fsmInit:
 598              	.LFB133:
 163:Core/Src/robo_init.c **** void fsmInit(void)
 164:Core/Src/robo_init.c **** {
 599              		.loc 1 164 0
 600              		.cfi_startproc
 601              		@ args = 0, pretend = 0, frame = 0
 602              		@ frame_needed = 0, uses_anonymous_args = 0
 603              		@ link register save eliminated.
 165:Core/Src/robo_init.c ****         fsm.loop_cnt = 0;
 604              		.loc 1 165 0
 605 0000 014B     		ldr	r3, .L40
 606 0002 0022     		movs	r2, #0
 607 0004 1A70     		strb	r2, [r3]
 166:Core/Src/robo_init.c **** }
 608              		.loc 1 166 0
 609 0006 7047     		bx	lr
 610              	.L41:
 611              		.align	2
 612              	.L40:
 613 0008 00000000 		.word	fsm
 614              		.cfi_endproc
 615              	.LFE133:
 617              		.comm	balance_motor,52,4
 618              		.comm	fsm,1,4
 619              		.comm	ff_arr,240,4
 620              		.comm	pid_arr,224,8
 621              		.comm	int_arr,48,4
 622              		.comm	pneu_arr,32,4
 623              		.comm	motor_arr,208,4
 624              		.comm	encoder_arr,48,4
 625              		.comm	blnc_int_arr,48,4
 626              		.text
 627              	.Letext0:
 628              		.file 2 "c:\\program files (x86)\\gnu tools arm embedded\\7 2017-q4-major\\arm-none-eabi\\include\
 629              		.file 3 "c:\\program files (x86)\\gnu tools arm embedded\\7 2017-q4-major\\arm-none-eabi\\include\
 630              		.file 4 "C:/Users/Prashant/STM32Cube/Repository/STM32Cube_FW_F4_V1.21.0/Drivers/CMSIS/Include/core
ARM GAS  C:\Users\Prashant\AppData\Local\Temp\ccyFuuYJ.s 			page 15


 631              		.file 5 "C:/Users/Prashant/STM32Cube/Repository/STM32Cube_FW_F4_V1.21.0/Drivers/CMSIS/Device/ST/ST
 632              		.file 6 "C:/Users/Prashant/STM32Cube/Repository/STM32Cube_FW_F4_V1.21.0/Drivers/CMSIS/Device/ST/ST
 633              		.file 7 "c:\\program files (x86)\\gnu tools arm embedded\\7 2017-q4-major\\arm-none-eabi\\include\
 634              		.file 8 "c:\\program files (x86)\\gnu tools arm embedded\\7 2017-q4-major\\arm-none-eabi\\include\
 635              		.file 9 "c:\\program files (x86)\\gnu tools arm embedded\\7 2017-q4-major\\lib\\gcc\\arm-none-eabi
 636              		.file 10 "c:\\program files (x86)\\gnu tools arm embedded\\7 2017-q4-major\\arm-none-eabi\\include
 637              		.file 11 "C:/Users/Prashant/STM32Cube/Repository/STM32Cube_FW_F4_V1.21.0/Drivers/STM32F4xx_HAL_Dri
 638              		.file 12 "C:/Users/Prashant/STM32Cube/Repository/STM32Cube_FW_F4_V1.21.0/Drivers/STM32F4xx_HAL_Dri
 639              		.file 13 "C:/Users/Prashant/STM32Cube/Repository/STM32Cube_FW_F4_V1.21.0/Drivers/STM32F4xx_HAL_Dri
 640              		.file 14 "Core/Inc\\periphs/tim.h"
 641              		.file 15 "Core/Inc/feed_forward.h"
 642              		.file 16 "Core/Inc/pneumatic.h"
 643              		.file 17 "Core/Inc/interrupt.h"
 644              		.file 18 "Core/Inc/encoder.h"
 645              		.file 19 "Core/Inc/motor.h"
 646              		.file 20 "Core/Inc/pid.h"
 647              		.file 21 "Core/Inc/fsm.h"
 648              		.file 22 "Core/Inc/robo_init.h"
ARM GAS  C:\Users\Prashant\AppData\Local\Temp\ccyFuuYJ.s 			page 16

