ARM GAS  C:\Users\Prashant\AppData\Local\Temp\ccqOKkPq.s 			page 1


   1              		.cpu cortex-m4
   2              		.eabi_attribute 27, 1
   3              		.eabi_attribute 28, 1
   4              		.eabi_attribute 20, 1
   5              		.eabi_attribute 21, 1
   6              		.eabi_attribute 23, 3
   7              		.eabi_attribute 24, 1
   8              		.eabi_attribute 25, 1
   9              		.eabi_attribute 26, 1
  10              		.eabi_attribute 30, 1
  11              		.eabi_attribute 34, 1
  12              		.eabi_attribute 18, 4
  13              		.file	"tim.c"
  14              		.text
  15              	.Ltext0:
  16              		.cfi_sections	.debug_frame
  17              		.section	.text.MX_TIM1_Init,"ax",%progbits
  18              		.align	1
  19              		.global	MX_TIM1_Init
  20              		.syntax unified
  21              		.thumb
  22              		.thumb_func
  23              		.fpu fpv4-sp-d16
  25              	MX_TIM1_Init:
  26              	.LFB126:
  27              		.file 1 "Core/Src/periphs/tim.c"
   1:Core/Src/periphs/tim.c **** /**
   2:Core/Src/periphs/tim.c ****   ******************************************************************************
   3:Core/Src/periphs/tim.c ****   * File Name          : TIM.c
   4:Core/Src/periphs/tim.c ****   * Description        : This file provides code for the configuration
   5:Core/Src/periphs/tim.c ****   *                      of the TIM instances.
   6:Core/Src/periphs/tim.c ****   ******************************************************************************
   7:Core/Src/periphs/tim.c ****   ** This notice applies to any and all portions of this file
   8:Core/Src/periphs/tim.c ****   * that are not between comment pairs USER CODE BEGIN and
   9:Core/Src/periphs/tim.c ****   * USER CODE END. Other portions of this file, whether 
  10:Core/Src/periphs/tim.c ****   * inserted by the user or by software development tools
  11:Core/Src/periphs/tim.c ****   * are owned by their respective copyright owners.
  12:Core/Src/periphs/tim.c ****   *
  13:Core/Src/periphs/tim.c ****   * COPYRIGHT(c) 2019 STMicroelectronics
  14:Core/Src/periphs/tim.c ****   *
  15:Core/Src/periphs/tim.c ****   * Redistribution and use in source and binary forms, with or without modification,
  16:Core/Src/periphs/tim.c ****   * are permitted provided that the following conditions are met:
  17:Core/Src/periphs/tim.c ****   *   1. Redistributions of source code must retain the above copyright notice,
  18:Core/Src/periphs/tim.c ****   *      this list of conditions and the following disclaimer.
  19:Core/Src/periphs/tim.c ****   *   2. Redistributions in binary form must reproduce the above copyright notice,
  20:Core/Src/periphs/tim.c ****   *      this list of conditions and the following disclaimer in the documentation
  21:Core/Src/periphs/tim.c ****   *      and/or other materials provided with the distribution.
  22:Core/Src/periphs/tim.c ****   *   3. Neither the name of STMicroelectronics nor the names of its contributors
  23:Core/Src/periphs/tim.c ****   *      may be used to endorse or promote products derived from this software
  24:Core/Src/periphs/tim.c ****   *      without specific prior written permission.
  25:Core/Src/periphs/tim.c ****   *
  26:Core/Src/periphs/tim.c ****   * THIS SOFTWARE IS PROVIDED BY THE COPYRIGHT HOLDERS AND CONTRIBUTORS "AS IS"
  27:Core/Src/periphs/tim.c ****   * AND ANY EXPRESS OR IMPLIED WARRANTIES, INCLUDING, BUT NOT LIMITED TO, THE
  28:Core/Src/periphs/tim.c ****   * IMPLIED WARRANTIES OF MERCHANTABILITY AND FITNESS FOR A PARTICULAR PURPOSE ARE
  29:Core/Src/periphs/tim.c ****   * DISCLAIMED. IN NO EVENT SHALL THE COPYRIGHT HOLDER OR CONTRIBUTORS BE LIABLE
  30:Core/Src/periphs/tim.c ****   * FOR ANY DIRECT, INDIRECT, INCIDENTAL, SPECIAL, EXEMPLARY, OR CONSEQUENTIAL
  31:Core/Src/periphs/tim.c ****   * DAMAGES (INCLUDING, BUT NOT LIMITED TO, PROCUREMENT OF SUBSTITUTE GOODS OR
ARM GAS  C:\Users\Prashant\AppData\Local\Temp\ccqOKkPq.s 			page 2


  32:Core/Src/periphs/tim.c ****   * SERVICES; LOSS OF USE, DATA, OR PROFITS; OR BUSINESS INTERRUPTION) HOWEVER
  33:Core/Src/periphs/tim.c ****   * CAUSED AND ON ANY THEORY OF LIABILITY, WHETHER IN CONTRACT, STRICT LIABILITY,
  34:Core/Src/periphs/tim.c ****   * OR TORT (INCLUDING NEGLIGENCE OR OTHERWISE) ARISING IN ANY WAY OUT OF THE USE
  35:Core/Src/periphs/tim.c ****   * OF THIS SOFTWARE, EVEN IF ADVISED OF THE POSSIBILITY OF SUCH DAMAGE.
  36:Core/Src/periphs/tim.c ****   *
  37:Core/Src/periphs/tim.c ****   ******************************************************************************
  38:Core/Src/periphs/tim.c ****   */
  39:Core/Src/periphs/tim.c **** 
  40:Core/Src/periphs/tim.c **** /* Includes ------------------------------------------------------------------*/
  41:Core/Src/periphs/tim.c **** #include "tim.h"
  42:Core/Src/periphs/tim.c **** 
  43:Core/Src/periphs/tim.c **** /* USER CODE BEGIN 0 */
  44:Core/Src/periphs/tim.c **** 
  45:Core/Src/periphs/tim.c **** /* USER CODE END 0 */
  46:Core/Src/periphs/tim.c **** 
  47:Core/Src/periphs/tim.c **** TIM_HandleTypeDef htim1;
  48:Core/Src/periphs/tim.c **** TIM_HandleTypeDef htim2;
  49:Core/Src/periphs/tim.c **** TIM_HandleTypeDef htim3;
  50:Core/Src/periphs/tim.c **** TIM_HandleTypeDef htim4;
  51:Core/Src/periphs/tim.c **** TIM_HandleTypeDef htim5;
  52:Core/Src/periphs/tim.c **** TIM_HandleTypeDef htim8;
  53:Core/Src/periphs/tim.c **** 
  54:Core/Src/periphs/tim.c **** /* TIM1 init function */
  55:Core/Src/periphs/tim.c **** void MX_TIM1_Init(void)
  56:Core/Src/periphs/tim.c **** {
  28              		.loc 1 56 0
  29              		.cfi_startproc
  30              		@ args = 0, pretend = 0, frame = 48
  31              		@ frame_needed = 0, uses_anonymous_args = 0
  32 0000 00B5     		push	{lr}
  33              	.LCFI0:
  34              		.cfi_def_cfa_offset 4
  35              		.cfi_offset 14, -4
  36 0002 8DB0     		sub	sp, sp, #52
  37              	.LCFI1:
  38              		.cfi_def_cfa_offset 56
  57:Core/Src/periphs/tim.c ****   TIM_Encoder_InitTypeDef sConfig = {0};
  39              		.loc 1 57 0
  40 0004 2022     		movs	r2, #32
  41 0006 0021     		movs	r1, #0
  42 0008 04A8     		add	r0, sp, #16
  43 000a FFF7FEFF 		bl	memset
  44              	.LVL0:
  58:Core/Src/periphs/tim.c ****   TIM_MasterConfigTypeDef sMasterConfig = {0};
  45              		.loc 1 58 0
  46 000e 0023     		movs	r3, #0
  47 0010 0193     		str	r3, [sp, #4]
  48 0012 0293     		str	r3, [sp, #8]
  59:Core/Src/periphs/tim.c **** 
  60:Core/Src/periphs/tim.c ****   htim1.Instance = TIM1;
  49              		.loc 1 60 0
  50 0014 1148     		ldr	r0, .L7
  51 0016 124A     		ldr	r2, .L7+4
  52 0018 0260     		str	r2, [r0]
  61:Core/Src/periphs/tim.c ****   htim1.Init.Prescaler = 0;
  53              		.loc 1 61 0
  54 001a 4360     		str	r3, [r0, #4]
ARM GAS  C:\Users\Prashant\AppData\Local\Temp\ccqOKkPq.s 			page 3


  62:Core/Src/periphs/tim.c ****   htim1.Init.CounterMode = TIM_COUNTERMODE_UP;
  55              		.loc 1 62 0
  56 001c 8360     		str	r3, [r0, #8]
  63:Core/Src/periphs/tim.c ****   htim1.Init.Period = 65535;
  57              		.loc 1 63 0
  58 001e 4FF6FF72 		movw	r2, #65535
  59 0022 C260     		str	r2, [r0, #12]
  64:Core/Src/periphs/tim.c ****   htim1.Init.ClockDivision = TIM_CLOCKDIVISION_DIV1;
  60              		.loc 1 64 0
  61 0024 0361     		str	r3, [r0, #16]
  65:Core/Src/periphs/tim.c ****   htim1.Init.RepetitionCounter = 0;
  62              		.loc 1 65 0
  63 0026 4361     		str	r3, [r0, #20]
  66:Core/Src/periphs/tim.c ****   sConfig.EncoderMode = TIM_ENCODERMODE_TI12;
  64              		.loc 1 66 0
  65 0028 0323     		movs	r3, #3
  66 002a 0393     		str	r3, [sp, #12]
  67:Core/Src/periphs/tim.c ****   sConfig.IC1Polarity = TIM_ICPOLARITY_RISING;
  68:Core/Src/periphs/tim.c ****   sConfig.IC1Selection = TIM_ICSELECTION_DIRECTTI;
  67              		.loc 1 68 0
  68 002c 0123     		movs	r3, #1
  69 002e 0593     		str	r3, [sp, #20]
  69:Core/Src/periphs/tim.c ****   sConfig.IC1Prescaler = TIM_ICPSC_DIV1;
  70:Core/Src/periphs/tim.c ****   sConfig.IC1Filter = 0;
  71:Core/Src/periphs/tim.c ****   sConfig.IC2Polarity = TIM_ICPOLARITY_RISING;
  72:Core/Src/periphs/tim.c ****   sConfig.IC2Selection = TIM_ICSELECTION_DIRECTTI;
  70              		.loc 1 72 0
  71 0030 0993     		str	r3, [sp, #36]
  73:Core/Src/periphs/tim.c ****   sConfig.IC2Prescaler = TIM_ICPSC_DIV1;
  74:Core/Src/periphs/tim.c ****   sConfig.IC2Filter = 0;
  75:Core/Src/periphs/tim.c ****   if (HAL_TIM_Encoder_Init(&htim1, &sConfig) != HAL_OK)
  72              		.loc 1 75 0
  73 0032 03A9     		add	r1, sp, #12
  74 0034 FFF7FEFF 		bl	HAL_TIM_Encoder_Init
  75              	.LVL1:
  76 0038 50B9     		cbnz	r0, .L5
  77              	.L2:
  76:Core/Src/periphs/tim.c ****   {
  77:Core/Src/periphs/tim.c ****     Error_Handler();
  78:Core/Src/periphs/tim.c ****   }
  79:Core/Src/periphs/tim.c ****   sMasterConfig.MasterOutputTrigger = TIM_TRGO_RESET;
  78              		.loc 1 79 0
  79 003a 0023     		movs	r3, #0
  80 003c 0193     		str	r3, [sp, #4]
  80:Core/Src/periphs/tim.c ****   sMasterConfig.MasterSlaveMode = TIM_MASTERSLAVEMODE_DISABLE;
  81              		.loc 1 80 0
  82 003e 0293     		str	r3, [sp, #8]
  81:Core/Src/periphs/tim.c ****   if (HAL_TIMEx_MasterConfigSynchronization(&htim1, &sMasterConfig) != HAL_OK)
  83              		.loc 1 81 0
  84 0040 01A9     		add	r1, sp, #4
  85 0042 0648     		ldr	r0, .L7
  86 0044 FFF7FEFF 		bl	HAL_TIMEx_MasterConfigSynchronization
  87              	.LVL2:
  88 0048 28B9     		cbnz	r0, .L6
  89              	.L1:
  82:Core/Src/periphs/tim.c ****   {
  83:Core/Src/periphs/tim.c ****     Error_Handler();
ARM GAS  C:\Users\Prashant\AppData\Local\Temp\ccqOKkPq.s 			page 4


  84:Core/Src/periphs/tim.c ****   }
  85:Core/Src/periphs/tim.c **** 
  86:Core/Src/periphs/tim.c **** }
  90              		.loc 1 86 0
  91 004a 0DB0     		add	sp, sp, #52
  92              	.LCFI2:
  93              		.cfi_remember_state
  94              		.cfi_def_cfa_offset 4
  95              		@ sp needed
  96 004c 5DF804FB 		ldr	pc, [sp], #4
  97              	.L5:
  98              	.LCFI3:
  99              		.cfi_restore_state
  77:Core/Src/periphs/tim.c ****   }
 100              		.loc 1 77 0
 101 0050 FFF7FEFF 		bl	Error_Handler
 102              	.LVL3:
 103 0054 F1E7     		b	.L2
 104              	.L6:
  83:Core/Src/periphs/tim.c ****   }
 105              		.loc 1 83 0
 106 0056 FFF7FEFF 		bl	Error_Handler
 107              	.LVL4:
 108              		.loc 1 86 0
 109 005a F6E7     		b	.L1
 110              	.L8:
 111              		.align	2
 112              	.L7:
 113 005c 00000000 		.word	htim1
 114 0060 00000140 		.word	1073807360
 115              		.cfi_endproc
 116              	.LFE126:
 118              		.section	.text.MX_TIM2_Init,"ax",%progbits
 119              		.align	1
 120              		.global	MX_TIM2_Init
 121              		.syntax unified
 122              		.thumb
 123              		.thumb_func
 124              		.fpu fpv4-sp-d16
 126              	MX_TIM2_Init:
 127              	.LFB127:
  87:Core/Src/periphs/tim.c **** /* TIM2 init function */
  88:Core/Src/periphs/tim.c **** void MX_TIM2_Init(void)
  89:Core/Src/periphs/tim.c **** {
 128              		.loc 1 89 0
 129              		.cfi_startproc
 130              		@ args = 0, pretend = 0, frame = 48
 131              		@ frame_needed = 0, uses_anonymous_args = 0
 132 0000 00B5     		push	{lr}
 133              	.LCFI4:
 134              		.cfi_def_cfa_offset 4
 135              		.cfi_offset 14, -4
 136 0002 8DB0     		sub	sp, sp, #52
 137              	.LCFI5:
 138              		.cfi_def_cfa_offset 56
  90:Core/Src/periphs/tim.c ****   TIM_Encoder_InitTypeDef sConfig = {0};
 139              		.loc 1 90 0
ARM GAS  C:\Users\Prashant\AppData\Local\Temp\ccqOKkPq.s 			page 5


 140 0004 2022     		movs	r2, #32
 141 0006 0021     		movs	r1, #0
 142 0008 04A8     		add	r0, sp, #16
 143 000a FFF7FEFF 		bl	memset
 144              	.LVL5:
  91:Core/Src/periphs/tim.c ****   TIM_MasterConfigTypeDef sMasterConfig = {0};
 145              		.loc 1 91 0
 146 000e 0023     		movs	r3, #0
 147 0010 0193     		str	r3, [sp, #4]
 148 0012 0293     		str	r3, [sp, #8]
  92:Core/Src/periphs/tim.c **** 
  93:Core/Src/periphs/tim.c ****   htim2.Instance = TIM2;
 149              		.loc 1 93 0
 150 0014 1148     		ldr	r0, .L15
 151 0016 4FF08042 		mov	r2, #1073741824
 152 001a 0260     		str	r2, [r0]
  94:Core/Src/periphs/tim.c ****   htim2.Init.Prescaler = 0;
 153              		.loc 1 94 0
 154 001c 4360     		str	r3, [r0, #4]
  95:Core/Src/periphs/tim.c ****   htim2.Init.CounterMode = TIM_COUNTERMODE_UP;
 155              		.loc 1 95 0
 156 001e 8360     		str	r3, [r0, #8]
  96:Core/Src/periphs/tim.c ****   htim2.Init.Period = 65535;
 157              		.loc 1 96 0
 158 0020 4FF6FF72 		movw	r2, #65535
 159 0024 C260     		str	r2, [r0, #12]
  97:Core/Src/periphs/tim.c ****   htim2.Init.ClockDivision = TIM_CLOCKDIVISION_DIV1;
 160              		.loc 1 97 0
 161 0026 0361     		str	r3, [r0, #16]
  98:Core/Src/periphs/tim.c ****   sConfig.EncoderMode = TIM_ENCODERMODE_TI12;
 162              		.loc 1 98 0
 163 0028 0323     		movs	r3, #3
 164 002a 0393     		str	r3, [sp, #12]
  99:Core/Src/periphs/tim.c ****   sConfig.IC1Polarity = TIM_ICPOLARITY_RISING;
 100:Core/Src/periphs/tim.c ****   sConfig.IC1Selection = TIM_ICSELECTION_DIRECTTI;
 165              		.loc 1 100 0
 166 002c 0123     		movs	r3, #1
 167 002e 0593     		str	r3, [sp, #20]
 101:Core/Src/periphs/tim.c ****   sConfig.IC1Prescaler = TIM_ICPSC_DIV1;
 102:Core/Src/periphs/tim.c ****   sConfig.IC1Filter = 0;
 103:Core/Src/periphs/tim.c ****   sConfig.IC2Polarity = TIM_ICPOLARITY_RISING;
 104:Core/Src/periphs/tim.c ****   sConfig.IC2Selection = TIM_ICSELECTION_DIRECTTI;
 168              		.loc 1 104 0
 169 0030 0993     		str	r3, [sp, #36]
 105:Core/Src/periphs/tim.c ****   sConfig.IC2Prescaler = TIM_ICPSC_DIV1;
 106:Core/Src/periphs/tim.c ****   sConfig.IC2Filter = 0;
 107:Core/Src/periphs/tim.c ****   if (HAL_TIM_Encoder_Init(&htim2, &sConfig) != HAL_OK)
 170              		.loc 1 107 0
 171 0032 03A9     		add	r1, sp, #12
 172 0034 FFF7FEFF 		bl	HAL_TIM_Encoder_Init
 173              	.LVL6:
 174 0038 50B9     		cbnz	r0, .L13
 175              	.L10:
 108:Core/Src/periphs/tim.c ****   {
 109:Core/Src/periphs/tim.c ****     Error_Handler();
 110:Core/Src/periphs/tim.c ****   }
 111:Core/Src/periphs/tim.c ****   sMasterConfig.MasterOutputTrigger = TIM_TRGO_RESET;
ARM GAS  C:\Users\Prashant\AppData\Local\Temp\ccqOKkPq.s 			page 6


 176              		.loc 1 111 0
 177 003a 0023     		movs	r3, #0
 178 003c 0193     		str	r3, [sp, #4]
 112:Core/Src/periphs/tim.c ****   sMasterConfig.MasterSlaveMode = TIM_MASTERSLAVEMODE_DISABLE;
 179              		.loc 1 112 0
 180 003e 0293     		str	r3, [sp, #8]
 113:Core/Src/periphs/tim.c ****   if (HAL_TIMEx_MasterConfigSynchronization(&htim2, &sMasterConfig) != HAL_OK)
 181              		.loc 1 113 0
 182 0040 01A9     		add	r1, sp, #4
 183 0042 0648     		ldr	r0, .L15
 184 0044 FFF7FEFF 		bl	HAL_TIMEx_MasterConfigSynchronization
 185              	.LVL7:
 186 0048 28B9     		cbnz	r0, .L14
 187              	.L9:
 114:Core/Src/periphs/tim.c ****   {
 115:Core/Src/periphs/tim.c ****     Error_Handler();
 116:Core/Src/periphs/tim.c ****   }
 117:Core/Src/periphs/tim.c **** 
 118:Core/Src/periphs/tim.c **** }
 188              		.loc 1 118 0
 189 004a 0DB0     		add	sp, sp, #52
 190              	.LCFI6:
 191              		.cfi_remember_state
 192              		.cfi_def_cfa_offset 4
 193              		@ sp needed
 194 004c 5DF804FB 		ldr	pc, [sp], #4
 195              	.L13:
 196              	.LCFI7:
 197              		.cfi_restore_state
 109:Core/Src/periphs/tim.c ****   }
 198              		.loc 1 109 0
 199 0050 FFF7FEFF 		bl	Error_Handler
 200              	.LVL8:
 201 0054 F1E7     		b	.L10
 202              	.L14:
 115:Core/Src/periphs/tim.c ****   }
 203              		.loc 1 115 0
 204 0056 FFF7FEFF 		bl	Error_Handler
 205              	.LVL9:
 206              		.loc 1 118 0
 207 005a F6E7     		b	.L9
 208              	.L16:
 209              		.align	2
 210              	.L15:
 211 005c 00000000 		.word	htim2
 212              		.cfi_endproc
 213              	.LFE127:
 215              		.section	.text.MX_TIM3_Init,"ax",%progbits
 216              		.align	1
 217              		.global	MX_TIM3_Init
 218              		.syntax unified
 219              		.thumb
 220              		.thumb_func
 221              		.fpu fpv4-sp-d16
 223              	MX_TIM3_Init:
 224              	.LFB128:
 119:Core/Src/periphs/tim.c **** /* TIM3 init function */
ARM GAS  C:\Users\Prashant\AppData\Local\Temp\ccqOKkPq.s 			page 7


 120:Core/Src/periphs/tim.c **** void MX_TIM3_Init(void)
 121:Core/Src/periphs/tim.c **** {
 225              		.loc 1 121 0
 226              		.cfi_startproc
 227              		@ args = 0, pretend = 0, frame = 48
 228              		@ frame_needed = 0, uses_anonymous_args = 0
 229 0000 00B5     		push	{lr}
 230              	.LCFI8:
 231              		.cfi_def_cfa_offset 4
 232              		.cfi_offset 14, -4
 233 0002 8DB0     		sub	sp, sp, #52
 234              	.LCFI9:
 235              		.cfi_def_cfa_offset 56
 122:Core/Src/periphs/tim.c ****   TIM_Encoder_InitTypeDef sConfig = {0};
 236              		.loc 1 122 0
 237 0004 2022     		movs	r2, #32
 238 0006 0021     		movs	r1, #0
 239 0008 04A8     		add	r0, sp, #16
 240 000a FFF7FEFF 		bl	memset
 241              	.LVL10:
 123:Core/Src/periphs/tim.c ****   TIM_MasterConfigTypeDef sMasterConfig = {0};
 242              		.loc 1 123 0
 243 000e 0023     		movs	r3, #0
 244 0010 0193     		str	r3, [sp, #4]
 245 0012 0293     		str	r3, [sp, #8]
 124:Core/Src/periphs/tim.c **** 
 125:Core/Src/periphs/tim.c ****   htim3.Instance = TIM3;
 246              		.loc 1 125 0
 247 0014 1148     		ldr	r0, .L23
 248 0016 124A     		ldr	r2, .L23+4
 249 0018 0260     		str	r2, [r0]
 126:Core/Src/periphs/tim.c ****   htim3.Init.Prescaler = 0;
 250              		.loc 1 126 0
 251 001a 4360     		str	r3, [r0, #4]
 127:Core/Src/periphs/tim.c ****   htim3.Init.CounterMode = TIM_COUNTERMODE_UP;
 252              		.loc 1 127 0
 253 001c 8360     		str	r3, [r0, #8]
 128:Core/Src/periphs/tim.c ****   htim3.Init.Period = 65535;
 254              		.loc 1 128 0
 255 001e 4FF6FF72 		movw	r2, #65535
 256 0022 C260     		str	r2, [r0, #12]
 129:Core/Src/periphs/tim.c ****   htim3.Init.ClockDivision = TIM_CLOCKDIVISION_DIV1;
 257              		.loc 1 129 0
 258 0024 0361     		str	r3, [r0, #16]
 130:Core/Src/periphs/tim.c ****   sConfig.EncoderMode = TIM_ENCODERMODE_TI12;
 259              		.loc 1 130 0
 260 0026 0323     		movs	r3, #3
 261 0028 0393     		str	r3, [sp, #12]
 131:Core/Src/periphs/tim.c ****   sConfig.IC1Polarity = TIM_ICPOLARITY_RISING;
 132:Core/Src/periphs/tim.c ****   sConfig.IC1Selection = TIM_ICSELECTION_DIRECTTI;
 262              		.loc 1 132 0
 263 002a 0123     		movs	r3, #1
 264 002c 0593     		str	r3, [sp, #20]
 133:Core/Src/periphs/tim.c ****   sConfig.IC1Prescaler = TIM_ICPSC_DIV1;
 134:Core/Src/periphs/tim.c ****   sConfig.IC1Filter = 0;
 135:Core/Src/periphs/tim.c ****   sConfig.IC2Polarity = TIM_ICPOLARITY_RISING;
 136:Core/Src/periphs/tim.c ****   sConfig.IC2Selection = TIM_ICSELECTION_DIRECTTI;
ARM GAS  C:\Users\Prashant\AppData\Local\Temp\ccqOKkPq.s 			page 8


 265              		.loc 1 136 0
 266 002e 0993     		str	r3, [sp, #36]
 137:Core/Src/periphs/tim.c ****   sConfig.IC2Prescaler = TIM_ICPSC_DIV1;
 138:Core/Src/periphs/tim.c ****   sConfig.IC2Filter = 0;
 139:Core/Src/periphs/tim.c ****   if (HAL_TIM_Encoder_Init(&htim3, &sConfig) != HAL_OK)
 267              		.loc 1 139 0
 268 0030 03A9     		add	r1, sp, #12
 269 0032 FFF7FEFF 		bl	HAL_TIM_Encoder_Init
 270              	.LVL11:
 271 0036 50B9     		cbnz	r0, .L21
 272              	.L18:
 140:Core/Src/periphs/tim.c ****   {
 141:Core/Src/periphs/tim.c ****     Error_Handler();
 142:Core/Src/periphs/tim.c ****   }
 143:Core/Src/periphs/tim.c ****   sMasterConfig.MasterOutputTrigger = TIM_TRGO_RESET;
 273              		.loc 1 143 0
 274 0038 0023     		movs	r3, #0
 275 003a 0193     		str	r3, [sp, #4]
 144:Core/Src/periphs/tim.c ****   sMasterConfig.MasterSlaveMode = TIM_MASTERSLAVEMODE_DISABLE;
 276              		.loc 1 144 0
 277 003c 0293     		str	r3, [sp, #8]
 145:Core/Src/periphs/tim.c ****   if (HAL_TIMEx_MasterConfigSynchronization(&htim3, &sMasterConfig) != HAL_OK)
 278              		.loc 1 145 0
 279 003e 01A9     		add	r1, sp, #4
 280 0040 0648     		ldr	r0, .L23
 281 0042 FFF7FEFF 		bl	HAL_TIMEx_MasterConfigSynchronization
 282              	.LVL12:
 283 0046 28B9     		cbnz	r0, .L22
 284              	.L17:
 146:Core/Src/periphs/tim.c ****   {
 147:Core/Src/periphs/tim.c ****     Error_Handler();
 148:Core/Src/periphs/tim.c ****   }
 149:Core/Src/periphs/tim.c **** 
 150:Core/Src/periphs/tim.c **** }
 285              		.loc 1 150 0
 286 0048 0DB0     		add	sp, sp, #52
 287              	.LCFI10:
 288              		.cfi_remember_state
 289              		.cfi_def_cfa_offset 4
 290              		@ sp needed
 291 004a 5DF804FB 		ldr	pc, [sp], #4
 292              	.L21:
 293              	.LCFI11:
 294              		.cfi_restore_state
 141:Core/Src/periphs/tim.c ****   }
 295              		.loc 1 141 0
 296 004e FFF7FEFF 		bl	Error_Handler
 297              	.LVL13:
 298 0052 F1E7     		b	.L18
 299              	.L22:
 147:Core/Src/periphs/tim.c ****   }
 300              		.loc 1 147 0
 301 0054 FFF7FEFF 		bl	Error_Handler
 302              	.LVL14:
 303              		.loc 1 150 0
 304 0058 F6E7     		b	.L17
 305              	.L24:
ARM GAS  C:\Users\Prashant\AppData\Local\Temp\ccqOKkPq.s 			page 9


 306 005a 00BF     		.align	2
 307              	.L23:
 308 005c 00000000 		.word	htim3
 309 0060 00040040 		.word	1073742848
 310              		.cfi_endproc
 311              	.LFE128:
 313              		.section	.text.MX_TIM4_Init,"ax",%progbits
 314              		.align	1
 315              		.global	MX_TIM4_Init
 316              		.syntax unified
 317              		.thumb
 318              		.thumb_func
 319              		.fpu fpv4-sp-d16
 321              	MX_TIM4_Init:
 322              	.LFB129:
 151:Core/Src/periphs/tim.c **** /* TIM4 init function */
 152:Core/Src/periphs/tim.c **** void MX_TIM4_Init(void)
 153:Core/Src/periphs/tim.c **** {
 323              		.loc 1 153 0
 324              		.cfi_startproc
 325              		@ args = 0, pretend = 0, frame = 48
 326              		@ frame_needed = 0, uses_anonymous_args = 0
 327 0000 00B5     		push	{lr}
 328              	.LCFI12:
 329              		.cfi_def_cfa_offset 4
 330              		.cfi_offset 14, -4
 331 0002 8DB0     		sub	sp, sp, #52
 332              	.LCFI13:
 333              		.cfi_def_cfa_offset 56
 154:Core/Src/periphs/tim.c ****   TIM_Encoder_InitTypeDef sConfig = {0};
 334              		.loc 1 154 0
 335 0004 2022     		movs	r2, #32
 336 0006 0021     		movs	r1, #0
 337 0008 04A8     		add	r0, sp, #16
 338 000a FFF7FEFF 		bl	memset
 339              	.LVL15:
 155:Core/Src/periphs/tim.c ****   TIM_MasterConfigTypeDef sMasterConfig = {0};
 340              		.loc 1 155 0
 341 000e 0023     		movs	r3, #0
 342 0010 0193     		str	r3, [sp, #4]
 343 0012 0293     		str	r3, [sp, #8]
 156:Core/Src/periphs/tim.c **** 
 157:Core/Src/periphs/tim.c ****   htim4.Instance = TIM4;
 344              		.loc 1 157 0
 345 0014 1148     		ldr	r0, .L31
 346 0016 124A     		ldr	r2, .L31+4
 347 0018 0260     		str	r2, [r0]
 158:Core/Src/periphs/tim.c ****   htim4.Init.Prescaler = 0;
 348              		.loc 1 158 0
 349 001a 4360     		str	r3, [r0, #4]
 159:Core/Src/periphs/tim.c ****   htim4.Init.CounterMode = TIM_COUNTERMODE_UP;
 350              		.loc 1 159 0
 351 001c 8360     		str	r3, [r0, #8]
 160:Core/Src/periphs/tim.c ****   htim4.Init.Period = 65535;
 352              		.loc 1 160 0
 353 001e 4FF6FF72 		movw	r2, #65535
 354 0022 C260     		str	r2, [r0, #12]
ARM GAS  C:\Users\Prashant\AppData\Local\Temp\ccqOKkPq.s 			page 10


 161:Core/Src/periphs/tim.c ****   htim4.Init.ClockDivision = TIM_CLOCKDIVISION_DIV1;
 355              		.loc 1 161 0
 356 0024 0361     		str	r3, [r0, #16]
 162:Core/Src/periphs/tim.c ****   sConfig.EncoderMode = TIM_ENCODERMODE_TI12;
 357              		.loc 1 162 0
 358 0026 0323     		movs	r3, #3
 359 0028 0393     		str	r3, [sp, #12]
 163:Core/Src/periphs/tim.c ****   sConfig.IC1Polarity = TIM_ICPOLARITY_RISING;
 164:Core/Src/periphs/tim.c ****   sConfig.IC1Selection = TIM_ICSELECTION_DIRECTTI;
 360              		.loc 1 164 0
 361 002a 0123     		movs	r3, #1
 362 002c 0593     		str	r3, [sp, #20]
 165:Core/Src/periphs/tim.c ****   sConfig.IC1Prescaler = TIM_ICPSC_DIV1;
 166:Core/Src/periphs/tim.c ****   sConfig.IC1Filter = 0;
 167:Core/Src/periphs/tim.c ****   sConfig.IC2Polarity = TIM_ICPOLARITY_RISING;
 168:Core/Src/periphs/tim.c ****   sConfig.IC2Selection = TIM_ICSELECTION_DIRECTTI;
 363              		.loc 1 168 0
 364 002e 0993     		str	r3, [sp, #36]
 169:Core/Src/periphs/tim.c ****   sConfig.IC2Prescaler = TIM_ICPSC_DIV1;
 170:Core/Src/periphs/tim.c ****   sConfig.IC2Filter = 0;
 171:Core/Src/periphs/tim.c ****   if (HAL_TIM_Encoder_Init(&htim4, &sConfig) != HAL_OK)
 365              		.loc 1 171 0
 366 0030 03A9     		add	r1, sp, #12
 367 0032 FFF7FEFF 		bl	HAL_TIM_Encoder_Init
 368              	.LVL16:
 369 0036 50B9     		cbnz	r0, .L29
 370              	.L26:
 172:Core/Src/periphs/tim.c ****   {
 173:Core/Src/periphs/tim.c ****     Error_Handler();
 174:Core/Src/periphs/tim.c ****   }
 175:Core/Src/periphs/tim.c ****   sMasterConfig.MasterOutputTrigger = TIM_TRGO_RESET;
 371              		.loc 1 175 0
 372 0038 0023     		movs	r3, #0
 373 003a 0193     		str	r3, [sp, #4]
 176:Core/Src/periphs/tim.c ****   sMasterConfig.MasterSlaveMode = TIM_MASTERSLAVEMODE_DISABLE;
 374              		.loc 1 176 0
 375 003c 0293     		str	r3, [sp, #8]
 177:Core/Src/periphs/tim.c ****   if (HAL_TIMEx_MasterConfigSynchronization(&htim4, &sMasterConfig) != HAL_OK)
 376              		.loc 1 177 0
 377 003e 01A9     		add	r1, sp, #4
 378 0040 0648     		ldr	r0, .L31
 379 0042 FFF7FEFF 		bl	HAL_TIMEx_MasterConfigSynchronization
 380              	.LVL17:
 381 0046 28B9     		cbnz	r0, .L30
 382              	.L25:
 178:Core/Src/periphs/tim.c ****   {
 179:Core/Src/periphs/tim.c ****     Error_Handler();
 180:Core/Src/periphs/tim.c ****   }
 181:Core/Src/periphs/tim.c **** 
 182:Core/Src/periphs/tim.c **** }
 383              		.loc 1 182 0
 384 0048 0DB0     		add	sp, sp, #52
 385              	.LCFI14:
 386              		.cfi_remember_state
 387              		.cfi_def_cfa_offset 4
 388              		@ sp needed
 389 004a 5DF804FB 		ldr	pc, [sp], #4
ARM GAS  C:\Users\Prashant\AppData\Local\Temp\ccqOKkPq.s 			page 11


 390              	.L29:
 391              	.LCFI15:
 392              		.cfi_restore_state
 173:Core/Src/periphs/tim.c ****   }
 393              		.loc 1 173 0
 394 004e FFF7FEFF 		bl	Error_Handler
 395              	.LVL18:
 396 0052 F1E7     		b	.L26
 397              	.L30:
 179:Core/Src/periphs/tim.c ****   }
 398              		.loc 1 179 0
 399 0054 FFF7FEFF 		bl	Error_Handler
 400              	.LVL19:
 401              		.loc 1 182 0
 402 0058 F6E7     		b	.L25
 403              	.L32:
 404 005a 00BF     		.align	2
 405              	.L31:
 406 005c 00000000 		.word	htim4
 407 0060 00080040 		.word	1073743872
 408              		.cfi_endproc
 409              	.LFE129:
 411              		.section	.text.HAL_TIM_Encoder_MspInit,"ax",%progbits
 412              		.align	1
 413              		.global	HAL_TIM_Encoder_MspInit
 414              		.syntax unified
 415              		.thumb
 416              		.thumb_func
 417              		.fpu fpv4-sp-d16
 419              	HAL_TIM_Encoder_MspInit:
 420              	.LFB132:
 183:Core/Src/periphs/tim.c **** /* TIM5 init function */
 184:Core/Src/periphs/tim.c **** void MX_TIM5_Init(void)
 185:Core/Src/periphs/tim.c **** {
 186:Core/Src/periphs/tim.c ****   TIM_MasterConfigTypeDef sMasterConfig = {0};
 187:Core/Src/periphs/tim.c ****   TIM_OC_InitTypeDef sConfigOC = {0};
 188:Core/Src/periphs/tim.c **** 
 189:Core/Src/periphs/tim.c ****   htim5.Instance = TIM5;
 190:Core/Src/periphs/tim.c ****   htim5.Init.Prescaler = 0;
 191:Core/Src/periphs/tim.c ****   htim5.Init.CounterMode = TIM_COUNTERMODE_UP;
 192:Core/Src/periphs/tim.c ****   htim5.Init.Period = 10499;
 193:Core/Src/periphs/tim.c ****   htim5.Init.ClockDivision = TIM_CLOCKDIVISION_DIV1;
 194:Core/Src/periphs/tim.c ****   if (HAL_TIM_PWM_Init(&htim5) != HAL_OK)
 195:Core/Src/periphs/tim.c ****   {
 196:Core/Src/periphs/tim.c ****     Error_Handler();
 197:Core/Src/periphs/tim.c ****   }
 198:Core/Src/periphs/tim.c ****   sMasterConfig.MasterOutputTrigger = TIM_TRGO_RESET;
 199:Core/Src/periphs/tim.c ****   sMasterConfig.MasterSlaveMode = TIM_MASTERSLAVEMODE_DISABLE;
 200:Core/Src/periphs/tim.c ****   if (HAL_TIMEx_MasterConfigSynchronization(&htim5, &sMasterConfig) != HAL_OK)
 201:Core/Src/periphs/tim.c ****   {
 202:Core/Src/periphs/tim.c ****     Error_Handler();
 203:Core/Src/periphs/tim.c ****   }
 204:Core/Src/periphs/tim.c ****   sConfigOC.OCMode = TIM_OCMODE_PWM1;
 205:Core/Src/periphs/tim.c ****   sConfigOC.Pulse = 0;
 206:Core/Src/periphs/tim.c ****   sConfigOC.OCPolarity = TIM_OCPOLARITY_HIGH;
 207:Core/Src/periphs/tim.c ****   sConfigOC.OCFastMode = TIM_OCFAST_DISABLE;
 208:Core/Src/periphs/tim.c ****   if (HAL_TIM_PWM_ConfigChannel(&htim5, &sConfigOC, TIM_CHANNEL_3) != HAL_OK)
ARM GAS  C:\Users\Prashant\AppData\Local\Temp\ccqOKkPq.s 			page 12


 209:Core/Src/periphs/tim.c ****   {
 210:Core/Src/periphs/tim.c ****     Error_Handler();
 211:Core/Src/periphs/tim.c ****   }
 212:Core/Src/periphs/tim.c ****   HAL_TIM_MspPostInit(&htim5);
 213:Core/Src/periphs/tim.c **** 
 214:Core/Src/periphs/tim.c **** }
 215:Core/Src/periphs/tim.c **** /* TIM8 init function */
 216:Core/Src/periphs/tim.c **** void MX_TIM8_Init(void)
 217:Core/Src/periphs/tim.c **** {
 218:Core/Src/periphs/tim.c ****   TIM_MasterConfigTypeDef sMasterConfig = {0};
 219:Core/Src/periphs/tim.c ****   TIM_OC_InitTypeDef sConfigOC = {0};
 220:Core/Src/periphs/tim.c ****   TIM_BreakDeadTimeConfigTypeDef sBreakDeadTimeConfig = {0};
 221:Core/Src/periphs/tim.c **** 
 222:Core/Src/periphs/tim.c ****   htim8.Instance = TIM8;
 223:Core/Src/periphs/tim.c ****   htim8.Init.Prescaler = 0;
 224:Core/Src/periphs/tim.c ****   htim8.Init.CounterMode = TIM_COUNTERMODE_CENTERALIGNED1;
 225:Core/Src/periphs/tim.c ****   htim8.Init.Period = 10499;
 226:Core/Src/periphs/tim.c ****   htim8.Init.ClockDivision = TIM_CLOCKDIVISION_DIV1;
 227:Core/Src/periphs/tim.c ****   htim8.Init.RepetitionCounter = 0;
 228:Core/Src/periphs/tim.c ****   if (HAL_TIM_PWM_Init(&htim8) != HAL_OK)
 229:Core/Src/periphs/tim.c ****   {
 230:Core/Src/periphs/tim.c ****     Error_Handler();
 231:Core/Src/periphs/tim.c ****   }
 232:Core/Src/periphs/tim.c ****   sMasterConfig.MasterOutputTrigger = TIM_TRGO_RESET;
 233:Core/Src/periphs/tim.c ****   sMasterConfig.MasterSlaveMode = TIM_MASTERSLAVEMODE_DISABLE;
 234:Core/Src/periphs/tim.c ****   if (HAL_TIMEx_MasterConfigSynchronization(&htim8, &sMasterConfig) != HAL_OK)
 235:Core/Src/periphs/tim.c ****   {
 236:Core/Src/periphs/tim.c ****     Error_Handler();
 237:Core/Src/periphs/tim.c ****   }
 238:Core/Src/periphs/tim.c ****   sConfigOC.OCMode = TIM_OCMODE_PWM1;
 239:Core/Src/periphs/tim.c ****   sConfigOC.Pulse = 0;
 240:Core/Src/periphs/tim.c ****   sConfigOC.OCPolarity = TIM_OCPOLARITY_HIGH;
 241:Core/Src/periphs/tim.c ****   sConfigOC.OCNPolarity = TIM_OCNPOLARITY_HIGH;
 242:Core/Src/periphs/tim.c ****   sConfigOC.OCFastMode = TIM_OCFAST_DISABLE;
 243:Core/Src/periphs/tim.c ****   sConfigOC.OCIdleState = TIM_OCIDLESTATE_RESET;
 244:Core/Src/periphs/tim.c ****   sConfigOC.OCNIdleState = TIM_OCNIDLESTATE_RESET;
 245:Core/Src/periphs/tim.c ****   if (HAL_TIM_PWM_ConfigChannel(&htim8, &sConfigOC, TIM_CHANNEL_1) != HAL_OK)
 246:Core/Src/periphs/tim.c ****   {
 247:Core/Src/periphs/tim.c ****     Error_Handler();
 248:Core/Src/periphs/tim.c ****   }
 249:Core/Src/periphs/tim.c ****   if (HAL_TIM_PWM_ConfigChannel(&htim8, &sConfigOC, TIM_CHANNEL_2) != HAL_OK)
 250:Core/Src/periphs/tim.c ****   {
 251:Core/Src/periphs/tim.c ****     Error_Handler();
 252:Core/Src/periphs/tim.c ****   }
 253:Core/Src/periphs/tim.c ****   if (HAL_TIM_PWM_ConfigChannel(&htim8, &sConfigOC, TIM_CHANNEL_3) != HAL_OK)
 254:Core/Src/periphs/tim.c ****   {
 255:Core/Src/periphs/tim.c ****     Error_Handler();
 256:Core/Src/periphs/tim.c ****   }
 257:Core/Src/periphs/tim.c ****   if (HAL_TIM_PWM_ConfigChannel(&htim8, &sConfigOC, TIM_CHANNEL_4) != HAL_OK)
 258:Core/Src/periphs/tim.c ****   {
 259:Core/Src/periphs/tim.c ****     Error_Handler();
 260:Core/Src/periphs/tim.c ****   }
 261:Core/Src/periphs/tim.c ****   sBreakDeadTimeConfig.OffStateRunMode = TIM_OSSR_DISABLE;
 262:Core/Src/periphs/tim.c ****   sBreakDeadTimeConfig.OffStateIDLEMode = TIM_OSSI_DISABLE;
 263:Core/Src/periphs/tim.c ****   sBreakDeadTimeConfig.LockLevel = TIM_LOCKLEVEL_OFF;
 264:Core/Src/periphs/tim.c ****   sBreakDeadTimeConfig.DeadTime = 0;
 265:Core/Src/periphs/tim.c ****   sBreakDeadTimeConfig.BreakState = TIM_BREAK_DISABLE;
ARM GAS  C:\Users\Prashant\AppData\Local\Temp\ccqOKkPq.s 			page 13


 266:Core/Src/periphs/tim.c ****   sBreakDeadTimeConfig.BreakPolarity = TIM_BREAKPOLARITY_HIGH;
 267:Core/Src/periphs/tim.c ****   sBreakDeadTimeConfig.AutomaticOutput = TIM_AUTOMATICOUTPUT_DISABLE;
 268:Core/Src/periphs/tim.c ****   if (HAL_TIMEx_ConfigBreakDeadTime(&htim8, &sBreakDeadTimeConfig) != HAL_OK)
 269:Core/Src/periphs/tim.c ****   {
 270:Core/Src/periphs/tim.c ****     Error_Handler();
 271:Core/Src/periphs/tim.c ****   }
 272:Core/Src/periphs/tim.c ****   HAL_TIM_MspPostInit(&htim8);
 273:Core/Src/periphs/tim.c **** 
 274:Core/Src/periphs/tim.c **** }
 275:Core/Src/periphs/tim.c **** 
 276:Core/Src/periphs/tim.c **** void HAL_TIM_Encoder_MspInit(TIM_HandleTypeDef* tim_encoderHandle)
 277:Core/Src/periphs/tim.c **** {
 421              		.loc 1 277 0
 422              		.cfi_startproc
 423              		@ args = 0, pretend = 0, frame = 56
 424              		@ frame_needed = 0, uses_anonymous_args = 0
 425              	.LVL20:
 426 0000 00B5     		push	{lr}
 427              	.LCFI16:
 428              		.cfi_def_cfa_offset 4
 429              		.cfi_offset 14, -4
 430 0002 8FB0     		sub	sp, sp, #60
 431              	.LCFI17:
 432              		.cfi_def_cfa_offset 64
 278:Core/Src/periphs/tim.c **** 
 279:Core/Src/periphs/tim.c ****   GPIO_InitTypeDef GPIO_InitStruct = {0};
 433              		.loc 1 279 0
 434 0004 0023     		movs	r3, #0
 435 0006 0993     		str	r3, [sp, #36]
 436 0008 0A93     		str	r3, [sp, #40]
 437 000a 0B93     		str	r3, [sp, #44]
 438 000c 0C93     		str	r3, [sp, #48]
 439 000e 0D93     		str	r3, [sp, #52]
 280:Core/Src/periphs/tim.c ****   if(tim_encoderHandle->Instance==TIM1)
 440              		.loc 1 280 0
 441 0010 0368     		ldr	r3, [r0]
 442 0012 4A4A     		ldr	r2, .L43
 443 0014 9342     		cmp	r3, r2
 444 0016 0BD0     		beq	.L39
 281:Core/Src/periphs/tim.c ****   {
 282:Core/Src/periphs/tim.c ****   /* USER CODE BEGIN TIM1_MspInit 0 */
 283:Core/Src/periphs/tim.c **** 
 284:Core/Src/periphs/tim.c ****   /* USER CODE END TIM1_MspInit 0 */
 285:Core/Src/periphs/tim.c ****     /* TIM1 clock enable */
 286:Core/Src/periphs/tim.c ****     __HAL_RCC_TIM1_CLK_ENABLE();
 287:Core/Src/periphs/tim.c ****   
 288:Core/Src/periphs/tim.c ****     __HAL_RCC_GPIOE_CLK_ENABLE();
 289:Core/Src/periphs/tim.c ****     /**TIM1 GPIO Configuration    
 290:Core/Src/periphs/tim.c ****     PE9     ------> TIM1_CH1
 291:Core/Src/periphs/tim.c ****     PE11     ------> TIM1_CH2 
 292:Core/Src/periphs/tim.c ****     */
 293:Core/Src/periphs/tim.c ****     GPIO_InitStruct.Pin = GPIO_PIN_9|GPIO_PIN_11;
 294:Core/Src/periphs/tim.c ****     GPIO_InitStruct.Mode = GPIO_MODE_AF_PP;
 295:Core/Src/periphs/tim.c ****     GPIO_InitStruct.Pull = GPIO_NOPULL;
 296:Core/Src/periphs/tim.c ****     GPIO_InitStruct.Speed = GPIO_SPEED_FREQ_LOW;
 297:Core/Src/periphs/tim.c ****     GPIO_InitStruct.Alternate = GPIO_AF1_TIM1;
 298:Core/Src/periphs/tim.c ****     HAL_GPIO_Init(GPIOE, &GPIO_InitStruct);
ARM GAS  C:\Users\Prashant\AppData\Local\Temp\ccqOKkPq.s 			page 14


 299:Core/Src/periphs/tim.c **** 
 300:Core/Src/periphs/tim.c ****   /* USER CODE BEGIN TIM1_MspInit 1 */
 301:Core/Src/periphs/tim.c **** 
 302:Core/Src/periphs/tim.c ****   /* USER CODE END TIM1_MspInit 1 */
 303:Core/Src/periphs/tim.c ****   }
 304:Core/Src/periphs/tim.c ****   else if(tim_encoderHandle->Instance==TIM2)
 445              		.loc 1 304 0
 446 0018 B3F1804F 		cmp	r3, #1073741824
 447 001c 2AD0     		beq	.L40
 305:Core/Src/periphs/tim.c ****   {
 306:Core/Src/periphs/tim.c ****   /* USER CODE BEGIN TIM2_MspInit 0 */
 307:Core/Src/periphs/tim.c **** 
 308:Core/Src/periphs/tim.c ****   /* USER CODE END TIM2_MspInit 0 */
 309:Core/Src/periphs/tim.c ****     /* TIM2 clock enable */
 310:Core/Src/periphs/tim.c ****     __HAL_RCC_TIM2_CLK_ENABLE();
 311:Core/Src/periphs/tim.c ****   
 312:Core/Src/periphs/tim.c ****     __HAL_RCC_GPIOA_CLK_ENABLE();
 313:Core/Src/periphs/tim.c ****     /**TIM2 GPIO Configuration    
 314:Core/Src/periphs/tim.c ****     PA1     ------> TIM2_CH2
 315:Core/Src/periphs/tim.c ****     PA5     ------> TIM2_CH1 
 316:Core/Src/periphs/tim.c ****     */
 317:Core/Src/periphs/tim.c ****     GPIO_InitStruct.Pin = GPIO_PIN_1|GPIO_PIN_5;
 318:Core/Src/periphs/tim.c ****     GPIO_InitStruct.Mode = GPIO_MODE_AF_PP;
 319:Core/Src/periphs/tim.c ****     GPIO_InitStruct.Pull = GPIO_NOPULL;
 320:Core/Src/periphs/tim.c ****     GPIO_InitStruct.Speed = GPIO_SPEED_FREQ_LOW;
 321:Core/Src/periphs/tim.c ****     GPIO_InitStruct.Alternate = GPIO_AF1_TIM2;
 322:Core/Src/periphs/tim.c ****     HAL_GPIO_Init(GPIOA, &GPIO_InitStruct);
 323:Core/Src/periphs/tim.c **** 
 324:Core/Src/periphs/tim.c ****   /* USER CODE BEGIN TIM2_MspInit 1 */
 325:Core/Src/periphs/tim.c **** 
 326:Core/Src/periphs/tim.c ****   /* USER CODE END TIM2_MspInit 1 */
 327:Core/Src/periphs/tim.c ****   }
 328:Core/Src/periphs/tim.c ****   else if(tim_encoderHandle->Instance==TIM3)
 448              		.loc 1 328 0
 449 001e 484A     		ldr	r2, .L43+4
 450 0020 9342     		cmp	r3, r2
 451 0022 49D0     		beq	.L41
 329:Core/Src/periphs/tim.c ****   {
 330:Core/Src/periphs/tim.c ****   /* USER CODE BEGIN TIM3_MspInit 0 */
 331:Core/Src/periphs/tim.c **** 
 332:Core/Src/periphs/tim.c ****   /* USER CODE END TIM3_MspInit 0 */
 333:Core/Src/periphs/tim.c ****     /* TIM3 clock enable */
 334:Core/Src/periphs/tim.c ****     __HAL_RCC_TIM3_CLK_ENABLE();
 335:Core/Src/periphs/tim.c ****   
 336:Core/Src/periphs/tim.c ****     __HAL_RCC_GPIOA_CLK_ENABLE();
 337:Core/Src/periphs/tim.c ****     /**TIM3 GPIO Configuration    
 338:Core/Src/periphs/tim.c ****     PA6     ------> TIM3_CH1
 339:Core/Src/periphs/tim.c ****     PA7     ------> TIM3_CH2 
 340:Core/Src/periphs/tim.c ****     */
 341:Core/Src/periphs/tim.c ****     GPIO_InitStruct.Pin = GPIO_PIN_6|GPIO_PIN_7;
 342:Core/Src/periphs/tim.c ****     GPIO_InitStruct.Mode = GPIO_MODE_AF_PP;
 343:Core/Src/periphs/tim.c ****     GPIO_InitStruct.Pull = GPIO_NOPULL;
 344:Core/Src/periphs/tim.c ****     GPIO_InitStruct.Speed = GPIO_SPEED_FREQ_LOW;
 345:Core/Src/periphs/tim.c ****     GPIO_InitStruct.Alternate = GPIO_AF2_TIM3;
 346:Core/Src/periphs/tim.c ****     HAL_GPIO_Init(GPIOA, &GPIO_InitStruct);
 347:Core/Src/periphs/tim.c **** 
 348:Core/Src/periphs/tim.c ****   /* USER CODE BEGIN TIM3_MspInit 1 */
ARM GAS  C:\Users\Prashant\AppData\Local\Temp\ccqOKkPq.s 			page 15


 349:Core/Src/periphs/tim.c **** 
 350:Core/Src/periphs/tim.c ****   /* USER CODE END TIM3_MspInit 1 */
 351:Core/Src/periphs/tim.c ****   }
 352:Core/Src/periphs/tim.c ****   else if(tim_encoderHandle->Instance==TIM4)
 452              		.loc 1 352 0
 453 0024 474A     		ldr	r2, .L43+8
 454 0026 9342     		cmp	r3, r2
 455 0028 66D0     		beq	.L42
 456              	.LVL21:
 457              	.L33:
 353:Core/Src/periphs/tim.c ****   {
 354:Core/Src/periphs/tim.c ****   /* USER CODE BEGIN TIM4_MspInit 0 */
 355:Core/Src/periphs/tim.c **** 
 356:Core/Src/periphs/tim.c ****   /* USER CODE END TIM4_MspInit 0 */
 357:Core/Src/periphs/tim.c ****     /* TIM4 clock enable */
 358:Core/Src/periphs/tim.c ****     __HAL_RCC_TIM4_CLK_ENABLE();
 359:Core/Src/periphs/tim.c ****   
 360:Core/Src/periphs/tim.c ****     __HAL_RCC_GPIOD_CLK_ENABLE();
 361:Core/Src/periphs/tim.c ****     /**TIM4 GPIO Configuration    
 362:Core/Src/periphs/tim.c ****     PD12     ------> TIM4_CH1
 363:Core/Src/periphs/tim.c ****     PD13     ------> TIM4_CH2 
 364:Core/Src/periphs/tim.c ****     */
 365:Core/Src/periphs/tim.c ****     GPIO_InitStruct.Pin = GPIO_PIN_12|GPIO_PIN_13;
 366:Core/Src/periphs/tim.c ****     GPIO_InitStruct.Mode = GPIO_MODE_AF_PP;
 367:Core/Src/periphs/tim.c ****     GPIO_InitStruct.Pull = GPIO_NOPULL;
 368:Core/Src/periphs/tim.c ****     GPIO_InitStruct.Speed = GPIO_SPEED_FREQ_LOW;
 369:Core/Src/periphs/tim.c ****     GPIO_InitStruct.Alternate = GPIO_AF2_TIM4;
 370:Core/Src/periphs/tim.c ****     HAL_GPIO_Init(GPIOD, &GPIO_InitStruct);
 371:Core/Src/periphs/tim.c **** 
 372:Core/Src/periphs/tim.c ****   /* USER CODE BEGIN TIM4_MspInit 1 */
 373:Core/Src/periphs/tim.c **** 
 374:Core/Src/periphs/tim.c ****   /* USER CODE END TIM4_MspInit 1 */
 375:Core/Src/periphs/tim.c ****   }
 376:Core/Src/periphs/tim.c **** }
 458              		.loc 1 376 0
 459 002a 0FB0     		add	sp, sp, #60
 460              	.LCFI18:
 461              		.cfi_remember_state
 462              		.cfi_def_cfa_offset 4
 463              		@ sp needed
 464 002c 5DF804FB 		ldr	pc, [sp], #4
 465              	.LVL22:
 466              	.L39:
 467              	.LCFI19:
 468              		.cfi_restore_state
 469              	.LBB2:
 286:Core/Src/periphs/tim.c ****   
 470              		.loc 1 286 0
 471 0030 0021     		movs	r1, #0
 472 0032 0191     		str	r1, [sp, #4]
 473 0034 444B     		ldr	r3, .L43+12
 474 0036 5A6C     		ldr	r2, [r3, #68]
 475 0038 42F00102 		orr	r2, r2, #1
 476 003c 5A64     		str	r2, [r3, #68]
 477 003e 5A6C     		ldr	r2, [r3, #68]
 478 0040 02F00102 		and	r2, r2, #1
 479 0044 0192     		str	r2, [sp, #4]
ARM GAS  C:\Users\Prashant\AppData\Local\Temp\ccqOKkPq.s 			page 16


 480 0046 019A     		ldr	r2, [sp, #4]
 481              	.LBE2:
 482              	.LBB3:
 288:Core/Src/periphs/tim.c ****     /**TIM1 GPIO Configuration    
 483              		.loc 1 288 0
 484 0048 0291     		str	r1, [sp, #8]
 485 004a 1A6B     		ldr	r2, [r3, #48]
 486 004c 42F01002 		orr	r2, r2, #16
 487 0050 1A63     		str	r2, [r3, #48]
 488 0052 1B6B     		ldr	r3, [r3, #48]
 489 0054 03F01003 		and	r3, r3, #16
 490 0058 0293     		str	r3, [sp, #8]
 491 005a 029B     		ldr	r3, [sp, #8]
 492              	.LBE3:
 293:Core/Src/periphs/tim.c ****     GPIO_InitStruct.Mode = GPIO_MODE_AF_PP;
 493              		.loc 1 293 0
 494 005c 4FF42063 		mov	r3, #2560
 495 0060 0993     		str	r3, [sp, #36]
 294:Core/Src/periphs/tim.c ****     GPIO_InitStruct.Pull = GPIO_NOPULL;
 496              		.loc 1 294 0
 497 0062 0223     		movs	r3, #2
 498 0064 0A93     		str	r3, [sp, #40]
 297:Core/Src/periphs/tim.c ****     HAL_GPIO_Init(GPIOE, &GPIO_InitStruct);
 499              		.loc 1 297 0
 500 0066 0123     		movs	r3, #1
 501 0068 0D93     		str	r3, [sp, #52]
 298:Core/Src/periphs/tim.c **** 
 502              		.loc 1 298 0
 503 006a 09A9     		add	r1, sp, #36
 504 006c 3748     		ldr	r0, .L43+16
 505              	.LVL23:
 506 006e FFF7FEFF 		bl	HAL_GPIO_Init
 507              	.LVL24:
 508 0072 DAE7     		b	.L33
 509              	.LVL25:
 510              	.L40:
 511              	.LBB4:
 310:Core/Src/periphs/tim.c ****   
 512              		.loc 1 310 0
 513 0074 0021     		movs	r1, #0
 514 0076 0391     		str	r1, [sp, #12]
 515 0078 03F50E33 		add	r3, r3, #145408
 516 007c 1A6C     		ldr	r2, [r3, #64]
 517 007e 42F00102 		orr	r2, r2, #1
 518 0082 1A64     		str	r2, [r3, #64]
 519 0084 1A6C     		ldr	r2, [r3, #64]
 520 0086 02F00102 		and	r2, r2, #1
 521 008a 0392     		str	r2, [sp, #12]
 522 008c 039A     		ldr	r2, [sp, #12]
 523              	.LBE4:
 524              	.LBB5:
 312:Core/Src/periphs/tim.c ****     /**TIM2 GPIO Configuration    
 525              		.loc 1 312 0
 526 008e 0491     		str	r1, [sp, #16]
 527 0090 1A6B     		ldr	r2, [r3, #48]
 528 0092 42F00102 		orr	r2, r2, #1
 529 0096 1A63     		str	r2, [r3, #48]
ARM GAS  C:\Users\Prashant\AppData\Local\Temp\ccqOKkPq.s 			page 17


 530 0098 1B6B     		ldr	r3, [r3, #48]
 531 009a 03F00103 		and	r3, r3, #1
 532 009e 0493     		str	r3, [sp, #16]
 533 00a0 049B     		ldr	r3, [sp, #16]
 534              	.LBE5:
 317:Core/Src/periphs/tim.c ****     GPIO_InitStruct.Mode = GPIO_MODE_AF_PP;
 535              		.loc 1 317 0
 536 00a2 2223     		movs	r3, #34
 537 00a4 0993     		str	r3, [sp, #36]
 318:Core/Src/periphs/tim.c ****     GPIO_InitStruct.Pull = GPIO_NOPULL;
 538              		.loc 1 318 0
 539 00a6 0223     		movs	r3, #2
 540 00a8 0A93     		str	r3, [sp, #40]
 321:Core/Src/periphs/tim.c ****     HAL_GPIO_Init(GPIOA, &GPIO_InitStruct);
 541              		.loc 1 321 0
 542 00aa 0123     		movs	r3, #1
 543 00ac 0D93     		str	r3, [sp, #52]
 322:Core/Src/periphs/tim.c **** 
 544              		.loc 1 322 0
 545 00ae 09A9     		add	r1, sp, #36
 546 00b0 2748     		ldr	r0, .L43+20
 547              	.LVL26:
 548 00b2 FFF7FEFF 		bl	HAL_GPIO_Init
 549              	.LVL27:
 550 00b6 B8E7     		b	.L33
 551              	.LVL28:
 552              	.L41:
 553              	.LBB6:
 334:Core/Src/periphs/tim.c ****   
 554              		.loc 1 334 0
 555 00b8 0021     		movs	r1, #0
 556 00ba 0591     		str	r1, [sp, #20]
 557 00bc 224B     		ldr	r3, .L43+12
 558 00be 1A6C     		ldr	r2, [r3, #64]
 559 00c0 42F00202 		orr	r2, r2, #2
 560 00c4 1A64     		str	r2, [r3, #64]
 561 00c6 1A6C     		ldr	r2, [r3, #64]
 562 00c8 02F00202 		and	r2, r2, #2
 563 00cc 0592     		str	r2, [sp, #20]
 564 00ce 059A     		ldr	r2, [sp, #20]
 565              	.LBE6:
 566              	.LBB7:
 336:Core/Src/periphs/tim.c ****     /**TIM3 GPIO Configuration    
 567              		.loc 1 336 0
 568 00d0 0691     		str	r1, [sp, #24]
 569 00d2 1A6B     		ldr	r2, [r3, #48]
 570 00d4 42F00102 		orr	r2, r2, #1
 571 00d8 1A63     		str	r2, [r3, #48]
 572 00da 1B6B     		ldr	r3, [r3, #48]
 573 00dc 03F00103 		and	r3, r3, #1
 574 00e0 0693     		str	r3, [sp, #24]
 575 00e2 069B     		ldr	r3, [sp, #24]
 576              	.LBE7:
 341:Core/Src/periphs/tim.c ****     GPIO_InitStruct.Mode = GPIO_MODE_AF_PP;
 577              		.loc 1 341 0
 578 00e4 C023     		movs	r3, #192
 579 00e6 0993     		str	r3, [sp, #36]
ARM GAS  C:\Users\Prashant\AppData\Local\Temp\ccqOKkPq.s 			page 18


 342:Core/Src/periphs/tim.c ****     GPIO_InitStruct.Pull = GPIO_NOPULL;
 580              		.loc 1 342 0
 581 00e8 0223     		movs	r3, #2
 582 00ea 0A93     		str	r3, [sp, #40]
 345:Core/Src/periphs/tim.c ****     HAL_GPIO_Init(GPIOA, &GPIO_InitStruct);
 583              		.loc 1 345 0
 584 00ec 0D93     		str	r3, [sp, #52]
 346:Core/Src/periphs/tim.c **** 
 585              		.loc 1 346 0
 586 00ee 09A9     		add	r1, sp, #36
 587 00f0 1748     		ldr	r0, .L43+20
 588              	.LVL29:
 589 00f2 FFF7FEFF 		bl	HAL_GPIO_Init
 590              	.LVL30:
 591 00f6 98E7     		b	.L33
 592              	.LVL31:
 593              	.L42:
 594              	.LBB8:
 358:Core/Src/periphs/tim.c ****   
 595              		.loc 1 358 0
 596 00f8 0021     		movs	r1, #0
 597 00fa 0791     		str	r1, [sp, #28]
 598 00fc 124B     		ldr	r3, .L43+12
 599 00fe 1A6C     		ldr	r2, [r3, #64]
 600 0100 42F00402 		orr	r2, r2, #4
 601 0104 1A64     		str	r2, [r3, #64]
 602 0106 1A6C     		ldr	r2, [r3, #64]
 603 0108 02F00402 		and	r2, r2, #4
 604 010c 0792     		str	r2, [sp, #28]
 605 010e 079A     		ldr	r2, [sp, #28]
 606              	.LBE8:
 607              	.LBB9:
 360:Core/Src/periphs/tim.c ****     /**TIM4 GPIO Configuration    
 608              		.loc 1 360 0
 609 0110 0891     		str	r1, [sp, #32]
 610 0112 1A6B     		ldr	r2, [r3, #48]
 611 0114 42F00802 		orr	r2, r2, #8
 612 0118 1A63     		str	r2, [r3, #48]
 613 011a 1B6B     		ldr	r3, [r3, #48]
 614 011c 03F00803 		and	r3, r3, #8
 615 0120 0893     		str	r3, [sp, #32]
 616 0122 089B     		ldr	r3, [sp, #32]
 617              	.LBE9:
 365:Core/Src/periphs/tim.c ****     GPIO_InitStruct.Mode = GPIO_MODE_AF_PP;
 618              		.loc 1 365 0
 619 0124 4FF44053 		mov	r3, #12288
 620 0128 0993     		str	r3, [sp, #36]
 366:Core/Src/periphs/tim.c ****     GPIO_InitStruct.Pull = GPIO_NOPULL;
 621              		.loc 1 366 0
 622 012a 0223     		movs	r3, #2
 623 012c 0A93     		str	r3, [sp, #40]
 369:Core/Src/periphs/tim.c ****     HAL_GPIO_Init(GPIOD, &GPIO_InitStruct);
 624              		.loc 1 369 0
 625 012e 0D93     		str	r3, [sp, #52]
 370:Core/Src/periphs/tim.c **** 
 626              		.loc 1 370 0
 627 0130 09A9     		add	r1, sp, #36
ARM GAS  C:\Users\Prashant\AppData\Local\Temp\ccqOKkPq.s 			page 19


 628 0132 0848     		ldr	r0, .L43+24
 629              	.LVL32:
 630 0134 FFF7FEFF 		bl	HAL_GPIO_Init
 631              	.LVL33:
 632              		.loc 1 376 0
 633 0138 77E7     		b	.L33
 634              	.L44:
 635 013a 00BF     		.align	2
 636              	.L43:
 637 013c 00000140 		.word	1073807360
 638 0140 00040040 		.word	1073742848
 639 0144 00080040 		.word	1073743872
 640 0148 00380240 		.word	1073887232
 641 014c 00100240 		.word	1073876992
 642 0150 00000240 		.word	1073872896
 643 0154 000C0240 		.word	1073875968
 644              		.cfi_endproc
 645              	.LFE132:
 647              		.section	.text.HAL_TIM_PWM_MspInit,"ax",%progbits
 648              		.align	1
 649              		.global	HAL_TIM_PWM_MspInit
 650              		.syntax unified
 651              		.thumb
 652              		.thumb_func
 653              		.fpu fpv4-sp-d16
 655              	HAL_TIM_PWM_MspInit:
 656              	.LFB133:
 377:Core/Src/periphs/tim.c **** 
 378:Core/Src/periphs/tim.c **** void HAL_TIM_PWM_MspInit(TIM_HandleTypeDef* tim_pwmHandle)
 379:Core/Src/periphs/tim.c **** {
 657              		.loc 1 379 0
 658              		.cfi_startproc
 659              		@ args = 0, pretend = 0, frame = 8
 660              		@ frame_needed = 0, uses_anonymous_args = 0
 661              		@ link register save eliminated.
 662              	.LVL34:
 663 0000 82B0     		sub	sp, sp, #8
 664              	.LCFI20:
 665              		.cfi_def_cfa_offset 8
 380:Core/Src/periphs/tim.c **** 
 381:Core/Src/periphs/tim.c ****   if(tim_pwmHandle->Instance==TIM5)
 666              		.loc 1 381 0
 667 0002 0368     		ldr	r3, [r0]
 668 0004 104A     		ldr	r2, .L51
 669 0006 9342     		cmp	r3, r2
 670 0008 04D0     		beq	.L49
 382:Core/Src/periphs/tim.c ****   {
 383:Core/Src/periphs/tim.c ****   /* USER CODE BEGIN TIM5_MspInit 0 */
 384:Core/Src/periphs/tim.c **** 
 385:Core/Src/periphs/tim.c ****   /* USER CODE END TIM5_MspInit 0 */
 386:Core/Src/periphs/tim.c ****     /* TIM5 clock enable */
 387:Core/Src/periphs/tim.c ****     __HAL_RCC_TIM5_CLK_ENABLE();
 388:Core/Src/periphs/tim.c ****   /* USER CODE BEGIN TIM5_MspInit 1 */
 389:Core/Src/periphs/tim.c **** 
 390:Core/Src/periphs/tim.c ****   /* USER CODE END TIM5_MspInit 1 */
 391:Core/Src/periphs/tim.c ****   }
 392:Core/Src/periphs/tim.c ****   else if(tim_pwmHandle->Instance==TIM8)
ARM GAS  C:\Users\Prashant\AppData\Local\Temp\ccqOKkPq.s 			page 20


 671              		.loc 1 392 0
 672 000a 104A     		ldr	r2, .L51+4
 673 000c 9342     		cmp	r3, r2
 674 000e 0ED0     		beq	.L50
 675              	.L45:
 393:Core/Src/periphs/tim.c ****   {
 394:Core/Src/periphs/tim.c ****   /* USER CODE BEGIN TIM8_MspInit 0 */
 395:Core/Src/periphs/tim.c **** 
 396:Core/Src/periphs/tim.c ****   /* USER CODE END TIM8_MspInit 0 */
 397:Core/Src/periphs/tim.c ****     /* TIM8 clock enable */
 398:Core/Src/periphs/tim.c ****     __HAL_RCC_TIM8_CLK_ENABLE();
 399:Core/Src/periphs/tim.c ****   /* USER CODE BEGIN TIM8_MspInit 1 */
 400:Core/Src/periphs/tim.c **** 
 401:Core/Src/periphs/tim.c ****   /* USER CODE END TIM8_MspInit 1 */
 402:Core/Src/periphs/tim.c ****   }
 403:Core/Src/periphs/tim.c **** }
 676              		.loc 1 403 0
 677 0010 02B0     		add	sp, sp, #8
 678              	.LCFI21:
 679              		.cfi_remember_state
 680              		.cfi_def_cfa_offset 0
 681              		@ sp needed
 682 0012 7047     		bx	lr
 683              	.L49:
 684              	.LCFI22:
 685              		.cfi_restore_state
 686              	.LBB10:
 387:Core/Src/periphs/tim.c ****   /* USER CODE BEGIN TIM5_MspInit 1 */
 687              		.loc 1 387 0
 688 0014 0023     		movs	r3, #0
 689 0016 0093     		str	r3, [sp]
 690 0018 0D4B     		ldr	r3, .L51+8
 691 001a 1A6C     		ldr	r2, [r3, #64]
 692 001c 42F00802 		orr	r2, r2, #8
 693 0020 1A64     		str	r2, [r3, #64]
 694 0022 1B6C     		ldr	r3, [r3, #64]
 695 0024 03F00803 		and	r3, r3, #8
 696 0028 0093     		str	r3, [sp]
 697 002a 009B     		ldr	r3, [sp]
 698              	.LBE10:
 699 002c F0E7     		b	.L45
 700              	.L50:
 701              	.LBB11:
 398:Core/Src/periphs/tim.c ****   /* USER CODE BEGIN TIM8_MspInit 1 */
 702              		.loc 1 398 0
 703 002e 0023     		movs	r3, #0
 704 0030 0193     		str	r3, [sp, #4]
 705 0032 074B     		ldr	r3, .L51+8
 706 0034 5A6C     		ldr	r2, [r3, #68]
 707 0036 42F00202 		orr	r2, r2, #2
 708 003a 5A64     		str	r2, [r3, #68]
 709 003c 5B6C     		ldr	r3, [r3, #68]
 710 003e 03F00203 		and	r3, r3, #2
 711 0042 0193     		str	r3, [sp, #4]
 712 0044 019B     		ldr	r3, [sp, #4]
 713              	.LBE11:
 714              		.loc 1 403 0
ARM GAS  C:\Users\Prashant\AppData\Local\Temp\ccqOKkPq.s 			page 21


 715 0046 E3E7     		b	.L45
 716              	.L52:
 717              		.align	2
 718              	.L51:
 719 0048 000C0040 		.word	1073744896
 720 004c 00040140 		.word	1073808384
 721 0050 00380240 		.word	1073887232
 722              		.cfi_endproc
 723              	.LFE133:
 725              		.section	.text.HAL_TIM_MspPostInit,"ax",%progbits
 726              		.align	1
 727              		.global	HAL_TIM_MspPostInit
 728              		.syntax unified
 729              		.thumb
 730              		.thumb_func
 731              		.fpu fpv4-sp-d16
 733              	HAL_TIM_MspPostInit:
 734              	.LFB134:
 404:Core/Src/periphs/tim.c **** void HAL_TIM_MspPostInit(TIM_HandleTypeDef* timHandle)
 405:Core/Src/periphs/tim.c **** {
 735              		.loc 1 405 0
 736              		.cfi_startproc
 737              		@ args = 0, pretend = 0, frame = 32
 738              		@ frame_needed = 0, uses_anonymous_args = 0
 739              	.LVL35:
 740 0000 00B5     		push	{lr}
 741              	.LCFI23:
 742              		.cfi_def_cfa_offset 4
 743              		.cfi_offset 14, -4
 744 0002 89B0     		sub	sp, sp, #36
 745              	.LCFI24:
 746              		.cfi_def_cfa_offset 40
 406:Core/Src/periphs/tim.c **** 
 407:Core/Src/periphs/tim.c ****   GPIO_InitTypeDef GPIO_InitStruct = {0};
 747              		.loc 1 407 0
 748 0004 0023     		movs	r3, #0
 749 0006 0393     		str	r3, [sp, #12]
 750 0008 0493     		str	r3, [sp, #16]
 751 000a 0593     		str	r3, [sp, #20]
 752 000c 0693     		str	r3, [sp, #24]
 753 000e 0793     		str	r3, [sp, #28]
 408:Core/Src/periphs/tim.c ****   if(timHandle->Instance==TIM5)
 754              		.loc 1 408 0
 755 0010 0368     		ldr	r3, [r0]
 756 0012 1B4A     		ldr	r2, .L59
 757 0014 9342     		cmp	r3, r2
 758 0016 05D0     		beq	.L57
 409:Core/Src/periphs/tim.c ****   {
 410:Core/Src/periphs/tim.c ****   /* USER CODE BEGIN TIM5_MspPostInit 0 */
 411:Core/Src/periphs/tim.c **** 
 412:Core/Src/periphs/tim.c ****   /* USER CODE END TIM5_MspPostInit 0 */
 413:Core/Src/periphs/tim.c ****     __HAL_RCC_GPIOA_CLK_ENABLE();
 414:Core/Src/periphs/tim.c ****     /**TIM5 GPIO Configuration    
 415:Core/Src/periphs/tim.c ****     PA2     ------> TIM5_CH3 
 416:Core/Src/periphs/tim.c ****     */
 417:Core/Src/periphs/tim.c ****     GPIO_InitStruct.Pin = GPIO_PIN_2;
 418:Core/Src/periphs/tim.c ****     GPIO_InitStruct.Mode = GPIO_MODE_AF_PP;
ARM GAS  C:\Users\Prashant\AppData\Local\Temp\ccqOKkPq.s 			page 22


 419:Core/Src/periphs/tim.c ****     GPIO_InitStruct.Pull = GPIO_NOPULL;
 420:Core/Src/periphs/tim.c ****     GPIO_InitStruct.Speed = GPIO_SPEED_FREQ_LOW;
 421:Core/Src/periphs/tim.c ****     GPIO_InitStruct.Alternate = GPIO_AF2_TIM5;
 422:Core/Src/periphs/tim.c ****     HAL_GPIO_Init(GPIOA, &GPIO_InitStruct);
 423:Core/Src/periphs/tim.c **** 
 424:Core/Src/periphs/tim.c ****   /* USER CODE BEGIN TIM5_MspPostInit 1 */
 425:Core/Src/periphs/tim.c **** 
 426:Core/Src/periphs/tim.c ****   /* USER CODE END TIM5_MspPostInit 1 */
 427:Core/Src/periphs/tim.c ****   }
 428:Core/Src/periphs/tim.c ****   else if(timHandle->Instance==TIM8)
 759              		.loc 1 428 0
 760 0018 1A4A     		ldr	r2, .L59+4
 761 001a 9342     		cmp	r3, r2
 762 001c 18D0     		beq	.L58
 763              	.LVL36:
 764              	.L53:
 429:Core/Src/periphs/tim.c ****   {
 430:Core/Src/periphs/tim.c ****   /* USER CODE BEGIN TIM8_MspPostInit 0 */
 431:Core/Src/periphs/tim.c **** 
 432:Core/Src/periphs/tim.c ****   /* USER CODE END TIM8_MspPostInit 0 */
 433:Core/Src/periphs/tim.c ****   
 434:Core/Src/periphs/tim.c ****     __HAL_RCC_GPIOC_CLK_ENABLE();
 435:Core/Src/periphs/tim.c ****     /**TIM8 GPIO Configuration    
 436:Core/Src/periphs/tim.c ****     PC6     ------> TIM8_CH1
 437:Core/Src/periphs/tim.c ****     PC7     ------> TIM8_CH2
 438:Core/Src/periphs/tim.c ****     PC8     ------> TIM8_CH3
 439:Core/Src/periphs/tim.c ****     PC9     ------> TIM8_CH4 
 440:Core/Src/periphs/tim.c ****     */
 441:Core/Src/periphs/tim.c ****     GPIO_InitStruct.Pin = GPIO_PIN_6|GPIO_PIN_7|GPIO_PIN_8|GPIO_PIN_9;
 442:Core/Src/periphs/tim.c ****     GPIO_InitStruct.Mode = GPIO_MODE_AF_PP;
 443:Core/Src/periphs/tim.c ****     GPIO_InitStruct.Pull = GPIO_NOPULL;
 444:Core/Src/periphs/tim.c ****     GPIO_InitStruct.Speed = GPIO_SPEED_FREQ_LOW;
 445:Core/Src/periphs/tim.c ****     GPIO_InitStruct.Alternate = GPIO_AF3_TIM8;
 446:Core/Src/periphs/tim.c ****     HAL_GPIO_Init(GPIOC, &GPIO_InitStruct);
 447:Core/Src/periphs/tim.c **** 
 448:Core/Src/periphs/tim.c ****   /* USER CODE BEGIN TIM8_MspPostInit 1 */
 449:Core/Src/periphs/tim.c **** 
 450:Core/Src/periphs/tim.c ****   /* USER CODE END TIM8_MspPostInit 1 */
 451:Core/Src/periphs/tim.c ****   }
 452:Core/Src/periphs/tim.c **** 
 453:Core/Src/periphs/tim.c **** }
 765              		.loc 1 453 0
 766 001e 09B0     		add	sp, sp, #36
 767              	.LCFI25:
 768              		.cfi_remember_state
 769              		.cfi_def_cfa_offset 4
 770              		@ sp needed
 771 0020 5DF804FB 		ldr	pc, [sp], #4
 772              	.LVL37:
 773              	.L57:
 774              	.LCFI26:
 775              		.cfi_restore_state
 776              	.LBB12:
 413:Core/Src/periphs/tim.c ****     /**TIM5 GPIO Configuration    
 777              		.loc 1 413 0
 778 0024 0023     		movs	r3, #0
 779 0026 0193     		str	r3, [sp, #4]
ARM GAS  C:\Users\Prashant\AppData\Local\Temp\ccqOKkPq.s 			page 23


 780 0028 174B     		ldr	r3, .L59+8
 781 002a 1A6B     		ldr	r2, [r3, #48]
 782 002c 42F00102 		orr	r2, r2, #1
 783 0030 1A63     		str	r2, [r3, #48]
 784 0032 1B6B     		ldr	r3, [r3, #48]
 785 0034 03F00103 		and	r3, r3, #1
 786 0038 0193     		str	r3, [sp, #4]
 787 003a 019B     		ldr	r3, [sp, #4]
 788              	.LBE12:
 417:Core/Src/periphs/tim.c ****     GPIO_InitStruct.Mode = GPIO_MODE_AF_PP;
 789              		.loc 1 417 0
 790 003c 0423     		movs	r3, #4
 791 003e 0393     		str	r3, [sp, #12]
 418:Core/Src/periphs/tim.c ****     GPIO_InitStruct.Pull = GPIO_NOPULL;
 792              		.loc 1 418 0
 793 0040 0223     		movs	r3, #2
 794 0042 0493     		str	r3, [sp, #16]
 421:Core/Src/periphs/tim.c ****     HAL_GPIO_Init(GPIOA, &GPIO_InitStruct);
 795              		.loc 1 421 0
 796 0044 0793     		str	r3, [sp, #28]
 422:Core/Src/periphs/tim.c **** 
 797              		.loc 1 422 0
 798 0046 03A9     		add	r1, sp, #12
 799 0048 1048     		ldr	r0, .L59+12
 800              	.LVL38:
 801 004a FFF7FEFF 		bl	HAL_GPIO_Init
 802              	.LVL39:
 803 004e E6E7     		b	.L53
 804              	.LVL40:
 805              	.L58:
 806              	.LBB13:
 434:Core/Src/periphs/tim.c ****     /**TIM8 GPIO Configuration    
 807              		.loc 1 434 0
 808 0050 0023     		movs	r3, #0
 809 0052 0293     		str	r3, [sp, #8]
 810 0054 0C4B     		ldr	r3, .L59+8
 811 0056 1A6B     		ldr	r2, [r3, #48]
 812 0058 42F00402 		orr	r2, r2, #4
 813 005c 1A63     		str	r2, [r3, #48]
 814 005e 1B6B     		ldr	r3, [r3, #48]
 815 0060 03F00403 		and	r3, r3, #4
 816 0064 0293     		str	r3, [sp, #8]
 817 0066 029B     		ldr	r3, [sp, #8]
 818              	.LBE13:
 441:Core/Src/periphs/tim.c ****     GPIO_InitStruct.Mode = GPIO_MODE_AF_PP;
 819              		.loc 1 441 0
 820 0068 4FF47073 		mov	r3, #960
 821 006c 0393     		str	r3, [sp, #12]
 442:Core/Src/periphs/tim.c ****     GPIO_InitStruct.Pull = GPIO_NOPULL;
 822              		.loc 1 442 0
 823 006e 0223     		movs	r3, #2
 824 0070 0493     		str	r3, [sp, #16]
 445:Core/Src/periphs/tim.c ****     HAL_GPIO_Init(GPIOC, &GPIO_InitStruct);
 825              		.loc 1 445 0
 826 0072 0323     		movs	r3, #3
 827 0074 0793     		str	r3, [sp, #28]
 446:Core/Src/periphs/tim.c **** 
ARM GAS  C:\Users\Prashant\AppData\Local\Temp\ccqOKkPq.s 			page 24


 828              		.loc 1 446 0
 829 0076 03A9     		add	r1, sp, #12
 830 0078 0548     		ldr	r0, .L59+16
 831              	.LVL41:
 832 007a FFF7FEFF 		bl	HAL_GPIO_Init
 833              	.LVL42:
 834              		.loc 1 453 0
 835 007e CEE7     		b	.L53
 836              	.L60:
 837              		.align	2
 838              	.L59:
 839 0080 000C0040 		.word	1073744896
 840 0084 00040140 		.word	1073808384
 841 0088 00380240 		.word	1073887232
 842 008c 00000240 		.word	1073872896
 843 0090 00080240 		.word	1073874944
 844              		.cfi_endproc
 845              	.LFE134:
 847              		.section	.text.MX_TIM5_Init,"ax",%progbits
 848              		.align	1
 849              		.global	MX_TIM5_Init
 850              		.syntax unified
 851              		.thumb
 852              		.thumb_func
 853              		.fpu fpv4-sp-d16
 855              	MX_TIM5_Init:
 856              	.LFB130:
 185:Core/Src/periphs/tim.c ****   TIM_MasterConfigTypeDef sMasterConfig = {0};
 857              		.loc 1 185 0
 858              		.cfi_startproc
 859              		@ args = 0, pretend = 0, frame = 40
 860              		@ frame_needed = 0, uses_anonymous_args = 0
 861 0000 00B5     		push	{lr}
 862              	.LCFI27:
 863              		.cfi_def_cfa_offset 4
 864              		.cfi_offset 14, -4
 865 0002 8BB0     		sub	sp, sp, #44
 866              	.LCFI28:
 867              		.cfi_def_cfa_offset 48
 186:Core/Src/periphs/tim.c ****   TIM_OC_InitTypeDef sConfigOC = {0};
 868              		.loc 1 186 0
 869 0004 0023     		movs	r3, #0
 870 0006 0893     		str	r3, [sp, #32]
 871 0008 0993     		str	r3, [sp, #36]
 187:Core/Src/periphs/tim.c **** 
 872              		.loc 1 187 0
 873 000a 0193     		str	r3, [sp, #4]
 874 000c 0293     		str	r3, [sp, #8]
 875 000e 0393     		str	r3, [sp, #12]
 876 0010 0493     		str	r3, [sp, #16]
 877 0012 0593     		str	r3, [sp, #20]
 878 0014 0693     		str	r3, [sp, #24]
 879 0016 0793     		str	r3, [sp, #28]
 189:Core/Src/periphs/tim.c ****   htim5.Init.Prescaler = 0;
 880              		.loc 1 189 0
 881 0018 1748     		ldr	r0, .L69
 882 001a 184A     		ldr	r2, .L69+4
ARM GAS  C:\Users\Prashant\AppData\Local\Temp\ccqOKkPq.s 			page 25


 883 001c 0260     		str	r2, [r0]
 190:Core/Src/periphs/tim.c ****   htim5.Init.CounterMode = TIM_COUNTERMODE_UP;
 884              		.loc 1 190 0
 885 001e 4360     		str	r3, [r0, #4]
 191:Core/Src/periphs/tim.c ****   htim5.Init.Period = 10499;
 886              		.loc 1 191 0
 887 0020 8360     		str	r3, [r0, #8]
 192:Core/Src/periphs/tim.c ****   htim5.Init.ClockDivision = TIM_CLOCKDIVISION_DIV1;
 888              		.loc 1 192 0
 889 0022 42F60312 		movw	r2, #10499
 890 0026 C260     		str	r2, [r0, #12]
 193:Core/Src/periphs/tim.c ****   if (HAL_TIM_PWM_Init(&htim5) != HAL_OK)
 891              		.loc 1 193 0
 892 0028 0361     		str	r3, [r0, #16]
 194:Core/Src/periphs/tim.c ****   {
 893              		.loc 1 194 0
 894 002a FFF7FEFF 		bl	HAL_TIM_PWM_Init
 895              	.LVL43:
 896 002e C8B9     		cbnz	r0, .L66
 897              	.L62:
 198:Core/Src/periphs/tim.c ****   sMasterConfig.MasterSlaveMode = TIM_MASTERSLAVEMODE_DISABLE;
 898              		.loc 1 198 0
 899 0030 0023     		movs	r3, #0
 900 0032 0893     		str	r3, [sp, #32]
 199:Core/Src/periphs/tim.c ****   if (HAL_TIMEx_MasterConfigSynchronization(&htim5, &sMasterConfig) != HAL_OK)
 901              		.loc 1 199 0
 902 0034 0993     		str	r3, [sp, #36]
 200:Core/Src/periphs/tim.c ****   {
 903              		.loc 1 200 0
 904 0036 08A9     		add	r1, sp, #32
 905 0038 0F48     		ldr	r0, .L69
 906 003a FFF7FEFF 		bl	HAL_TIMEx_MasterConfigSynchronization
 907              	.LVL44:
 908 003e A0B9     		cbnz	r0, .L67
 909              	.L63:
 204:Core/Src/periphs/tim.c ****   sConfigOC.Pulse = 0;
 910              		.loc 1 204 0
 911 0040 6023     		movs	r3, #96
 912 0042 0193     		str	r3, [sp, #4]
 205:Core/Src/periphs/tim.c ****   sConfigOC.OCPolarity = TIM_OCPOLARITY_HIGH;
 913              		.loc 1 205 0
 914 0044 0023     		movs	r3, #0
 915 0046 0293     		str	r3, [sp, #8]
 206:Core/Src/periphs/tim.c ****   sConfigOC.OCFastMode = TIM_OCFAST_DISABLE;
 916              		.loc 1 206 0
 917 0048 0393     		str	r3, [sp, #12]
 207:Core/Src/periphs/tim.c ****   if (HAL_TIM_PWM_ConfigChannel(&htim5, &sConfigOC, TIM_CHANNEL_3) != HAL_OK)
 918              		.loc 1 207 0
 919 004a 0593     		str	r3, [sp, #20]
 208:Core/Src/periphs/tim.c ****   {
 920              		.loc 1 208 0
 921 004c 0822     		movs	r2, #8
 922 004e 01A9     		add	r1, sp, #4
 923 0050 0948     		ldr	r0, .L69
 924 0052 FFF7FEFF 		bl	HAL_TIM_PWM_ConfigChannel
 925              	.LVL45:
 926 0056 58B9     		cbnz	r0, .L68
ARM GAS  C:\Users\Prashant\AppData\Local\Temp\ccqOKkPq.s 			page 26


 927              	.L64:
 212:Core/Src/periphs/tim.c **** 
 928              		.loc 1 212 0
 929 0058 0748     		ldr	r0, .L69
 930 005a FFF7FEFF 		bl	HAL_TIM_MspPostInit
 931              	.LVL46:
 214:Core/Src/periphs/tim.c **** /* TIM8 init function */
 932              		.loc 1 214 0
 933 005e 0BB0     		add	sp, sp, #44
 934              	.LCFI29:
 935              		.cfi_remember_state
 936              		.cfi_def_cfa_offset 4
 937              		@ sp needed
 938 0060 5DF804FB 		ldr	pc, [sp], #4
 939              	.L66:
 940              	.LCFI30:
 941              		.cfi_restore_state
 196:Core/Src/periphs/tim.c ****   }
 942              		.loc 1 196 0
 943 0064 FFF7FEFF 		bl	Error_Handler
 944              	.LVL47:
 945 0068 E2E7     		b	.L62
 946              	.L67:
 202:Core/Src/periphs/tim.c ****   }
 947              		.loc 1 202 0
 948 006a FFF7FEFF 		bl	Error_Handler
 949              	.LVL48:
 950 006e E7E7     		b	.L63
 951              	.L68:
 210:Core/Src/periphs/tim.c ****   }
 952              		.loc 1 210 0
 953 0070 FFF7FEFF 		bl	Error_Handler
 954              	.LVL49:
 955 0074 F0E7     		b	.L64
 956              	.L70:
 957 0076 00BF     		.align	2
 958              	.L69:
 959 0078 00000000 		.word	htim5
 960 007c 000C0040 		.word	1073744896
 961              		.cfi_endproc
 962              	.LFE130:
 964              		.section	.text.MX_TIM8_Init,"ax",%progbits
 965              		.align	1
 966              		.global	MX_TIM8_Init
 967              		.syntax unified
 968              		.thumb
 969              		.thumb_func
 970              		.fpu fpv4-sp-d16
 972              	MX_TIM8_Init:
 973              	.LFB131:
 217:Core/Src/periphs/tim.c ****   TIM_MasterConfigTypeDef sMasterConfig = {0};
 974              		.loc 1 217 0
 975              		.cfi_startproc
 976              		@ args = 0, pretend = 0, frame = 64
 977              		@ frame_needed = 0, uses_anonymous_args = 0
 978 0000 00B5     		push	{lr}
 979              	.LCFI31:
ARM GAS  C:\Users\Prashant\AppData\Local\Temp\ccqOKkPq.s 			page 27


 980              		.cfi_def_cfa_offset 4
 981              		.cfi_offset 14, -4
 982 0002 91B0     		sub	sp, sp, #68
 983              	.LCFI32:
 984              		.cfi_def_cfa_offset 72
 218:Core/Src/periphs/tim.c ****   TIM_OC_InitTypeDef sConfigOC = {0};
 985              		.loc 1 218 0
 986 0004 0023     		movs	r3, #0
 987 0006 0E93     		str	r3, [sp, #56]
 988 0008 0F93     		str	r3, [sp, #60]
 219:Core/Src/periphs/tim.c ****   TIM_BreakDeadTimeConfigTypeDef sBreakDeadTimeConfig = {0};
 989              		.loc 1 219 0
 990 000a 0793     		str	r3, [sp, #28]
 991 000c 0893     		str	r3, [sp, #32]
 992 000e 0993     		str	r3, [sp, #36]
 993 0010 0A93     		str	r3, [sp, #40]
 994 0012 0B93     		str	r3, [sp, #44]
 995 0014 0C93     		str	r3, [sp, #48]
 996 0016 0D93     		str	r3, [sp, #52]
 220:Core/Src/periphs/tim.c **** 
 997              		.loc 1 220 0
 998 0018 0093     		str	r3, [sp]
 999 001a 0193     		str	r3, [sp, #4]
 1000 001c 0293     		str	r3, [sp, #8]
 1001 001e 0393     		str	r3, [sp, #12]
 1002 0020 0493     		str	r3, [sp, #16]
 1003 0022 0593     		str	r3, [sp, #20]
 1004 0024 0693     		str	r3, [sp, #24]
 222:Core/Src/periphs/tim.c ****   htim8.Init.Prescaler = 0;
 1005              		.loc 1 222 0
 1006 0026 3148     		ldr	r0, .L87
 1007 0028 314A     		ldr	r2, .L87+4
 1008 002a 0260     		str	r2, [r0]
 223:Core/Src/periphs/tim.c ****   htim8.Init.CounterMode = TIM_COUNTERMODE_CENTERALIGNED1;
 1009              		.loc 1 223 0
 1010 002c 4360     		str	r3, [r0, #4]
 224:Core/Src/periphs/tim.c ****   htim8.Init.Period = 10499;
 1011              		.loc 1 224 0
 1012 002e 2022     		movs	r2, #32
 1013 0030 8260     		str	r2, [r0, #8]
 225:Core/Src/periphs/tim.c ****   htim8.Init.ClockDivision = TIM_CLOCKDIVISION_DIV1;
 1014              		.loc 1 225 0
 1015 0032 42F60312 		movw	r2, #10499
 1016 0036 C260     		str	r2, [r0, #12]
 226:Core/Src/periphs/tim.c ****   htim8.Init.RepetitionCounter = 0;
 1017              		.loc 1 226 0
 1018 0038 0361     		str	r3, [r0, #16]
 227:Core/Src/periphs/tim.c ****   if (HAL_TIM_PWM_Init(&htim8) != HAL_OK)
 1019              		.loc 1 227 0
 1020 003a 4361     		str	r3, [r0, #20]
 228:Core/Src/periphs/tim.c ****   {
 1021              		.loc 1 228 0
 1022 003c FFF7FEFF 		bl	HAL_TIM_PWM_Init
 1023              	.LVL50:
 1024 0040 0028     		cmp	r0, #0
 1025 0042 3DD1     		bne	.L80
 1026              	.L72:
ARM GAS  C:\Users\Prashant\AppData\Local\Temp\ccqOKkPq.s 			page 28


 232:Core/Src/periphs/tim.c ****   sMasterConfig.MasterSlaveMode = TIM_MASTERSLAVEMODE_DISABLE;
 1027              		.loc 1 232 0
 1028 0044 0023     		movs	r3, #0
 1029 0046 0E93     		str	r3, [sp, #56]
 233:Core/Src/periphs/tim.c ****   if (HAL_TIMEx_MasterConfigSynchronization(&htim8, &sMasterConfig) != HAL_OK)
 1030              		.loc 1 233 0
 1031 0048 0F93     		str	r3, [sp, #60]
 234:Core/Src/periphs/tim.c ****   {
 1032              		.loc 1 234 0
 1033 004a 0EA9     		add	r1, sp, #56
 1034 004c 2748     		ldr	r0, .L87
 1035 004e FFF7FEFF 		bl	HAL_TIMEx_MasterConfigSynchronization
 1036              	.LVL51:
 1037 0052 0028     		cmp	r0, #0
 1038 0054 37D1     		bne	.L81
 1039              	.L73:
 238:Core/Src/periphs/tim.c ****   sConfigOC.Pulse = 0;
 1040              		.loc 1 238 0
 1041 0056 6023     		movs	r3, #96
 1042 0058 0793     		str	r3, [sp, #28]
 239:Core/Src/periphs/tim.c ****   sConfigOC.OCPolarity = TIM_OCPOLARITY_HIGH;
 1043              		.loc 1 239 0
 1044 005a 0022     		movs	r2, #0
 1045 005c 0892     		str	r2, [sp, #32]
 240:Core/Src/periphs/tim.c ****   sConfigOC.OCNPolarity = TIM_OCNPOLARITY_HIGH;
 1046              		.loc 1 240 0
 1047 005e 0992     		str	r2, [sp, #36]
 241:Core/Src/periphs/tim.c ****   sConfigOC.OCFastMode = TIM_OCFAST_DISABLE;
 1048              		.loc 1 241 0
 1049 0060 0A92     		str	r2, [sp, #40]
 242:Core/Src/periphs/tim.c ****   sConfigOC.OCIdleState = TIM_OCIDLESTATE_RESET;
 1050              		.loc 1 242 0
 1051 0062 0B92     		str	r2, [sp, #44]
 243:Core/Src/periphs/tim.c ****   sConfigOC.OCNIdleState = TIM_OCNIDLESTATE_RESET;
 1052              		.loc 1 243 0
 1053 0064 0C92     		str	r2, [sp, #48]
 244:Core/Src/periphs/tim.c ****   if (HAL_TIM_PWM_ConfigChannel(&htim8, &sConfigOC, TIM_CHANNEL_1) != HAL_OK)
 1054              		.loc 1 244 0
 1055 0066 0D92     		str	r2, [sp, #52]
 245:Core/Src/periphs/tim.c ****   {
 1056              		.loc 1 245 0
 1057 0068 07A9     		add	r1, sp, #28
 1058 006a 2048     		ldr	r0, .L87
 1059 006c FFF7FEFF 		bl	HAL_TIM_PWM_ConfigChannel
 1060              	.LVL52:
 1061 0070 60BB     		cbnz	r0, .L82
 1062              	.L74:
 249:Core/Src/periphs/tim.c ****   {
 1063              		.loc 1 249 0
 1064 0072 0422     		movs	r2, #4
 1065 0074 07A9     		add	r1, sp, #28
 1066 0076 1D48     		ldr	r0, .L87
 1067 0078 FFF7FEFF 		bl	HAL_TIM_PWM_ConfigChannel
 1068              	.LVL53:
 1069 007c 48BB     		cbnz	r0, .L83
 1070              	.L75:
 253:Core/Src/periphs/tim.c ****   {
ARM GAS  C:\Users\Prashant\AppData\Local\Temp\ccqOKkPq.s 			page 29


 1071              		.loc 1 253 0
 1072 007e 0822     		movs	r2, #8
 1073 0080 07A9     		add	r1, sp, #28
 1074 0082 1A48     		ldr	r0, .L87
 1075 0084 FFF7FEFF 		bl	HAL_TIM_PWM_ConfigChannel
 1076              	.LVL54:
 1077 0088 30BB     		cbnz	r0, .L84
 1078              	.L76:
 257:Core/Src/periphs/tim.c ****   {
 1079              		.loc 1 257 0
 1080 008a 0C22     		movs	r2, #12
 1081 008c 07A9     		add	r1, sp, #28
 1082 008e 1748     		ldr	r0, .L87
 1083 0090 FFF7FEFF 		bl	HAL_TIM_PWM_ConfigChannel
 1084              	.LVL55:
 1085 0094 18BB     		cbnz	r0, .L85
 1086              	.L77:
 261:Core/Src/periphs/tim.c ****   sBreakDeadTimeConfig.OffStateIDLEMode = TIM_OSSI_DISABLE;
 1087              		.loc 1 261 0
 1088 0096 0023     		movs	r3, #0
 1089 0098 0093     		str	r3, [sp]
 262:Core/Src/periphs/tim.c ****   sBreakDeadTimeConfig.LockLevel = TIM_LOCKLEVEL_OFF;
 1090              		.loc 1 262 0
 1091 009a 0193     		str	r3, [sp, #4]
 263:Core/Src/periphs/tim.c ****   sBreakDeadTimeConfig.DeadTime = 0;
 1092              		.loc 1 263 0
 1093 009c 0293     		str	r3, [sp, #8]
 264:Core/Src/periphs/tim.c ****   sBreakDeadTimeConfig.BreakState = TIM_BREAK_DISABLE;
 1094              		.loc 1 264 0
 1095 009e 0393     		str	r3, [sp, #12]
 265:Core/Src/periphs/tim.c ****   sBreakDeadTimeConfig.BreakPolarity = TIM_BREAKPOLARITY_HIGH;
 1096              		.loc 1 265 0
 1097 00a0 0493     		str	r3, [sp, #16]
 266:Core/Src/periphs/tim.c ****   sBreakDeadTimeConfig.AutomaticOutput = TIM_AUTOMATICOUTPUT_DISABLE;
 1098              		.loc 1 266 0
 1099 00a2 4FF40052 		mov	r2, #8192
 1100 00a6 0592     		str	r2, [sp, #20]
 267:Core/Src/periphs/tim.c ****   if (HAL_TIMEx_ConfigBreakDeadTime(&htim8, &sBreakDeadTimeConfig) != HAL_OK)
 1101              		.loc 1 267 0
 1102 00a8 0693     		str	r3, [sp, #24]
 268:Core/Src/periphs/tim.c ****   {
 1103              		.loc 1 268 0
 1104 00aa 6946     		mov	r1, sp
 1105 00ac 0F48     		ldr	r0, .L87
 1106 00ae FFF7FEFF 		bl	HAL_TIMEx_ConfigBreakDeadTime
 1107              	.LVL56:
 1108 00b2 B8B9     		cbnz	r0, .L86
 1109              	.L78:
 272:Core/Src/periphs/tim.c **** 
 1110              		.loc 1 272 0
 1111 00b4 0D48     		ldr	r0, .L87
 1112 00b6 FFF7FEFF 		bl	HAL_TIM_MspPostInit
 1113              	.LVL57:
 274:Core/Src/periphs/tim.c **** 
 1114              		.loc 1 274 0
 1115 00ba 11B0     		add	sp, sp, #68
 1116              	.LCFI33:
ARM GAS  C:\Users\Prashant\AppData\Local\Temp\ccqOKkPq.s 			page 30


 1117              		.cfi_remember_state
 1118              		.cfi_def_cfa_offset 4
 1119              		@ sp needed
 1120 00bc 5DF804FB 		ldr	pc, [sp], #4
 1121              	.L80:
 1122              	.LCFI34:
 1123              		.cfi_restore_state
 230:Core/Src/periphs/tim.c ****   }
 1124              		.loc 1 230 0
 1125 00c0 FFF7FEFF 		bl	Error_Handler
 1126              	.LVL58:
 1127 00c4 BEE7     		b	.L72
 1128              	.L81:
 236:Core/Src/periphs/tim.c ****   }
 1129              		.loc 1 236 0
 1130 00c6 FFF7FEFF 		bl	Error_Handler
 1131              	.LVL59:
 1132 00ca C4E7     		b	.L73
 1133              	.L82:
 247:Core/Src/periphs/tim.c ****   }
 1134              		.loc 1 247 0
 1135 00cc FFF7FEFF 		bl	Error_Handler
 1136              	.LVL60:
 1137 00d0 CFE7     		b	.L74
 1138              	.L83:
 251:Core/Src/periphs/tim.c ****   }
 1139              		.loc 1 251 0
 1140 00d2 FFF7FEFF 		bl	Error_Handler
 1141              	.LVL61:
 1142 00d6 D2E7     		b	.L75
 1143              	.L84:
 255:Core/Src/periphs/tim.c ****   }
 1144              		.loc 1 255 0
 1145 00d8 FFF7FEFF 		bl	Error_Handler
 1146              	.LVL62:
 1147 00dc D5E7     		b	.L76
 1148              	.L85:
 259:Core/Src/periphs/tim.c ****   }
 1149              		.loc 1 259 0
 1150 00de FFF7FEFF 		bl	Error_Handler
 1151              	.LVL63:
 1152 00e2 D8E7     		b	.L77
 1153              	.L86:
 270:Core/Src/periphs/tim.c ****   }
 1154              		.loc 1 270 0
 1155 00e4 FFF7FEFF 		bl	Error_Handler
 1156              	.LVL64:
 1157 00e8 E4E7     		b	.L78
 1158              	.L88:
 1159 00ea 00BF     		.align	2
 1160              	.L87:
 1161 00ec 00000000 		.word	htim8
 1162 00f0 00040140 		.word	1073808384
 1163              		.cfi_endproc
 1164              	.LFE131:
 1166              		.section	.text.HAL_TIM_Encoder_MspDeInit,"ax",%progbits
 1167              		.align	1
ARM GAS  C:\Users\Prashant\AppData\Local\Temp\ccqOKkPq.s 			page 31


 1168              		.global	HAL_TIM_Encoder_MspDeInit
 1169              		.syntax unified
 1170              		.thumb
 1171              		.thumb_func
 1172              		.fpu fpv4-sp-d16
 1174              	HAL_TIM_Encoder_MspDeInit:
 1175              	.LFB135:
 454:Core/Src/periphs/tim.c **** 
 455:Core/Src/periphs/tim.c **** void HAL_TIM_Encoder_MspDeInit(TIM_HandleTypeDef* tim_encoderHandle)
 456:Core/Src/periphs/tim.c **** {
 1176              		.loc 1 456 0
 1177              		.cfi_startproc
 1178              		@ args = 0, pretend = 0, frame = 0
 1179              		@ frame_needed = 0, uses_anonymous_args = 0
 1180              	.LVL65:
 1181 0000 08B5     		push	{r3, lr}
 1182              	.LCFI35:
 1183              		.cfi_def_cfa_offset 8
 1184              		.cfi_offset 3, -8
 1185              		.cfi_offset 14, -4
 457:Core/Src/periphs/tim.c **** 
 458:Core/Src/periphs/tim.c ****   if(tim_encoderHandle->Instance==TIM1)
 1186              		.loc 1 458 0
 1187 0002 0368     		ldr	r3, [r0]
 1188 0004 1C4A     		ldr	r2, .L99
 1189 0006 9342     		cmp	r3, r2
 1190 0008 09D0     		beq	.L95
 459:Core/Src/periphs/tim.c ****   {
 460:Core/Src/periphs/tim.c ****   /* USER CODE BEGIN TIM1_MspDeInit 0 */
 461:Core/Src/periphs/tim.c **** 
 462:Core/Src/periphs/tim.c ****   /* USER CODE END TIM1_MspDeInit 0 */
 463:Core/Src/periphs/tim.c ****     /* Peripheral clock disable */
 464:Core/Src/periphs/tim.c ****     __HAL_RCC_TIM1_CLK_DISABLE();
 465:Core/Src/periphs/tim.c ****   
 466:Core/Src/periphs/tim.c ****     /**TIM1 GPIO Configuration    
 467:Core/Src/periphs/tim.c ****     PE9     ------> TIM1_CH1
 468:Core/Src/periphs/tim.c ****     PE11     ------> TIM1_CH2 
 469:Core/Src/periphs/tim.c ****     */
 470:Core/Src/periphs/tim.c ****     HAL_GPIO_DeInit(GPIOE, GPIO_PIN_9|GPIO_PIN_11);
 471:Core/Src/periphs/tim.c **** 
 472:Core/Src/periphs/tim.c ****   /* USER CODE BEGIN TIM1_MspDeInit 1 */
 473:Core/Src/periphs/tim.c **** 
 474:Core/Src/periphs/tim.c ****   /* USER CODE END TIM1_MspDeInit 1 */
 475:Core/Src/periphs/tim.c ****   }
 476:Core/Src/periphs/tim.c ****   else if(tim_encoderHandle->Instance==TIM2)
 1191              		.loc 1 476 0
 1192 000a B3F1804F 		cmp	r3, #1073741824
 1193 000e 12D0     		beq	.L96
 477:Core/Src/periphs/tim.c ****   {
 478:Core/Src/periphs/tim.c ****   /* USER CODE BEGIN TIM2_MspDeInit 0 */
 479:Core/Src/periphs/tim.c **** 
 480:Core/Src/periphs/tim.c ****   /* USER CODE END TIM2_MspDeInit 0 */
 481:Core/Src/periphs/tim.c ****     /* Peripheral clock disable */
 482:Core/Src/periphs/tim.c ****     __HAL_RCC_TIM2_CLK_DISABLE();
 483:Core/Src/periphs/tim.c ****   
 484:Core/Src/periphs/tim.c ****     /**TIM2 GPIO Configuration    
 485:Core/Src/periphs/tim.c ****     PA1     ------> TIM2_CH2
ARM GAS  C:\Users\Prashant\AppData\Local\Temp\ccqOKkPq.s 			page 32


 486:Core/Src/periphs/tim.c ****     PA5     ------> TIM2_CH1 
 487:Core/Src/periphs/tim.c ****     */
 488:Core/Src/periphs/tim.c ****     HAL_GPIO_DeInit(GPIOA, GPIO_PIN_1|GPIO_PIN_5);
 489:Core/Src/periphs/tim.c **** 
 490:Core/Src/periphs/tim.c ****   /* USER CODE BEGIN TIM2_MspDeInit 1 */
 491:Core/Src/periphs/tim.c **** 
 492:Core/Src/periphs/tim.c ****   /* USER CODE END TIM2_MspDeInit 1 */
 493:Core/Src/periphs/tim.c ****   }
 494:Core/Src/periphs/tim.c ****   else if(tim_encoderHandle->Instance==TIM3)
 1194              		.loc 1 494 0
 1195 0010 1A4A     		ldr	r2, .L99+4
 1196 0012 9342     		cmp	r3, r2
 1197 0014 19D0     		beq	.L97
 495:Core/Src/periphs/tim.c ****   {
 496:Core/Src/periphs/tim.c ****   /* USER CODE BEGIN TIM3_MspDeInit 0 */
 497:Core/Src/periphs/tim.c **** 
 498:Core/Src/periphs/tim.c ****   /* USER CODE END TIM3_MspDeInit 0 */
 499:Core/Src/periphs/tim.c ****     /* Peripheral clock disable */
 500:Core/Src/periphs/tim.c ****     __HAL_RCC_TIM3_CLK_DISABLE();
 501:Core/Src/periphs/tim.c ****   
 502:Core/Src/periphs/tim.c ****     /**TIM3 GPIO Configuration    
 503:Core/Src/periphs/tim.c ****     PA6     ------> TIM3_CH1
 504:Core/Src/periphs/tim.c ****     PA7     ------> TIM3_CH2 
 505:Core/Src/periphs/tim.c ****     */
 506:Core/Src/periphs/tim.c ****     HAL_GPIO_DeInit(GPIOA, GPIO_PIN_6|GPIO_PIN_7);
 507:Core/Src/periphs/tim.c **** 
 508:Core/Src/periphs/tim.c ****   /* USER CODE BEGIN TIM3_MspDeInit 1 */
 509:Core/Src/periphs/tim.c **** 
 510:Core/Src/periphs/tim.c ****   /* USER CODE END TIM3_MspDeInit 1 */
 511:Core/Src/periphs/tim.c ****   }
 512:Core/Src/periphs/tim.c ****   else if(tim_encoderHandle->Instance==TIM4)
 1198              		.loc 1 512 0
 1199 0016 1A4A     		ldr	r2, .L99+8
 1200 0018 9342     		cmp	r3, r2
 1201 001a 21D0     		beq	.L98
 1202              	.LVL66:
 1203              	.L89:
 513:Core/Src/periphs/tim.c ****   {
 514:Core/Src/periphs/tim.c ****   /* USER CODE BEGIN TIM4_MspDeInit 0 */
 515:Core/Src/periphs/tim.c **** 
 516:Core/Src/periphs/tim.c ****   /* USER CODE END TIM4_MspDeInit 0 */
 517:Core/Src/periphs/tim.c ****     /* Peripheral clock disable */
 518:Core/Src/periphs/tim.c ****     __HAL_RCC_TIM4_CLK_DISABLE();
 519:Core/Src/periphs/tim.c ****   
 520:Core/Src/periphs/tim.c ****     /**TIM4 GPIO Configuration    
 521:Core/Src/periphs/tim.c ****     PD12     ------> TIM4_CH1
 522:Core/Src/periphs/tim.c ****     PD13     ------> TIM4_CH2 
 523:Core/Src/periphs/tim.c ****     */
 524:Core/Src/periphs/tim.c ****     HAL_GPIO_DeInit(GPIOD, GPIO_PIN_12|GPIO_PIN_13);
 525:Core/Src/periphs/tim.c **** 
 526:Core/Src/periphs/tim.c ****   /* USER CODE BEGIN TIM4_MspDeInit 1 */
 527:Core/Src/periphs/tim.c **** 
 528:Core/Src/periphs/tim.c ****   /* USER CODE END TIM4_MspDeInit 1 */
 529:Core/Src/periphs/tim.c ****   }
 530:Core/Src/periphs/tim.c **** }
 1204              		.loc 1 530 0
 1205 001c 08BD     		pop	{r3, pc}
ARM GAS  C:\Users\Prashant\AppData\Local\Temp\ccqOKkPq.s 			page 33


 1206              	.LVL67:
 1207              	.L95:
 464:Core/Src/periphs/tim.c ****   
 1208              		.loc 1 464 0
 1209 001e 02F59C32 		add	r2, r2, #79872
 1210 0022 536C     		ldr	r3, [r2, #68]
 1211 0024 23F00103 		bic	r3, r3, #1
 1212 0028 5364     		str	r3, [r2, #68]
 470:Core/Src/periphs/tim.c **** 
 1213              		.loc 1 470 0
 1214 002a 4FF42061 		mov	r1, #2560
 1215 002e 1548     		ldr	r0, .L99+12
 1216              	.LVL68:
 1217 0030 FFF7FEFF 		bl	HAL_GPIO_DeInit
 1218              	.LVL69:
 1219 0034 F2E7     		b	.L89
 1220              	.LVL70:
 1221              	.L96:
 482:Core/Src/periphs/tim.c ****   
 1222              		.loc 1 482 0
 1223 0036 144A     		ldr	r2, .L99+16
 1224 0038 136C     		ldr	r3, [r2, #64]
 1225 003a 23F00103 		bic	r3, r3, #1
 1226 003e 1364     		str	r3, [r2, #64]
 488:Core/Src/periphs/tim.c **** 
 1227              		.loc 1 488 0
 1228 0040 2221     		movs	r1, #34
 1229 0042 1248     		ldr	r0, .L99+20
 1230              	.LVL71:
 1231 0044 FFF7FEFF 		bl	HAL_GPIO_DeInit
 1232              	.LVL72:
 1233 0048 E8E7     		b	.L89
 1234              	.LVL73:
 1235              	.L97:
 500:Core/Src/periphs/tim.c ****   
 1236              		.loc 1 500 0
 1237 004a 02F50D32 		add	r2, r2, #144384
 1238 004e 136C     		ldr	r3, [r2, #64]
 1239 0050 23F00203 		bic	r3, r3, #2
 1240 0054 1364     		str	r3, [r2, #64]
 506:Core/Src/periphs/tim.c **** 
 1241              		.loc 1 506 0
 1242 0056 C021     		movs	r1, #192
 1243 0058 0C48     		ldr	r0, .L99+20
 1244              	.LVL74:
 1245 005a FFF7FEFF 		bl	HAL_GPIO_DeInit
 1246              	.LVL75:
 1247 005e DDE7     		b	.L89
 1248              	.LVL76:
 1249              	.L98:
 518:Core/Src/periphs/tim.c ****   
 1250              		.loc 1 518 0
 1251 0060 02F50C32 		add	r2, r2, #143360
 1252 0064 136C     		ldr	r3, [r2, #64]
 1253 0066 23F00403 		bic	r3, r3, #4
 1254 006a 1364     		str	r3, [r2, #64]
 524:Core/Src/periphs/tim.c **** 
ARM GAS  C:\Users\Prashant\AppData\Local\Temp\ccqOKkPq.s 			page 34


 1255              		.loc 1 524 0
 1256 006c 4FF44051 		mov	r1, #12288
 1257 0070 0748     		ldr	r0, .L99+24
 1258              	.LVL77:
 1259 0072 FFF7FEFF 		bl	HAL_GPIO_DeInit
 1260              	.LVL78:
 1261              		.loc 1 530 0
 1262 0076 D1E7     		b	.L89
 1263              	.L100:
 1264              		.align	2
 1265              	.L99:
 1266 0078 00000140 		.word	1073807360
 1267 007c 00040040 		.word	1073742848
 1268 0080 00080040 		.word	1073743872
 1269 0084 00100240 		.word	1073876992
 1270 0088 00380240 		.word	1073887232
 1271 008c 00000240 		.word	1073872896
 1272 0090 000C0240 		.word	1073875968
 1273              		.cfi_endproc
 1274              	.LFE135:
 1276              		.section	.text.HAL_TIM_PWM_MspDeInit,"ax",%progbits
 1277              		.align	1
 1278              		.global	HAL_TIM_PWM_MspDeInit
 1279              		.syntax unified
 1280              		.thumb
 1281              		.thumb_func
 1282              		.fpu fpv4-sp-d16
 1284              	HAL_TIM_PWM_MspDeInit:
 1285              	.LFB136:
 531:Core/Src/periphs/tim.c **** 
 532:Core/Src/periphs/tim.c **** void HAL_TIM_PWM_MspDeInit(TIM_HandleTypeDef* tim_pwmHandle)
 533:Core/Src/periphs/tim.c **** {
 1286              		.loc 1 533 0
 1287              		.cfi_startproc
 1288              		@ args = 0, pretend = 0, frame = 0
 1289              		@ frame_needed = 0, uses_anonymous_args = 0
 1290              		@ link register save eliminated.
 1291              	.LVL79:
 534:Core/Src/periphs/tim.c **** 
 535:Core/Src/periphs/tim.c ****   if(tim_pwmHandle->Instance==TIM5)
 1292              		.loc 1 535 0
 1293 0000 0368     		ldr	r3, [r0]
 1294 0002 0A4A     		ldr	r2, .L106
 1295 0004 9342     		cmp	r3, r2
 1296 0006 03D0     		beq	.L104
 536:Core/Src/periphs/tim.c ****   {
 537:Core/Src/periphs/tim.c ****   /* USER CODE BEGIN TIM5_MspDeInit 0 */
 538:Core/Src/periphs/tim.c **** 
 539:Core/Src/periphs/tim.c ****   /* USER CODE END TIM5_MspDeInit 0 */
 540:Core/Src/periphs/tim.c ****     /* Peripheral clock disable */
 541:Core/Src/periphs/tim.c ****     __HAL_RCC_TIM5_CLK_DISABLE();
 542:Core/Src/periphs/tim.c ****   /* USER CODE BEGIN TIM5_MspDeInit 1 */
 543:Core/Src/periphs/tim.c **** 
 544:Core/Src/periphs/tim.c ****   /* USER CODE END TIM5_MspDeInit 1 */
 545:Core/Src/periphs/tim.c ****   }
 546:Core/Src/periphs/tim.c ****   else if(tim_pwmHandle->Instance==TIM8)
 1297              		.loc 1 546 0
ARM GAS  C:\Users\Prashant\AppData\Local\Temp\ccqOKkPq.s 			page 35


 1298 0008 094A     		ldr	r2, .L106+4
 1299 000a 9342     		cmp	r3, r2
 1300 000c 07D0     		beq	.L105
 1301              	.L101:
 547:Core/Src/periphs/tim.c ****   {
 548:Core/Src/periphs/tim.c ****   /* USER CODE BEGIN TIM8_MspDeInit 0 */
 549:Core/Src/periphs/tim.c **** 
 550:Core/Src/periphs/tim.c ****   /* USER CODE END TIM8_MspDeInit 0 */
 551:Core/Src/periphs/tim.c ****     /* Peripheral clock disable */
 552:Core/Src/periphs/tim.c ****     __HAL_RCC_TIM8_CLK_DISABLE();
 553:Core/Src/periphs/tim.c ****   /* USER CODE BEGIN TIM8_MspDeInit 1 */
 554:Core/Src/periphs/tim.c **** 
 555:Core/Src/periphs/tim.c ****   /* USER CODE END TIM8_MspDeInit 1 */
 556:Core/Src/periphs/tim.c ****   }
 557:Core/Src/periphs/tim.c **** } 
 1302              		.loc 1 557 0
 1303 000e 7047     		bx	lr
 1304              	.L104:
 541:Core/Src/periphs/tim.c ****   /* USER CODE BEGIN TIM5_MspDeInit 1 */
 1305              		.loc 1 541 0
 1306 0010 02F50B32 		add	r2, r2, #142336
 1307 0014 136C     		ldr	r3, [r2, #64]
 1308 0016 23F00803 		bic	r3, r3, #8
 1309 001a 1364     		str	r3, [r2, #64]
 1310 001c 7047     		bx	lr
 1311              	.L105:
 552:Core/Src/periphs/tim.c ****   /* USER CODE BEGIN TIM8_MspDeInit 1 */
 1312              		.loc 1 552 0
 1313 001e 02F59A32 		add	r2, r2, #78848
 1314 0022 536C     		ldr	r3, [r2, #68]
 1315 0024 23F00203 		bic	r3, r3, #2
 1316 0028 5364     		str	r3, [r2, #68]
 1317              		.loc 1 557 0
 1318 002a F0E7     		b	.L101
 1319              	.L107:
 1320              		.align	2
 1321              	.L106:
 1322 002c 000C0040 		.word	1073744896
 1323 0030 00040140 		.word	1073808384
 1324              		.cfi_endproc
 1325              	.LFE136:
 1327              		.comm	htim8,60,4
 1328              		.comm	htim5,60,4
 1329              		.comm	htim4,60,4
 1330              		.comm	htim3,60,4
 1331              		.comm	htim2,60,4
 1332              		.comm	htim1,60,4
 1333              		.text
 1334              	.Letext0:
 1335              		.file 2 "c:\\program files (x86)\\gnu tools arm embedded\\7 2017-q4-major\\arm-none-eabi\\include\
 1336              		.file 3 "c:\\program files (x86)\\gnu tools arm embedded\\7 2017-q4-major\\arm-none-eabi\\include\
 1337              		.file 4 "C:/Users/Prashant/STM32Cube/Repository/STM32Cube_FW_F4_V1.23.0/Drivers/CMSIS/Include/core
 1338              		.file 5 "C:/Users/Prashant/STM32Cube/Repository/STM32Cube_FW_F4_V1.23.0/Drivers/CMSIS/Device/ST/ST
 1339              		.file 6 "C:/Users/Prashant/STM32Cube/Repository/STM32Cube_FW_F4_V1.23.0/Drivers/CMSIS/Device/ST/ST
 1340              		.file 7 "c:\\program files (x86)\\gnu tools arm embedded\\7 2017-q4-major\\arm-none-eabi\\include\
 1341              		.file 8 "c:\\program files (x86)\\gnu tools arm embedded\\7 2017-q4-major\\arm-none-eabi\\include\
 1342              		.file 9 "c:\\program files (x86)\\gnu tools arm embedded\\7 2017-q4-major\\lib\\gcc\\arm-none-eabi
ARM GAS  C:\Users\Prashant\AppData\Local\Temp\ccqOKkPq.s 			page 36


 1343              		.file 10 "c:\\program files (x86)\\gnu tools arm embedded\\7 2017-q4-major\\arm-none-eabi\\include
 1344              		.file 11 "C:/Users/Prashant/STM32Cube/Repository/STM32Cube_FW_F4_V1.23.0/Drivers/STM32F4xx_HAL_Dri
 1345              		.file 12 "C:/Users/Prashant/STM32Cube/Repository/STM32Cube_FW_F4_V1.23.0/Drivers/STM32F4xx_HAL_Dri
 1346              		.file 13 "C:/Users/Prashant/STM32Cube/Repository/STM32Cube_FW_F4_V1.23.0/Drivers/STM32F4xx_HAL_Dri
 1347              		.file 14 "C:/Users/Prashant/STM32Cube/Repository/STM32Cube_FW_F4_V1.23.0/Drivers/STM32F4xx_HAL_Dri
 1348              		.file 15 "C:/Users/Prashant/STM32Cube/Repository/STM32Cube_FW_F4_V1.23.0/Drivers/STM32F4xx_HAL_Dri
 1349              		.file 16 "Core/Inc/periphs/tim.h"
 1350              		.file 17 "Core/Inc/main.h"
 1351              		.file 18 "<built-in>"
ARM GAS  C:\Users\Prashant\AppData\Local\Temp\ccqOKkPq.s 			page 37

