ARM GAS  C:\Users\Prashant\AppData\Local\Temp\ccH37RUM.s 			page 1


   1              		.cpu cortex-m4
   2              		.eabi_attribute 27, 1
   3              		.eabi_attribute 28, 1
   4              		.eabi_attribute 20, 1
   5              		.eabi_attribute 21, 1
   6              		.eabi_attribute 23, 3
   7              		.eabi_attribute 24, 1
   8              		.eabi_attribute 25, 1
   9              		.eabi_attribute 26, 1
  10              		.eabi_attribute 30, 1
  11              		.eabi_attribute 34, 1
  12              		.eabi_attribute 18, 4
  13              		.file	"exp_smooth.cpp"
  14              		.text
  15              	.Ltext0:
  16              		.cfi_sections	.debug_frame
  17              		.section	.text._ZN10Exp_SmoothC2Ev,"ax",%progbits
  18              		.align	1
  19              		.global	_ZN10Exp_SmoothC2Ev
  20              		.syntax unified
  21              		.thumb
  22              		.thumb_func
  23              		.fpu fpv4-sp-d16
  25              	_ZN10Exp_SmoothC2Ev:
  26              	.LFB156:
  27              		.file 1 "Core/Src/utils/exp_smooth.cpp"
   1:Core/Src/utils/exp_smooth.cpp **** /*
   2:Core/Src/utils/exp_smooth.cpp ****  * exp_smooth.cpp
   3:Core/Src/utils/exp_smooth.cpp ****  * 
   4:Core/Src/utils/exp_smooth.cpp ****  * Created : 11/9/2018
   5:Core/Src/utils/exp_smooth.cpp ****  *  Author : n-is
   6:Core/Src/utils/exp_smooth.cpp ****  *   email : 073bex422.nischal@pcampus.edu.np
   7:Core/Src/utils/exp_smooth.cpp ****  */
   8:Core/Src/utils/exp_smooth.cpp **** 
   9:Core/Src/utils/exp_smooth.cpp **** #include "smoothing_algorithm.h"
  10:Core/Src/utils/exp_smooth.cpp **** 
  11:Core/Src/utils/exp_smooth.cpp **** //* Exponential Smoothing Implementation
  12:Core/Src/utils/exp_smooth.cpp **** Exp_Smooth::Exp_Smooth()
  28              		.loc 1 12 0
  29              		.cfi_startproc
  30              		@ args = 0, pretend = 0, frame = 0
  31              		@ frame_needed = 0, uses_anonymous_args = 0
  32              		@ link register save eliminated.
  33              	.LVL0:
  34              	.LBB2:
  13:Core/Src/utils/exp_smooth.cpp **** {
  14:Core/Src/utils/exp_smooth.cpp ****         alpha_ = 1;
  35              		.loc 1 14 0
  36 0000 4FF07E52 		mov	r2, #1065353216
  37 0004 4260     		str	r2, [r0, #4]	@ float
  15:Core/Src/utils/exp_smooth.cpp ****         is_first_ = true;
  38              		.loc 1 15 0
  39 0006 0122     		movs	r2, #1
  40 0008 0272     		strb	r2, [r0, #8]
  41              	.LBE2:
  16:Core/Src/utils/exp_smooth.cpp **** }
  42              		.loc 1 16 0
ARM GAS  C:\Users\Prashant\AppData\Local\Temp\ccH37RUM.s 			page 2


  43 000a 7047     		bx	lr
  44              		.cfi_endproc
  45              	.LFE156:
  47              		.global	_ZN10Exp_SmoothC1Ev
  48              		.thumb_set _ZN10Exp_SmoothC1Ev,_ZN10Exp_SmoothC2Ev
  49              		.section	.text._ZN10Exp_SmoothC2Ef,"ax",%progbits
  50              		.align	1
  51              		.global	_ZN10Exp_SmoothC2Ef
  52              		.syntax unified
  53              		.thumb
  54              		.thumb_func
  55              		.fpu fpv4-sp-d16
  57              	_ZN10Exp_SmoothC2Ef:
  58              	.LFB159:
  17:Core/Src/utils/exp_smooth.cpp **** 
  18:Core/Src/utils/exp_smooth.cpp **** Exp_Smooth::Exp_Smooth(float alpha)
  59              		.loc 1 18 0
  60              		.cfi_startproc
  61              		@ args = 0, pretend = 0, frame = 0
  62              		@ frame_needed = 0, uses_anonymous_args = 0
  63              		@ link register save eliminated.
  64              	.LVL1:
  65              	.LBB3:
  19:Core/Src/utils/exp_smooth.cpp **** {
  20:Core/Src/utils/exp_smooth.cpp ****         alpha_ = alpha;
  66              		.loc 1 20 0
  67 0000 80ED010A 		vstr.32	s0, [r0, #4]
  21:Core/Src/utils/exp_smooth.cpp ****         is_first_ = true;
  68              		.loc 1 21 0
  69 0004 0122     		movs	r2, #1
  70 0006 0272     		strb	r2, [r0, #8]
  71              	.LBE3:
  22:Core/Src/utils/exp_smooth.cpp **** }
  72              		.loc 1 22 0
  73 0008 7047     		bx	lr
  74              		.cfi_endproc
  75              	.LFE159:
  77              		.global	_ZN10Exp_SmoothC1Ef
  78              		.thumb_set _ZN10Exp_SmoothC1Ef,_ZN10Exp_SmoothC2Ef
  79              		.section	.text._ZN10Exp_Smooth6smoothERKf,"ax",%progbits
  80              		.align	1
  81              		.global	_ZN10Exp_Smooth6smoothERKf
  82              		.syntax unified
  83              		.thumb
  84              		.thumb_func
  85              		.fpu fpv4-sp-d16
  87              	_ZN10Exp_Smooth6smoothERKf:
  88              	.LFB161:
  23:Core/Src/utils/exp_smooth.cpp **** 
  24:Core/Src/utils/exp_smooth.cpp **** float Exp_Smooth::smooth(const float &input)
  25:Core/Src/utils/exp_smooth.cpp **** {
  89              		.loc 1 25 0
  90              		.cfi_startproc
  91              		@ args = 0, pretend = 0, frame = 0
  92              		@ frame_needed = 0, uses_anonymous_args = 0
  93              		@ link register save eliminated.
  94              	.LVL2:
ARM GAS  C:\Users\Prashant\AppData\Local\Temp\ccH37RUM.s 			page 3


  95              	.LBB4:
  26:Core/Src/utils/exp_smooth.cpp ****         if (is_first_) {
  96              		.loc 1 26 0
  97 0000 037A     		ldrb	r3, [r0, #8]	@ zero_extendqisi2
  98 0002 83B9     		cbnz	r3, .L6
  99              	.LBB5:
  27:Core/Src/utils/exp_smooth.cpp ****                 is_first_ = false;
  28:Core/Src/utils/exp_smooth.cpp ****                 last_output_ = input;
  29:Core/Src/utils/exp_smooth.cpp ****         }
  30:Core/Src/utils/exp_smooth.cpp ****         else {
  31:Core/Src/utils/exp_smooth.cpp ****                 float residue = input - last_output_;
 100              		.loc 1 31 0
 101 0004 91ED007A 		vldr.32	s14, [r1]
 102 0008 D0ED007A 		vldr.32	s15, [r0]
 103 000c 77EE676A 		vsub.f32	s13, s14, s15
 104              	.LVL3:
  32:Core/Src/utils/exp_smooth.cpp ****                 residue *= alpha_;
 105              		.loc 1 32 0
 106 0010 90ED017A 		vldr.32	s14, [r0, #4]
 107 0014 27EE267A 		vmul.f32	s14, s14, s13
 108              	.LVL4:
  33:Core/Src/utils/exp_smooth.cpp ****                 last_output_ += residue;
 109              		.loc 1 33 0
 110 0018 77EE877A 		vadd.f32	s15, s15, s14
 111 001c C0ED007A 		vstr.32	s15, [r0]
 112              	.LVL5:
 113              	.L5:
 114              	.LBE5:
 115              	.LBE4:
  34:Core/Src/utils/exp_smooth.cpp ****         }
  35:Core/Src/utils/exp_smooth.cpp ****         return last_output_;
  36:Core/Src/utils/exp_smooth.cpp **** }
 116              		.loc 1 36 0
 117 0020 90ED000A 		vldr.32	s0, [r0]
 118 0024 7047     		bx	lr
 119              	.L6:
 120              	.LBB6:
  27:Core/Src/utils/exp_smooth.cpp ****                 last_output_ = input;
 121              		.loc 1 27 0
 122 0026 0023     		movs	r3, #0
 123 0028 0372     		strb	r3, [r0, #8]
  28:Core/Src/utils/exp_smooth.cpp ****         }
 124              		.loc 1 28 0
 125 002a 0B68     		ldr	r3, [r1]	@ float
 126 002c 0360     		str	r3, [r0]	@ float
 127 002e F7E7     		b	.L5
 128              	.LBE6:
 129              		.cfi_endproc
 130              	.LFE161:
 132              		.section	.text._ZN10Exp_Smooth5clearEv,"ax",%progbits
 133              		.align	1
 134              		.global	_ZN10Exp_Smooth5clearEv
 135              		.syntax unified
 136              		.thumb
 137              		.thumb_func
 138              		.fpu fpv4-sp-d16
 140              	_ZN10Exp_Smooth5clearEv:
ARM GAS  C:\Users\Prashant\AppData\Local\Temp\ccH37RUM.s 			page 4


 141              	.LFB162:
  37:Core/Src/utils/exp_smooth.cpp **** 
  38:Core/Src/utils/exp_smooth.cpp **** void Exp_Smooth::clear()
  39:Core/Src/utils/exp_smooth.cpp **** {
 142              		.loc 1 39 0
 143              		.cfi_startproc
 144              		@ args = 0, pretend = 0, frame = 0
 145              		@ frame_needed = 0, uses_anonymous_args = 0
 146              		@ link register save eliminated.
 147              	.LVL6:
  40:Core/Src/utils/exp_smooth.cpp ****         is_first_ = true;
 148              		.loc 1 40 0
 149 0000 0123     		movs	r3, #1
 150 0002 0372     		strb	r3, [r0, #8]
  41:Core/Src/utils/exp_smooth.cpp **** }
 151              		.loc 1 41 0
 152 0004 7047     		bx	lr
 153              		.cfi_endproc
 154              	.LFE162:
 156              		.text
 157              	.Letext0:
 158              		.file 2 "c:\\program files (x86)\\gnu tools arm embedded\\7 2017-q4-major\\arm-none-eabi\\include\
 159              		.file 3 "c:\\program files (x86)\\gnu tools arm embedded\\7 2017-q4-major\\arm-none-eabi\\include\
 160              		.file 4 "Drivers/CMSIS/Include/core_cm4.h"
 161              		.file 5 "Drivers/CMSIS/Device/ST/STM32F4xx/Include/system_stm32f4xx.h"
 162              		.file 6 "c:\\program files (x86)\\gnu tools arm embedded\\7 2017-q4-major\\arm-none-eabi\\include\
 163              		.file 7 "c:\\program files (x86)\\gnu tools arm embedded\\7 2017-q4-major\\arm-none-eabi\\include\
 164              		.file 8 "c:\\program files (x86)\\gnu tools arm embedded\\7 2017-q4-major\\lib\\gcc\\arm-none-eabi
 165              		.file 9 "c:\\program files (x86)\\gnu tools arm embedded\\7 2017-q4-major\\arm-none-eabi\\include\
 166              		.file 10 "Core/Inc/utils/smoothing_algorithm.h"
ARM GAS  C:\Users\Prashant\AppData\Local\Temp\ccH37RUM.s 			page 5

