ARM GAS  C:\Users\Prashant\AppData\Local\Temp\ccFe8v2c.s 			page 1


   1              		.cpu cortex-m4
   2              		.eabi_attribute 27, 1
   3              		.eabi_attribute 28, 1
   4              		.eabi_attribute 20, 1
   5              		.eabi_attribute 21, 1
   6              		.eabi_attribute 23, 3
   7              		.eabi_attribute 24, 1
   8              		.eabi_attribute 25, 1
   9              		.eabi_attribute 26, 1
  10              		.eabi_attribute 30, 1
  11              		.eabi_attribute 34, 1
  12              		.eabi_attribute 18, 4
  13              		.file	"freertos.c"
  14              		.text
  15              	.Ltext0:
  16              		.cfi_sections	.debug_frame
  17              		.section	.text.vApplicationGetIdleTaskMemory,"ax",%progbits
  18              		.align	1
  19              		.global	vApplicationGetIdleTaskMemory
  20              		.syntax unified
  21              		.thumb
  22              		.thumb_func
  23              		.fpu fpv4-sp-d16
  25              	vApplicationGetIdleTaskMemory:
  26              	.LFB131:
  27              		.file 1 "Core/Src/sys/freertos.c"
   1:Core/Src/sys/freertos.c **** /* USER CODE BEGIN Header */
   2:Core/Src/sys/freertos.c **** /**
   3:Core/Src/sys/freertos.c ****   ******************************************************************************
   4:Core/Src/sys/freertos.c ****   * File Name          : freertos.c
   5:Core/Src/sys/freertos.c ****   * Description        : Code for freertos applications
   6:Core/Src/sys/freertos.c ****   ******************************************************************************
   7:Core/Src/sys/freertos.c ****   * This notice applies to any and all portions of this file
   8:Core/Src/sys/freertos.c ****   * that are not between comment pairs USER CODE BEGIN and
   9:Core/Src/sys/freertos.c ****   * USER CODE END. Other portions of this file, whether 
  10:Core/Src/sys/freertos.c ****   * inserted by the user or by software development tools
  11:Core/Src/sys/freertos.c ****   * are owned by their respective copyright owners.
  12:Core/Src/sys/freertos.c ****   *
  13:Core/Src/sys/freertos.c ****   * Copyright (c) 2019 STMicroelectronics International N.V. 
  14:Core/Src/sys/freertos.c ****   * All rights reserved.
  15:Core/Src/sys/freertos.c ****   *
  16:Core/Src/sys/freertos.c ****   * Redistribution and use in source and binary forms, with or without 
  17:Core/Src/sys/freertos.c ****   * modification, are permitted, provided that the following conditions are met:
  18:Core/Src/sys/freertos.c ****   *
  19:Core/Src/sys/freertos.c ****   * 1. Redistribution of source code must retain the above copyright notice, 
  20:Core/Src/sys/freertos.c ****   *    this list of conditions and the following disclaimer.
  21:Core/Src/sys/freertos.c ****   * 2. Redistributions in binary form must reproduce the above copyright notice,
  22:Core/Src/sys/freertos.c ****   *    this list of conditions and the following disclaimer in the documentation
  23:Core/Src/sys/freertos.c ****   *    and/or other materials provided with the distribution.
  24:Core/Src/sys/freertos.c ****   * 3. Neither the name of STMicroelectronics nor the names of other 
  25:Core/Src/sys/freertos.c ****   *    contributors to this software may be used to endorse or promote products 
  26:Core/Src/sys/freertos.c ****   *    derived from this software without specific written permission.
  27:Core/Src/sys/freertos.c ****   * 4. This software, including modifications and/or derivative works of this 
  28:Core/Src/sys/freertos.c ****   *    software, must execute solely and exclusively on microcontroller or
  29:Core/Src/sys/freertos.c ****   *    microprocessor devices manufactured by or for STMicroelectronics.
  30:Core/Src/sys/freertos.c ****   * 5. Redistribution and use of this software other than as permitted under 
  31:Core/Src/sys/freertos.c ****   *    this license is void and will automatically terminate your rights under 
ARM GAS  C:\Users\Prashant\AppData\Local\Temp\ccFe8v2c.s 			page 2


  32:Core/Src/sys/freertos.c ****   *    this license. 
  33:Core/Src/sys/freertos.c ****   *
  34:Core/Src/sys/freertos.c ****   * THIS SOFTWARE IS PROVIDED BY STMICROELECTRONICS AND CONTRIBUTORS "AS IS" 
  35:Core/Src/sys/freertos.c ****   * AND ANY EXPRESS, IMPLIED OR STATUTORY WARRANTIES, INCLUDING, BUT NOT 
  36:Core/Src/sys/freertos.c ****   * LIMITED TO, THE IMPLIED WARRANTIES OF MERCHANTABILITY, FITNESS FOR A 
  37:Core/Src/sys/freertos.c ****   * PARTICULAR PURPOSE AND NON-INFRINGEMENT OF THIRD PARTY INTELLECTUAL PROPERTY
  38:Core/Src/sys/freertos.c ****   * RIGHTS ARE DISCLAIMED TO THE FULLEST EXTENT PERMITTED BY LAW. IN NO EVENT 
  39:Core/Src/sys/freertos.c ****   * SHALL STMICROELECTRONICS OR CONTRIBUTORS BE LIABLE FOR ANY DIRECT, INDIRECT,
  40:Core/Src/sys/freertos.c ****   * INCIDENTAL, SPECIAL, EXEMPLARY, OR CONSEQUENTIAL DAMAGES (INCLUDING, BUT NOT
  41:Core/Src/sys/freertos.c ****   * LIMITED TO, PROCUREMENT OF SUBSTITUTE GOODS OR SERVICES; LOSS OF USE, DATA, 
  42:Core/Src/sys/freertos.c ****   * OR PROFITS; OR BUSINESS INTERRUPTION) HOWEVER CAUSED AND ON ANY THEORY OF 
  43:Core/Src/sys/freertos.c ****   * LIABILITY, WHETHER IN CONTRACT, STRICT LIABILITY, OR TORT (INCLUDING 
  44:Core/Src/sys/freertos.c ****   * NEGLIGENCE OR OTHERWISE) ARISING IN ANY WAY OUT OF THE USE OF THIS SOFTWARE,
  45:Core/Src/sys/freertos.c ****   * EVEN IF ADVISED OF THE POSSIBILITY OF SUCH DAMAGE.
  46:Core/Src/sys/freertos.c ****   *
  47:Core/Src/sys/freertos.c ****   ******************************************************************************
  48:Core/Src/sys/freertos.c ****   */
  49:Core/Src/sys/freertos.c **** /* USER CODE END Header */
  50:Core/Src/sys/freertos.c **** 
  51:Core/Src/sys/freertos.c **** /* Includes ------------------------------------------------------------------*/
  52:Core/Src/sys/freertos.c **** #include "FreeRTOS.h"
  53:Core/Src/sys/freertos.c **** #include "task.h"
  54:Core/Src/sys/freertos.c **** #include "main.h"
  55:Core/Src/sys/freertos.c **** #include "cmsis_os.h"
  56:Core/Src/sys/freertos.c **** 
  57:Core/Src/sys/freertos.c **** /* Private includes ----------------------------------------------------------*/
  58:Core/Src/sys/freertos.c **** /* USER CODE BEGIN Includes */     
  59:Core/Src/sys/freertos.c **** 
  60:Core/Src/sys/freertos.c **** /* USER CODE END Includes */
  61:Core/Src/sys/freertos.c **** 
  62:Core/Src/sys/freertos.c **** /* Private typedef -----------------------------------------------------------*/
  63:Core/Src/sys/freertos.c **** /* USER CODE BEGIN PTD */
  64:Core/Src/sys/freertos.c **** 
  65:Core/Src/sys/freertos.c **** /* USER CODE END PTD */
  66:Core/Src/sys/freertos.c **** 
  67:Core/Src/sys/freertos.c **** /* Private define ------------------------------------------------------------*/
  68:Core/Src/sys/freertos.c **** /* USER CODE BEGIN PD */
  69:Core/Src/sys/freertos.c **** 
  70:Core/Src/sys/freertos.c **** /* USER CODE END PD */
  71:Core/Src/sys/freertos.c **** 
  72:Core/Src/sys/freertos.c **** /* Private macro -------------------------------------------------------------*/
  73:Core/Src/sys/freertos.c **** /* USER CODE BEGIN PM */
  74:Core/Src/sys/freertos.c **** 
  75:Core/Src/sys/freertos.c **** /* USER CODE END PM */
  76:Core/Src/sys/freertos.c **** 
  77:Core/Src/sys/freertos.c **** /* Private variables ---------------------------------------------------------*/
  78:Core/Src/sys/freertos.c **** /* USER CODE BEGIN Variables */
  79:Core/Src/sys/freertos.c **** 
  80:Core/Src/sys/freertos.c **** /* USER CODE END Variables */
  81:Core/Src/sys/freertos.c **** osThreadId defaultTaskHandle;
  82:Core/Src/sys/freertos.c **** uint32_t defaultTaskBuffer[ 1024 ];
  83:Core/Src/sys/freertos.c **** osStaticThreadDef_t defaultTaskControlBlock;
  84:Core/Src/sys/freertos.c **** osThreadId RobotTaskHandle;
  85:Core/Src/sys/freertos.c **** uint32_t myTask02Buffer[ 1024 ];
  86:Core/Src/sys/freertos.c **** osStaticThreadDef_t myTask02ControlBlock;
  87:Core/Src/sys/freertos.c **** osThreadId LoggerTaskHandle;
  88:Core/Src/sys/freertos.c **** uint32_t LoggerTaskBuffer[ 1024 ];
ARM GAS  C:\Users\Prashant\AppData\Local\Temp\ccFe8v2c.s 			page 3


  89:Core/Src/sys/freertos.c **** osStaticThreadDef_t LoggerTaskControlBlock;
  90:Core/Src/sys/freertos.c **** osThreadId CalculationTaskHandle;
  91:Core/Src/sys/freertos.c **** uint32_t CalculationTaskBuffer[ 1024 ];
  92:Core/Src/sys/freertos.c **** osStaticThreadDef_t CalculationTaskControlBlock;
  93:Core/Src/sys/freertos.c **** 
  94:Core/Src/sys/freertos.c **** /* Private function prototypes -----------------------------------------------*/
  95:Core/Src/sys/freertos.c **** /* USER CODE BEGIN FunctionPrototypes */
  96:Core/Src/sys/freertos.c ****    
  97:Core/Src/sys/freertos.c **** /* USER CODE END FunctionPrototypes */
  98:Core/Src/sys/freertos.c **** 
  99:Core/Src/sys/freertos.c **** void StartDefaultTask(void const * argument);
 100:Core/Src/sys/freertos.c **** void StartRobotTask(void const * argument);
 101:Core/Src/sys/freertos.c **** void StartLoggerTask(void const * argument);
 102:Core/Src/sys/freertos.c **** void StartCalculationTask(void const * argument);
 103:Core/Src/sys/freertos.c **** 
 104:Core/Src/sys/freertos.c **** void MX_FREERTOS_Init(void); /* (MISRA C 2004 rule 8.1) */
 105:Core/Src/sys/freertos.c **** 
 106:Core/Src/sys/freertos.c **** /* GetIdleTaskMemory prototype (linked to static allocation support) */
 107:Core/Src/sys/freertos.c **** void vApplicationGetIdleTaskMemory( StaticTask_t **ppxIdleTaskTCBBuffer, StackType_t **ppxIdleTaskS
 108:Core/Src/sys/freertos.c **** 
 109:Core/Src/sys/freertos.c **** /* USER CODE BEGIN GET_IDLE_TASK_MEMORY */
 110:Core/Src/sys/freertos.c **** static StaticTask_t xIdleTaskTCBBuffer;
 111:Core/Src/sys/freertos.c **** static StackType_t xIdleStack[configMINIMAL_STACK_SIZE];
 112:Core/Src/sys/freertos.c ****   
 113:Core/Src/sys/freertos.c **** void vApplicationGetIdleTaskMemory( StaticTask_t **ppxIdleTaskTCBBuffer, StackType_t **ppxIdleTaskS
 114:Core/Src/sys/freertos.c **** {
  28              		.loc 1 114 0
  29              		.cfi_startproc
  30              		@ args = 0, pretend = 0, frame = 0
  31              		@ frame_needed = 0, uses_anonymous_args = 0
  32              		@ link register save eliminated.
  33              	.LVL0:
 115:Core/Src/sys/freertos.c ****   *ppxIdleTaskTCBBuffer = &xIdleTaskTCBBuffer;
  34              		.loc 1 115 0
  35 0000 034B     		ldr	r3, .L2
  36 0002 0360     		str	r3, [r0]
 116:Core/Src/sys/freertos.c ****   *ppxIdleTaskStackBuffer = &xIdleStack[0];
  37              		.loc 1 116 0
  38 0004 034B     		ldr	r3, .L2+4
  39 0006 0B60     		str	r3, [r1]
 117:Core/Src/sys/freertos.c ****   *pulIdleTaskStackSize = configMINIMAL_STACK_SIZE;
  40              		.loc 1 117 0
  41 0008 8023     		movs	r3, #128
  42 000a 1360     		str	r3, [r2]
 118:Core/Src/sys/freertos.c ****   /* place for user code */
 119:Core/Src/sys/freertos.c **** }                   
  43              		.loc 1 119 0
  44 000c 7047     		bx	lr
  45              	.L3:
  46 000e 00BF     		.align	2
  47              	.L2:
  48 0010 00000000 		.word	.LANCHOR0
  49 0014 00000000 		.word	.LANCHOR1
  50              		.cfi_endproc
  51              	.LFE131:
  53              		.section	.text.MX_FREERTOS_Init,"ax",%progbits
  54              		.align	1
ARM GAS  C:\Users\Prashant\AppData\Local\Temp\ccFe8v2c.s 			page 4


  55              		.global	MX_FREERTOS_Init
  56              		.syntax unified
  57              		.thumb
  58              		.thumb_func
  59              		.fpu fpv4-sp-d16
  61              	MX_FREERTOS_Init:
  62              	.LFB132:
 120:Core/Src/sys/freertos.c **** /* USER CODE END GET_IDLE_TASK_MEMORY */
 121:Core/Src/sys/freertos.c **** 
 122:Core/Src/sys/freertos.c **** /**
 123:Core/Src/sys/freertos.c ****   * @brief  FreeRTOS initialization
 124:Core/Src/sys/freertos.c ****   * @param  None
 125:Core/Src/sys/freertos.c ****   * @retval None
 126:Core/Src/sys/freertos.c ****   */
 127:Core/Src/sys/freertos.c **** void MX_FREERTOS_Init(void) {
  63              		.loc 1 127 0
  64              		.cfi_startproc
  65              		@ args = 0, pretend = 0, frame = 112
  66              		@ frame_needed = 0, uses_anonymous_args = 0
  67 0000 70B5     		push	{r4, r5, r6, lr}
  68              	.LCFI0:
  69              		.cfi_def_cfa_offset 16
  70              		.cfi_offset 4, -16
  71              		.cfi_offset 5, -12
  72              		.cfi_offset 6, -8
  73              		.cfi_offset 14, -4
  74 0002 9CB0     		sub	sp, sp, #112
  75              	.LCFI1:
  76              		.cfi_def_cfa_offset 128
 128:Core/Src/sys/freertos.c ****   /* USER CODE BEGIN Init */
 129:Core/Src/sys/freertos.c ****        
 130:Core/Src/sys/freertos.c ****   /* USER CODE END Init */
 131:Core/Src/sys/freertos.c **** 
 132:Core/Src/sys/freertos.c ****   /* USER CODE BEGIN RTOS_MUTEX */
 133:Core/Src/sys/freertos.c ****   /* add mutexes, ... */
 134:Core/Src/sys/freertos.c ****   /* USER CODE END RTOS_MUTEX */
 135:Core/Src/sys/freertos.c **** 
 136:Core/Src/sys/freertos.c ****   /* USER CODE BEGIN RTOS_SEMAPHORES */
 137:Core/Src/sys/freertos.c ****   /* add semaphores, ... */
 138:Core/Src/sys/freertos.c ****   /* USER CODE END RTOS_SEMAPHORES */
 139:Core/Src/sys/freertos.c **** 
 140:Core/Src/sys/freertos.c ****   /* USER CODE BEGIN RTOS_TIMERS */
 141:Core/Src/sys/freertos.c ****   /* start timers, add new ones, ... */
 142:Core/Src/sys/freertos.c ****   /* USER CODE END RTOS_TIMERS */
 143:Core/Src/sys/freertos.c **** 
 144:Core/Src/sys/freertos.c ****   /* Create the thread(s) */
 145:Core/Src/sys/freertos.c ****   /* definition and creation of defaultTask */
 146:Core/Src/sys/freertos.c ****   osThreadStaticDef(defaultTask, StartDefaultTask, osPriorityNormal, 0, 1024, defaultTaskBuffer, &d
  77              		.loc 1 146 0
  78 0004 1E4C     		ldr	r4, .L6
  79 0006 15AD     		add	r5, sp, #84
  80 0008 2646     		mov	r6, r4
  81 000a 0FCE     		ldmia	r6!, {r0, r1, r2, r3}
  82 000c 0FC5     		stmia	r5!, {r0, r1, r2, r3}
  83 000e 96E80700 		ldm	r6, {r0, r1, r2}
  84 0012 85E80700 		stm	r5, {r0, r1, r2}
 147:Core/Src/sys/freertos.c ****   defaultTaskHandle = osThreadCreate(osThread(defaultTask), NULL);
ARM GAS  C:\Users\Prashant\AppData\Local\Temp\ccFe8v2c.s 			page 5


  85              		.loc 1 147 0
  86 0016 0021     		movs	r1, #0
  87 0018 15A8     		add	r0, sp, #84
  88 001a FFF7FEFF 		bl	osThreadCreate
  89              	.LVL1:
  90 001e 194B     		ldr	r3, .L6+4
  91 0020 1860     		str	r0, [r3]
 148:Core/Src/sys/freertos.c **** 
 149:Core/Src/sys/freertos.c ****   /* definition and creation of RobotTask */
 150:Core/Src/sys/freertos.c ****   osThreadStaticDef(RobotTask, StartRobotTask, osPriorityRealtime, 0, 1024, myTask02Buffer, &myTask
  92              		.loc 1 150 0
  93 0022 0EAD     		add	r5, sp, #56
  94 0024 04F11C06 		add	r6, r4, #28
  95 0028 0FCE     		ldmia	r6!, {r0, r1, r2, r3}
  96 002a 0FC5     		stmia	r5!, {r0, r1, r2, r3}
  97 002c 96E80700 		ldm	r6, {r0, r1, r2}
  98 0030 85E80700 		stm	r5, {r0, r1, r2}
 151:Core/Src/sys/freertos.c ****   RobotTaskHandle = osThreadCreate(osThread(RobotTask), NULL);
  99              		.loc 1 151 0
 100 0034 0021     		movs	r1, #0
 101 0036 0EA8     		add	r0, sp, #56
 102 0038 FFF7FEFF 		bl	osThreadCreate
 103              	.LVL2:
 104 003c 124B     		ldr	r3, .L6+8
 105 003e 1860     		str	r0, [r3]
 152:Core/Src/sys/freertos.c **** 
 153:Core/Src/sys/freertos.c ****   /* definition and creation of LoggerTask */
 154:Core/Src/sys/freertos.c ****   osThreadStaticDef(LoggerTask, StartLoggerTask, osPriorityRealtime, 0, 1024, LoggerTaskBuffer, &Lo
 106              		.loc 1 154 0
 107 0040 07AD     		add	r5, sp, #28
 108 0042 04F13806 		add	r6, r4, #56
 109 0046 0FCE     		ldmia	r6!, {r0, r1, r2, r3}
 110 0048 0FC5     		stmia	r5!, {r0, r1, r2, r3}
 111 004a 96E80700 		ldm	r6, {r0, r1, r2}
 112 004e 85E80700 		stm	r5, {r0, r1, r2}
 155:Core/Src/sys/freertos.c ****   LoggerTaskHandle = osThreadCreate(osThread(LoggerTask), NULL);
 113              		.loc 1 155 0
 114 0052 0021     		movs	r1, #0
 115 0054 07A8     		add	r0, sp, #28
 116 0056 FFF7FEFF 		bl	osThreadCreate
 117              	.LVL3:
 118 005a 0C4B     		ldr	r3, .L6+12
 119 005c 1860     		str	r0, [r3]
 156:Core/Src/sys/freertos.c **** 
 157:Core/Src/sys/freertos.c ****   /* definition and creation of CalculationTask */
 158:Core/Src/sys/freertos.c ****   osThreadStaticDef(CalculationTask, StartCalculationTask, osPriorityRealtime, 0, 1024, Calculation
 120              		.loc 1 158 0
 121 005e 6D46     		mov	r5, sp
 122 0060 5434     		adds	r4, r4, #84
 123 0062 0FCC     		ldmia	r4!, {r0, r1, r2, r3}
 124 0064 0FC5     		stmia	r5!, {r0, r1, r2, r3}
 125 0066 94E80700 		ldm	r4, {r0, r1, r2}
 126 006a 85E80700 		stm	r5, {r0, r1, r2}
 159:Core/Src/sys/freertos.c ****   CalculationTaskHandle = osThreadCreate(osThread(CalculationTask), NULL);
 127              		.loc 1 159 0
 128 006e 0021     		movs	r1, #0
 129 0070 6846     		mov	r0, sp
ARM GAS  C:\Users\Prashant\AppData\Local\Temp\ccFe8v2c.s 			page 6


 130 0072 FFF7FEFF 		bl	osThreadCreate
 131              	.LVL4:
 132 0076 064B     		ldr	r3, .L6+16
 133 0078 1860     		str	r0, [r3]
 160:Core/Src/sys/freertos.c **** 
 161:Core/Src/sys/freertos.c ****   /* USER CODE BEGIN RTOS_THREADS */
 162:Core/Src/sys/freertos.c ****   /* add threads, ... */
 163:Core/Src/sys/freertos.c ****   /* USER CODE END RTOS_THREADS */
 164:Core/Src/sys/freertos.c **** 
 165:Core/Src/sys/freertos.c ****   /* USER CODE BEGIN RTOS_QUEUES */
 166:Core/Src/sys/freertos.c ****   /* add queues, ... */
 167:Core/Src/sys/freertos.c ****   /* USER CODE END RTOS_QUEUES */
 168:Core/Src/sys/freertos.c **** }
 134              		.loc 1 168 0
 135 007a 1CB0     		add	sp, sp, #112
 136              	.LCFI2:
 137              		.cfi_def_cfa_offset 16
 138              		@ sp needed
 139 007c 70BD     		pop	{r4, r5, r6, pc}
 140              	.L7:
 141 007e 00BF     		.align	2
 142              	.L6:
 143 0080 00000000 		.word	.LANCHOR2
 144 0084 00000000 		.word	defaultTaskHandle
 145 0088 00000000 		.word	RobotTaskHandle
 146 008c 00000000 		.word	LoggerTaskHandle
 147 0090 00000000 		.word	CalculationTaskHandle
 148              		.cfi_endproc
 149              	.LFE132:
 151              		.comm	CalculationTaskControlBlock,84,4
 152              		.comm	CalculationTaskBuffer,4096,4
 153              		.comm	CalculationTaskHandle,4,4
 154              		.comm	LoggerTaskControlBlock,84,4
 155              		.comm	LoggerTaskBuffer,4096,4
 156              		.comm	LoggerTaskHandle,4,4
 157              		.comm	myTask02ControlBlock,84,4
 158              		.comm	myTask02Buffer,4096,4
 159              		.comm	RobotTaskHandle,4,4
 160              		.comm	defaultTaskControlBlock,84,4
 161              		.comm	defaultTaskBuffer,4096,4
 162              		.comm	defaultTaskHandle,4,4
 163              		.section	.rodata
 164              		.align	2
 165              		.set	.LANCHOR2,. + 0
 166              	.LC8:
 167 0000 28000000 		.word	.LC0
 168 0004 00000000 		.word	StartDefaultTask
 169 0008 0000     		.short	0
 170 000a 0000     		.space	2
 171 000c 00000000 		.word	0
 172 0010 00040000 		.word	1024
 173 0014 00000000 		.word	defaultTaskBuffer
 174 0018 00000000 		.word	defaultTaskControlBlock
 175              	.LC9:
 176 001c 1C000000 		.word	.LC2
 177 0020 00000000 		.word	StartRobotTask
 178 0024 0300     		.short	3
ARM GAS  C:\Users\Prashant\AppData\Local\Temp\ccFe8v2c.s 			page 7


 179 0026 0000     		.space	2
 180 0028 00000000 		.word	0
 181 002c 00040000 		.word	1024
 182 0030 00000000 		.word	myTask02Buffer
 183 0034 00000000 		.word	myTask02ControlBlock
 184              	.LC10:
 185 0038 10000000 		.word	.LC4
 186 003c 00000000 		.word	StartLoggerTask
 187 0040 0300     		.short	3
 188 0042 0000     		.space	2
 189 0044 00000000 		.word	0
 190 0048 00040000 		.word	1024
 191 004c 00000000 		.word	LoggerTaskBuffer
 192 0050 00000000 		.word	LoggerTaskControlBlock
 193              	.LC11:
 194 0054 00000000 		.word	.LC6
 195 0058 00000000 		.word	StartCalculationTask
 196 005c 0300     		.short	3
 197 005e 0000     		.space	2
 198 0060 00000000 		.word	0
 199 0064 00040000 		.word	1024
 200 0068 00000000 		.word	CalculationTaskBuffer
 201 006c 00000000 		.word	CalculationTaskControlBlock
 202              		.section	.bss.xIdleStack,"aw",%nobits
 203              		.align	2
 204              		.set	.LANCHOR1,. + 0
 207              	xIdleStack:
 208 0000 00000000 		.space	512
 208      00000000 
 208      00000000 
 208      00000000 
 208      00000000 
 209              		.section	.bss.xIdleTaskTCBBuffer,"aw",%nobits
 210              		.align	2
 211              		.set	.LANCHOR0,. + 0
 214              	xIdleTaskTCBBuffer:
 215 0000 00000000 		.space	84
 215      00000000 
 215      00000000 
 215      00000000 
 215      00000000 
 216              		.section	.rodata.str1.4,"aMS",%progbits,1
 217              		.align	2
 218              	.LC6:
 219 0000 43616C63 		.ascii	"CalculationTask\000"
 219      756C6174 
 219      696F6E54 
 219      61736B00 
 220              	.LC4:
 221 0010 4C6F6767 		.ascii	"LoggerTask\000"
 221      65725461 
 221      736B00
 222 001b 00       		.space	1
 223              	.LC2:
 224 001c 526F626F 		.ascii	"RobotTask\000"
 224      74546173 
 224      6B00
ARM GAS  C:\Users\Prashant\AppData\Local\Temp\ccFe8v2c.s 			page 8


 225 0026 0000     		.space	2
 226              	.LC0:
 227 0028 64656661 		.ascii	"defaultTask\000"
 227      756C7454 
 227      61736B00 
 228              		.text
 229              	.Letext0:
 230              		.file 2 "c:\\program files (x86)\\gnu tools arm embedded\\7 2017-q4-major\\arm-none-eabi\\include\
 231              		.file 3 "c:\\program files (x86)\\gnu tools arm embedded\\7 2017-q4-major\\arm-none-eabi\\include\
 232              		.file 4 "Middlewares/Third_Party/FreeRTOS/Source/portable/GCC/ARM_CM4F/portmacro.h"
 233              		.file 5 "Middlewares/Third_Party/FreeRTOS/Source/include/FreeRTOS.h"
 234              		.file 6 "Middlewares/Third_Party/FreeRTOS/Source/include/task.h"
 235              		.file 7 "Core/Inc/sys/FreeRTOSConfig.h"
 236              		.file 8 "Drivers/CMSIS/Include/core_cm4.h"
 237              		.file 9 "Drivers/CMSIS/Device/ST/STM32F4xx/Include/system_stm32f4xx.h"
 238              		.file 10 "c:\\program files (x86)\\gnu tools arm embedded\\7 2017-q4-major\\arm-none-eabi\\include
 239              		.file 11 "c:\\program files (x86)\\gnu tools arm embedded\\7 2017-q4-major\\arm-none-eabi\\include
 240              		.file 12 "c:\\program files (x86)\\gnu tools arm embedded\\7 2017-q4-major\\lib\\gcc\\arm-none-eab
 241              		.file 13 "c:\\program files (x86)\\gnu tools arm embedded\\7 2017-q4-major\\arm-none-eabi\\include
 242              		.file 14 "Middlewares/Third_Party/FreeRTOS/Source/CMSIS_RTOS/cmsis_os.h"
ARM GAS  C:\Users\Prashant\AppData\Local\Temp\ccFe8v2c.s 			page 9

