ARM GAS  C:\Users\Prashant\AppData\Local\Temp\ccyOLlJp.s 			page 1


   1              		.cpu cortex-m4
   2              		.eabi_attribute 27, 1
   3              		.eabi_attribute 28, 1
   4              		.eabi_attribute 20, 1
   5              		.eabi_attribute 21, 1
   6              		.eabi_attribute 23, 3
   7              		.eabi_attribute 24, 1
   8              		.eabi_attribute 25, 1
   9              		.eabi_attribute 26, 1
  10              		.eabi_attribute 30, 1
  11              		.eabi_attribute 34, 1
  12              		.eabi_attribute 18, 4
  13              		.file	"gpio.c"
  14              		.text
  15              	.Ltext0:
  16              		.cfi_sections	.debug_frame
  17              		.section	.text.MX_GPIO_Init,"ax",%progbits
  18              		.align	1
  19              		.global	MX_GPIO_Init
  20              		.syntax unified
  21              		.thumb
  22              		.thumb_func
  23              		.fpu fpv4-sp-d16
  25              	MX_GPIO_Init:
  26              	.LFB126:
  27              		.file 1 "Core/Src/periphs/gpio.c"
   1:Core/Src/periphs/gpio.c **** /**
   2:Core/Src/periphs/gpio.c ****   ******************************************************************************
   3:Core/Src/periphs/gpio.c ****   * File Name          : gpio.c
   4:Core/Src/periphs/gpio.c ****   * Description        : This file provides code for the configuration
   5:Core/Src/periphs/gpio.c ****   *                      of all used GPIO pins.
   6:Core/Src/periphs/gpio.c ****   ******************************************************************************
   7:Core/Src/periphs/gpio.c ****   * This notice applies to any and all portions of this file
   8:Core/Src/periphs/gpio.c ****   * that are not between comment pairs USER CODE BEGIN and
   9:Core/Src/periphs/gpio.c ****   * USER CODE END. Other portions of this file, whether 
  10:Core/Src/periphs/gpio.c ****   * inserted by the user or by software development tools
  11:Core/Src/periphs/gpio.c ****   * are owned by their respective copyright owners.
  12:Core/Src/periphs/gpio.c ****   *
  13:Core/Src/periphs/gpio.c ****   * Copyright (c) 2019 STMicroelectronics International N.V. 
  14:Core/Src/periphs/gpio.c ****   * All rights reserved.
  15:Core/Src/periphs/gpio.c ****   *
  16:Core/Src/periphs/gpio.c ****   * Redistribution and use in source and binary forms, with or without 
  17:Core/Src/periphs/gpio.c ****   * modification, are permitted, provided that the following conditions are met:
  18:Core/Src/periphs/gpio.c ****   *
  19:Core/Src/periphs/gpio.c ****   * 1. Redistribution of source code must retain the above copyright notice, 
  20:Core/Src/periphs/gpio.c ****   *    this list of conditions and the following disclaimer.
  21:Core/Src/periphs/gpio.c ****   * 2. Redistributions in binary form must reproduce the above copyright notice,
  22:Core/Src/periphs/gpio.c ****   *    this list of conditions and the following disclaimer in the documentation
  23:Core/Src/periphs/gpio.c ****   *    and/or other materials provided with the distribution.
  24:Core/Src/periphs/gpio.c ****   * 3. Neither the name of STMicroelectronics nor the names of other 
  25:Core/Src/periphs/gpio.c ****   *    contributors to this software may be used to endorse or promote products 
  26:Core/Src/periphs/gpio.c ****   *    derived from this software without specific written permission.
  27:Core/Src/periphs/gpio.c ****   * 4. This software, including modifications and/or derivative works of this 
  28:Core/Src/periphs/gpio.c ****   *    software, must execute solely and exclusively on microcontroller or
  29:Core/Src/periphs/gpio.c ****   *    microprocessor devices manufactured by or for STMicroelectronics.
  30:Core/Src/periphs/gpio.c ****   * 5. Redistribution and use of this software other than as permitted under 
  31:Core/Src/periphs/gpio.c ****   *    this license is void and will automatically terminate your rights under 
ARM GAS  C:\Users\Prashant\AppData\Local\Temp\ccyOLlJp.s 			page 2


  32:Core/Src/periphs/gpio.c ****   *    this license. 
  33:Core/Src/periphs/gpio.c ****   *
  34:Core/Src/periphs/gpio.c ****   * THIS SOFTWARE IS PROVIDED BY STMICROELECTRONICS AND CONTRIBUTORS "AS IS" 
  35:Core/Src/periphs/gpio.c ****   * AND ANY EXPRESS, IMPLIED OR STATUTORY WARRANTIES, INCLUDING, BUT NOT 
  36:Core/Src/periphs/gpio.c ****   * LIMITED TO, THE IMPLIED WARRANTIES OF MERCHANTABILITY, FITNESS FOR A 
  37:Core/Src/periphs/gpio.c ****   * PARTICULAR PURPOSE AND NON-INFRINGEMENT OF THIRD PARTY INTELLECTUAL PROPERTY
  38:Core/Src/periphs/gpio.c ****   * RIGHTS ARE DISCLAIMED TO THE FULLEST EXTENT PERMITTED BY LAW. IN NO EVENT 
  39:Core/Src/periphs/gpio.c ****   * SHALL STMICROELECTRONICS OR CONTRIBUTORS BE LIABLE FOR ANY DIRECT, INDIRECT,
  40:Core/Src/periphs/gpio.c ****   * INCIDENTAL, SPECIAL, EXEMPLARY, OR CONSEQUENTIAL DAMAGES (INCLUDING, BUT NOT
  41:Core/Src/periphs/gpio.c ****   * LIMITED TO, PROCUREMENT OF SUBSTITUTE GOODS OR SERVICES; LOSS OF USE, DATA, 
  42:Core/Src/periphs/gpio.c ****   * OR PROFITS; OR BUSINESS INTERRUPTION) HOWEVER CAUSED AND ON ANY THEORY OF 
  43:Core/Src/periphs/gpio.c ****   * LIABILITY, WHETHER IN CONTRACT, STRICT LIABILITY, OR TORT (INCLUDING 
  44:Core/Src/periphs/gpio.c ****   * NEGLIGENCE OR OTHERWISE) ARISING IN ANY WAY OUT OF THE USE OF THIS SOFTWARE,
  45:Core/Src/periphs/gpio.c ****   * EVEN IF ADVISED OF THE POSSIBILITY OF SUCH DAMAGE.
  46:Core/Src/periphs/gpio.c ****   *
  47:Core/Src/periphs/gpio.c ****   ******************************************************************************
  48:Core/Src/periphs/gpio.c ****   */
  49:Core/Src/periphs/gpio.c **** 
  50:Core/Src/periphs/gpio.c **** /* Includes ------------------------------------------------------------------*/
  51:Core/Src/periphs/gpio.c **** #include "gpio.h"
  52:Core/Src/periphs/gpio.c **** /* USER CODE BEGIN 0 */
  53:Core/Src/periphs/gpio.c **** 
  54:Core/Src/periphs/gpio.c **** /* USER CODE END 0 */
  55:Core/Src/periphs/gpio.c **** 
  56:Core/Src/periphs/gpio.c **** /*----------------------------------------------------------------------------*/
  57:Core/Src/periphs/gpio.c **** /* Configure GPIO                                                             */
  58:Core/Src/periphs/gpio.c **** /*----------------------------------------------------------------------------*/
  59:Core/Src/periphs/gpio.c **** /* USER CODE BEGIN 1 */
  60:Core/Src/periphs/gpio.c **** 
  61:Core/Src/periphs/gpio.c **** /* USER CODE END 1 */
  62:Core/Src/periphs/gpio.c **** 
  63:Core/Src/periphs/gpio.c **** /** Configure pins as 
  64:Core/Src/periphs/gpio.c ****         * Analog 
  65:Core/Src/periphs/gpio.c ****         * Input 
  66:Core/Src/periphs/gpio.c ****         * Output
  67:Core/Src/periphs/gpio.c ****         * EVENT_OUT
  68:Core/Src/periphs/gpio.c ****         * EXTI
  69:Core/Src/periphs/gpio.c **** */
  70:Core/Src/periphs/gpio.c **** void MX_GPIO_Init(void)
  71:Core/Src/periphs/gpio.c **** {
  28              		.loc 1 71 0
  29              		.cfi_startproc
  30              		@ args = 0, pretend = 0, frame = 48
  31              		@ frame_needed = 0, uses_anonymous_args = 0
  32 0000 2DE9F04F 		push	{r4, r5, r6, r7, r8, r9, r10, fp, lr}
  33              	.LCFI0:
  34              		.cfi_def_cfa_offset 36
  35              		.cfi_offset 4, -36
  36              		.cfi_offset 5, -32
  37              		.cfi_offset 6, -28
  38              		.cfi_offset 7, -24
  39              		.cfi_offset 8, -20
  40              		.cfi_offset 9, -16
  41              		.cfi_offset 10, -12
  42              		.cfi_offset 11, -8
  43              		.cfi_offset 14, -4
  44 0004 8DB0     		sub	sp, sp, #52
ARM GAS  C:\Users\Prashant\AppData\Local\Temp\ccyOLlJp.s 			page 3


  45              	.LCFI1:
  46              		.cfi_def_cfa_offset 88
  72:Core/Src/periphs/gpio.c **** 
  73:Core/Src/periphs/gpio.c ****   GPIO_InitTypeDef GPIO_InitStruct = {0};
  47              		.loc 1 73 0
  48 0006 0024     		movs	r4, #0
  49 0008 0794     		str	r4, [sp, #28]
  50 000a 0894     		str	r4, [sp, #32]
  51 000c 0994     		str	r4, [sp, #36]
  52 000e 0A94     		str	r4, [sp, #40]
  53 0010 0B94     		str	r4, [sp, #44]
  54              	.LBB2:
  74:Core/Src/periphs/gpio.c **** 
  75:Core/Src/periphs/gpio.c ****   /* GPIO Ports Clock Enable */
  76:Core/Src/periphs/gpio.c ****   __HAL_RCC_GPIOE_CLK_ENABLE();
  55              		.loc 1 76 0
  56 0012 0194     		str	r4, [sp, #4]
  57 0014 714B     		ldr	r3, .L3
  58 0016 1A6B     		ldr	r2, [r3, #48]
  59 0018 42F01002 		orr	r2, r2, #16
  60 001c 1A63     		str	r2, [r3, #48]
  61 001e 1A6B     		ldr	r2, [r3, #48]
  62 0020 02F01002 		and	r2, r2, #16
  63 0024 0192     		str	r2, [sp, #4]
  64 0026 019A     		ldr	r2, [sp, #4]
  65              	.LBE2:
  66              	.LBB3:
  77:Core/Src/periphs/gpio.c ****   __HAL_RCC_GPIOC_CLK_ENABLE();
  67              		.loc 1 77 0
  68 0028 0294     		str	r4, [sp, #8]
  69 002a 1A6B     		ldr	r2, [r3, #48]
  70 002c 42F00402 		orr	r2, r2, #4
  71 0030 1A63     		str	r2, [r3, #48]
  72 0032 1A6B     		ldr	r2, [r3, #48]
  73 0034 02F00402 		and	r2, r2, #4
  74 0038 0292     		str	r2, [sp, #8]
  75 003a 029A     		ldr	r2, [sp, #8]
  76              	.LBE3:
  77              	.LBB4:
  78:Core/Src/periphs/gpio.c ****   __HAL_RCC_GPIOH_CLK_ENABLE();
  78              		.loc 1 78 0
  79 003c 0394     		str	r4, [sp, #12]
  80 003e 1A6B     		ldr	r2, [r3, #48]
  81 0040 42F08002 		orr	r2, r2, #128
  82 0044 1A63     		str	r2, [r3, #48]
  83 0046 1A6B     		ldr	r2, [r3, #48]
  84 0048 02F08002 		and	r2, r2, #128
  85 004c 0392     		str	r2, [sp, #12]
  86 004e 039A     		ldr	r2, [sp, #12]
  87              	.LBE4:
  88              	.LBB5:
  79:Core/Src/periphs/gpio.c ****   __HAL_RCC_GPIOA_CLK_ENABLE();
  89              		.loc 1 79 0
  90 0050 0494     		str	r4, [sp, #16]
  91 0052 1A6B     		ldr	r2, [r3, #48]
  92 0054 42F00102 		orr	r2, r2, #1
  93 0058 1A63     		str	r2, [r3, #48]
ARM GAS  C:\Users\Prashant\AppData\Local\Temp\ccyOLlJp.s 			page 4


  94 005a 1A6B     		ldr	r2, [r3, #48]
  95 005c 02F00102 		and	r2, r2, #1
  96 0060 0492     		str	r2, [sp, #16]
  97 0062 049A     		ldr	r2, [sp, #16]
  98              	.LBE5:
  99              	.LBB6:
  80:Core/Src/periphs/gpio.c ****   __HAL_RCC_GPIOB_CLK_ENABLE();
 100              		.loc 1 80 0
 101 0064 0594     		str	r4, [sp, #20]
 102 0066 1A6B     		ldr	r2, [r3, #48]
 103 0068 42F00202 		orr	r2, r2, #2
 104 006c 1A63     		str	r2, [r3, #48]
 105 006e 1A6B     		ldr	r2, [r3, #48]
 106 0070 02F00202 		and	r2, r2, #2
 107 0074 0592     		str	r2, [sp, #20]
 108 0076 059A     		ldr	r2, [sp, #20]
 109              	.LBE6:
 110              	.LBB7:
  81:Core/Src/periphs/gpio.c ****   __HAL_RCC_GPIOD_CLK_ENABLE();
 111              		.loc 1 81 0
 112 0078 0694     		str	r4, [sp, #24]
 113 007a 1A6B     		ldr	r2, [r3, #48]
 114 007c 42F00802 		orr	r2, r2, #8
 115 0080 1A63     		str	r2, [r3, #48]
 116 0082 1B6B     		ldr	r3, [r3, #48]
 117 0084 03F00803 		and	r3, r3, #8
 118 0088 0693     		str	r3, [sp, #24]
 119 008a 069B     		ldr	r3, [sp, #24]
 120              	.LBE7:
  82:Core/Src/periphs/gpio.c **** 
  83:Core/Src/periphs/gpio.c ****   /*Configure GPIO pin Output Level */
  84:Core/Src/periphs/gpio.c ****   HAL_GPIO_WritePin(GPIOC, Grip_Pneumatic_Pin|GPIO_PIN_4|MOTOR1_IN1_Pin, GPIO_PIN_RESET);
 121              		.loc 1 84 0
 122 008c 544F     		ldr	r7, .L3+4
 123 008e 2246     		mov	r2, r4
 124 0090 40F61401 		movw	r1, #2068
 125 0094 3846     		mov	r0, r7
 126 0096 FFF7FEFF 		bl	HAL_GPIO_WritePin
 127              	.LVL0:
  85:Core/Src/periphs/gpio.c **** 
  86:Core/Src/periphs/gpio.c ****   /*Configure GPIO pin Output Level */
  87:Core/Src/periphs/gpio.c ****   HAL_GPIO_WritePin(GPIOA, Hand_Pneumatic_Pin|MOTOR0_IN1_Pin|MOTOR0_IN2_Pin|MOTOR1_IN2_Pin, GPIO_PI
 128              		.loc 1 87 0
 129 009a DFF85081 		ldr	r8, .L3+16
 130 009e 2246     		mov	r2, r4
 131 00a0 48F20451 		movw	r1, #34052
 132 00a4 4046     		mov	r0, r8
 133 00a6 FFF7FEFF 		bl	HAL_GPIO_WritePin
 134              	.LVL1:
  88:Core/Src/periphs/gpio.c **** 
  89:Core/Src/periphs/gpio.c ****   /*Configure GPIO pin Output Level */
  90:Core/Src/periphs/gpio.c ****   HAL_GPIO_WritePin(GPIOD, GreenLED_Pin|OrangeLED_Pin|RedLED_Pin|BlueLED_Pin 
 135              		.loc 1 90 0
 136 00aa 4E4E     		ldr	r6, .L3+8
 137 00ac 2246     		mov	r2, r4
 138 00ae 4FF20501 		movw	r1, #61445
 139 00b2 3046     		mov	r0, r6
ARM GAS  C:\Users\Prashant\AppData\Local\Temp\ccyOLlJp.s 			page 5


 140 00b4 FFF7FEFF 		bl	HAL_GPIO_WritePin
 141              	.LVL2:
  91:Core/Src/periphs/gpio.c ****                           |MOTOR2_IN2_Pin|MOTOR2_IN1_Pin, GPIO_PIN_RESET);
  92:Core/Src/periphs/gpio.c **** 
  93:Core/Src/periphs/gpio.c ****   /*Configure GPIO pins : PEPin PEPin */
  94:Core/Src/periphs/gpio.c ****   GPIO_InitStruct.Pin = ZONE_BLUE_Pin|IMU_Detect_Pin;
 142              		.loc 1 94 0
 143 00b8 6023     		movs	r3, #96
 144 00ba 0793     		str	r3, [sp, #28]
  95:Core/Src/periphs/gpio.c ****   GPIO_InitStruct.Mode = GPIO_MODE_INPUT;
 145              		.loc 1 95 0
 146 00bc 0894     		str	r4, [sp, #32]
  96:Core/Src/periphs/gpio.c ****   GPIO_InitStruct.Pull = GPIO_PULLUP;
 147              		.loc 1 96 0
 148 00be 0125     		movs	r5, #1
 149 00c0 0995     		str	r5, [sp, #36]
  97:Core/Src/periphs/gpio.c ****   HAL_GPIO_Init(GPIOE, &GPIO_InitStruct);
 150              		.loc 1 97 0
 151 00c2 DFF82CA1 		ldr	r10, .L3+20
 152 00c6 07A9     		add	r1, sp, #28
 153 00c8 5046     		mov	r0, r10
 154 00ca FFF7FEFF 		bl	HAL_GPIO_Init
 155              	.LVL3:
  98:Core/Src/periphs/gpio.c **** 
  99:Core/Src/periphs/gpio.c ****   /*Configure GPIO pins : PCPin PCPin PCPin */
 100:Core/Src/periphs/gpio.c ****   GPIO_InitStruct.Pin = ZONE_INIT_Pin|ZONE_RED_Pin|ZONE_SAND_Pin;
 156              		.loc 1 100 0
 157 00ce 41F21203 		movw	r3, #4114
 158 00d2 0793     		str	r3, [sp, #28]
 101:Core/Src/periphs/gpio.c ****   GPIO_InitStruct.Mode = GPIO_MODE_INPUT;
 159              		.loc 1 101 0
 160 00d4 0894     		str	r4, [sp, #32]
 102:Core/Src/periphs/gpio.c ****   GPIO_InitStruct.Pull = GPIO_NOPULL;
 161              		.loc 1 102 0
 162 00d6 0994     		str	r4, [sp, #36]
 103:Core/Src/periphs/gpio.c ****   HAL_GPIO_Init(GPIOC, &GPIO_InitStruct);
 163              		.loc 1 103 0
 164 00d8 07A9     		add	r1, sp, #28
 165 00da 3846     		mov	r0, r7
 166 00dc FFF7FEFF 		bl	HAL_GPIO_Init
 167              	.LVL4:
 104:Core/Src/periphs/gpio.c **** 
 105:Core/Src/periphs/gpio.c ****   /*Configure GPIO pins : PCPin PC4 */
 106:Core/Src/periphs/gpio.c ****   GPIO_InitStruct.Pin = Grip_Pneumatic_Pin|GPIO_PIN_4;
 168              		.loc 1 106 0
 169 00e0 1423     		movs	r3, #20
 170 00e2 0793     		str	r3, [sp, #28]
 107:Core/Src/periphs/gpio.c ****   GPIO_InitStruct.Mode = GPIO_MODE_OUTPUT_PP;
 171              		.loc 1 107 0
 172 00e4 0895     		str	r5, [sp, #32]
 108:Core/Src/periphs/gpio.c ****   GPIO_InitStruct.Pull = GPIO_NOPULL;
 173              		.loc 1 108 0
 174 00e6 0994     		str	r4, [sp, #36]
 109:Core/Src/periphs/gpio.c ****   GPIO_InitStruct.Speed = GPIO_SPEED_FREQ_LOW;
 175              		.loc 1 109 0
 176 00e8 0A94     		str	r4, [sp, #40]
 110:Core/Src/periphs/gpio.c ****   HAL_GPIO_Init(GPIOC, &GPIO_InitStruct);
ARM GAS  C:\Users\Prashant\AppData\Local\Temp\ccyOLlJp.s 			page 6


 177              		.loc 1 110 0
 178 00ea 07A9     		add	r1, sp, #28
 179 00ec 3846     		mov	r0, r7
 180 00ee FFF7FEFF 		bl	HAL_GPIO_Init
 181              	.LVL5:
 111:Core/Src/periphs/gpio.c **** 
 112:Core/Src/periphs/gpio.c ****   /*Configure GPIO pin : PtPin */
 113:Core/Src/periphs/gpio.c ****   GPIO_InitStruct.Pin = USER_BUTTON_Pin;
 182              		.loc 1 113 0
 183 00f2 0795     		str	r5, [sp, #28]
 114:Core/Src/periphs/gpio.c ****   GPIO_InitStruct.Mode = GPIO_MODE_IT_RISING;
 184              		.loc 1 114 0
 185 00f4 DFF8FC90 		ldr	r9, .L3+24
 186 00f8 CDF82090 		str	r9, [sp, #32]
 115:Core/Src/periphs/gpio.c ****   GPIO_InitStruct.Pull = GPIO_PULLDOWN;
 187              		.loc 1 115 0
 188 00fc 0223     		movs	r3, #2
 189 00fe 0993     		str	r3, [sp, #36]
 116:Core/Src/periphs/gpio.c ****   HAL_GPIO_Init(USER_BUTTON_GPIO_Port, &GPIO_InitStruct);
 190              		.loc 1 116 0
 191 0100 07A9     		add	r1, sp, #28
 192 0102 4046     		mov	r0, r8
 193 0104 FFF7FEFF 		bl	HAL_GPIO_Init
 194              	.LVL6:
 117:Core/Src/periphs/gpio.c **** 
 118:Core/Src/periphs/gpio.c ****   /*Configure GPIO pin : PtPin */
 119:Core/Src/periphs/gpio.c ****   GPIO_InitStruct.Pin = Hand_Pneumatic_Pin;
 195              		.loc 1 119 0
 196 0108 4FF0040B 		mov	fp, #4
 197 010c CDF81CB0 		str	fp, [sp, #28]
 120:Core/Src/periphs/gpio.c ****   GPIO_InitStruct.Mode = GPIO_MODE_OUTPUT_PP;
 198              		.loc 1 120 0
 199 0110 0895     		str	r5, [sp, #32]
 121:Core/Src/periphs/gpio.c ****   GPIO_InitStruct.Pull = GPIO_NOPULL;
 200              		.loc 1 121 0
 201 0112 0994     		str	r4, [sp, #36]
 122:Core/Src/periphs/gpio.c ****   GPIO_InitStruct.Speed = GPIO_SPEED_FREQ_LOW;
 202              		.loc 1 122 0
 203 0114 0A94     		str	r4, [sp, #40]
 123:Core/Src/periphs/gpio.c ****   HAL_GPIO_Init(Hand_Pneumatic_GPIO_Port, &GPIO_InitStruct);
 204              		.loc 1 123 0
 205 0116 07A9     		add	r1, sp, #28
 206 0118 4046     		mov	r0, r8
 207 011a FFF7FEFF 		bl	HAL_GPIO_Init
 208              	.LVL7:
 124:Core/Src/periphs/gpio.c **** 
 125:Core/Src/periphs/gpio.c ****   /*Configure GPIO pin : PtPin */
 126:Core/Src/periphs/gpio.c ****   GPIO_InitStruct.Pin = ZONE_45_Pin;
 209              		.loc 1 126 0
 210 011e CDF81CB0 		str	fp, [sp, #28]
 127:Core/Src/periphs/gpio.c ****   GPIO_InitStruct.Mode = GPIO_MODE_INPUT;
 211              		.loc 1 127 0
 212 0122 0894     		str	r4, [sp, #32]
 128:Core/Src/periphs/gpio.c ****   GPIO_InitStruct.Pull = GPIO_PULLUP;
 213              		.loc 1 128 0
 214 0124 0995     		str	r5, [sp, #36]
 129:Core/Src/periphs/gpio.c ****   HAL_GPIO_Init(ZONE_45_GPIO_Port, &GPIO_InitStruct);
ARM GAS  C:\Users\Prashant\AppData\Local\Temp\ccyOLlJp.s 			page 7


 215              		.loc 1 129 0
 216 0126 07A9     		add	r1, sp, #28
 217 0128 5046     		mov	r0, r10
 218 012a FFF7FEFF 		bl	HAL_GPIO_Init
 219              	.LVL8:
 130:Core/Src/periphs/gpio.c **** 
 131:Core/Src/periphs/gpio.c ****   /*Configure GPIO pin : PtPin */
 132:Core/Src/periphs/gpio.c ****   GPIO_InitStruct.Pin = LEG1_IR_Pin;
 220              		.loc 1 132 0
 221 012e 4FF48043 		mov	r3, #16384
 222 0132 0793     		str	r3, [sp, #28]
 133:Core/Src/periphs/gpio.c ****   GPIO_InitStruct.Mode = GPIO_MODE_IT_RISING;
 223              		.loc 1 133 0
 224 0134 CDF82090 		str	r9, [sp, #32]
 134:Core/Src/periphs/gpio.c ****   GPIO_InitStruct.Pull = GPIO_PULLUP;
 225              		.loc 1 134 0
 226 0138 0995     		str	r5, [sp, #36]
 135:Core/Src/periphs/gpio.c ****   HAL_GPIO_Init(LEG1_IR_GPIO_Port, &GPIO_InitStruct);
 227              		.loc 1 135 0
 228 013a 07A9     		add	r1, sp, #28
 229 013c 5046     		mov	r0, r10
 230 013e FFF7FEFF 		bl	HAL_GPIO_Init
 231              	.LVL9:
 136:Core/Src/periphs/gpio.c **** 
 137:Core/Src/periphs/gpio.c ****   /*Configure GPIO pins : PBPin PBPin */
 138:Core/Src/periphs/gpio.c ****   GPIO_InitStruct.Pin = STEERING_IR_Pin|LEG0_IR_Pin;
 232              		.loc 1 138 0
 233 0142 4FF42043 		mov	r3, #40960
 234 0146 0793     		str	r3, [sp, #28]
 139:Core/Src/periphs/gpio.c ****   GPIO_InitStruct.Mode = GPIO_MODE_IT_RISING;
 235              		.loc 1 139 0
 236 0148 CDF82090 		str	r9, [sp, #32]
 140:Core/Src/periphs/gpio.c ****   GPIO_InitStruct.Pull = GPIO_PULLUP;
 237              		.loc 1 140 0
 238 014c 0995     		str	r5, [sp, #36]
 141:Core/Src/periphs/gpio.c ****   HAL_GPIO_Init(GPIOB, &GPIO_InitStruct);
 239              		.loc 1 141 0
 240 014e 07A9     		add	r1, sp, #28
 241 0150 2548     		ldr	r0, .L3+12
 242 0152 FFF7FEFF 		bl	HAL_GPIO_Init
 243              	.LVL10:
 142:Core/Src/periphs/gpio.c **** 
 143:Core/Src/periphs/gpio.c ****   /*Configure GPIO pins : PDPin PDPin PDPin PDPin 
 144:Core/Src/periphs/gpio.c ****                            PDPin */
 145:Core/Src/periphs/gpio.c ****   GPIO_InitStruct.Pin = Proximity_Back_Pin|GEREGE_SWITCH_Pin|Proximity_Up_Pin|Proximity_Front_Pin 
 244              		.loc 1 145 0
 245 0156 40F60873 		movw	r3, #3848
 246 015a 0793     		str	r3, [sp, #28]
 146:Core/Src/periphs/gpio.c ****                           |ZONE_MOUNTAIN_Pin;
 147:Core/Src/periphs/gpio.c ****   GPIO_InitStruct.Mode = GPIO_MODE_INPUT;
 247              		.loc 1 147 0
 248 015c 0894     		str	r4, [sp, #32]
 148:Core/Src/periphs/gpio.c ****   GPIO_InitStruct.Pull = GPIO_NOPULL;
 249              		.loc 1 148 0
 250 015e 0994     		str	r4, [sp, #36]
 149:Core/Src/periphs/gpio.c ****   HAL_GPIO_Init(GPIOD, &GPIO_InitStruct);
 251              		.loc 1 149 0
ARM GAS  C:\Users\Prashant\AppData\Local\Temp\ccyOLlJp.s 			page 8


 252 0160 07A9     		add	r1, sp, #28
 253 0162 3046     		mov	r0, r6
 254 0164 FFF7FEFF 		bl	HAL_GPIO_Init
 255              	.LVL11:
 150:Core/Src/periphs/gpio.c **** 
 151:Core/Src/periphs/gpio.c ****   /*Configure GPIO pins : PDPin PDPin PDPin PDPin */
 152:Core/Src/periphs/gpio.c ****   GPIO_InitStruct.Pin = GreenLED_Pin|OrangeLED_Pin|RedLED_Pin|BlueLED_Pin;
 256              		.loc 1 152 0
 257 0168 4FF47043 		mov	r3, #61440
 258 016c 0793     		str	r3, [sp, #28]
 153:Core/Src/periphs/gpio.c ****   GPIO_InitStruct.Mode = GPIO_MODE_OUTPUT_PP;
 259              		.loc 1 153 0
 260 016e 0895     		str	r5, [sp, #32]
 154:Core/Src/periphs/gpio.c ****   GPIO_InitStruct.Pull = GPIO_NOPULL;
 261              		.loc 1 154 0
 262 0170 0994     		str	r4, [sp, #36]
 155:Core/Src/periphs/gpio.c ****   GPIO_InitStruct.Speed = GPIO_SPEED_FREQ_LOW;
 263              		.loc 1 155 0
 264 0172 0A94     		str	r4, [sp, #40]
 156:Core/Src/periphs/gpio.c ****   HAL_GPIO_Init(GPIOD, &GPIO_InitStruct);
 265              		.loc 1 156 0
 266 0174 07A9     		add	r1, sp, #28
 267 0176 3046     		mov	r0, r6
 268 0178 FFF7FEFF 		bl	HAL_GPIO_Init
 269              	.LVL12:
 157:Core/Src/periphs/gpio.c **** 
 158:Core/Src/periphs/gpio.c ****   /*Configure GPIO pins : PAPin PAPin PAPin */
 159:Core/Src/periphs/gpio.c ****   GPIO_InitStruct.Pin = MOTOR0_IN1_Pin|MOTOR0_IN2_Pin|MOTOR1_IN2_Pin;
 270              		.loc 1 159 0
 271 017c 4FF40543 		mov	r3, #34048
 272 0180 0793     		str	r3, [sp, #28]
 160:Core/Src/periphs/gpio.c ****   GPIO_InitStruct.Mode = GPIO_MODE_OUTPUT_PP;
 273              		.loc 1 160 0
 274 0182 0895     		str	r5, [sp, #32]
 161:Core/Src/periphs/gpio.c ****   GPIO_InitStruct.Pull = GPIO_NOPULL;
 275              		.loc 1 161 0
 276 0184 0994     		str	r4, [sp, #36]
 162:Core/Src/periphs/gpio.c ****   GPIO_InitStruct.Speed = GPIO_SPEED_FREQ_MEDIUM;
 277              		.loc 1 162 0
 278 0186 0A95     		str	r5, [sp, #40]
 163:Core/Src/periphs/gpio.c ****   HAL_GPIO_Init(GPIOA, &GPIO_InitStruct);
 279              		.loc 1 163 0
 280 0188 07A9     		add	r1, sp, #28
 281 018a 4046     		mov	r0, r8
 282 018c FFF7FEFF 		bl	HAL_GPIO_Init
 283              	.LVL13:
 164:Core/Src/periphs/gpio.c **** 
 165:Core/Src/periphs/gpio.c ****   /*Configure GPIO pin : PtPin */
 166:Core/Src/periphs/gpio.c ****   GPIO_InitStruct.Pin = MOTOR1_IN1_Pin;
 284              		.loc 1 166 0
 285 0190 4FF40063 		mov	r3, #2048
 286 0194 0793     		str	r3, [sp, #28]
 167:Core/Src/periphs/gpio.c ****   GPIO_InitStruct.Mode = GPIO_MODE_OUTPUT_PP;
 287              		.loc 1 167 0
 288 0196 0895     		str	r5, [sp, #32]
 168:Core/Src/periphs/gpio.c ****   GPIO_InitStruct.Pull = GPIO_NOPULL;
 289              		.loc 1 168 0
ARM GAS  C:\Users\Prashant\AppData\Local\Temp\ccyOLlJp.s 			page 9


 290 0198 0994     		str	r4, [sp, #36]
 169:Core/Src/periphs/gpio.c ****   GPIO_InitStruct.Speed = GPIO_SPEED_FREQ_MEDIUM;
 291              		.loc 1 169 0
 292 019a 0A95     		str	r5, [sp, #40]
 170:Core/Src/periphs/gpio.c ****   HAL_GPIO_Init(MOTOR1_IN1_GPIO_Port, &GPIO_InitStruct);
 293              		.loc 1 170 0
 294 019c 07A9     		add	r1, sp, #28
 295 019e 3846     		mov	r0, r7
 296 01a0 FFF7FEFF 		bl	HAL_GPIO_Init
 297              	.LVL14:
 171:Core/Src/periphs/gpio.c **** 
 172:Core/Src/periphs/gpio.c ****   /*Configure GPIO pins : PDPin PDPin */
 173:Core/Src/periphs/gpio.c ****   GPIO_InitStruct.Pin = MOTOR2_IN2_Pin|MOTOR2_IN1_Pin;
 298              		.loc 1 173 0
 299 01a4 0527     		movs	r7, #5
 300 01a6 0797     		str	r7, [sp, #28]
 174:Core/Src/periphs/gpio.c ****   GPIO_InitStruct.Mode = GPIO_MODE_OUTPUT_PP;
 301              		.loc 1 174 0
 302 01a8 0895     		str	r5, [sp, #32]
 175:Core/Src/periphs/gpio.c ****   GPIO_InitStruct.Pull = GPIO_NOPULL;
 303              		.loc 1 175 0
 304 01aa 0994     		str	r4, [sp, #36]
 176:Core/Src/periphs/gpio.c ****   GPIO_InitStruct.Speed = GPIO_SPEED_FREQ_MEDIUM;
 305              		.loc 1 176 0
 306 01ac 0A95     		str	r5, [sp, #40]
 177:Core/Src/periphs/gpio.c ****   HAL_GPIO_Init(GPIOD, &GPIO_InitStruct);
 307              		.loc 1 177 0
 308 01ae 07A9     		add	r1, sp, #28
 309 01b0 3046     		mov	r0, r6
 310 01b2 FFF7FEFF 		bl	HAL_GPIO_Init
 311              	.LVL15:
 178:Core/Src/periphs/gpio.c **** 
 179:Core/Src/periphs/gpio.c ****   /* EXTI interrupt init*/
 180:Core/Src/periphs/gpio.c ****   HAL_NVIC_SetPriority(EXTI0_IRQn, 5, 0);
 312              		.loc 1 180 0
 313 01b6 2246     		mov	r2, r4
 314 01b8 3946     		mov	r1, r7
 315 01ba 0620     		movs	r0, #6
 316 01bc FFF7FEFF 		bl	HAL_NVIC_SetPriority
 317              	.LVL16:
 181:Core/Src/periphs/gpio.c ****   HAL_NVIC_EnableIRQ(EXTI0_IRQn);
 318              		.loc 1 181 0
 319 01c0 0620     		movs	r0, #6
 320 01c2 FFF7FEFF 		bl	HAL_NVIC_EnableIRQ
 321              	.LVL17:
 182:Core/Src/periphs/gpio.c **** 
 183:Core/Src/periphs/gpio.c ****   HAL_NVIC_SetPriority(EXTI15_10_IRQn, 5, 0);
 322              		.loc 1 183 0
 323 01c6 2246     		mov	r2, r4
 324 01c8 3946     		mov	r1, r7
 325 01ca 2820     		movs	r0, #40
 326 01cc FFF7FEFF 		bl	HAL_NVIC_SetPriority
 327              	.LVL18:
 184:Core/Src/periphs/gpio.c ****   HAL_NVIC_EnableIRQ(EXTI15_10_IRQn);
 328              		.loc 1 184 0
 329 01d0 2820     		movs	r0, #40
 330 01d2 FFF7FEFF 		bl	HAL_NVIC_EnableIRQ
ARM GAS  C:\Users\Prashant\AppData\Local\Temp\ccyOLlJp.s 			page 10


 331              	.LVL19:
 185:Core/Src/periphs/gpio.c **** 
 186:Core/Src/periphs/gpio.c **** }
 332              		.loc 1 186 0
 333 01d6 0DB0     		add	sp, sp, #52
 334              	.LCFI2:
 335              		.cfi_def_cfa_offset 36
 336              		@ sp needed
 337 01d8 BDE8F08F 		pop	{r4, r5, r6, r7, r8, r9, r10, fp, pc}
 338              	.L4:
 339              		.align	2
 340              	.L3:
 341 01dc 00380240 		.word	1073887232
 342 01e0 00080240 		.word	1073874944
 343 01e4 000C0240 		.word	1073875968
 344 01e8 00040240 		.word	1073873920
 345 01ec 00000240 		.word	1073872896
 346 01f0 00100240 		.word	1073876992
 347 01f4 00001110 		.word	269549568
 348              		.cfi_endproc
 349              	.LFE126:
 351              		.text
 352              	.Letext0:
 353              		.file 2 "c:\\program files (x86)\\gnu tools arm embedded\\7 2017-q4-major\\arm-none-eabi\\include\
 354              		.file 3 "c:\\program files (x86)\\gnu tools arm embedded\\7 2017-q4-major\\arm-none-eabi\\include\
 355              		.file 4 "Drivers/CMSIS/Include/core_cm4.h"
 356              		.file 5 "Drivers/CMSIS/Device/ST/STM32F4xx/Include/system_stm32f4xx.h"
 357              		.file 6 "Drivers/CMSIS/Device/ST/STM32F4xx/Include/stm32f407xx.h"
 358              		.file 7 "c:\\program files (x86)\\gnu tools arm embedded\\7 2017-q4-major\\arm-none-eabi\\include\
 359              		.file 8 "c:\\program files (x86)\\gnu tools arm embedded\\7 2017-q4-major\\arm-none-eabi\\include\
 360              		.file 9 "c:\\program files (x86)\\gnu tools arm embedded\\7 2017-q4-major\\lib\\gcc\\arm-none-eabi
 361              		.file 10 "c:\\program files (x86)\\gnu tools arm embedded\\7 2017-q4-major\\arm-none-eabi\\include
 362              		.file 11 "Drivers/STM32F4xx_HAL_Driver/Inc/stm32f4xx_hal_gpio.h"
 363              		.file 12 "Drivers/STM32F4xx_HAL_Driver/Inc/stm32f4xx_hal_cortex.h"
ARM GAS  C:\Users\Prashant\AppData\Local\Temp\ccyOLlJp.s 			page 11

