ARM GAS  C:\Users\Prashant\AppData\Local\Temp\ccEY5C3W.s 			page 1


   1              		.cpu cortex-m4
   2              		.eabi_attribute 27, 1
   3              		.eabi_attribute 28, 1
   4              		.eabi_attribute 20, 1
   5              		.eabi_attribute 21, 1
   6              		.eabi_attribute 23, 3
   7              		.eabi_attribute 24, 1
   8              		.eabi_attribute 25, 1
   9              		.eabi_attribute 26, 1
  10              		.eabi_attribute 30, 1
  11              		.eabi_attribute 34, 1
  12              		.eabi_attribute 18, 4
  13              		.file	"mat.cpp"
  14              		.text
  15              	.Ltext0:
  16              		.cfi_sections	.debug_frame
  17              		.section	.text._ZN3MatC2Ehh,"ax",%progbits
  18              		.align	1
  19              		.global	_ZN3MatC2Ehh
  20              		.syntax unified
  21              		.thumb
  22              		.thumb_func
  23              		.fpu fpv4-sp-d16
  25              	_ZN3MatC2Ehh:
  26              	.LFB398:
  27              		.file 1 "Core/Src/utils/mat.cpp"
   1:Core/Src/utils/mat.cpp **** /*
   2:Core/Src/utils/mat.cpp ****  * mat.h
   3:Core/Src/utils/mat.cpp ****  * 
   4:Core/Src/utils/mat.cpp ****  * Created : 12/31/2018
   5:Core/Src/utils/mat.cpp ****  *  Author : n-is
   6:Core/Src/utils/mat.cpp ****  *   email : 073bex422.nischal@pcampus.edu.np
   7:Core/Src/utils/mat.cpp ****  */
   8:Core/Src/utils/mat.cpp **** 
   9:Core/Src/utils/mat.cpp **** #include "mat.h"
  10:Core/Src/utils/mat.cpp **** 
  11:Core/Src/utils/mat.cpp **** 
  12:Core/Src/utils/mat.cpp **** Mat::Mat(uint8_t rows, uint8_t columns)
  28              		.loc 1 12 0
  29              		.cfi_startproc
  30              		@ args = 0, pretend = 0, frame = 0
  31              		@ frame_needed = 0, uses_anonymous_args = 0
  32              	.LVL0:
  33 0000 70B5     		push	{r4, r5, r6, lr}
  34              	.LCFI0:
  35              		.cfi_def_cfa_offset 16
  36              		.cfi_offset 4, -16
  37              		.cfi_offset 5, -12
  38              		.cfi_offset 6, -8
  39              		.cfi_offset 14, -4
  40 0002 0446     		mov	r4, r0
  41 0004 0D46     		mov	r5, r1
  42 0006 1646     		mov	r6, r2
  43              	.LBB113:
  13:Core/Src/utils/mat.cpp **** {
  14:Core/Src/utils/mat.cpp ****         if (rows > MAX_MATRIX_ROWS || columns > MAX_MATRIX_COLS) {
  44              		.loc 1 14 0
ARM GAS  C:\Users\Prashant\AppData\Local\Temp\ccEY5C3W.s 			page 2


  45 0008 0429     		cmp	r1, #4
  46 000a 01D8     		bhi	.L2
  47              		.loc 1 14 0 is_stmt 0 discriminator 1
  48 000c 042A     		cmp	r2, #4
  49 000e 03D9     		bls	.L3
  50              	.L2:
  15:Core/Src/utils/mat.cpp ****                 _Error_Handler(__FILE__, __LINE__);
  51              		.loc 1 15 0 is_stmt 1
  52 0010 0F21     		movs	r1, #15
  53              	.LVL1:
  54 0012 0D48     		ldr	r0, .L9
  55              	.LVL2:
  56 0014 FFF7FEFF 		bl	_Error_Handler
  57              	.LVL3:
  58              	.L3:
  16:Core/Src/utils/mat.cpp ****         }
  17:Core/Src/utils/mat.cpp ****         rows_ = rows;
  59              		.loc 1 17 0
  60 0018 84F84050 		strb	r5, [r4, #64]
  18:Core/Src/utils/mat.cpp ****         cols_ = columns;
  61              		.loc 1 18 0
  62 001c 84F84160 		strb	r6, [r4, #65]
  63              	.LVL4:
  64              	.LBB114:
  19:Core/Src/utils/mat.cpp ****         
  20:Core/Src/utils/mat.cpp ****         for (uint8_t i = 0; i < MAX_MATRIX_ROWS; ++i) {
  65              		.loc 1 20 0
  66 0020 0021     		movs	r1, #0
  67 0022 01E0     		b	.L7
  68              	.LVL5:
  69              	.L5:
  70              		.loc 1 20 0 is_stmt 0 discriminator 2
  71 0024 0131     		adds	r1, r1, #1
  72              	.LVL6:
  73 0026 C9B2     		uxtb	r1, r1
  74              	.LVL7:
  75              	.L7:
  76              		.loc 1 20 0 discriminator 1
  77 0028 0329     		cmp	r1, #3
  78 002a 0BD8     		bhi	.L4
  79              	.LBB115:
  21:Core/Src/utils/mat.cpp ****                 for (uint8_t j = 0; j < MAX_MATRIX_COLS; ++j) {
  80              		.loc 1 21 0 is_stmt 1
  81 002c 0023     		movs	r3, #0
  82              	.L6:
  83              	.LVL8:
  84              		.loc 1 21 0 is_stmt 0 discriminator 3
  85 002e 032B     		cmp	r3, #3
  86 0030 F8D8     		bhi	.L5
  22:Core/Src/utils/mat.cpp ****                         matrix_[i][j] = 0;
  87              		.loc 1 22 0 is_stmt 1 discriminator 2
  88 0032 03EB8102 		add	r2, r3, r1, lsl #2
  89 0036 04EB8202 		add	r2, r4, r2, lsl #2
  90 003a 0020     		movs	r0, #0
  91 003c 1060     		str	r0, [r2]	@ float
  21:Core/Src/utils/mat.cpp ****                 for (uint8_t j = 0; j < MAX_MATRIX_COLS; ++j) {
  92              		.loc 1 21 0 discriminator 2
ARM GAS  C:\Users\Prashant\AppData\Local\Temp\ccEY5C3W.s 			page 3


  93 003e 0133     		adds	r3, r3, #1
  94              	.LVL9:
  95 0040 DBB2     		uxtb	r3, r3
  96              	.LVL10:
  97 0042 F4E7     		b	.L6
  98              	.LVL11:
  99              	.L4:
 100              	.LBE115:
 101              	.LBE114:
 102              	.LBE113:
  23:Core/Src/utils/mat.cpp ****                 }
  24:Core/Src/utils/mat.cpp ****         }
  25:Core/Src/utils/mat.cpp **** }
 103              		.loc 1 25 0
 104 0044 2046     		mov	r0, r4
 105 0046 70BD     		pop	{r4, r5, r6, pc}
 106              	.LVL12:
 107              	.L10:
 108              		.align	2
 109              	.L9:
 110 0048 00000000 		.word	.LC0
 111              		.cfi_endproc
 112              	.LFE398:
 114              		.global	_ZN3MatC1Ehh
 115              		.thumb_set _ZN3MatC1Ehh,_ZN3MatC2Ehh
 116              		.section	.text._ZN3MatC2ERKS_,"ax",%progbits
 117              		.align	1
 118              		.global	_ZN3MatC2ERKS_
 119              		.syntax unified
 120              		.thumb
 121              		.thumb_func
 122              		.fpu fpv4-sp-d16
 124              	_ZN3MatC2ERKS_:
 125              	.LFB401:
  26:Core/Src/utils/mat.cpp **** 
  27:Core/Src/utils/mat.cpp **** Mat::Mat(const Mat &m) {
 126              		.loc 1 27 0
 127              		.cfi_startproc
 128              		@ args = 0, pretend = 0, frame = 0
 129              		@ frame_needed = 0, uses_anonymous_args = 0
 130              		@ link register save eliminated.
 131              	.LVL13:
 132 0000 30B4     		push	{r4, r5}
 133              	.LCFI1:
 134              		.cfi_def_cfa_offset 8
 135              		.cfi_offset 4, -8
 136              		.cfi_offset 5, -4
 137              	.LBB116:
  28:Core/Src/utils/mat.cpp ****         rows_ = m.rows_;
 138              		.loc 1 28 0
 139 0002 91F84030 		ldrb	r3, [r1, #64]	@ zero_extendqisi2
 140 0006 80F84030 		strb	r3, [r0, #64]
  29:Core/Src/utils/mat.cpp ****         cols_ = m.cols_;
 141              		.loc 1 29 0
 142 000a 91F84130 		ldrb	r3, [r1, #65]	@ zero_extendqisi2
 143 000e 80F84130 		strb	r3, [r0, #65]
 144              	.LVL14:
ARM GAS  C:\Users\Prashant\AppData\Local\Temp\ccEY5C3W.s 			page 4


 145              	.LBB117:
  30:Core/Src/utils/mat.cpp ****         
  31:Core/Src/utils/mat.cpp ****         for (uint8_t i = 0; i < MAX_MATRIX_ROWS; ++i) {
 146              		.loc 1 31 0
 147 0012 0024     		movs	r4, #0
 148 0014 01E0     		b	.L15
 149              	.LVL15:
 150              	.L13:
 151              		.loc 1 31 0 is_stmt 0 discriminator 2
 152 0016 0134     		adds	r4, r4, #1
 153              	.LVL16:
 154 0018 E4B2     		uxtb	r4, r4
 155              	.LVL17:
 156              	.L15:
 157              		.loc 1 31 0 discriminator 1
 158 001a 032C     		cmp	r4, #3
 159 001c 0CD8     		bhi	.L12
 160              	.LBB118:
  32:Core/Src/utils/mat.cpp ****                 for (uint8_t j = 0; j < MAX_MATRIX_COLS; ++j) {
 161              		.loc 1 32 0 is_stmt 1
 162 001e 0022     		movs	r2, #0
 163              	.L14:
 164              	.LVL18:
 165              		.loc 1 32 0 is_stmt 0 discriminator 3
 166 0020 032A     		cmp	r2, #3
 167 0022 F8D8     		bhi	.L13
  33:Core/Src/utils/mat.cpp ****                         matrix_[i][j] = m.matrix_[i][j];
 168              		.loc 1 33 0 is_stmt 1 discriminator 2
 169 0024 02EB8403 		add	r3, r2, r4, lsl #2
 170 0028 9B00     		lsls	r3, r3, #2
 171 002a CD18     		adds	r5, r1, r3
 172 002c 2D68     		ldr	r5, [r5]	@ float
 173 002e 0344     		add	r3, r3, r0
 174 0030 1D60     		str	r5, [r3]	@ float
  32:Core/Src/utils/mat.cpp ****                 for (uint8_t j = 0; j < MAX_MATRIX_COLS; ++j) {
 175              		.loc 1 32 0 discriminator 2
 176 0032 0132     		adds	r2, r2, #1
 177              	.LVL19:
 178 0034 D2B2     		uxtb	r2, r2
 179              	.LVL20:
 180 0036 F3E7     		b	.L14
 181              	.LVL21:
 182              	.L12:
 183              	.LBE118:
 184              	.LBE117:
 185              	.LBE116:
  34:Core/Src/utils/mat.cpp ****                 }
  35:Core/Src/utils/mat.cpp ****         }
  36:Core/Src/utils/mat.cpp **** }
 186              		.loc 1 36 0
 187 0038 30BC     		pop	{r4, r5}
 188              	.LCFI2:
 189              		.cfi_restore 5
 190              		.cfi_restore 4
 191              		.cfi_def_cfa_offset 0
 192              	.LVL22:
 193 003a 7047     		bx	lr
ARM GAS  C:\Users\Prashant\AppData\Local\Temp\ccEY5C3W.s 			page 5


 194              		.cfi_endproc
 195              	.LFE401:
 197              		.global	_ZN3MatC1ERKS_
 198              		.thumb_set _ZN3MatC1ERKS_,_ZN3MatC2ERKS_
 199              		.section	.text._ZN3MatpLERKS_,"ax",%progbits
 200              		.align	1
 201              		.global	_ZN3MatpLERKS_
 202              		.syntax unified
 203              		.thumb
 204              		.thumb_func
 205              		.fpu fpv4-sp-d16
 207              	_ZN3MatpLERKS_:
 208              	.LFB404:
  37:Core/Src/utils/mat.cpp **** 
  38:Core/Src/utils/mat.cpp **** void swap(Mat &first, Mat &second)
  39:Core/Src/utils/mat.cpp **** {
  40:Core/Src/utils/mat.cpp ****         swap_Element(first.rows_, second.rows_);
  41:Core/Src/utils/mat.cpp ****         swap_Element(first.cols_, second.cols_);
  42:Core/Src/utils/mat.cpp ****         for (uint8_t i = 0; i < MAX_MATRIX_ROWS; ++i) {
  43:Core/Src/utils/mat.cpp ****                 for (uint8_t j = 0; j < MAX_MATRIX_COLS; ++j) {
  44:Core/Src/utils/mat.cpp ****                         swap_Element(first.matrix_[i][j], second.matrix_[i][j]);
  45:Core/Src/utils/mat.cpp ****                 }
  46:Core/Src/utils/mat.cpp ****         }
  47:Core/Src/utils/mat.cpp **** }
  48:Core/Src/utils/mat.cpp **** 
  49:Core/Src/utils/mat.cpp **** Mat& Mat::operator+=(const Mat &rhs)
  50:Core/Src/utils/mat.cpp **** {
 209              		.loc 1 50 0
 210              		.cfi_startproc
 211              		@ args = 0, pretend = 0, frame = 0
 212              		@ frame_needed = 0, uses_anonymous_args = 0
 213              	.LVL23:
 214 0000 38B5     		push	{r3, r4, r5, lr}
 215              	.LCFI3:
 216              		.cfi_def_cfa_offset 16
 217              		.cfi_offset 3, -16
 218              		.cfi_offset 4, -12
 219              		.cfi_offset 5, -8
 220              		.cfi_offset 14, -4
 221 0002 0446     		mov	r4, r0
 222 0004 0D46     		mov	r5, r1
  51:Core/Src/utils/mat.cpp ****         if (rhs.rows_ != rows_ || rhs.cols_ != cols_) {
 223              		.loc 1 51 0
 224 0006 B1F84020 		ldrh	r2, [r1, #64]
 225 000a B0F84030 		ldrh	r3, [r0, #64]
 226 000e 9A42     		cmp	r2, r3
 227 0010 01D1     		bne	.L24
 228              	.LVL24:
 229              	.L18:
  50:Core/Src/utils/mat.cpp ****         if (rhs.rows_ != rows_ || rhs.cols_ != cols_) {
 230              		.loc 1 50 0 discriminator 1
 231 0012 0020     		movs	r0, #0
 232 0014 06E0     		b	.L22
 233              	.LVL25:
 234              	.L24:
  52:Core/Src/utils/mat.cpp ****                 _Error_Handler(__FILE__, __LINE__);
 235              		.loc 1 52 0
ARM GAS  C:\Users\Prashant\AppData\Local\Temp\ccEY5C3W.s 			page 6


 236 0016 3421     		movs	r1, #52
 237              	.LVL26:
 238 0018 1048     		ldr	r0, .L25
 239              	.LVL27:
 240 001a FFF7FEFF 		bl	_Error_Handler
 241              	.LVL28:
 242 001e F8E7     		b	.L18
 243              	.LVL29:
 244              	.L20:
 245              	.LBB119:
  53:Core/Src/utils/mat.cpp ****         }
  54:Core/Src/utils/mat.cpp **** 
  55:Core/Src/utils/mat.cpp ****         for (uint8_t i = 0; i < rows_; ++i) {
 246              		.loc 1 55 0 discriminator 2
 247 0020 0130     		adds	r0, r0, #1
 248              	.LVL30:
 249 0022 C0B2     		uxtb	r0, r0
 250              	.LVL31:
 251              	.L22:
 252              		.loc 1 55 0 is_stmt 0 discriminator 1
 253 0024 94F84030 		ldrb	r3, [r4, #64]	@ zero_extendqisi2
 254 0028 8342     		cmp	r3, r0
 255 002a 14D9     		bls	.L19
 256              	.LBB120:
  56:Core/Src/utils/mat.cpp ****                 for (uint8_t j = 0; j < cols_; ++j) {
 257              		.loc 1 56 0 is_stmt 1
 258 002c 0022     		movs	r2, #0
 259              	.L21:
 260              	.LVL32:
 261              		.loc 1 56 0 is_stmt 0 discriminator 3
 262 002e 94F84130 		ldrb	r3, [r4, #65]	@ zero_extendqisi2
 263 0032 9342     		cmp	r3, r2
 264 0034 F4D9     		bls	.L20
  57:Core/Src/utils/mat.cpp ****                         matrix_[i][j] += rhs.matrix_[i][j];
 265              		.loc 1 57 0 is_stmt 1 discriminator 2
 266 0036 02EB8003 		add	r3, r2, r0, lsl #2
 267 003a 9B00     		lsls	r3, r3, #2
 268 003c E918     		adds	r1, r5, r3
 269 003e 91ED007A 		vldr.32	s14, [r1]
 270 0042 2344     		add	r3, r3, r4
 271 0044 D3ED007A 		vldr.32	s15, [r3]
 272 0048 77EE877A 		vadd.f32	s15, s15, s14
 273 004c C3ED007A 		vstr.32	s15, [r3]
  56:Core/Src/utils/mat.cpp ****                 for (uint8_t j = 0; j < cols_; ++j) {
 274              		.loc 1 56 0 discriminator 2
 275 0050 0132     		adds	r2, r2, #1
 276              	.LVL33:
 277 0052 D2B2     		uxtb	r2, r2
 278              	.LVL34:
 279 0054 EBE7     		b	.L21
 280              	.LVL35:
 281              	.L19:
 282              	.LBE120:
 283              	.LBE119:
  58:Core/Src/utils/mat.cpp ****                 }
  59:Core/Src/utils/mat.cpp ****         }
  60:Core/Src/utils/mat.cpp **** 
ARM GAS  C:\Users\Prashant\AppData\Local\Temp\ccEY5C3W.s 			page 7


  61:Core/Src/utils/mat.cpp ****         return *this;
  62:Core/Src/utils/mat.cpp **** }
 284              		.loc 1 62 0
 285 0056 2046     		mov	r0, r4
 286              	.LVL36:
 287 0058 38BD     		pop	{r3, r4, r5, pc}
 288              	.LVL37:
 289              	.L26:
 290 005a 00BF     		.align	2
 291              	.L25:
 292 005c 00000000 		.word	.LC0
 293              		.cfi_endproc
 294              	.LFE404:
 296              		.section	.text._ZN3MatmIERKS_,"ax",%progbits
 297              		.align	1
 298              		.global	_ZN3MatmIERKS_
 299              		.syntax unified
 300              		.thumb
 301              		.thumb_func
 302              		.fpu fpv4-sp-d16
 304              	_ZN3MatmIERKS_:
 305              	.LFB405:
  63:Core/Src/utils/mat.cpp **** 
  64:Core/Src/utils/mat.cpp **** Mat& Mat::operator-=(const Mat &rhs)
  65:Core/Src/utils/mat.cpp **** {
 306              		.loc 1 65 0
 307              		.cfi_startproc
 308              		@ args = 0, pretend = 0, frame = 0
 309              		@ frame_needed = 0, uses_anonymous_args = 0
 310              	.LVL38:
 311 0000 38B5     		push	{r3, r4, r5, lr}
 312              	.LCFI4:
 313              		.cfi_def_cfa_offset 16
 314              		.cfi_offset 3, -16
 315              		.cfi_offset 4, -12
 316              		.cfi_offset 5, -8
 317              		.cfi_offset 14, -4
 318 0002 0446     		mov	r4, r0
 319 0004 0D46     		mov	r5, r1
  66:Core/Src/utils/mat.cpp ****         if (rhs.rows_ != rows_ || rhs.cols_ != cols_) {
 320              		.loc 1 66 0
 321 0006 B1F84020 		ldrh	r2, [r1, #64]
 322 000a B0F84030 		ldrh	r3, [r0, #64]
 323 000e 9A42     		cmp	r2, r3
 324 0010 01D1     		bne	.L34
 325              	.LVL39:
 326              	.L28:
  65:Core/Src/utils/mat.cpp ****         if (rhs.rows_ != rows_ || rhs.cols_ != cols_) {
 327              		.loc 1 65 0 discriminator 1
 328 0012 0020     		movs	r0, #0
 329 0014 06E0     		b	.L32
 330              	.LVL40:
 331              	.L34:
  67:Core/Src/utils/mat.cpp ****                 _Error_Handler(__FILE__, __LINE__);
 332              		.loc 1 67 0
 333 0016 4321     		movs	r1, #67
 334              	.LVL41:
ARM GAS  C:\Users\Prashant\AppData\Local\Temp\ccEY5C3W.s 			page 8


 335 0018 1048     		ldr	r0, .L35
 336              	.LVL42:
 337 001a FFF7FEFF 		bl	_Error_Handler
 338              	.LVL43:
 339 001e F8E7     		b	.L28
 340              	.LVL44:
 341              	.L30:
 342              	.LBB121:
  68:Core/Src/utils/mat.cpp ****         }
  69:Core/Src/utils/mat.cpp **** 
  70:Core/Src/utils/mat.cpp ****         for (uint8_t i = 0; i < rows_; ++i) {
 343              		.loc 1 70 0 discriminator 2
 344 0020 0130     		adds	r0, r0, #1
 345              	.LVL45:
 346 0022 C0B2     		uxtb	r0, r0
 347              	.LVL46:
 348              	.L32:
 349              		.loc 1 70 0 is_stmt 0 discriminator 1
 350 0024 94F84030 		ldrb	r3, [r4, #64]	@ zero_extendqisi2
 351 0028 8342     		cmp	r3, r0
 352 002a 14D9     		bls	.L29
 353              	.LBB122:
  71:Core/Src/utils/mat.cpp ****                 for (uint8_t j = 0; j < cols_; ++j) {
 354              		.loc 1 71 0 is_stmt 1
 355 002c 0022     		movs	r2, #0
 356              	.L31:
 357              	.LVL47:
 358              		.loc 1 71 0 is_stmt 0 discriminator 3
 359 002e 94F84130 		ldrb	r3, [r4, #65]	@ zero_extendqisi2
 360 0032 9342     		cmp	r3, r2
 361 0034 F4D9     		bls	.L30
  72:Core/Src/utils/mat.cpp ****                         matrix_[i][j] -= rhs.matrix_[i][j];
 362              		.loc 1 72 0 is_stmt 1 discriminator 2
 363 0036 02EB8003 		add	r3, r2, r0, lsl #2
 364 003a 9B00     		lsls	r3, r3, #2
 365 003c E918     		adds	r1, r5, r3
 366 003e 91ED007A 		vldr.32	s14, [r1]
 367 0042 2344     		add	r3, r3, r4
 368 0044 D3ED007A 		vldr.32	s15, [r3]
 369 0048 77EEC77A 		vsub.f32	s15, s15, s14
 370 004c C3ED007A 		vstr.32	s15, [r3]
  71:Core/Src/utils/mat.cpp ****                 for (uint8_t j = 0; j < cols_; ++j) {
 371              		.loc 1 71 0 discriminator 2
 372 0050 0132     		adds	r2, r2, #1
 373              	.LVL48:
 374 0052 D2B2     		uxtb	r2, r2
 375              	.LVL49:
 376 0054 EBE7     		b	.L31
 377              	.LVL50:
 378              	.L29:
 379              	.LBE122:
 380              	.LBE121:
  73:Core/Src/utils/mat.cpp ****                 }
  74:Core/Src/utils/mat.cpp ****         }
  75:Core/Src/utils/mat.cpp **** 
  76:Core/Src/utils/mat.cpp ****         return *this;
  77:Core/Src/utils/mat.cpp **** }
ARM GAS  C:\Users\Prashant\AppData\Local\Temp\ccEY5C3W.s 			page 9


 381              		.loc 1 77 0
 382 0056 2046     		mov	r0, r4
 383              	.LVL51:
 384 0058 38BD     		pop	{r3, r4, r5, pc}
 385              	.LVL52:
 386              	.L36:
 387 005a 00BF     		.align	2
 388              	.L35:
 389 005c 00000000 		.word	.LC0
 390              		.cfi_endproc
 391              	.LFE405:
 393              		.section	.text._ZN3Mat4multERKS_,"ax",%progbits
 394              		.align	1
 395              		.global	_ZN3Mat4multERKS_
 396              		.syntax unified
 397              		.thumb
 398              		.thumb_func
 399              		.fpu fpv4-sp-d16
 401              	_ZN3Mat4multERKS_:
 402              	.LFB408:
  78:Core/Src/utils/mat.cpp **** 
  79:Core/Src/utils/mat.cpp **** Mat& Mat::operator*=(const Mat &rhs)
  80:Core/Src/utils/mat.cpp **** {
  81:Core/Src/utils/mat.cpp ****         *this = mult(rhs);
  82:Core/Src/utils/mat.cpp ****         return *this;
  83:Core/Src/utils/mat.cpp **** }
  84:Core/Src/utils/mat.cpp **** 
  85:Core/Src/utils/mat.cpp **** Mat& Mat::operator*=(const Vec3<float> &rhs)
  86:Core/Src/utils/mat.cpp **** {
  87:Core/Src/utils/mat.cpp ****         Mat vec(3,1);
  88:Core/Src/utils/mat.cpp ****         vec.at(0,0) = rhs.getX();
  89:Core/Src/utils/mat.cpp ****         vec.at(1,0) = rhs.getY();
  90:Core/Src/utils/mat.cpp ****         vec.at(2,0) = rhs.getZ();
  91:Core/Src/utils/mat.cpp **** 
  92:Core/Src/utils/mat.cpp ****         *this = mult(vec);
  93:Core/Src/utils/mat.cpp ****         return *this;
  94:Core/Src/utils/mat.cpp **** }
  95:Core/Src/utils/mat.cpp **** 
  96:Core/Src/utils/mat.cpp **** Mat Mat::mult(const Mat &m)
  97:Core/Src/utils/mat.cpp **** {
 403              		.loc 1 97 0
 404              		.cfi_startproc
 405              		@ args = 0, pretend = 0, frame = 0
 406              		@ frame_needed = 0, uses_anonymous_args = 0
 407              	.LVL53:
 408 0000 70B5     		push	{r4, r5, r6, lr}
 409              	.LCFI5:
 410              		.cfi_def_cfa_offset 16
 411              		.cfi_offset 4, -16
 412              		.cfi_offset 5, -12
 413              		.cfi_offset 6, -8
 414              		.cfi_offset 14, -4
 415 0002 0646     		mov	r6, r0
 416 0004 0C46     		mov	r4, r1
 417 0006 1546     		mov	r5, r2
  98:Core/Src/utils/mat.cpp ****         if (cols_ != m.rows_) {
 418              		.loc 1 98 0
ARM GAS  C:\Users\Prashant\AppData\Local\Temp\ccEY5C3W.s 			page 10


 419 0008 91F84120 		ldrb	r2, [r1, #65]	@ zero_extendqisi2
 420              	.LVL54:
 421 000c 95F84030 		ldrb	r3, [r5, #64]	@ zero_extendqisi2
 422 0010 9A42     		cmp	r2, r3
 423 0012 08D1     		bne	.L46
 424              	.LVL55:
 425              	.L38:
  99:Core/Src/utils/mat.cpp ****                 _Error_Handler(__FILE__, __LINE__);
 100:Core/Src/utils/mat.cpp ****         }
 101:Core/Src/utils/mat.cpp **** 
 102:Core/Src/utils/mat.cpp ****         Mat product(rows_, m.cols_);
 426              		.loc 1 102 0
 427 0014 95F84120 		ldrb	r2, [r5, #65]	@ zero_extendqisi2
 428 0018 94F84010 		ldrb	r1, [r4, #64]	@ zero_extendqisi2
 429 001c 3046     		mov	r0, r6
 430 001e FFF7FEFF 		bl	_ZN3MatC1Ehh
 431              	.LVL56:
 432              	.LBB123:
 103:Core/Src/utils/mat.cpp ****         float sum;
 104:Core/Src/utils/mat.cpp ****         for (uint8_t i = 0; i < rows_; ++i) {
 433              		.loc 1 104 0
 434 0022 0020     		movs	r0, #0
 435 0024 2CE0     		b	.L44
 436              	.LVL57:
 437              	.L46:
 438              	.LBE123:
  99:Core/Src/utils/mat.cpp ****                 _Error_Handler(__FILE__, __LINE__);
 439              		.loc 1 99 0
 440 0026 6321     		movs	r1, #99
 441              	.LVL58:
 442 0028 1948     		ldr	r0, .L47
 443              	.LVL59:
 444 002a FFF7FEFF 		bl	_Error_Handler
 445              	.LVL60:
 446 002e F1E7     		b	.L38
 447              	.LVL61:
 448              	.L41:
 449              	.LBB130:
 450              	.LBB124:
 451              	.LBB125:
 105:Core/Src/utils/mat.cpp ****                 for (uint8_t j = 0; j < m.cols_; ++j) {
 106:Core/Src/utils/mat.cpp ****                         sum = 0;
 107:Core/Src/utils/mat.cpp ****                         for (uint8_t k = 0; k < cols_; ++k) {
 108:Core/Src/utils/mat.cpp ****                                 sum += matrix_[i][k] * m.matrix_[k][j];
 109:Core/Src/utils/mat.cpp ****                         }
 110:Core/Src/utils/mat.cpp ****                         product.matrix_[i][j] = sum;
 452              		.loc 1 110 0 discriminator 2
 453 0030 01EB8003 		add	r3, r1, r0, lsl #2
 454              	.LVL62:
 455 0034 06EB8303 		add	r3, r6, r3, lsl #2
 456 0038 83ED007A 		vstr.32	s14, [r3]
 457              	.LBE125:
 105:Core/Src/utils/mat.cpp ****                 for (uint8_t j = 0; j < m.cols_; ++j) {
 458              		.loc 1 105 0 discriminator 2
 459 003c 0131     		adds	r1, r1, #1
 460              	.LVL63:
 461 003e C9B2     		uxtb	r1, r1
ARM GAS  C:\Users\Prashant\AppData\Local\Temp\ccEY5C3W.s 			page 11


 462              	.LVL64:
 463              	.L43:
 105:Core/Src/utils/mat.cpp ****                 for (uint8_t j = 0; j < m.cols_; ++j) {
 464              		.loc 1 105 0 is_stmt 0 discriminator 1
 465 0040 95F84130 		ldrb	r3, [r5, #65]	@ zero_extendqisi2
 466 0044 8B42     		cmp	r3, r1
 467 0046 19D9     		bls	.L40
 468              	.LBB128:
 469              	.LBB126:
 107:Core/Src/utils/mat.cpp ****                                 sum += matrix_[i][k] * m.matrix_[k][j];
 470              		.loc 1 107 0 is_stmt 1
 471 0048 0023     		movs	r3, #0
 472              	.LBE126:
 106:Core/Src/utils/mat.cpp ****                         for (uint8_t k = 0; k < cols_; ++k) {
 473              		.loc 1 106 0
 474 004a 9FED127A 		vldr.32	s14, .L47+4
 475              	.L42:
 476              	.LVL65:
 477              	.LBB127:
 107:Core/Src/utils/mat.cpp ****                                 sum += matrix_[i][k] * m.matrix_[k][j];
 478              		.loc 1 107 0 discriminator 3
 479 004e 94F84120 		ldrb	r2, [r4, #65]	@ zero_extendqisi2
 480 0052 9A42     		cmp	r2, r3
 481 0054 ECD9     		bls	.L41
 108:Core/Src/utils/mat.cpp ****                         }
 482              		.loc 1 108 0 discriminator 2
 483 0056 03EB8002 		add	r2, r3, r0, lsl #2
 484 005a 04EB8202 		add	r2, r4, r2, lsl #2
 485 005e D2ED007A 		vldr.32	s15, [r2]
 486 0062 01EB8302 		add	r2, r1, r3, lsl #2
 487 0066 05EB8202 		add	r2, r5, r2, lsl #2
 488 006a D2ED006A 		vldr.32	s13, [r2]
 489 006e 67EEA67A 		vmul.f32	s15, s15, s13
 490 0072 37EE277A 		vadd.f32	s14, s14, s15
 491              	.LVL66:
 107:Core/Src/utils/mat.cpp ****                                 sum += matrix_[i][k] * m.matrix_[k][j];
 492              		.loc 1 107 0 discriminator 2
 493 0076 0133     		adds	r3, r3, #1
 494              	.LVL67:
 495 0078 DBB2     		uxtb	r3, r3
 496              	.LVL68:
 497 007a E8E7     		b	.L42
 498              	.LVL69:
 499              	.L40:
 500              	.LBE127:
 501              	.LBE128:
 502              	.LBE124:
 104:Core/Src/utils/mat.cpp ****                 for (uint8_t j = 0; j < m.cols_; ++j) {
 503              		.loc 1 104 0 discriminator 2
 504 007c 0130     		adds	r0, r0, #1
 505              	.LVL70:
 506 007e C0B2     		uxtb	r0, r0
 507              	.LVL71:
 508              	.L44:
 104:Core/Src/utils/mat.cpp ****                 for (uint8_t j = 0; j < m.cols_; ++j) {
 509              		.loc 1 104 0 is_stmt 0 discriminator 1
 510 0080 94F84030 		ldrb	r3, [r4, #64]	@ zero_extendqisi2
ARM GAS  C:\Users\Prashant\AppData\Local\Temp\ccEY5C3W.s 			page 12


 511 0084 8342     		cmp	r3, r0
 512 0086 01D9     		bls	.L37
 513              	.LBB129:
 105:Core/Src/utils/mat.cpp ****                         sum = 0;
 514              		.loc 1 105 0 is_stmt 1
 515 0088 0021     		movs	r1, #0
 516 008a D9E7     		b	.L43
 517              	.L37:
 518              	.LBE129:
 519              	.LBE130:
 111:Core/Src/utils/mat.cpp ****                 }
 112:Core/Src/utils/mat.cpp ****         }
 113:Core/Src/utils/mat.cpp **** 
 114:Core/Src/utils/mat.cpp ****         return product;
 115:Core/Src/utils/mat.cpp **** }
 520              		.loc 1 115 0
 521 008c 3046     		mov	r0, r6
 522              	.LVL72:
 523 008e 70BD     		pop	{r4, r5, r6, pc}
 524              	.LVL73:
 525              	.L48:
 526              		.align	2
 527              	.L47:
 528 0090 00000000 		.word	.LC0
 529 0094 00000000 		.word	0
 530              		.cfi_endproc
 531              	.LFE408:
 533              		.section	.text._ZN3MatmLERKS_,"ax",%progbits
 534              		.align	1
 535              		.global	_ZN3MatmLERKS_
 536              		.syntax unified
 537              		.thumb
 538              		.thumb_func
 539              		.fpu fpv4-sp-d16
 541              	_ZN3MatmLERKS_:
 542              	.LFB406:
  80:Core/Src/utils/mat.cpp ****         *this = mult(rhs);
 543              		.loc 1 80 0
 544              		.cfi_startproc
 545              		@ args = 0, pretend = 0, frame = 72
 546              		@ frame_needed = 0, uses_anonymous_args = 0
 547              	.LVL74:
 548 0000 10B5     		push	{r4, lr}
 549              	.LCFI6:
 550              		.cfi_def_cfa_offset 8
 551              		.cfi_offset 4, -8
 552              		.cfi_offset 14, -4
 553 0002 92B0     		sub	sp, sp, #72
 554              	.LCFI7:
 555              		.cfi_def_cfa_offset 80
 556 0004 0446     		mov	r4, r0
  81:Core/Src/utils/mat.cpp ****         return *this;
 557              		.loc 1 81 0
 558 0006 0A46     		mov	r2, r1
 559 0008 0146     		mov	r1, r0
 560              	.LVL75:
 561 000a 01A8     		add	r0, sp, #4
ARM GAS  C:\Users\Prashant\AppData\Local\Temp\ccEY5C3W.s 			page 13


 562              	.LVL76:
 563 000c FFF7FEFF 		bl	_ZN3Mat4multERKS_
 564              	.LVL77:
 565 0010 4222     		movs	r2, #66
 566 0012 01A9     		add	r1, sp, #4
 567 0014 2046     		mov	r0, r4
 568 0016 FFF7FEFF 		bl	memcpy
 569              	.LVL78:
  83:Core/Src/utils/mat.cpp **** 
 570              		.loc 1 83 0
 571 001a 2046     		mov	r0, r4
 572 001c 12B0     		add	sp, sp, #72
 573              	.LCFI8:
 574              		.cfi_def_cfa_offset 8
 575              		@ sp needed
 576 001e 10BD     		pop	{r4, pc}
 577              		.cfi_endproc
 578              	.LFE406:
 580              		.section	.text._ZN3MatmLERK4Vec3IfE,"ax",%progbits
 581              		.align	1
 582              		.global	_ZN3MatmLERK4Vec3IfE
 583              		.syntax unified
 584              		.thumb
 585              		.thumb_func
 586              		.fpu fpv4-sp-d16
 588              	_ZN3MatmLERK4Vec3IfE:
 589              	.LFB407:
  86:Core/Src/utils/mat.cpp ****         Mat vec(3,1);
 590              		.loc 1 86 0
 591              		.cfi_startproc
 592              		@ args = 0, pretend = 0, frame = 136
 593              		@ frame_needed = 0, uses_anonymous_args = 0
 594              	.LVL79:
 595 0000 30B5     		push	{r4, r5, lr}
 596              	.LCFI9:
 597              		.cfi_def_cfa_offset 12
 598              		.cfi_offset 4, -12
 599              		.cfi_offset 5, -8
 600              		.cfi_offset 14, -4
 601 0002 A3B0     		sub	sp, sp, #140
 602              	.LCFI10:
 603              		.cfi_def_cfa_offset 152
 604 0004 0446     		mov	r4, r0
 605 0006 0D46     		mov	r5, r1
  87:Core/Src/utils/mat.cpp ****         vec.at(0,0) = rhs.getX();
 606              		.loc 1 87 0
 607 0008 0122     		movs	r2, #1
 608 000a 0321     		movs	r1, #3
 609              	.LVL80:
 610 000c 11A8     		add	r0, sp, #68
 611              	.LVL81:
 612 000e FFF7FEFF 		bl	_ZN3MatC1Ehh
 613              	.LVL82:
 614              	.LBB131:
 615              	.LBB132:
 616              		.file 2 "Core/Inc/utils/mat.h"
   1:Core/Inc/utils/mat.h **** /*
ARM GAS  C:\Users\Prashant\AppData\Local\Temp\ccEY5C3W.s 			page 14


   2:Core/Inc/utils/mat.h ****  * mat.h
   3:Core/Inc/utils/mat.h ****  * 
   4:Core/Inc/utils/mat.h ****  * Created : 12/31/2018
   5:Core/Inc/utils/mat.h ****  *  Author : n-is
   6:Core/Inc/utils/mat.h ****  *   email : 073bex422.nischal@pcampus.edu.np
   7:Core/Inc/utils/mat.h ****  */
   8:Core/Inc/utils/mat.h **** 
   9:Core/Inc/utils/mat.h **** #ifndef _MAT_H_
  10:Core/Inc/utils/mat.h **** #define _MAT_H_
  11:Core/Inc/utils/mat.h **** 
  12:Core/Inc/utils/mat.h **** #include <math.h>
  13:Core/Inc/utils/mat.h **** #include "vec3.h"
  14:Core/Inc/utils/mat.h **** 
  15:Core/Inc/utils/mat.h **** #define MAX_MATRIX_ROWS         4
  16:Core/Inc/utils/mat.h **** #define MAX_MATRIX_COLS         4
  17:Core/Inc/utils/mat.h **** 
  18:Core/Inc/utils/mat.h **** class Mat
  19:Core/Inc/utils/mat.h **** {
  20:Core/Inc/utils/mat.h **** public:
  21:Core/Inc/utils/mat.h ****         Mat() : Mat(0,0) { }
  22:Core/Inc/utils/mat.h ****         
  23:Core/Inc/utils/mat.h ****         template <size_t M, size_t N>
  24:Core/Inc/utils/mat.h ****         Mat(const float (&mat)[M][N]) : Mat(M,N){
  25:Core/Inc/utils/mat.h ****                 fill(mat);
  26:Core/Inc/utils/mat.h ****         }
  27:Core/Inc/utils/mat.h **** 
  28:Core/Inc/utils/mat.h ****         Mat(uint8_t rows, uint8_t columns);
  29:Core/Inc/utils/mat.h ****         Mat(Mat &&) = default;
  30:Core/Inc/utils/mat.h ****         Mat &operator=(Mat &&) = default;
  31:Core/Inc/utils/mat.h ****         ~Mat() { }
  32:Core/Inc/utils/mat.h **** 
  33:Core/Inc/utils/mat.h ****         uint8_t rows() const { return rows_; }
  34:Core/Inc/utils/mat.h ****         uint8_t cols() const { return cols_; }
  35:Core/Inc/utils/mat.h **** 
  36:Core/Inc/utils/mat.h ****         inline float &at(uint8_t i, uint8_t j) {
  37:Core/Inc/utils/mat.h ****                 if (!(i < rows_ && j < cols_)) {
 617              		.loc 2 37 0
 618 0012 9DF88430 		ldrb	r3, [sp, #132]	@ zero_extendqisi2
 619 0016 13B1     		cbz	r3, .L52
 620 0018 9DF88530 		ldrb	r3, [sp, #133]	@ zero_extendqisi2
 621 001c 1BB9     		cbnz	r3, .L53
 622              	.L52:
  38:Core/Inc/utils/mat.h ****                         _Error_Handler(__FILE__, __LINE__);
 623              		.loc 2 38 0
 624 001e 2621     		movs	r1, #38
 625 0020 1548     		ldr	r0, .L59
 626 0022 FFF7FEFF 		bl	_Error_Handler
 627              	.LVL83:
 628              	.L53:
 629              	.LBE132:
 630              	.LBE131:
 631              	.LBB133:
 632              	.LBB134:
 633              		.file 3 "Core/Inc/utils/vec3.h"
   1:Core/Inc/utils/vec3.h **** /*
   2:Core/Inc/utils/vec3.h ****  * vec3.h
   3:Core/Inc/utils/vec3.h ****  * 
ARM GAS  C:\Users\Prashant\AppData\Local\Temp\ccEY5C3W.s 			page 15


   4:Core/Inc/utils/vec3.h ****  * Created : 11/9/2018
   5:Core/Inc/utils/vec3.h ****  *  Author : n-is
   6:Core/Inc/utils/vec3.h ****  *   email : 073bex422.nischal@pcampus.edu.np
   7:Core/Inc/utils/vec3.h ****  */
   8:Core/Inc/utils/vec3.h **** 
   9:Core/Inc/utils/vec3.h **** #ifndef _VEC3_H_
  10:Core/Inc/utils/vec3.h **** #define _VEC3_H_
  11:Core/Inc/utils/vec3.h **** 
  12:Core/Inc/utils/vec3.h **** #include "stm32f4xx_hal.h"
  13:Core/Inc/utils/vec3.h **** #include "main.h"
  14:Core/Inc/utils/vec3.h **** 
  15:Core/Inc/utils/vec3.h **** template <typename T>
  16:Core/Inc/utils/vec3.h **** void swap_Element(T &first, T &second)
  17:Core/Inc/utils/vec3.h **** {
  18:Core/Inc/utils/vec3.h ****         T temp = first;
  19:Core/Inc/utils/vec3.h ****         first = second;
  20:Core/Inc/utils/vec3.h ****         second = temp;
  21:Core/Inc/utils/vec3.h **** }
  22:Core/Inc/utils/vec3.h **** 
  23:Core/Inc/utils/vec3.h **** template <class T>
  24:Core/Inc/utils/vec3.h **** class Vec3
  25:Core/Inc/utils/vec3.h **** {
  26:Core/Inc/utils/vec3.h **** public:
  27:Core/Inc/utils/vec3.h ****         Vec3() { set_Values(0,0,0); }
  28:Core/Inc/utils/vec3.h ****         Vec3(T x, T y, T z) { set_Values(x,y,z); }
  29:Core/Inc/utils/vec3.h **** 
  30:Core/Inc/utils/vec3.h ****         Vec3(Vec3 &&) = default;
  31:Core/Inc/utils/vec3.h ****         Vec3 &operator=(Vec3 &&) = default;
  32:Core/Inc/utils/vec3.h ****         ~Vec3() { }
  33:Core/Inc/utils/vec3.h **** 
  34:Core/Inc/utils/vec3.h ****         T getX() const { return x_; }
 634              		.loc 3 34 0
 635 0026 2B68     		ldr	r3, [r5]	@ float
 636              	.LVL84:
 637              	.LBE134:
 638              	.LBE133:
  88:Core/Src/utils/mat.cpp ****         vec.at(1,0) = rhs.getY();
 639              		.loc 1 88 0
 640 0028 1193     		str	r3, [sp, #68]	@ float
 641              	.LVL85:
 642              	.LBB135:
 643              	.LBB136:
  37:Core/Inc/utils/mat.h ****                         _Error_Handler(__FILE__, __LINE__);
 644              		.loc 2 37 0
 645 002a 9DF88430 		ldrb	r3, [sp, #132]	@ zero_extendqisi2
 646 002e 012B     		cmp	r3, #1
 647 0030 02D9     		bls	.L54
 648 0032 9DF88530 		ldrb	r3, [sp, #133]	@ zero_extendqisi2
 649 0036 1BB9     		cbnz	r3, .L55
 650              	.L54:
 651              		.loc 2 38 0
 652 0038 2621     		movs	r1, #38
 653 003a 0F48     		ldr	r0, .L59
 654 003c FFF7FEFF 		bl	_Error_Handler
 655              	.LVL86:
 656              	.L55:
 657              	.LBE136:
ARM GAS  C:\Users\Prashant\AppData\Local\Temp\ccEY5C3W.s 			page 16


 658              	.LBE135:
 659              	.LBB137:
 660              	.LBB138:
  35:Core/Inc/utils/vec3.h ****         T getY() const { return y_; }
 661              		.loc 3 35 0
 662 0040 6B68     		ldr	r3, [r5, #4]	@ float
 663              	.LVL87:
 664              	.LBE138:
 665              	.LBE137:
  89:Core/Src/utils/mat.cpp ****         vec.at(2,0) = rhs.getZ();
 666              		.loc 1 89 0
 667 0042 1593     		str	r3, [sp, #84]	@ float
 668              	.LVL88:
 669              	.LBB139:
 670              	.LBB140:
  37:Core/Inc/utils/mat.h ****                         _Error_Handler(__FILE__, __LINE__);
 671              		.loc 2 37 0
 672 0044 9DF88430 		ldrb	r3, [sp, #132]	@ zero_extendqisi2
 673 0048 022B     		cmp	r3, #2
 674 004a 02D9     		bls	.L56
 675 004c 9DF88530 		ldrb	r3, [sp, #133]	@ zero_extendqisi2
 676 0050 1BB9     		cbnz	r3, .L57
 677              	.L56:
 678              		.loc 2 38 0
 679 0052 2621     		movs	r1, #38
 680 0054 0848     		ldr	r0, .L59
 681 0056 FFF7FEFF 		bl	_Error_Handler
 682              	.LVL89:
 683              	.L57:
 684              	.LBE140:
 685              	.LBE139:
 686              	.LBB141:
 687              	.LBB142:
  36:Core/Inc/utils/vec3.h ****         T getZ() const { return z_; }
 688              		.loc 3 36 0
 689 005a AB68     		ldr	r3, [r5, #8]	@ float
 690              	.LVL90:
 691              	.LBE142:
 692              	.LBE141:
  90:Core/Src/utils/mat.cpp **** 
 693              		.loc 1 90 0
 694 005c 1993     		str	r3, [sp, #100]	@ float
  92:Core/Src/utils/mat.cpp ****         return *this;
 695              		.loc 1 92 0
 696 005e 11AA     		add	r2, sp, #68
 697 0060 2146     		mov	r1, r4
 698 0062 6846     		mov	r0, sp
 699 0064 FFF7FEFF 		bl	_ZN3Mat4multERKS_
 700              	.LVL91:
 701 0068 4222     		movs	r2, #66
 702 006a 6946     		mov	r1, sp
 703 006c 2046     		mov	r0, r4
 704 006e FFF7FEFF 		bl	memcpy
 705              	.LVL92:
  94:Core/Src/utils/mat.cpp **** 
 706              		.loc 1 94 0
 707 0072 2046     		mov	r0, r4
ARM GAS  C:\Users\Prashant\AppData\Local\Temp\ccEY5C3W.s 			page 17


 708 0074 23B0     		add	sp, sp, #140
 709              	.LCFI11:
 710              		.cfi_def_cfa_offset 12
 711              		@ sp needed
 712 0076 30BD     		pop	{r4, r5, pc}
 713              	.LVL93:
 714              	.L60:
 715              		.align	2
 716              	.L59:
 717 0078 00000000 		.word	.LC1
 718              		.cfi_endproc
 719              	.LFE407:
 721              		.section	.text._ZN3Mat7mult_EWEf,"ax",%progbits
 722              		.align	1
 723              		.global	_ZN3Mat7mult_EWEf
 724              		.syntax unified
 725              		.thumb
 726              		.thumb_func
 727              		.fpu fpv4-sp-d16
 729              	_ZN3Mat7mult_EWEf:
 730              	.LFB409:
 116:Core/Src/utils/mat.cpp **** 
 117:Core/Src/utils/mat.cpp **** Mat Mat::mult_EW(float num)
 118:Core/Src/utils/mat.cpp **** {
 731              		.loc 1 118 0
 732              		.cfi_startproc
 733              		@ args = 0, pretend = 0, frame = 0
 734              		@ frame_needed = 0, uses_anonymous_args = 0
 735              	.LVL94:
 736 0000 38B5     		push	{r3, r4, r5, lr}
 737              	.LCFI12:
 738              		.cfi_def_cfa_offset 16
 739              		.cfi_offset 3, -16
 740              		.cfi_offset 4, -12
 741              		.cfi_offset 5, -8
 742              		.cfi_offset 14, -4
 743 0002 2DED028B 		vpush.64	{d8}
 744              	.LCFI13:
 745              		.cfi_def_cfa_offset 24
 746              		.cfi_offset 80, -24
 747              		.cfi_offset 81, -20
 748 0006 0546     		mov	r5, r0
 749 0008 0C46     		mov	r4, r1
 750 000a B0EE408A 		vmov.f32	s16, s0
 119:Core/Src/utils/mat.cpp ****         Mat temp(rows_, cols_);
 751              		.loc 1 119 0
 752 000e 91F84120 		ldrb	r2, [r1, #65]	@ zero_extendqisi2
 753 0012 91F84010 		ldrb	r1, [r1, #64]	@ zero_extendqisi2
 754              	.LVL95:
 755 0016 FFF7FEFF 		bl	_ZN3MatC1Ehh
 756              	.LVL96:
 757              	.LBB143:
 120:Core/Src/utils/mat.cpp ****         for (uint8_t i = 0; i < rows_; ++i) {
 758              		.loc 1 120 0
 759 001a 0021     		movs	r1, #0
 760 001c 01E0     		b	.L65
 761              	.LVL97:
ARM GAS  C:\Users\Prashant\AppData\Local\Temp\ccEY5C3W.s 			page 18


 762              	.L63:
 763              		.loc 1 120 0 is_stmt 0 discriminator 2
 764 001e 0131     		adds	r1, r1, #1
 765              	.LVL98:
 766 0020 C9B2     		uxtb	r1, r1
 767              	.LVL99:
 768              	.L65:
 769              		.loc 1 120 0 discriminator 1
 770 0022 94F84030 		ldrb	r3, [r4, #64]	@ zero_extendqisi2
 771 0026 8B42     		cmp	r3, r1
 772 0028 11D9     		bls	.L61
 773              	.LBB144:
 121:Core/Src/utils/mat.cpp ****                 for (uint8_t j = 0; j < cols_; ++j) {
 774              		.loc 1 121 0 is_stmt 1
 775 002a 0023     		movs	r3, #0
 776              	.L64:
 777              	.LVL100:
 778              		.loc 1 121 0 is_stmt 0 discriminator 3
 779 002c 94F84120 		ldrb	r2, [r4, #65]	@ zero_extendqisi2
 780 0030 9A42     		cmp	r2, r3
 781 0032 F4D9     		bls	.L63
 122:Core/Src/utils/mat.cpp ****                         temp.matrix_[i][j] *= num;
 782              		.loc 1 122 0 is_stmt 1 discriminator 2
 783 0034 03EB8102 		add	r2, r3, r1, lsl #2
 784 0038 05EB8202 		add	r2, r5, r2, lsl #2
 785 003c D2ED007A 		vldr.32	s15, [r2]
 786 0040 67EE887A 		vmul.f32	s15, s15, s16
 787 0044 C2ED007A 		vstr.32	s15, [r2]
 121:Core/Src/utils/mat.cpp ****                 for (uint8_t j = 0; j < cols_; ++j) {
 788              		.loc 1 121 0 discriminator 2
 789 0048 0133     		adds	r3, r3, #1
 790              	.LVL101:
 791 004a DBB2     		uxtb	r3, r3
 792              	.LVL102:
 793 004c EEE7     		b	.L64
 794              	.LVL103:
 795              	.L61:
 796              	.LBE144:
 797              	.LBE143:
 123:Core/Src/utils/mat.cpp ****                 }
 124:Core/Src/utils/mat.cpp ****         }
 125:Core/Src/utils/mat.cpp **** 
 126:Core/Src/utils/mat.cpp ****         return temp;
 127:Core/Src/utils/mat.cpp **** }
 798              		.loc 1 127 0
 799 004e 2846     		mov	r0, r5
 800 0050 BDEC028B 		vldm	sp!, {d8}
 801              	.LCFI14:
 802              		.cfi_restore 80
 803              		.cfi_restore 81
 804              		.cfi_def_cfa_offset 16
 805              	.LVL104:
 806 0054 38BD     		pop	{r3, r4, r5, pc}
 807              		.cfi_endproc
 808              	.LFE409:
 810              		.section	.text._ZN3Mat9transposeEv,"ax",%progbits
 811              		.align	1
ARM GAS  C:\Users\Prashant\AppData\Local\Temp\ccEY5C3W.s 			page 19


 812              		.global	_ZN3Mat9transposeEv
 813              		.syntax unified
 814              		.thumb
 815              		.thumb_func
 816              		.fpu fpv4-sp-d16
 818              	_ZN3Mat9transposeEv:
 819              	.LFB410:
 128:Core/Src/utils/mat.cpp **** 
 129:Core/Src/utils/mat.cpp **** Mat Mat::transpose()
 130:Core/Src/utils/mat.cpp **** {
 820              		.loc 1 130 0
 821              		.cfi_startproc
 822              		@ args = 0, pretend = 0, frame = 0
 823              		@ frame_needed = 0, uses_anonymous_args = 0
 824              	.LVL105:
 825 0000 38B5     		push	{r3, r4, r5, lr}
 826              	.LCFI15:
 827              		.cfi_def_cfa_offset 16
 828              		.cfi_offset 3, -16
 829              		.cfi_offset 4, -12
 830              		.cfi_offset 5, -8
 831              		.cfi_offset 14, -4
 832 0002 0546     		mov	r5, r0
 833 0004 0C46     		mov	r4, r1
 131:Core/Src/utils/mat.cpp ****         Mat trans(cols_, rows_);
 834              		.loc 1 131 0
 835 0006 91F84020 		ldrb	r2, [r1, #64]	@ zero_extendqisi2
 836 000a 91F84110 		ldrb	r1, [r1, #65]	@ zero_extendqisi2
 837              	.LVL106:
 838 000e FFF7FEFF 		bl	_ZN3MatC1Ehh
 839              	.LVL107:
 840              	.LBB145:
 132:Core/Src/utils/mat.cpp ****         for (uint8_t i = 0; i < rows_; ++i) {
 841              		.loc 1 132 0
 842 0012 0021     		movs	r1, #0
 843 0014 01E0     		b	.L71
 844              	.LVL108:
 845              	.L69:
 846              		.loc 1 132 0 is_stmt 0 discriminator 2
 847 0016 0131     		adds	r1, r1, #1
 848              	.LVL109:
 849 0018 C9B2     		uxtb	r1, r1
 850              	.LVL110:
 851              	.L71:
 852              		.loc 1 132 0 discriminator 1
 853 001a 94F84030 		ldrb	r3, [r4, #64]	@ zero_extendqisi2
 854 001e 8B42     		cmp	r3, r1
 855 0020 11D9     		bls	.L67
 856              	.LBB146:
 133:Core/Src/utils/mat.cpp ****                 for (uint8_t j = 0; j < cols_; ++j) {
 857              		.loc 1 133 0 is_stmt 1
 858 0022 0023     		movs	r3, #0
 859              	.L70:
 860              	.LVL111:
 861              		.loc 1 133 0 is_stmt 0 discriminator 3
 862 0024 94F84120 		ldrb	r2, [r4, #65]	@ zero_extendqisi2
 863 0028 9A42     		cmp	r2, r3
ARM GAS  C:\Users\Prashant\AppData\Local\Temp\ccEY5C3W.s 			page 20


 864 002a F4D9     		bls	.L69
 134:Core/Src/utils/mat.cpp ****                         trans.matrix_[i][j] = matrix_[j][i];
 865              		.loc 1 134 0 is_stmt 1 discriminator 2
 866 002c 01EB8302 		add	r2, r1, r3, lsl #2
 867 0030 04EB8202 		add	r2, r4, r2, lsl #2
 868 0034 1068     		ldr	r0, [r2]	@ float
 869 0036 03EB8102 		add	r2, r3, r1, lsl #2
 870 003a 05EB8202 		add	r2, r5, r2, lsl #2
 871 003e 1060     		str	r0, [r2]	@ float
 133:Core/Src/utils/mat.cpp ****                 for (uint8_t j = 0; j < cols_; ++j) {
 872              		.loc 1 133 0 discriminator 2
 873 0040 0133     		adds	r3, r3, #1
 874              	.LVL112:
 875 0042 DBB2     		uxtb	r3, r3
 876              	.LVL113:
 877 0044 EEE7     		b	.L70
 878              	.LVL114:
 879              	.L67:
 880              	.LBE146:
 881              	.LBE145:
 135:Core/Src/utils/mat.cpp ****                 }
 136:Core/Src/utils/mat.cpp ****         }
 137:Core/Src/utils/mat.cpp ****         return trans;
 138:Core/Src/utils/mat.cpp **** }
 882              		.loc 1 138 0
 883 0046 2846     		mov	r0, r5
 884 0048 38BD     		pop	{r3, r4, r5, pc}
 885              		.cfi_endproc
 886              	.LFE410:
 888              		.section	.text._ZN3Mat3eyeEh,"ax",%progbits
 889              		.align	1
 890              		.global	_ZN3Mat3eyeEh
 891              		.syntax unified
 892              		.thumb
 893              		.thumb_func
 894              		.fpu fpv4-sp-d16
 896              	_ZN3Mat3eyeEh:
 897              	.LFB411:
 139:Core/Src/utils/mat.cpp **** 
 140:Core/Src/utils/mat.cpp **** Mat Mat::eye(uint8_t n)
 141:Core/Src/utils/mat.cpp **** {
 898              		.loc 1 141 0
 899              		.cfi_startproc
 900              		@ args = 0, pretend = 0, frame = 0
 901              		@ frame_needed = 0, uses_anonymous_args = 0
 902              	.LVL115:
 903 0000 38B5     		push	{r3, r4, r5, lr}
 904              	.LCFI16:
 905              		.cfi_def_cfa_offset 16
 906              		.cfi_offset 3, -16
 907              		.cfi_offset 4, -12
 908              		.cfi_offset 5, -8
 909              		.cfi_offset 14, -4
 910 0002 0446     		mov	r4, r0
 911 0004 0D46     		mov	r5, r1
 142:Core/Src/utils/mat.cpp ****         Mat I(n,n);
 912              		.loc 1 142 0
ARM GAS  C:\Users\Prashant\AppData\Local\Temp\ccEY5C3W.s 			page 21


 913 0006 0A46     		mov	r2, r1
 914 0008 FFF7FEFF 		bl	_ZN3MatC1Ehh
 915              	.LVL116:
 916              	.LBB147:
 917              	.LBB148:
  39:Core/Inc/utils/mat.h ****                 }
  40:Core/Inc/utils/mat.h ****                 return matrix_[i][j];
  41:Core/Inc/utils/mat.h ****         }
  42:Core/Inc/utils/mat.h **** 
  43:Core/Inc/utils/mat.h **** 
  44:Core/Inc/utils/mat.h ****         Mat(const Mat &m);
  45:Core/Inc/utils/mat.h **** 
  46:Core/Inc/utils/mat.h ****         Mat &operator=(const Mat &m) {
  47:Core/Inc/utils/mat.h ****                 Mat temp(m);
  48:Core/Inc/utils/mat.h ****                 swap(*this, temp);
  49:Core/Inc/utils/mat.h **** 
  50:Core/Inc/utils/mat.h ****                 return *this;
  51:Core/Inc/utils/mat.h ****         }
  52:Core/Inc/utils/mat.h **** 
  53:Core/Inc/utils/mat.h ****         Mat &operator+=(const Mat &rhs);
  54:Core/Inc/utils/mat.h ****         Mat &operator-=(const Mat &rhs);
  55:Core/Inc/utils/mat.h ****         Mat &operator*=(const Mat &rhs);
  56:Core/Inc/utils/mat.h ****         Mat &operator*=(const Vec3<float> &rhs);
  57:Core/Inc/utils/mat.h **** 
  58:Core/Inc/utils/mat.h ****         friend Mat operator+(Mat lhs, const Mat &rhs) {
  59:Core/Inc/utils/mat.h ****                 lhs += rhs;
  60:Core/Inc/utils/mat.h ****                 return lhs;
  61:Core/Inc/utils/mat.h ****         }
  62:Core/Inc/utils/mat.h **** 
  63:Core/Inc/utils/mat.h ****         friend Mat operator-(Mat lhs, const Mat &rhs) {
  64:Core/Inc/utils/mat.h ****                 lhs -= rhs;
  65:Core/Inc/utils/mat.h ****                 return lhs;
  66:Core/Inc/utils/mat.h ****         }
  67:Core/Inc/utils/mat.h **** 
  68:Core/Inc/utils/mat.h ****         friend Mat operator*(Mat lhs, const Mat &rhs) {
  69:Core/Inc/utils/mat.h ****                 lhs *= rhs;
  70:Core/Inc/utils/mat.h ****                 return lhs;
  71:Core/Inc/utils/mat.h ****         }
  72:Core/Inc/utils/mat.h **** 
  73:Core/Inc/utils/mat.h ****         friend Mat operator*(Mat lhs, const Vec3<float> &rhs) {
  74:Core/Inc/utils/mat.h ****                 lhs *= rhs;
  75:Core/Inc/utils/mat.h ****                 return lhs;
  76:Core/Inc/utils/mat.h ****         }
  77:Core/Inc/utils/mat.h **** 
  78:Core/Inc/utils/mat.h ****         Mat mult(const Mat &m);
  79:Core/Inc/utils/mat.h ****         Mat mult_EW(float num);
  80:Core/Inc/utils/mat.h ****         Mat transpose();
  81:Core/Inc/utils/mat.h **** 
  82:Core/Inc/utils/mat.h ****         // Just an alias for getting transpose of a matrix
  83:Core/Inc/utils/mat.h ****         inline Mat trans() { return transpose(); }
  84:Core/Inc/utils/mat.h **** 
  85:Core/Inc/utils/mat.h ****         void fill(float num) {
  86:Core/Inc/utils/mat.h ****                 for (uint8_t i = 0; i < rows_; ++i) {
 918              		.loc 2 86 0
 919 000c 0020     		movs	r0, #0
 920 000e 01E0     		b	.L77
 921              	.LVL117:
ARM GAS  C:\Users\Prashant\AppData\Local\Temp\ccEY5C3W.s 			page 22


 922              	.L75:
 923 0010 0130     		adds	r0, r0, #1
 924              	.LVL118:
 925 0012 C0B2     		uxtb	r0, r0
 926              	.LVL119:
 927              	.L77:
 928 0014 94F84030 		ldrb	r3, [r4, #64]	@ zero_extendqisi2
 929 0018 8342     		cmp	r3, r0
 930 001a 0DD9     		bls	.L79
 931              	.LBB149:
  87:Core/Inc/utils/mat.h ****                         for (uint8_t j = 0; j < cols_; ++j) {
 932              		.loc 2 87 0
 933 001c 0023     		movs	r3, #0
 934              	.L76:
 935              	.LVL120:
 936 001e 94F84120 		ldrb	r2, [r4, #65]	@ zero_extendqisi2
 937 0022 9A42     		cmp	r2, r3
 938 0024 F4D9     		bls	.L75
  88:Core/Inc/utils/mat.h ****                                 matrix_[i][j] = num;
 939              		.loc 2 88 0
 940 0026 03EB8002 		add	r2, r3, r0, lsl #2
 941 002a 04EB8202 		add	r2, r4, r2, lsl #2
 942 002e 0021     		movs	r1, #0
 943 0030 1160     		str	r1, [r2]	@ float
  87:Core/Inc/utils/mat.h ****                         for (uint8_t j = 0; j < cols_; ++j) {
 944              		.loc 2 87 0
 945 0032 0133     		adds	r3, r3, #1
 946              	.LVL121:
 947 0034 DBB2     		uxtb	r3, r3
 948              	.LVL122:
 949 0036 F2E7     		b	.L76
 950              	.LVL123:
 951              	.L79:
 952              	.LBE149:
 953              	.LBE148:
 954              	.LBE147:
 955              	.LBB150:
 143:Core/Src/utils/mat.cpp ****         I.fill(0);
 144:Core/Src/utils/mat.cpp ****         for (uint8_t i = 0; i < n; ++i) {
 956              		.loc 1 144 0
 957 0038 0023     		movs	r3, #0
 958              	.L74:
 959              	.LVL124:
 960              		.loc 1 144 0 is_stmt 0 discriminator 3
 961 003a AB42     		cmp	r3, r5
 962 003c 09D2     		bcs	.L73
 145:Core/Src/utils/mat.cpp ****                 I.matrix_[i][i] = 1;
 963              		.loc 1 145 0 is_stmt 1 discriminator 2
 964 003e 03EB8301 		add	r1, r3, r3, lsl #2
 965 0042 8A00     		lsls	r2, r1, #2
 966 0044 2244     		add	r2, r2, r4
 967 0046 4FF07E51 		mov	r1, #1065353216
 968 004a 1160     		str	r1, [r2]	@ float
 144:Core/Src/utils/mat.cpp ****                 I.matrix_[i][i] = 1;
 969              		.loc 1 144 0 discriminator 2
 970 004c 0133     		adds	r3, r3, #1
 971              	.LVL125:
ARM GAS  C:\Users\Prashant\AppData\Local\Temp\ccEY5C3W.s 			page 23


 972 004e DBB2     		uxtb	r3, r3
 973              	.LVL126:
 974 0050 F3E7     		b	.L74
 975              	.L73:
 976              	.LBE150:
 146:Core/Src/utils/mat.cpp ****         }
 147:Core/Src/utils/mat.cpp ****         return I;
 148:Core/Src/utils/mat.cpp **** }
 977              		.loc 1 148 0
 978 0052 2046     		mov	r0, r4
 979              	.LVL127:
 980 0054 38BD     		pop	{r3, r4, r5, pc}
 981              		.cfi_endproc
 982              	.LFE411:
 984              		.section	.text._ZNK3Mat7is_ZeroEv,"ax",%progbits
 985              		.align	1
 986              		.global	_ZNK3Mat7is_ZeroEv
 987              		.syntax unified
 988              		.thumb
 989              		.thumb_func
 990              		.fpu fpv4-sp-d16
 992              	_ZNK3Mat7is_ZeroEv:
 993              	.LFB412:
 149:Core/Src/utils/mat.cpp **** 
 150:Core/Src/utils/mat.cpp **** bool Mat::is_Zero() const
 151:Core/Src/utils/mat.cpp **** {
 994              		.loc 1 151 0
 995              		.cfi_startproc
 996              		@ args = 0, pretend = 0, frame = 0
 997              		@ frame_needed = 0, uses_anonymous_args = 0
 998              		@ link register save eliminated.
 999              	.LVL128:
 1000              	.LBB151:
 152:Core/Src/utils/mat.cpp ****         for (uint8_t i = 0; i < rows_; ++i) {
 1001              		.loc 1 152 0
 1002 0000 0021     		movs	r1, #0
 1003              	.LVL129:
 1004              	.L85:
 1005              		.loc 1 152 0 is_stmt 0 discriminator 1
 1006 0002 90F84030 		ldrb	r3, [r0, #64]	@ zero_extendqisi2
 1007 0006 8B42     		cmp	r3, r1
 1008 0008 19D9     		bls	.L86
 1009              	.LBB152:
 153:Core/Src/utils/mat.cpp ****                 for (uint8_t j = 0; j < cols_; ++j) {
 1010              		.loc 1 153 0 is_stmt 1
 1011 000a 0023     		movs	r3, #0
 1012              	.L84:
 1013              	.LVL130:
 1014              		.loc 1 153 0 is_stmt 0 discriminator 1
 1015 000c 90F84120 		ldrb	r2, [r0, #65]	@ zero_extendqisi2
 1016 0010 9A42     		cmp	r2, r3
 1017 0012 11D9     		bls	.L83
 154:Core/Src/utils/mat.cpp ****                         if (fabs(matrix_[i][j]) > 1e-8f) {
 1018              		.loc 1 154 0 is_stmt 1
 1019 0014 03EB8102 		add	r2, r3, r1, lsl #2
 1020 0018 00EB8202 		add	r2, r0, r2, lsl #2
 1021 001c D2ED007A 		vldr.32	s15, [r2]
ARM GAS  C:\Users\Prashant\AppData\Local\Temp\ccEY5C3W.s 			page 24


 1022              	.LVL131:
 1023              	.LBB153:
 1024              	.LBB154:
 1025              		.file 4 "c:\\program files (x86)\\gnu tools arm embedded\\7 2017-q4-major\\arm-none-eabi\\include\
   1:c:\program files (x86)\gnu tools arm embedded\7 2017-q4-major\arm-none-eabi\include\c++\7.2.1\cmath **** // -*- C++ -*- C forwarding header.
   2:c:\program files (x86)\gnu tools arm embedded\7 2017-q4-major\arm-none-eabi\include\c++\7.2.1\cmath **** 
   3:c:\program files (x86)\gnu tools arm embedded\7 2017-q4-major\arm-none-eabi\include\c++\7.2.1\cmath **** // Copyright (C) 1997-2017 Free Software Foundation, Inc.
   4:c:\program files (x86)\gnu tools arm embedded\7 2017-q4-major\arm-none-eabi\include\c++\7.2.1\cmath **** //
   5:c:\program files (x86)\gnu tools arm embedded\7 2017-q4-major\arm-none-eabi\include\c++\7.2.1\cmath **** // This file is part of the GNU ISO C++ Library.  This library is free
   6:c:\program files (x86)\gnu tools arm embedded\7 2017-q4-major\arm-none-eabi\include\c++\7.2.1\cmath **** // software; you can redistribute it and/or modify it under the
   7:c:\program files (x86)\gnu tools arm embedded\7 2017-q4-major\arm-none-eabi\include\c++\7.2.1\cmath **** // terms of the GNU General Public License as published by the
   8:c:\program files (x86)\gnu tools arm embedded\7 2017-q4-major\arm-none-eabi\include\c++\7.2.1\cmath **** // Free Software Foundation; either version 3, or (at your option)
   9:c:\program files (x86)\gnu tools arm embedded\7 2017-q4-major\arm-none-eabi\include\c++\7.2.1\cmath **** // any later version.
  10:c:\program files (x86)\gnu tools arm embedded\7 2017-q4-major\arm-none-eabi\include\c++\7.2.1\cmath **** 
  11:c:\program files (x86)\gnu tools arm embedded\7 2017-q4-major\arm-none-eabi\include\c++\7.2.1\cmath **** // This library is distributed in the hope that it will be useful,
  12:c:\program files (x86)\gnu tools arm embedded\7 2017-q4-major\arm-none-eabi\include\c++\7.2.1\cmath **** // but WITHOUT ANY WARRANTY; without even the implied warranty of
  13:c:\program files (x86)\gnu tools arm embedded\7 2017-q4-major\arm-none-eabi\include\c++\7.2.1\cmath **** // MERCHANTABILITY or FITNESS FOR A PARTICULAR PURPOSE.  See the
  14:c:\program files (x86)\gnu tools arm embedded\7 2017-q4-major\arm-none-eabi\include\c++\7.2.1\cmath **** // GNU General Public License for more details.
  15:c:\program files (x86)\gnu tools arm embedded\7 2017-q4-major\arm-none-eabi\include\c++\7.2.1\cmath **** 
  16:c:\program files (x86)\gnu tools arm embedded\7 2017-q4-major\arm-none-eabi\include\c++\7.2.1\cmath **** // Under Section 7 of GPL version 3, you are granted additional
  17:c:\program files (x86)\gnu tools arm embedded\7 2017-q4-major\arm-none-eabi\include\c++\7.2.1\cmath **** // permissions described in the GCC Runtime Library Exception, version
  18:c:\program files (x86)\gnu tools arm embedded\7 2017-q4-major\arm-none-eabi\include\c++\7.2.1\cmath **** // 3.1, as published by the Free Software Foundation.
  19:c:\program files (x86)\gnu tools arm embedded\7 2017-q4-major\arm-none-eabi\include\c++\7.2.1\cmath **** 
  20:c:\program files (x86)\gnu tools arm embedded\7 2017-q4-major\arm-none-eabi\include\c++\7.2.1\cmath **** // You should have received a copy of the GNU General Public License and
  21:c:\program files (x86)\gnu tools arm embedded\7 2017-q4-major\arm-none-eabi\include\c++\7.2.1\cmath **** // a copy of the GCC Runtime Library Exception along with this program;
  22:c:\program files (x86)\gnu tools arm embedded\7 2017-q4-major\arm-none-eabi\include\c++\7.2.1\cmath **** // see the files COPYING3 and COPYING.RUNTIME respectively.  If not, see
  23:c:\program files (x86)\gnu tools arm embedded\7 2017-q4-major\arm-none-eabi\include\c++\7.2.1\cmath **** // <http://www.gnu.org/licenses/>.
  24:c:\program files (x86)\gnu tools arm embedded\7 2017-q4-major\arm-none-eabi\include\c++\7.2.1\cmath **** 
  25:c:\program files (x86)\gnu tools arm embedded\7 2017-q4-major\arm-none-eabi\include\c++\7.2.1\cmath **** /** @file include/cmath
  26:c:\program files (x86)\gnu tools arm embedded\7 2017-q4-major\arm-none-eabi\include\c++\7.2.1\cmath ****  *  This is a Standard C++ Library file.  You should @c \#include this file
  27:c:\program files (x86)\gnu tools arm embedded\7 2017-q4-major\arm-none-eabi\include\c++\7.2.1\cmath ****  *  in your programs, rather than any of the @a *.h implementation files.
  28:c:\program files (x86)\gnu tools arm embedded\7 2017-q4-major\arm-none-eabi\include\c++\7.2.1\cmath ****  *
  29:c:\program files (x86)\gnu tools arm embedded\7 2017-q4-major\arm-none-eabi\include\c++\7.2.1\cmath ****  *  This is the C++ version of the Standard C Library header @c math.h,
  30:c:\program files (x86)\gnu tools arm embedded\7 2017-q4-major\arm-none-eabi\include\c++\7.2.1\cmath ****  *  and its contents are (mostly) the same as that header, but are all
  31:c:\program files (x86)\gnu tools arm embedded\7 2017-q4-major\arm-none-eabi\include\c++\7.2.1\cmath ****  *  contained in the namespace @c std (except for names which are defined
  32:c:\program files (x86)\gnu tools arm embedded\7 2017-q4-major\arm-none-eabi\include\c++\7.2.1\cmath ****  *  as macros in C).
  33:c:\program files (x86)\gnu tools arm embedded\7 2017-q4-major\arm-none-eabi\include\c++\7.2.1\cmath ****  */
  34:c:\program files (x86)\gnu tools arm embedded\7 2017-q4-major\arm-none-eabi\include\c++\7.2.1\cmath **** 
  35:c:\program files (x86)\gnu tools arm embedded\7 2017-q4-major\arm-none-eabi\include\c++\7.2.1\cmath **** //
  36:c:\program files (x86)\gnu tools arm embedded\7 2017-q4-major\arm-none-eabi\include\c++\7.2.1\cmath **** // ISO C++ 14882: 26.5  C library
  37:c:\program files (x86)\gnu tools arm embedded\7 2017-q4-major\arm-none-eabi\include\c++\7.2.1\cmath **** //
  38:c:\program files (x86)\gnu tools arm embedded\7 2017-q4-major\arm-none-eabi\include\c++\7.2.1\cmath **** 
  39:c:\program files (x86)\gnu tools arm embedded\7 2017-q4-major\arm-none-eabi\include\c++\7.2.1\cmath **** #pragma GCC system_header
  40:c:\program files (x86)\gnu tools arm embedded\7 2017-q4-major\arm-none-eabi\include\c++\7.2.1\cmath **** 
  41:c:\program files (x86)\gnu tools arm embedded\7 2017-q4-major\arm-none-eabi\include\c++\7.2.1\cmath **** #include <bits/c++config.h>
  42:c:\program files (x86)\gnu tools arm embedded\7 2017-q4-major\arm-none-eabi\include\c++\7.2.1\cmath **** #include <bits/cpp_type_traits.h>
  43:c:\program files (x86)\gnu tools arm embedded\7 2017-q4-major\arm-none-eabi\include\c++\7.2.1\cmath **** #include <ext/type_traits.h>
  44:c:\program files (x86)\gnu tools arm embedded\7 2017-q4-major\arm-none-eabi\include\c++\7.2.1\cmath **** #define _GLIBCXX_INCLUDE_NEXT_C_HEADERS
  45:c:\program files (x86)\gnu tools arm embedded\7 2017-q4-major\arm-none-eabi\include\c++\7.2.1\cmath **** #include_next <math.h>
  46:c:\program files (x86)\gnu tools arm embedded\7 2017-q4-major\arm-none-eabi\include\c++\7.2.1\cmath **** #undef _GLIBCXX_INCLUDE_NEXT_C_HEADERS
  47:c:\program files (x86)\gnu tools arm embedded\7 2017-q4-major\arm-none-eabi\include\c++\7.2.1\cmath **** #include <bits/std_abs.h>
  48:c:\program files (x86)\gnu tools arm embedded\7 2017-q4-major\arm-none-eabi\include\c++\7.2.1\cmath **** 
  49:c:\program files (x86)\gnu tools arm embedded\7 2017-q4-major\arm-none-eabi\include\c++\7.2.1\cmath **** #ifndef _GLIBCXX_CMATH
  50:c:\program files (x86)\gnu tools arm embedded\7 2017-q4-major\arm-none-eabi\include\c++\7.2.1\cmath **** #define _GLIBCXX_CMATH 1
  51:c:\program files (x86)\gnu tools arm embedded\7 2017-q4-major\arm-none-eabi\include\c++\7.2.1\cmath **** 
  52:c:\program files (x86)\gnu tools arm embedded\7 2017-q4-major\arm-none-eabi\include\c++\7.2.1\cmath **** // Get rid of those macros defined in <math.h> in lieu of real functions.
  53:c:\program files (x86)\gnu tools arm embedded\7 2017-q4-major\arm-none-eabi\include\c++\7.2.1\cmath **** #undef div
ARM GAS  C:\Users\Prashant\AppData\Local\Temp\ccEY5C3W.s 			page 25


  54:c:\program files (x86)\gnu tools arm embedded\7 2017-q4-major\arm-none-eabi\include\c++\7.2.1\cmath **** #undef acos
  55:c:\program files (x86)\gnu tools arm embedded\7 2017-q4-major\arm-none-eabi\include\c++\7.2.1\cmath **** #undef asin
  56:c:\program files (x86)\gnu tools arm embedded\7 2017-q4-major\arm-none-eabi\include\c++\7.2.1\cmath **** #undef atan
  57:c:\program files (x86)\gnu tools arm embedded\7 2017-q4-major\arm-none-eabi\include\c++\7.2.1\cmath **** #undef atan2
  58:c:\program files (x86)\gnu tools arm embedded\7 2017-q4-major\arm-none-eabi\include\c++\7.2.1\cmath **** #undef ceil
  59:c:\program files (x86)\gnu tools arm embedded\7 2017-q4-major\arm-none-eabi\include\c++\7.2.1\cmath **** #undef cos
  60:c:\program files (x86)\gnu tools arm embedded\7 2017-q4-major\arm-none-eabi\include\c++\7.2.1\cmath **** #undef cosh
  61:c:\program files (x86)\gnu tools arm embedded\7 2017-q4-major\arm-none-eabi\include\c++\7.2.1\cmath **** #undef exp
  62:c:\program files (x86)\gnu tools arm embedded\7 2017-q4-major\arm-none-eabi\include\c++\7.2.1\cmath **** #undef fabs
  63:c:\program files (x86)\gnu tools arm embedded\7 2017-q4-major\arm-none-eabi\include\c++\7.2.1\cmath **** #undef floor
  64:c:\program files (x86)\gnu tools arm embedded\7 2017-q4-major\arm-none-eabi\include\c++\7.2.1\cmath **** #undef fmod
  65:c:\program files (x86)\gnu tools arm embedded\7 2017-q4-major\arm-none-eabi\include\c++\7.2.1\cmath **** #undef frexp
  66:c:\program files (x86)\gnu tools arm embedded\7 2017-q4-major\arm-none-eabi\include\c++\7.2.1\cmath **** #undef ldexp
  67:c:\program files (x86)\gnu tools arm embedded\7 2017-q4-major\arm-none-eabi\include\c++\7.2.1\cmath **** #undef log
  68:c:\program files (x86)\gnu tools arm embedded\7 2017-q4-major\arm-none-eabi\include\c++\7.2.1\cmath **** #undef log10
  69:c:\program files (x86)\gnu tools arm embedded\7 2017-q4-major\arm-none-eabi\include\c++\7.2.1\cmath **** #undef modf
  70:c:\program files (x86)\gnu tools arm embedded\7 2017-q4-major\arm-none-eabi\include\c++\7.2.1\cmath **** #undef pow
  71:c:\program files (x86)\gnu tools arm embedded\7 2017-q4-major\arm-none-eabi\include\c++\7.2.1\cmath **** #undef sin
  72:c:\program files (x86)\gnu tools arm embedded\7 2017-q4-major\arm-none-eabi\include\c++\7.2.1\cmath **** #undef sinh
  73:c:\program files (x86)\gnu tools arm embedded\7 2017-q4-major\arm-none-eabi\include\c++\7.2.1\cmath **** #undef sqrt
  74:c:\program files (x86)\gnu tools arm embedded\7 2017-q4-major\arm-none-eabi\include\c++\7.2.1\cmath **** #undef tan
  75:c:\program files (x86)\gnu tools arm embedded\7 2017-q4-major\arm-none-eabi\include\c++\7.2.1\cmath **** #undef tanh
  76:c:\program files (x86)\gnu tools arm embedded\7 2017-q4-major\arm-none-eabi\include\c++\7.2.1\cmath **** 
  77:c:\program files (x86)\gnu tools arm embedded\7 2017-q4-major\arm-none-eabi\include\c++\7.2.1\cmath **** extern "C++"
  78:c:\program files (x86)\gnu tools arm embedded\7 2017-q4-major\arm-none-eabi\include\c++\7.2.1\cmath **** {
  79:c:\program files (x86)\gnu tools arm embedded\7 2017-q4-major\arm-none-eabi\include\c++\7.2.1\cmath **** namespace std _GLIBCXX_VISIBILITY(default)
  80:c:\program files (x86)\gnu tools arm embedded\7 2017-q4-major\arm-none-eabi\include\c++\7.2.1\cmath **** {
  81:c:\program files (x86)\gnu tools arm embedded\7 2017-q4-major\arm-none-eabi\include\c++\7.2.1\cmath **** _GLIBCXX_BEGIN_NAMESPACE_VERSION
  82:c:\program files (x86)\gnu tools arm embedded\7 2017-q4-major\arm-none-eabi\include\c++\7.2.1\cmath **** 
  83:c:\program files (x86)\gnu tools arm embedded\7 2017-q4-major\arm-none-eabi\include\c++\7.2.1\cmath ****   using ::acos;
  84:c:\program files (x86)\gnu tools arm embedded\7 2017-q4-major\arm-none-eabi\include\c++\7.2.1\cmath **** 
  85:c:\program files (x86)\gnu tools arm embedded\7 2017-q4-major\arm-none-eabi\include\c++\7.2.1\cmath **** #ifndef __CORRECT_ISO_CPP_MATH_H_PROTO
  86:c:\program files (x86)\gnu tools arm embedded\7 2017-q4-major\arm-none-eabi\include\c++\7.2.1\cmath ****   inline _GLIBCXX_CONSTEXPR float
  87:c:\program files (x86)\gnu tools arm embedded\7 2017-q4-major\arm-none-eabi\include\c++\7.2.1\cmath ****   acos(float __x)
  88:c:\program files (x86)\gnu tools arm embedded\7 2017-q4-major\arm-none-eabi\include\c++\7.2.1\cmath ****   { return __builtin_acosf(__x); }
  89:c:\program files (x86)\gnu tools arm embedded\7 2017-q4-major\arm-none-eabi\include\c++\7.2.1\cmath **** 
  90:c:\program files (x86)\gnu tools arm embedded\7 2017-q4-major\arm-none-eabi\include\c++\7.2.1\cmath ****   inline _GLIBCXX_CONSTEXPR long double
  91:c:\program files (x86)\gnu tools arm embedded\7 2017-q4-major\arm-none-eabi\include\c++\7.2.1\cmath ****   acos(long double __x)
  92:c:\program files (x86)\gnu tools arm embedded\7 2017-q4-major\arm-none-eabi\include\c++\7.2.1\cmath ****   { return __builtin_acosl(__x); }
  93:c:\program files (x86)\gnu tools arm embedded\7 2017-q4-major\arm-none-eabi\include\c++\7.2.1\cmath **** #endif
  94:c:\program files (x86)\gnu tools arm embedded\7 2017-q4-major\arm-none-eabi\include\c++\7.2.1\cmath **** 
  95:c:\program files (x86)\gnu tools arm embedded\7 2017-q4-major\arm-none-eabi\include\c++\7.2.1\cmath ****   template<typename _Tp>
  96:c:\program files (x86)\gnu tools arm embedded\7 2017-q4-major\arm-none-eabi\include\c++\7.2.1\cmath ****     inline _GLIBCXX_CONSTEXPR
  97:c:\program files (x86)\gnu tools arm embedded\7 2017-q4-major\arm-none-eabi\include\c++\7.2.1\cmath ****     typename __gnu_cxx::__enable_if<__is_integer<_Tp>::__value, 
  98:c:\program files (x86)\gnu tools arm embedded\7 2017-q4-major\arm-none-eabi\include\c++\7.2.1\cmath ****                                     double>::__type
  99:c:\program files (x86)\gnu tools arm embedded\7 2017-q4-major\arm-none-eabi\include\c++\7.2.1\cmath ****     acos(_Tp __x)
 100:c:\program files (x86)\gnu tools arm embedded\7 2017-q4-major\arm-none-eabi\include\c++\7.2.1\cmath ****     { return __builtin_acos(__x); }
 101:c:\program files (x86)\gnu tools arm embedded\7 2017-q4-major\arm-none-eabi\include\c++\7.2.1\cmath **** 
 102:c:\program files (x86)\gnu tools arm embedded\7 2017-q4-major\arm-none-eabi\include\c++\7.2.1\cmath ****   using ::asin;
 103:c:\program files (x86)\gnu tools arm embedded\7 2017-q4-major\arm-none-eabi\include\c++\7.2.1\cmath **** 
 104:c:\program files (x86)\gnu tools arm embedded\7 2017-q4-major\arm-none-eabi\include\c++\7.2.1\cmath **** #ifndef __CORRECT_ISO_CPP_MATH_H_PROTO
 105:c:\program files (x86)\gnu tools arm embedded\7 2017-q4-major\arm-none-eabi\include\c++\7.2.1\cmath ****   inline _GLIBCXX_CONSTEXPR float
 106:c:\program files (x86)\gnu tools arm embedded\7 2017-q4-major\arm-none-eabi\include\c++\7.2.1\cmath ****   asin(float __x)
 107:c:\program files (x86)\gnu tools arm embedded\7 2017-q4-major\arm-none-eabi\include\c++\7.2.1\cmath ****   { return __builtin_asinf(__x); }
 108:c:\program files (x86)\gnu tools arm embedded\7 2017-q4-major\arm-none-eabi\include\c++\7.2.1\cmath **** 
 109:c:\program files (x86)\gnu tools arm embedded\7 2017-q4-major\arm-none-eabi\include\c++\7.2.1\cmath ****   inline _GLIBCXX_CONSTEXPR long double
 110:c:\program files (x86)\gnu tools arm embedded\7 2017-q4-major\arm-none-eabi\include\c++\7.2.1\cmath ****   asin(long double __x)
ARM GAS  C:\Users\Prashant\AppData\Local\Temp\ccEY5C3W.s 			page 26


 111:c:\program files (x86)\gnu tools arm embedded\7 2017-q4-major\arm-none-eabi\include\c++\7.2.1\cmath ****   { return __builtin_asinl(__x); }
 112:c:\program files (x86)\gnu tools arm embedded\7 2017-q4-major\arm-none-eabi\include\c++\7.2.1\cmath **** #endif
 113:c:\program files (x86)\gnu tools arm embedded\7 2017-q4-major\arm-none-eabi\include\c++\7.2.1\cmath **** 
 114:c:\program files (x86)\gnu tools arm embedded\7 2017-q4-major\arm-none-eabi\include\c++\7.2.1\cmath ****   template<typename _Tp>
 115:c:\program files (x86)\gnu tools arm embedded\7 2017-q4-major\arm-none-eabi\include\c++\7.2.1\cmath ****     inline _GLIBCXX_CONSTEXPR
 116:c:\program files (x86)\gnu tools arm embedded\7 2017-q4-major\arm-none-eabi\include\c++\7.2.1\cmath ****     typename __gnu_cxx::__enable_if<__is_integer<_Tp>::__value,
 117:c:\program files (x86)\gnu tools arm embedded\7 2017-q4-major\arm-none-eabi\include\c++\7.2.1\cmath ****                                     double>::__type
 118:c:\program files (x86)\gnu tools arm embedded\7 2017-q4-major\arm-none-eabi\include\c++\7.2.1\cmath ****     asin(_Tp __x)
 119:c:\program files (x86)\gnu tools arm embedded\7 2017-q4-major\arm-none-eabi\include\c++\7.2.1\cmath ****     { return __builtin_asin(__x); }
 120:c:\program files (x86)\gnu tools arm embedded\7 2017-q4-major\arm-none-eabi\include\c++\7.2.1\cmath **** 
 121:c:\program files (x86)\gnu tools arm embedded\7 2017-q4-major\arm-none-eabi\include\c++\7.2.1\cmath ****   using ::atan;
 122:c:\program files (x86)\gnu tools arm embedded\7 2017-q4-major\arm-none-eabi\include\c++\7.2.1\cmath **** 
 123:c:\program files (x86)\gnu tools arm embedded\7 2017-q4-major\arm-none-eabi\include\c++\7.2.1\cmath **** #ifndef __CORRECT_ISO_CPP_MATH_H_PROTO
 124:c:\program files (x86)\gnu tools arm embedded\7 2017-q4-major\arm-none-eabi\include\c++\7.2.1\cmath ****   inline _GLIBCXX_CONSTEXPR float
 125:c:\program files (x86)\gnu tools arm embedded\7 2017-q4-major\arm-none-eabi\include\c++\7.2.1\cmath ****   atan(float __x)
 126:c:\program files (x86)\gnu tools arm embedded\7 2017-q4-major\arm-none-eabi\include\c++\7.2.1\cmath ****   { return __builtin_atanf(__x); }
 127:c:\program files (x86)\gnu tools arm embedded\7 2017-q4-major\arm-none-eabi\include\c++\7.2.1\cmath **** 
 128:c:\program files (x86)\gnu tools arm embedded\7 2017-q4-major\arm-none-eabi\include\c++\7.2.1\cmath ****   inline _GLIBCXX_CONSTEXPR long double
 129:c:\program files (x86)\gnu tools arm embedded\7 2017-q4-major\arm-none-eabi\include\c++\7.2.1\cmath ****   atan(long double __x)
 130:c:\program files (x86)\gnu tools arm embedded\7 2017-q4-major\arm-none-eabi\include\c++\7.2.1\cmath ****   { return __builtin_atanl(__x); }
 131:c:\program files (x86)\gnu tools arm embedded\7 2017-q4-major\arm-none-eabi\include\c++\7.2.1\cmath **** #endif
 132:c:\program files (x86)\gnu tools arm embedded\7 2017-q4-major\arm-none-eabi\include\c++\7.2.1\cmath **** 
 133:c:\program files (x86)\gnu tools arm embedded\7 2017-q4-major\arm-none-eabi\include\c++\7.2.1\cmath ****   template<typename _Tp>
 134:c:\program files (x86)\gnu tools arm embedded\7 2017-q4-major\arm-none-eabi\include\c++\7.2.1\cmath ****     inline _GLIBCXX_CONSTEXPR
 135:c:\program files (x86)\gnu tools arm embedded\7 2017-q4-major\arm-none-eabi\include\c++\7.2.1\cmath ****     typename __gnu_cxx::__enable_if<__is_integer<_Tp>::__value,
 136:c:\program files (x86)\gnu tools arm embedded\7 2017-q4-major\arm-none-eabi\include\c++\7.2.1\cmath ****                                     double>::__type
 137:c:\program files (x86)\gnu tools arm embedded\7 2017-q4-major\arm-none-eabi\include\c++\7.2.1\cmath ****     atan(_Tp __x)
 138:c:\program files (x86)\gnu tools arm embedded\7 2017-q4-major\arm-none-eabi\include\c++\7.2.1\cmath ****     { return __builtin_atan(__x); }
 139:c:\program files (x86)\gnu tools arm embedded\7 2017-q4-major\arm-none-eabi\include\c++\7.2.1\cmath **** 
 140:c:\program files (x86)\gnu tools arm embedded\7 2017-q4-major\arm-none-eabi\include\c++\7.2.1\cmath ****   using ::atan2;
 141:c:\program files (x86)\gnu tools arm embedded\7 2017-q4-major\arm-none-eabi\include\c++\7.2.1\cmath **** 
 142:c:\program files (x86)\gnu tools arm embedded\7 2017-q4-major\arm-none-eabi\include\c++\7.2.1\cmath **** #ifndef __CORRECT_ISO_CPP_MATH_H_PROTO
 143:c:\program files (x86)\gnu tools arm embedded\7 2017-q4-major\arm-none-eabi\include\c++\7.2.1\cmath ****   inline _GLIBCXX_CONSTEXPR float
 144:c:\program files (x86)\gnu tools arm embedded\7 2017-q4-major\arm-none-eabi\include\c++\7.2.1\cmath ****   atan2(float __y, float __x)
 145:c:\program files (x86)\gnu tools arm embedded\7 2017-q4-major\arm-none-eabi\include\c++\7.2.1\cmath ****   { return __builtin_atan2f(__y, __x); }
 146:c:\program files (x86)\gnu tools arm embedded\7 2017-q4-major\arm-none-eabi\include\c++\7.2.1\cmath **** 
 147:c:\program files (x86)\gnu tools arm embedded\7 2017-q4-major\arm-none-eabi\include\c++\7.2.1\cmath ****   inline _GLIBCXX_CONSTEXPR long double
 148:c:\program files (x86)\gnu tools arm embedded\7 2017-q4-major\arm-none-eabi\include\c++\7.2.1\cmath ****   atan2(long double __y, long double __x)
 149:c:\program files (x86)\gnu tools arm embedded\7 2017-q4-major\arm-none-eabi\include\c++\7.2.1\cmath ****   { return __builtin_atan2l(__y, __x); }
 150:c:\program files (x86)\gnu tools arm embedded\7 2017-q4-major\arm-none-eabi\include\c++\7.2.1\cmath **** #endif
 151:c:\program files (x86)\gnu tools arm embedded\7 2017-q4-major\arm-none-eabi\include\c++\7.2.1\cmath **** 
 152:c:\program files (x86)\gnu tools arm embedded\7 2017-q4-major\arm-none-eabi\include\c++\7.2.1\cmath ****   template<typename _Tp, typename _Up>
 153:c:\program files (x86)\gnu tools arm embedded\7 2017-q4-major\arm-none-eabi\include\c++\7.2.1\cmath ****     inline _GLIBCXX_CONSTEXPR
 154:c:\program files (x86)\gnu tools arm embedded\7 2017-q4-major\arm-none-eabi\include\c++\7.2.1\cmath ****     typename __gnu_cxx::__promote_2<_Tp, _Up>::__type
 155:c:\program files (x86)\gnu tools arm embedded\7 2017-q4-major\arm-none-eabi\include\c++\7.2.1\cmath ****     atan2(_Tp __y, _Up __x)
 156:c:\program files (x86)\gnu tools arm embedded\7 2017-q4-major\arm-none-eabi\include\c++\7.2.1\cmath ****     {
 157:c:\program files (x86)\gnu tools arm embedded\7 2017-q4-major\arm-none-eabi\include\c++\7.2.1\cmath ****       typedef typename __gnu_cxx::__promote_2<_Tp, _Up>::__type __type;
 158:c:\program files (x86)\gnu tools arm embedded\7 2017-q4-major\arm-none-eabi\include\c++\7.2.1\cmath ****       return atan2(__type(__y), __type(__x));
 159:c:\program files (x86)\gnu tools arm embedded\7 2017-q4-major\arm-none-eabi\include\c++\7.2.1\cmath ****     }
 160:c:\program files (x86)\gnu tools arm embedded\7 2017-q4-major\arm-none-eabi\include\c++\7.2.1\cmath **** 
 161:c:\program files (x86)\gnu tools arm embedded\7 2017-q4-major\arm-none-eabi\include\c++\7.2.1\cmath ****   using ::ceil;
 162:c:\program files (x86)\gnu tools arm embedded\7 2017-q4-major\arm-none-eabi\include\c++\7.2.1\cmath **** 
 163:c:\program files (x86)\gnu tools arm embedded\7 2017-q4-major\arm-none-eabi\include\c++\7.2.1\cmath **** #ifndef __CORRECT_ISO_CPP_MATH_H_PROTO
 164:c:\program files (x86)\gnu tools arm embedded\7 2017-q4-major\arm-none-eabi\include\c++\7.2.1\cmath ****   inline _GLIBCXX_CONSTEXPR float
 165:c:\program files (x86)\gnu tools arm embedded\7 2017-q4-major\arm-none-eabi\include\c++\7.2.1\cmath ****   ceil(float __x)
 166:c:\program files (x86)\gnu tools arm embedded\7 2017-q4-major\arm-none-eabi\include\c++\7.2.1\cmath ****   { return __builtin_ceilf(__x); }
 167:c:\program files (x86)\gnu tools arm embedded\7 2017-q4-major\arm-none-eabi\include\c++\7.2.1\cmath **** 
ARM GAS  C:\Users\Prashant\AppData\Local\Temp\ccEY5C3W.s 			page 27


 168:c:\program files (x86)\gnu tools arm embedded\7 2017-q4-major\arm-none-eabi\include\c++\7.2.1\cmath ****   inline _GLIBCXX_CONSTEXPR long double
 169:c:\program files (x86)\gnu tools arm embedded\7 2017-q4-major\arm-none-eabi\include\c++\7.2.1\cmath ****   ceil(long double __x)
 170:c:\program files (x86)\gnu tools arm embedded\7 2017-q4-major\arm-none-eabi\include\c++\7.2.1\cmath ****   { return __builtin_ceill(__x); }
 171:c:\program files (x86)\gnu tools arm embedded\7 2017-q4-major\arm-none-eabi\include\c++\7.2.1\cmath **** #endif
 172:c:\program files (x86)\gnu tools arm embedded\7 2017-q4-major\arm-none-eabi\include\c++\7.2.1\cmath **** 
 173:c:\program files (x86)\gnu tools arm embedded\7 2017-q4-major\arm-none-eabi\include\c++\7.2.1\cmath ****   template<typename _Tp>
 174:c:\program files (x86)\gnu tools arm embedded\7 2017-q4-major\arm-none-eabi\include\c++\7.2.1\cmath ****     inline _GLIBCXX_CONSTEXPR
 175:c:\program files (x86)\gnu tools arm embedded\7 2017-q4-major\arm-none-eabi\include\c++\7.2.1\cmath ****     typename __gnu_cxx::__enable_if<__is_integer<_Tp>::__value, 
 176:c:\program files (x86)\gnu tools arm embedded\7 2017-q4-major\arm-none-eabi\include\c++\7.2.1\cmath ****                                     double>::__type
 177:c:\program files (x86)\gnu tools arm embedded\7 2017-q4-major\arm-none-eabi\include\c++\7.2.1\cmath ****     ceil(_Tp __x)
 178:c:\program files (x86)\gnu tools arm embedded\7 2017-q4-major\arm-none-eabi\include\c++\7.2.1\cmath ****     { return __builtin_ceil(__x); }
 179:c:\program files (x86)\gnu tools arm embedded\7 2017-q4-major\arm-none-eabi\include\c++\7.2.1\cmath **** 
 180:c:\program files (x86)\gnu tools arm embedded\7 2017-q4-major\arm-none-eabi\include\c++\7.2.1\cmath ****   using ::cos;
 181:c:\program files (x86)\gnu tools arm embedded\7 2017-q4-major\arm-none-eabi\include\c++\7.2.1\cmath **** 
 182:c:\program files (x86)\gnu tools arm embedded\7 2017-q4-major\arm-none-eabi\include\c++\7.2.1\cmath **** #ifndef __CORRECT_ISO_CPP_MATH_H_PROTO
 183:c:\program files (x86)\gnu tools arm embedded\7 2017-q4-major\arm-none-eabi\include\c++\7.2.1\cmath ****   inline _GLIBCXX_CONSTEXPR float
 184:c:\program files (x86)\gnu tools arm embedded\7 2017-q4-major\arm-none-eabi\include\c++\7.2.1\cmath ****   cos(float __x)
 185:c:\program files (x86)\gnu tools arm embedded\7 2017-q4-major\arm-none-eabi\include\c++\7.2.1\cmath ****   { return __builtin_cosf(__x); }
 186:c:\program files (x86)\gnu tools arm embedded\7 2017-q4-major\arm-none-eabi\include\c++\7.2.1\cmath **** 
 187:c:\program files (x86)\gnu tools arm embedded\7 2017-q4-major\arm-none-eabi\include\c++\7.2.1\cmath ****   inline _GLIBCXX_CONSTEXPR long double
 188:c:\program files (x86)\gnu tools arm embedded\7 2017-q4-major\arm-none-eabi\include\c++\7.2.1\cmath ****   cos(long double __x)
 189:c:\program files (x86)\gnu tools arm embedded\7 2017-q4-major\arm-none-eabi\include\c++\7.2.1\cmath ****   { return __builtin_cosl(__x); }
 190:c:\program files (x86)\gnu tools arm embedded\7 2017-q4-major\arm-none-eabi\include\c++\7.2.1\cmath **** #endif
 191:c:\program files (x86)\gnu tools arm embedded\7 2017-q4-major\arm-none-eabi\include\c++\7.2.1\cmath **** 
 192:c:\program files (x86)\gnu tools arm embedded\7 2017-q4-major\arm-none-eabi\include\c++\7.2.1\cmath ****   template<typename _Tp>
 193:c:\program files (x86)\gnu tools arm embedded\7 2017-q4-major\arm-none-eabi\include\c++\7.2.1\cmath ****     inline _GLIBCXX_CONSTEXPR
 194:c:\program files (x86)\gnu tools arm embedded\7 2017-q4-major\arm-none-eabi\include\c++\7.2.1\cmath ****     typename __gnu_cxx::__enable_if<__is_integer<_Tp>::__value,
 195:c:\program files (x86)\gnu tools arm embedded\7 2017-q4-major\arm-none-eabi\include\c++\7.2.1\cmath ****                                     double>::__type
 196:c:\program files (x86)\gnu tools arm embedded\7 2017-q4-major\arm-none-eabi\include\c++\7.2.1\cmath ****     cos(_Tp __x)
 197:c:\program files (x86)\gnu tools arm embedded\7 2017-q4-major\arm-none-eabi\include\c++\7.2.1\cmath ****     { return __builtin_cos(__x); }
 198:c:\program files (x86)\gnu tools arm embedded\7 2017-q4-major\arm-none-eabi\include\c++\7.2.1\cmath **** 
 199:c:\program files (x86)\gnu tools arm embedded\7 2017-q4-major\arm-none-eabi\include\c++\7.2.1\cmath ****   using ::cosh;
 200:c:\program files (x86)\gnu tools arm embedded\7 2017-q4-major\arm-none-eabi\include\c++\7.2.1\cmath **** 
 201:c:\program files (x86)\gnu tools arm embedded\7 2017-q4-major\arm-none-eabi\include\c++\7.2.1\cmath **** #ifndef __CORRECT_ISO_CPP_MATH_H_PROTO
 202:c:\program files (x86)\gnu tools arm embedded\7 2017-q4-major\arm-none-eabi\include\c++\7.2.1\cmath ****   inline _GLIBCXX_CONSTEXPR float
 203:c:\program files (x86)\gnu tools arm embedded\7 2017-q4-major\arm-none-eabi\include\c++\7.2.1\cmath ****   cosh(float __x)
 204:c:\program files (x86)\gnu tools arm embedded\7 2017-q4-major\arm-none-eabi\include\c++\7.2.1\cmath ****   { return __builtin_coshf(__x); }
 205:c:\program files (x86)\gnu tools arm embedded\7 2017-q4-major\arm-none-eabi\include\c++\7.2.1\cmath **** 
 206:c:\program files (x86)\gnu tools arm embedded\7 2017-q4-major\arm-none-eabi\include\c++\7.2.1\cmath ****   inline _GLIBCXX_CONSTEXPR long double
 207:c:\program files (x86)\gnu tools arm embedded\7 2017-q4-major\arm-none-eabi\include\c++\7.2.1\cmath ****   cosh(long double __x)
 208:c:\program files (x86)\gnu tools arm embedded\7 2017-q4-major\arm-none-eabi\include\c++\7.2.1\cmath ****   { return __builtin_coshl(__x); }
 209:c:\program files (x86)\gnu tools arm embedded\7 2017-q4-major\arm-none-eabi\include\c++\7.2.1\cmath **** #endif
 210:c:\program files (x86)\gnu tools arm embedded\7 2017-q4-major\arm-none-eabi\include\c++\7.2.1\cmath **** 
 211:c:\program files (x86)\gnu tools arm embedded\7 2017-q4-major\arm-none-eabi\include\c++\7.2.1\cmath ****   template<typename _Tp>
 212:c:\program files (x86)\gnu tools arm embedded\7 2017-q4-major\arm-none-eabi\include\c++\7.2.1\cmath ****     inline _GLIBCXX_CONSTEXPR
 213:c:\program files (x86)\gnu tools arm embedded\7 2017-q4-major\arm-none-eabi\include\c++\7.2.1\cmath ****     typename __gnu_cxx::__enable_if<__is_integer<_Tp>::__value,
 214:c:\program files (x86)\gnu tools arm embedded\7 2017-q4-major\arm-none-eabi\include\c++\7.2.1\cmath ****                                     double>::__type
 215:c:\program files (x86)\gnu tools arm embedded\7 2017-q4-major\arm-none-eabi\include\c++\7.2.1\cmath ****     cosh(_Tp __x)
 216:c:\program files (x86)\gnu tools arm embedded\7 2017-q4-major\arm-none-eabi\include\c++\7.2.1\cmath ****     { return __builtin_cosh(__x); }
 217:c:\program files (x86)\gnu tools arm embedded\7 2017-q4-major\arm-none-eabi\include\c++\7.2.1\cmath **** 
 218:c:\program files (x86)\gnu tools arm embedded\7 2017-q4-major\arm-none-eabi\include\c++\7.2.1\cmath ****   using ::exp;
 219:c:\program files (x86)\gnu tools arm embedded\7 2017-q4-major\arm-none-eabi\include\c++\7.2.1\cmath **** 
 220:c:\program files (x86)\gnu tools arm embedded\7 2017-q4-major\arm-none-eabi\include\c++\7.2.1\cmath **** #ifndef __CORRECT_ISO_CPP_MATH_H_PROTO
 221:c:\program files (x86)\gnu tools arm embedded\7 2017-q4-major\arm-none-eabi\include\c++\7.2.1\cmath ****   inline _GLIBCXX_CONSTEXPR float
 222:c:\program files (x86)\gnu tools arm embedded\7 2017-q4-major\arm-none-eabi\include\c++\7.2.1\cmath ****   exp(float __x)
 223:c:\program files (x86)\gnu tools arm embedded\7 2017-q4-major\arm-none-eabi\include\c++\7.2.1\cmath ****   { return __builtin_expf(__x); }
 224:c:\program files (x86)\gnu tools arm embedded\7 2017-q4-major\arm-none-eabi\include\c++\7.2.1\cmath **** 
ARM GAS  C:\Users\Prashant\AppData\Local\Temp\ccEY5C3W.s 			page 28


 225:c:\program files (x86)\gnu tools arm embedded\7 2017-q4-major\arm-none-eabi\include\c++\7.2.1\cmath ****   inline _GLIBCXX_CONSTEXPR long double
 226:c:\program files (x86)\gnu tools arm embedded\7 2017-q4-major\arm-none-eabi\include\c++\7.2.1\cmath ****   exp(long double __x)
 227:c:\program files (x86)\gnu tools arm embedded\7 2017-q4-major\arm-none-eabi\include\c++\7.2.1\cmath ****   { return __builtin_expl(__x); }
 228:c:\program files (x86)\gnu tools arm embedded\7 2017-q4-major\arm-none-eabi\include\c++\7.2.1\cmath **** #endif
 229:c:\program files (x86)\gnu tools arm embedded\7 2017-q4-major\arm-none-eabi\include\c++\7.2.1\cmath **** 
 230:c:\program files (x86)\gnu tools arm embedded\7 2017-q4-major\arm-none-eabi\include\c++\7.2.1\cmath ****   template<typename _Tp>
 231:c:\program files (x86)\gnu tools arm embedded\7 2017-q4-major\arm-none-eabi\include\c++\7.2.1\cmath ****     inline _GLIBCXX_CONSTEXPR
 232:c:\program files (x86)\gnu tools arm embedded\7 2017-q4-major\arm-none-eabi\include\c++\7.2.1\cmath ****     typename __gnu_cxx::__enable_if<__is_integer<_Tp>::__value,
 233:c:\program files (x86)\gnu tools arm embedded\7 2017-q4-major\arm-none-eabi\include\c++\7.2.1\cmath ****                                     double>::__type
 234:c:\program files (x86)\gnu tools arm embedded\7 2017-q4-major\arm-none-eabi\include\c++\7.2.1\cmath ****     exp(_Tp __x)
 235:c:\program files (x86)\gnu tools arm embedded\7 2017-q4-major\arm-none-eabi\include\c++\7.2.1\cmath ****     { return __builtin_exp(__x); }
 236:c:\program files (x86)\gnu tools arm embedded\7 2017-q4-major\arm-none-eabi\include\c++\7.2.1\cmath **** 
 237:c:\program files (x86)\gnu tools arm embedded\7 2017-q4-major\arm-none-eabi\include\c++\7.2.1\cmath ****   using ::fabs;
 238:c:\program files (x86)\gnu tools arm embedded\7 2017-q4-major\arm-none-eabi\include\c++\7.2.1\cmath **** 
 239:c:\program files (x86)\gnu tools arm embedded\7 2017-q4-major\arm-none-eabi\include\c++\7.2.1\cmath **** #ifndef __CORRECT_ISO_CPP_MATH_H_PROTO
 240:c:\program files (x86)\gnu tools arm embedded\7 2017-q4-major\arm-none-eabi\include\c++\7.2.1\cmath ****   inline _GLIBCXX_CONSTEXPR float
 241:c:\program files (x86)\gnu tools arm embedded\7 2017-q4-major\arm-none-eabi\include\c++\7.2.1\cmath ****   fabs(float __x)
 242:c:\program files (x86)\gnu tools arm embedded\7 2017-q4-major\arm-none-eabi\include\c++\7.2.1\cmath ****   { return __builtin_fabsf(__x); }
 1026              		.loc 4 242 0
 1027 0020 F0EEE77A 		vabs.f32	s15, s15
 1028              	.LVL132:
 1029              	.LBE154:
 1030              	.LBE153:
 1031              		.loc 1 154 0
 1032 0024 9FED087A 		vldr.32	s14, .L88
 1033 0028 F4EEC77A 		vcmpe.f32	s15, s14
 1034 002c F1EE10FA 		vmrs	APSR_nzcv, FPSCR
 1035 0030 07DC     		bgt	.L87
 153:Core/Src/utils/mat.cpp ****                         if (fabs(matrix_[i][j]) > 1e-8f) {
 1036              		.loc 1 153 0 discriminator 2
 1037 0032 0133     		adds	r3, r3, #1
 1038              	.LVL133:
 1039 0034 DBB2     		uxtb	r3, r3
 1040              	.LVL134:
 1041 0036 E9E7     		b	.L84
 1042              	.L83:
 1043              	.LBE152:
 152:Core/Src/utils/mat.cpp ****                 for (uint8_t j = 0; j < cols_; ++j) {
 1044              		.loc 1 152 0 discriminator 2
 1045 0038 0131     		adds	r1, r1, #1
 1046              	.LVL135:
 1047 003a C9B2     		uxtb	r1, r1
 1048              	.LVL136:
 1049 003c E1E7     		b	.L85
 1050              	.LVL137:
 1051              	.L86:
 1052              	.LBE151:
 155:Core/Src/utils/mat.cpp ****                                 return false;
 156:Core/Src/utils/mat.cpp ****                         }
 157:Core/Src/utils/mat.cpp ****                 }
 158:Core/Src/utils/mat.cpp ****         }
 159:Core/Src/utils/mat.cpp ****         return true;
 1053              		.loc 1 159 0
 1054 003e 0120     		movs	r0, #1
 1055              	.LVL138:
 1056 0040 7047     		bx	lr
 1057              	.LVL139:
ARM GAS  C:\Users\Prashant\AppData\Local\Temp\ccEY5C3W.s 			page 29


 1058              	.L87:
 1059              	.LBB156:
 1060              	.LBB155:
 155:Core/Src/utils/mat.cpp ****                                 return false;
 1061              		.loc 1 155 0
 1062 0042 0020     		movs	r0, #0
 1063              	.LVL140:
 1064              	.LBE155:
 1065              	.LBE156:
 160:Core/Src/utils/mat.cpp **** }
 1066              		.loc 1 160 0
 1067 0044 7047     		bx	lr
 1068              	.L89:
 1069 0046 00BF     		.align	2
 1070              	.L88:
 1071 0048 77CC2B32 		.word	841731191
 1072              		.cfi_endproc
 1073              	.LFE412:
 1075              		.section	.text._ZN3Mat9swap_RowsEhh,"ax",%progbits
 1076              		.align	1
 1077              		.global	_ZN3Mat9swap_RowsEhh
 1078              		.syntax unified
 1079              		.thumb
 1080              		.thumb_func
 1081              		.fpu fpv4-sp-d16
 1083              	_ZN3Mat9swap_RowsEhh:
 1084              	.LFB413:
 161:Core/Src/utils/mat.cpp **** 
 162:Core/Src/utils/mat.cpp **** void Mat::swap_Rows(uint8_t a, uint8_t b)
 163:Core/Src/utils/mat.cpp **** {
 1085              		.loc 1 163 0
 1086              		.cfi_startproc
 1087              		@ args = 0, pretend = 0, frame = 0
 1088              		@ frame_needed = 0, uses_anonymous_args = 0
 1089              	.LVL141:
 1090 0000 F8B5     		push	{r3, r4, r5, r6, r7, lr}
 1091              	.LCFI17:
 1092              		.cfi_def_cfa_offset 24
 1093              		.cfi_offset 3, -24
 1094              		.cfi_offset 4, -20
 1095              		.cfi_offset 5, -16
 1096              		.cfi_offset 6, -12
 1097              		.cfi_offset 7, -8
 1098              		.cfi_offset 14, -4
 1099 0002 0446     		mov	r4, r0
 1100 0004 0D46     		mov	r5, r1
 1101 0006 1646     		mov	r6, r2
 164:Core/Src/utils/mat.cpp ****         if (a > rows_ || b > rows_) {
 1102              		.loc 1 164 0
 1103 0008 90F84030 		ldrb	r3, [r0, #64]	@ zero_extendqisi2
 1104 000c 8B42     		cmp	r3, r1
 1105 000e 01D3     		bcc	.L91
 1106              		.loc 1 164 0 is_stmt 0 discriminator 1
 1107 0010 9342     		cmp	r3, r2
 1108 0012 03D2     		bcs	.L92
 1109              	.L91:
 165:Core/Src/utils/mat.cpp ****                 _Error_Handler(__FILE__, __LINE__);
ARM GAS  C:\Users\Prashant\AppData\Local\Temp\ccEY5C3W.s 			page 30


 1110              		.loc 1 165 0 is_stmt 1
 1111 0014 A521     		movs	r1, #165
 1112              	.LVL142:
 1113 0016 0D48     		ldr	r0, .L96
 1114              	.LVL143:
 1115 0018 FFF7FEFF 		bl	_Error_Handler
 1116              	.LVL144:
 1117              	.L92:
 166:Core/Src/utils/mat.cpp ****         }
 167:Core/Src/utils/mat.cpp ****         if (a == b) {
 1118              		.loc 1 167 0
 1119 001c B542     		cmp	r5, r6
 1120 001e 13D0     		beq	.L90
 1121              	.LBB157:
 168:Core/Src/utils/mat.cpp ****                 return;
 169:Core/Src/utils/mat.cpp ****         }
 170:Core/Src/utils/mat.cpp **** 
 171:Core/Src/utils/mat.cpp ****         for (uint8_t j = 0; j < cols_; j++) {
 1122              		.loc 1 171 0
 1123 0020 0023     		movs	r3, #0
 1124              	.L94:
 1125              	.LVL145:
 1126              		.loc 1 171 0 is_stmt 0 discriminator 3
 1127 0022 94F84120 		ldrb	r2, [r4, #65]	@ zero_extendqisi2
 1128 0026 9A42     		cmp	r2, r3
 1129 0028 0ED9     		bls	.L90
 1130              	.LBB158:
 172:Core/Src/utils/mat.cpp ****                 float tmp = matrix_[a][j];
 1131              		.loc 1 172 0 is_stmt 1 discriminator 2
 1132 002a 03EB8501 		add	r1, r3, r5, lsl #2
 1133 002e 04EB8101 		add	r1, r4, r1, lsl #2
 1134 0032 0868     		ldr	r0, [r1]	@ float
 1135              	.LVL146:
 173:Core/Src/utils/mat.cpp ****                 matrix_[a][j] = matrix_[b][j];
 1136              		.loc 1 173 0 discriminator 2
 1137 0034 03EB8602 		add	r2, r3, r6, lsl #2
 1138 0038 04EB8202 		add	r2, r4, r2, lsl #2
 1139 003c 1768     		ldr	r7, [r2]	@ float
 1140 003e 0F60     		str	r7, [r1]	@ float
 174:Core/Src/utils/mat.cpp ****                 matrix_[b][j] = tmp;
 1141              		.loc 1 174 0 discriminator 2
 1142 0040 1060     		str	r0, [r2]	@ float
 1143              	.LBE158:
 171:Core/Src/utils/mat.cpp ****                 float tmp = matrix_[a][j];
 1144              		.loc 1 171 0 discriminator 2
 1145 0042 0133     		adds	r3, r3, #1
 1146              	.LVL147:
 1147 0044 DBB2     		uxtb	r3, r3
 1148              	.LVL148:
 1149 0046 ECE7     		b	.L94
 1150              	.LVL149:
 1151              	.L90:
 1152              	.LBE157:
 175:Core/Src/utils/mat.cpp ****         }
 176:Core/Src/utils/mat.cpp **** }
 1153              		.loc 1 176 0
 1154 0048 F8BD     		pop	{r3, r4, r5, r6, r7, pc}
ARM GAS  C:\Users\Prashant\AppData\Local\Temp\ccEY5C3W.s 			page 31


 1155              	.LVL150:
 1156              	.L97:
 1157 004a 00BF     		.align	2
 1158              	.L96:
 1159 004c 00000000 		.word	.LC0
 1160              		.cfi_endproc
 1161              	.LFE413:
 1163              		.section	.text._ZN3Mat9swap_ColsEjj,"ax",%progbits
 1164              		.align	1
 1165              		.global	_ZN3Mat9swap_ColsEjj
 1166              		.syntax unified
 1167              		.thumb
 1168              		.thumb_func
 1169              		.fpu fpv4-sp-d16
 1171              	_ZN3Mat9swap_ColsEjj:
 1172              	.LFB414:
 177:Core/Src/utils/mat.cpp **** 
 178:Core/Src/utils/mat.cpp **** void Mat::swap_Cols(size_t a, size_t b)
 179:Core/Src/utils/mat.cpp **** {
 1173              		.loc 1 179 0
 1174              		.cfi_startproc
 1175              		@ args = 0, pretend = 0, frame = 0
 1176              		@ frame_needed = 0, uses_anonymous_args = 0
 1177              	.LVL151:
 1178 0000 F8B5     		push	{r3, r4, r5, r6, r7, lr}
 1179              	.LCFI18:
 1180              		.cfi_def_cfa_offset 24
 1181              		.cfi_offset 3, -24
 1182              		.cfi_offset 4, -20
 1183              		.cfi_offset 5, -16
 1184              		.cfi_offset 6, -12
 1185              		.cfi_offset 7, -8
 1186              		.cfi_offset 14, -4
 1187 0002 0446     		mov	r4, r0
 1188 0004 0D46     		mov	r5, r1
 1189 0006 1646     		mov	r6, r2
 180:Core/Src/utils/mat.cpp ****         if (a > cols_ || b > cols_) {
 1190              		.loc 1 180 0
 1191 0008 90F84130 		ldrb	r3, [r0, #65]	@ zero_extendqisi2
 1192 000c 8B42     		cmp	r3, r1
 1193 000e 01D3     		bcc	.L99
 1194              		.loc 1 180 0 is_stmt 0 discriminator 1
 1195 0010 9342     		cmp	r3, r2
 1196 0012 03D2     		bcs	.L100
 1197              	.L99:
 181:Core/Src/utils/mat.cpp ****                 _Error_Handler(__FILE__, __LINE__);
 1198              		.loc 1 181 0 is_stmt 1
 1199 0014 B521     		movs	r1, #181
 1200              	.LVL152:
 1201 0016 0C48     		ldr	r0, .L104
 1202              	.LVL153:
 1203 0018 FFF7FEFF 		bl	_Error_Handler
 1204              	.LVL154:
 1205              	.L100:
 182:Core/Src/utils/mat.cpp ****         }
 183:Core/Src/utils/mat.cpp ****         if (a == b) {
 1206              		.loc 1 183 0
ARM GAS  C:\Users\Prashant\AppData\Local\Temp\ccEY5C3W.s 			page 32


 1207 001c B542     		cmp	r5, r6
 1208 001e 11D0     		beq	.L98
 1209              	.LBB159:
 184:Core/Src/utils/mat.cpp ****                 return;
 185:Core/Src/utils/mat.cpp ****         }
 186:Core/Src/utils/mat.cpp **** 
 187:Core/Src/utils/mat.cpp ****         for (size_t i = 0; i < rows_; i++) {
 1210              		.loc 1 187 0
 1211 0020 0021     		movs	r1, #0
 1212              	.L102:
 1213              	.LVL155:
 1214              		.loc 1 187 0 is_stmt 0 discriminator 3
 1215 0022 94F84030 		ldrb	r3, [r4, #64]	@ zero_extendqisi2
 1216 0026 8B42     		cmp	r3, r1
 1217 0028 0CD9     		bls	.L98
 1218              	.LBB160:
 188:Core/Src/utils/mat.cpp ****                 float tmp = matrix_[i][a];
 1219              		.loc 1 188 0 is_stmt 1 discriminator 2
 1220 002a 8B00     		lsls	r3, r1, #2
 1221 002c 5A19     		adds	r2, r3, r5
 1222 002e 04EB8202 		add	r2, r4, r2, lsl #2
 1223 0032 1068     		ldr	r0, [r2]	@ float
 1224              	.LVL156:
 189:Core/Src/utils/mat.cpp ****                 matrix_[i][a] = matrix_[i][b];
 1225              		.loc 1 189 0 discriminator 2
 1226 0034 3344     		add	r3, r3, r6
 1227 0036 04EB8303 		add	r3, r4, r3, lsl #2
 1228 003a 1F68     		ldr	r7, [r3]	@ float
 1229 003c 1760     		str	r7, [r2]	@ float
 190:Core/Src/utils/mat.cpp ****                 matrix_[i][b] = tmp;
 1230              		.loc 1 190 0 discriminator 2
 1231 003e 1860     		str	r0, [r3]	@ float
 1232              	.LBE160:
 187:Core/Src/utils/mat.cpp ****                 float tmp = matrix_[i][a];
 1233              		.loc 1 187 0 discriminator 2
 1234 0040 0131     		adds	r1, r1, #1
 1235              	.LVL157:
 1236 0042 EEE7     		b	.L102
 1237              	.LVL158:
 1238              	.L98:
 1239              	.LBE159:
 191:Core/Src/utils/mat.cpp ****         }
 192:Core/Src/utils/mat.cpp **** }
 1240              		.loc 1 192 0
 1241 0044 F8BD     		pop	{r3, r4, r5, r6, r7, pc}
 1242              	.LVL159:
 1243              	.L105:
 1244 0046 00BF     		.align	2
 1245              	.L104:
 1246 0048 00000000 		.word	.LC0
 1247              		.cfi_endproc
 1248              	.LFE414:
 1250              		.section	.text._Z12swap_ElementIhEvRT_S1_,"axG",%progbits,_Z12swap_ElementIhEvRT_S1_,comdat
 1251              		.align	1
 1252              		.weak	_Z12swap_ElementIhEvRT_S1_
 1253              		.syntax unified
 1254              		.thumb
ARM GAS  C:\Users\Prashant\AppData\Local\Temp\ccEY5C3W.s 			page 33


 1255              		.thumb_func
 1256              		.fpu fpv4-sp-d16
 1258              	_Z12swap_ElementIhEvRT_S1_:
 1259              	.LFB416:
  16:Core/Inc/utils/vec3.h **** {
 1260              		.loc 3 16 0
 1261              		.cfi_startproc
 1262              		@ args = 0, pretend = 0, frame = 0
 1263              		@ frame_needed = 0, uses_anonymous_args = 0
 1264              		@ link register save eliminated.
 1265              	.LVL160:
  18:Core/Inc/utils/vec3.h ****         first = second;
 1266              		.loc 3 18 0
 1267 0000 0378     		ldrb	r3, [r0]	@ zero_extendqisi2
 1268              	.LVL161:
  19:Core/Inc/utils/vec3.h ****         second = temp;
 1269              		.loc 3 19 0
 1270 0002 0A78     		ldrb	r2, [r1]	@ zero_extendqisi2
 1271 0004 0270     		strb	r2, [r0]
  20:Core/Inc/utils/vec3.h **** }
 1272              		.loc 3 20 0
 1273 0006 0B70     		strb	r3, [r1]
  21:Core/Inc/utils/vec3.h **** 
 1274              		.loc 3 21 0
 1275 0008 7047     		bx	lr
 1276              		.cfi_endproc
 1277              	.LFE416:
 1279              		.section	.text._Z12swap_ElementIfEvRT_S1_,"axG",%progbits,_Z12swap_ElementIfEvRT_S1_,comdat
 1280              		.align	1
 1281              		.weak	_Z12swap_ElementIfEvRT_S1_
 1282              		.syntax unified
 1283              		.thumb
 1284              		.thumb_func
 1285              		.fpu fpv4-sp-d16
 1287              	_Z12swap_ElementIfEvRT_S1_:
 1288              	.LFB417:
  16:Core/Inc/utils/vec3.h **** {
 1289              		.loc 3 16 0
 1290              		.cfi_startproc
 1291              		@ args = 0, pretend = 0, frame = 0
 1292              		@ frame_needed = 0, uses_anonymous_args = 0
 1293              		@ link register save eliminated.
 1294              	.LVL162:
  18:Core/Inc/utils/vec3.h ****         first = second;
 1295              		.loc 3 18 0
 1296 0000 0368     		ldr	r3, [r0]	@ float
 1297              	.LVL163:
  19:Core/Inc/utils/vec3.h ****         second = temp;
 1298              		.loc 3 19 0
 1299 0002 0A68     		ldr	r2, [r1]	@ float
 1300 0004 0260     		str	r2, [r0]	@ float
  20:Core/Inc/utils/vec3.h **** }
 1301              		.loc 3 20 0
 1302 0006 0B60     		str	r3, [r1]	@ float
  21:Core/Inc/utils/vec3.h **** 
 1303              		.loc 3 21 0
 1304 0008 7047     		bx	lr
ARM GAS  C:\Users\Prashant\AppData\Local\Temp\ccEY5C3W.s 			page 34


 1305              		.cfi_endproc
 1306              	.LFE417:
 1308              		.section	.text._Z4swapR3MatS0_,"ax",%progbits
 1309              		.align	1
 1310              		.global	_Z4swapR3MatS0_
 1311              		.syntax unified
 1312              		.thumb
 1313              		.thumb_func
 1314              		.fpu fpv4-sp-d16
 1316              	_Z4swapR3MatS0_:
 1317              	.LFB403:
  39:Core/Src/utils/mat.cpp ****         swap_Element(first.rows_, second.rows_);
 1318              		.loc 1 39 0
 1319              		.cfi_startproc
 1320              		@ args = 0, pretend = 0, frame = 0
 1321              		@ frame_needed = 0, uses_anonymous_args = 0
 1322              	.LVL164:
 1323 0000 F8B5     		push	{r3, r4, r5, r6, r7, lr}
 1324              	.LCFI19:
 1325              		.cfi_def_cfa_offset 24
 1326              		.cfi_offset 3, -24
 1327              		.cfi_offset 4, -20
 1328              		.cfi_offset 5, -16
 1329              		.cfi_offset 6, -12
 1330              		.cfi_offset 7, -8
 1331              		.cfi_offset 14, -4
 1332 0002 0646     		mov	r6, r0
 1333 0004 0F46     		mov	r7, r1
  40:Core/Src/utils/mat.cpp ****         swap_Element(first.cols_, second.cols_);
 1334              		.loc 1 40 0
 1335 0006 4031     		adds	r1, r1, #64
 1336              	.LVL165:
 1337 0008 4030     		adds	r0, r0, #64
 1338              	.LVL166:
 1339 000a FFF7FEFF 		bl	_Z12swap_ElementIhEvRT_S1_
 1340              	.LVL167:
  41:Core/Src/utils/mat.cpp ****         for (uint8_t i = 0; i < MAX_MATRIX_ROWS; ++i) {
 1341              		.loc 1 41 0
 1342 000e 07F14101 		add	r1, r7, #65
 1343 0012 06F14100 		add	r0, r6, #65
 1344 0016 FFF7FEFF 		bl	_Z12swap_ElementIhEvRT_S1_
 1345              	.LVL168:
 1346              	.LBB161:
  42:Core/Src/utils/mat.cpp ****                 for (uint8_t j = 0; j < MAX_MATRIX_COLS; ++j) {
 1347              		.loc 1 42 0
 1348 001a 0025     		movs	r5, #0
 1349 001c 01E0     		b	.L112
 1350              	.LVL169:
 1351              	.L110:
  42:Core/Src/utils/mat.cpp ****                 for (uint8_t j = 0; j < MAX_MATRIX_COLS; ++j) {
 1352              		.loc 1 42 0 is_stmt 0 discriminator 2
 1353 001e 0135     		adds	r5, r5, #1
 1354              	.LVL170:
 1355 0020 EDB2     		uxtb	r5, r5
 1356              	.LVL171:
 1357              	.L112:
  42:Core/Src/utils/mat.cpp ****                 for (uint8_t j = 0; j < MAX_MATRIX_COLS; ++j) {
ARM GAS  C:\Users\Prashant\AppData\Local\Temp\ccEY5C3W.s 			page 35


 1358              		.loc 1 42 0 discriminator 1
 1359 0022 032D     		cmp	r5, #3
 1360 0024 0CD8     		bhi	.L108
 1361              	.LBB162:
  43:Core/Src/utils/mat.cpp ****                         swap_Element(first.matrix_[i][j], second.matrix_[i][j]);
 1362              		.loc 1 43 0 is_stmt 1
 1363 0026 0024     		movs	r4, #0
 1364              	.L111:
 1365              	.LVL172:
  43:Core/Src/utils/mat.cpp ****                         swap_Element(first.matrix_[i][j], second.matrix_[i][j]);
 1366              		.loc 1 43 0 is_stmt 0 discriminator 3
 1367 0028 032C     		cmp	r4, #3
 1368 002a F8D8     		bhi	.L110
  44:Core/Src/utils/mat.cpp ****                 }
 1369              		.loc 1 44 0 is_stmt 1 discriminator 2
 1370 002c 04EB8500 		add	r0, r4, r5, lsl #2
 1371 0030 8000     		lsls	r0, r0, #2
 1372 0032 3918     		adds	r1, r7, r0
 1373 0034 3044     		add	r0, r0, r6
 1374 0036 FFF7FEFF 		bl	_Z12swap_ElementIfEvRT_S1_
 1375              	.LVL173:
  43:Core/Src/utils/mat.cpp ****                         swap_Element(first.matrix_[i][j], second.matrix_[i][j]);
 1376              		.loc 1 43 0 discriminator 2
 1377 003a 0134     		adds	r4, r4, #1
 1378              	.LVL174:
 1379 003c E4B2     		uxtb	r4, r4
 1380              	.LVL175:
 1381 003e F3E7     		b	.L111
 1382              	.LVL176:
 1383              	.L108:
 1384              	.LBE162:
 1385              	.LBE161:
  47:Core/Src/utils/mat.cpp **** 
 1386              		.loc 1 47 0
 1387 0040 F8BD     		pop	{r3, r4, r5, r6, r7, pc}
 1388              		.cfi_endproc
 1389              	.LFE403:
 1391              		.section	.text._ZNK3Mat3invERS_,"ax",%progbits
 1392              		.align	1
 1393              		.global	_ZNK3Mat3invERS_
 1394              		.syntax unified
 1395              		.thumb
 1396              		.thumb_func
 1397              		.fpu fpv4-sp-d16
 1399              	_ZNK3Mat3invERS_:
 1400              	.LFB415:
 193:Core/Src/utils/mat.cpp **** 
 194:Core/Src/utils/mat.cpp **** /**
 195:Core/Src/utils/mat.cpp ****  * inverse based on LU factorization with partial pivotting
 196:Core/Src/utils/mat.cpp ****  */
 197:Core/Src/utils/mat.cpp **** bool Mat::inv(Mat &inv) const
 198:Core/Src/utils/mat.cpp **** {
 1401              		.loc 1 198 0
 1402              		.cfi_startproc
 1403              		@ args = 0, pretend = 0, frame = 288
 1404              		@ frame_needed = 0, uses_anonymous_args = 0
 1405              	.LVL177:
ARM GAS  C:\Users\Prashant\AppData\Local\Temp\ccEY5C3W.s 			page 36


 1406 0000 2DE9F04F 		push	{r4, r5, r6, r7, r8, r9, r10, fp, lr}
 1407              	.LCFI20:
 1408              		.cfi_def_cfa_offset 36
 1409              		.cfi_offset 4, -36
 1410              		.cfi_offset 5, -32
 1411              		.cfi_offset 6, -28
 1412              		.cfi_offset 7, -24
 1413              		.cfi_offset 8, -20
 1414              		.cfi_offset 9, -16
 1415              		.cfi_offset 10, -12
 1416              		.cfi_offset 11, -8
 1417              		.cfi_offset 14, -4
 1418 0004 2DED028B 		vpush.64	{d8}
 1419              	.LCFI21:
 1420              		.cfi_def_cfa_offset 44
 1421              		.cfi_offset 80, -44
 1422              		.cfi_offset 81, -40
 1423 0008 C9B0     		sub	sp, sp, #292
 1424              	.LCFI22:
 1425              		.cfi_def_cfa_offset 336
 1426 000a 8246     		mov	r10, r0
 1427 000c 0391     		str	r1, [sp, #12]
 199:Core/Src/utils/mat.cpp ****         if (rows_ != cols_ || rows_ != inv.rows() || inv.rows() != inv.cols()) {
 1428              		.loc 1 199 0
 1429 000e 90F84030 		ldrb	r3, [r0, #64]	@ zero_extendqisi2
 1430 0012 90F84120 		ldrb	r2, [r0, #65]	@ zero_extendqisi2
 1431 0016 9342     		cmp	r3, r2
 1432 0018 03D1     		bne	.L115
 1433              	.LVL178:
 1434              	.LBB163:
 1435              	.LBB164:
  33:Core/Inc/utils/mat.h ****         uint8_t cols() const { return cols_; }
 1436              		.loc 2 33 0 discriminator 2
 1437 001a 91F84020 		ldrb	r2, [r1, #64]	@ zero_extendqisi2
 1438              	.LVL179:
 1439              	.LBE164:
 1440              	.LBE163:
 1441              		.loc 1 199 0 discriminator 2
 1442 001e 9342     		cmp	r3, r2
 1443 0020 14D0     		beq	.L188
 1444              	.L115:
 200:Core/Src/utils/mat.cpp ****                 _Error_Handler(__FILE__, __LINE__);
 1445              		.loc 1 200 0 discriminator 5
 1446 0022 C821     		movs	r1, #200
 1447              	.LVL180:
 1448 0024 CC48     		ldr	r0, .L191
 1449              	.LVL181:
 1450 0026 FFF7FEFF 		bl	_Error_Handler
 1451              	.LVL182:
 1452              	.L116:
 201:Core/Src/utils/mat.cpp ****         }
 202:Core/Src/utils/mat.cpp ****         Mat L = Mat::eye(rows_);
 1453              		.loc 1 202 0
 1454 002a 9AF84010 		ldrb	r1, [r10, #64]	@ zero_extendqisi2
 1455 002e 37A8     		add	r0, sp, #220
 1456 0030 FFF7FEFF 		bl	_ZN3Mat3eyeEh
 1457              	.LVL183:
ARM GAS  C:\Users\Prashant\AppData\Local\Temp\ccEY5C3W.s 			page 37


 203:Core/Src/utils/mat.cpp ****         Mat U = *this;
 1458              		.loc 1 203 0
 1459 0034 5146     		mov	r1, r10
 1460 0036 26A8     		add	r0, sp, #152
 1461 0038 FFF7FEFF 		bl	_ZN3MatC1ERKS_
 1462              	.LVL184:
 204:Core/Src/utils/mat.cpp ****         Mat P = Mat::eye(rows_);
 1463              		.loc 1 204 0
 1464 003c 9AF84010 		ldrb	r1, [r10, #64]	@ zero_extendqisi2
 1465 0040 15A8     		add	r0, sp, #84
 1466 0042 FFF7FEFF 		bl	_ZN3Mat3eyeEh
 1467              	.LVL185:
 1468              	.LBB165:
 205:Core/Src/utils/mat.cpp **** 
 206:Core/Src/utils/mat.cpp ****         //printf("A:\n"); print();
 207:Core/Src/utils/mat.cpp **** 
 208:Core/Src/utils/mat.cpp ****         // for all diagonal elements
 209:Core/Src/utils/mat.cpp ****         for (size_t n = 0; n < rows_; n++) {
 1469              		.loc 1 209 0
 1470 0046 0023     		movs	r3, #0
 1471 0048 0193     		str	r3, [sp, #4]
 1472 004a 06E0     		b	.L130
 1473              	.LVL186:
 1474              	.L188:
 1475              	.LBE165:
 1476              	.LBB205:
 1477              	.LBB206:
  34:Core/Inc/utils/mat.h **** 
 1478              		.loc 2 34 0
 1479 004c 91F84130 		ldrb	r3, [r1, #65]	@ zero_extendqisi2
 1480              	.LVL187:
 1481              	.LBE206:
 1482              	.LBE205:
 199:Core/Src/utils/mat.cpp ****                 _Error_Handler(__FILE__, __LINE__);
 1483              		.loc 1 199 0
 1484 0050 9342     		cmp	r3, r2
 1485 0052 E6D1     		bne	.L115
 1486 0054 E9E7     		b	.L116
 1487              	.LVL188:
 1488              	.L179:
 1489              	.LBB207:
 1490              		.loc 1 209 0
 1491 0056 029B     		ldr	r3, [sp, #8]
 1492 0058 0193     		str	r3, [sp, #4]
 1493              	.LVL189:
 1494              	.L130:
 1495              		.loc 1 209 0 is_stmt 0 discriminator 1
 1496 005a 9AF84030 		ldrb	r3, [r10, #64]	@ zero_extendqisi2
 1497 005e 019A     		ldr	r2, [sp, #4]
 1498 0060 9342     		cmp	r3, r2
 1499 0062 40F21081 		bls	.L177
 1500              	.LBB166:
 1501              	.LBB167:
 210:Core/Src/utils/mat.cpp **** 
 211:Core/Src/utils/mat.cpp ****                 // if diagonal is zero, swap with row below
 212:Core/Src/utils/mat.cpp ****                 if (fabs(U.at(n, n)) < 1e-8f) {
 1502              		.loc 1 212 0 is_stmt 1
ARM GAS  C:\Users\Prashant\AppData\Local\Temp\ccEY5C3W.s 			page 38


 1503 0066 5FFA82F9 		uxtb	r9, r2
 1504              	.LVL190:
 1505              	.LBB168:
 1506              	.LBB169:
  37:Core/Inc/utils/mat.h ****                         _Error_Handler(__FILE__, __LINE__);
 1507              		.loc 2 37 0
 1508 006a 9DF8D830 		ldrb	r3, [sp, #216]	@ zero_extendqisi2
 1509 006e 9945     		cmp	r9, r3
 1510 0070 03D2     		bcs	.L118
 1511 0072 9DF8D930 		ldrb	r3, [sp, #217]	@ zero_extendqisi2
 1512 0076 9945     		cmp	r9, r3
 1513 0078 03D3     		bcc	.L119
 1514              	.L118:
  38:Core/Inc/utils/mat.h ****                 }
 1515              		.loc 2 38 0
 1516 007a 2621     		movs	r1, #38
 1517 007c B748     		ldr	r0, .L191+4
 1518 007e FFF7FEFF 		bl	_Error_Handler
 1519              	.LVL191:
 1520              	.L119:
  40:Core/Inc/utils/mat.h ****         }
 1521              		.loc 2 40 0
 1522 0082 9DF80460 		ldrb	r6, [sp, #4]	@ zero_extendqisi2
 1523              	.LVL192:
 1524              	.LBE169:
 1525              	.LBE168:
 1526              		.loc 1 212 0
 1527 0086 06EB8602 		add	r2, r6, r6, lsl #2
 1528 008a 9300     		lsls	r3, r2, #2
 1529 008c 48AA     		add	r2, sp, #288
 1530 008e 1344     		add	r3, r3, r2
 1531 0090 53ED227A 		vldr.32	s15, [r3, #-136]
 1532              	.LVL193:
 1533              	.LBB170:
 1534              	.LBB171:
 1535              		.loc 4 242 0
 1536 0094 F0EEE77A 		vabs.f32	s15, s15
 1537              	.LVL194:
 1538              	.LBE171:
 1539              	.LBE170:
 1540              		.loc 1 212 0
 1541 0098 9FEDB17A 		vldr.32	s14, .L191+8
 1542 009c F4EEC77A 		vcmpe.f32	s15, s14
 1543 00a0 F1EE10FA 		vmrs	APSR_nzcv, FPSCR
 1544 00a4 21D4     		bmi	.L189
 1545              	.L120:
 1546              	.LVL195:
 1547              	.LBE167:
 1548              	.LBB179:
 1549              	.LBB180:
  37:Core/Inc/utils/mat.h ****                         _Error_Handler(__FILE__, __LINE__);
 1550              		.loc 2 37 0
 1551 00a6 9DF8D830 		ldrb	r3, [sp, #216]	@ zero_extendqisi2
 1552 00aa 9945     		cmp	r9, r3
 1553 00ac 03D2     		bcs	.L127
 1554 00ae 9DF8D930 		ldrb	r3, [sp, #217]	@ zero_extendqisi2
 1555 00b2 9945     		cmp	r9, r3
ARM GAS  C:\Users\Prashant\AppData\Local\Temp\ccEY5C3W.s 			page 39


 1556 00b4 03D3     		bcc	.L128
 1557              	.L127:
  38:Core/Inc/utils/mat.h ****                 }
 1558              		.loc 2 38 0
 1559 00b6 2621     		movs	r1, #38
 1560 00b8 A848     		ldr	r0, .L191+4
 1561 00ba FFF7FEFF 		bl	_Error_Handler
 1562              	.LVL196:
 1563              	.L128:
 1564              	.LBE180:
 1565              	.LBE179:
 213:Core/Src/utils/mat.cpp ****                         //printf("trying pivot for row %d\n",n);
 214:Core/Src/utils/mat.cpp ****                         for (size_t i = n + 1; i < rows_; i++) {
 215:Core/Src/utils/mat.cpp ****                                 //printf("\ttrying row %d\n",i);
 216:Core/Src/utils/mat.cpp ****                                 if (fabs(U.at(i, n)) > 1e-8f) {
 217:Core/Src/utils/mat.cpp ****                                         //printf("swapped %d\n",i);
 218:Core/Src/utils/mat.cpp ****                                         U.swap_Rows(i, n);
 219:Core/Src/utils/mat.cpp ****                                         P.swap_Rows(i, n);
 220:Core/Src/utils/mat.cpp ****                                         L.swap_Rows(i, n);
 221:Core/Src/utils/mat.cpp ****                                         L.swap_Cols(i, n);
 222:Core/Src/utils/mat.cpp ****                                         break;
 223:Core/Src/utils/mat.cpp ****                                 }
 224:Core/Src/utils/mat.cpp ****                         }
 225:Core/Src/utils/mat.cpp ****                 }
 226:Core/Src/utils/mat.cpp **** 
 227:Core/Src/utils/mat.cpp ****                 // failsafe, return zero matrix
 228:Core/Src/utils/mat.cpp ****                 if (fabs(U.at(n, n)) < 1e-8f) {
 1566              		.loc 1 228 0
 1567 00be 06EB8602 		add	r2, r6, r6, lsl #2
 1568 00c2 9300     		lsls	r3, r2, #2
 1569 00c4 48AA     		add	r2, sp, #288
 1570 00c6 1344     		add	r3, r3, r2
 1571 00c8 53ED227A 		vldr.32	s15, [r3, #-136]
 1572              	.LVL197:
 1573              	.LBB181:
 1574              	.LBB182:
 1575              		.loc 4 242 0
 1576 00cc F0EEE77A 		vabs.f32	s15, s15
 1577              	.LVL198:
 1578              	.LBE182:
 1579              	.LBE181:
 1580              		.loc 1 228 0
 1581 00d0 9FEDA37A 		vldr.32	s14, .L191+8
 1582 00d4 F4EEC77A 		vcmpe.f32	s15, s14
 1583 00d8 F1EE10FA 		vmrs	APSR_nzcv, FPSCR
 1584 00dc 00F11382 		bmi	.L178
 1585              	.LBB183:
 229:Core/Src/utils/mat.cpp ****                         return false;
 230:Core/Src/utils/mat.cpp ****                 }
 231:Core/Src/utils/mat.cpp **** 
 232:Core/Src/utils/mat.cpp ****                 // for all rows below diagonal
 233:Core/Src/utils/mat.cpp ****                 for (size_t i = (n + 1); i < rows_; i++) {
 1586              		.loc 1 233 0
 1587 00e0 019B     		ldr	r3, [sp, #4]
 1588 00e2 0133     		adds	r3, r3, #1
 1589 00e4 0293     		str	r3, [sp, #8]
 1590              	.LVL199:
ARM GAS  C:\Users\Prashant\AppData\Local\Temp\ccEY5C3W.s 			page 40


 1591 00e6 0093     		str	r3, [sp]
 1592 00e8 86E0     		b	.L145
 1593              	.LVL200:
 1594              	.L189:
 1595              	.LBE183:
 1596              	.LBB202:
 1597              	.LBB172:
 214:Core/Src/utils/mat.cpp ****                                 //printf("\ttrying row %d\n",i);
 1598              		.loc 1 214 0
 1599 00ea 019B     		ldr	r3, [sp, #4]
 1600 00ec 5C1C     		adds	r4, r3, #1
 1601              	.LVL201:
 1602 00ee 15E0     		b	.L126
 1603              	.LVL202:
 1604              	.L122:
 1605              	.LBB173:
 1606              	.LBB174:
  38:Core/Inc/utils/mat.h ****                 }
 1607              		.loc 2 38 0
 1608 00f0 2621     		movs	r1, #38
 1609 00f2 9A48     		ldr	r0, .L191+4
 1610 00f4 FFF7FEFF 		bl	_Error_Handler
 1611              	.LVL203:
 1612              	.L123:
  40:Core/Inc/utils/mat.h ****         }
 1613              		.loc 2 40 0
 1614 00f8 E3B2     		uxtb	r3, r4
 1615              	.LVL204:
 1616              	.LBE174:
 1617              	.LBE173:
 216:Core/Src/utils/mat.cpp ****                                         //printf("swapped %d\n",i);
 1618              		.loc 1 216 0
 1619 00fa 06EB8303 		add	r3, r6, r3, lsl #2
 1620 00fe 48AA     		add	r2, sp, #288
 1621 0100 02EB8303 		add	r3, r2, r3, lsl #2
 1622 0104 53ED227A 		vldr.32	s15, [r3, #-136]
 1623              	.LVL205:
 1624              	.LBB176:
 1625              	.LBB177:
 1626              		.loc 4 242 0
 1627 0108 F0EEE77A 		vabs.f32	s15, s15
 1628              	.LVL206:
 1629              	.LBE177:
 1630              	.LBE176:
 216:Core/Src/utils/mat.cpp ****                                         //printf("swapped %d\n",i);
 1631              		.loc 1 216 0
 1632 010c 9FED947A 		vldr.32	s14, .L191+8
 1633 0110 F4EEC77A 		vcmpe.f32	s15, s14
 1634 0114 F1EE10FA 		vmrs	APSR_nzcv, FPSCR
 1635 0118 0EDC     		bgt	.L190
 214:Core/Src/utils/mat.cpp ****                                 //printf("\ttrying row %d\n",i);
 1636              		.loc 1 214 0 discriminator 2
 1637 011a 0134     		adds	r4, r4, #1
 1638              	.LVL207:
 1639              	.L126:
 214:Core/Src/utils/mat.cpp ****                                 //printf("\ttrying row %d\n",i);
 1640              		.loc 1 214 0 is_stmt 0 discriminator 1
ARM GAS  C:\Users\Prashant\AppData\Local\Temp\ccEY5C3W.s 			page 41


 1641 011c 9AF84030 		ldrb	r3, [r10, #64]	@ zero_extendqisi2
 1642 0120 A342     		cmp	r3, r4
 1643 0122 C0D9     		bls	.L120
 216:Core/Src/utils/mat.cpp ****                                         //printf("swapped %d\n",i);
 1644              		.loc 1 216 0 is_stmt 1
 1645 0124 E5B2     		uxtb	r5, r4
 1646              	.LVL208:
 1647              	.LBB178:
 1648              	.LBB175:
  37:Core/Inc/utils/mat.h ****                         _Error_Handler(__FILE__, __LINE__);
 1649              		.loc 2 37 0
 1650 0126 9DF8D830 		ldrb	r3, [sp, #216]	@ zero_extendqisi2
 1651 012a 9D42     		cmp	r5, r3
 1652 012c E0D2     		bcs	.L122
 1653 012e 9DF8D930 		ldrb	r3, [sp, #217]	@ zero_extendqisi2
 1654 0132 9945     		cmp	r9, r3
 1655 0134 E0D3     		bcc	.L123
 1656 0136 DBE7     		b	.L122
 1657              	.LVL209:
 1658              	.L190:
 1659              	.LBE175:
 1660              	.LBE178:
 218:Core/Src/utils/mat.cpp ****                                         P.swap_Rows(i, n);
 1661              		.loc 1 218 0
 1662 0138 4A46     		mov	r2, r9
 1663 013a 2946     		mov	r1, r5
 1664 013c 26A8     		add	r0, sp, #152
 1665 013e FFF7FEFF 		bl	_ZN3Mat9swap_RowsEhh
 1666              	.LVL210:
 219:Core/Src/utils/mat.cpp ****                                         L.swap_Rows(i, n);
 1667              		.loc 1 219 0
 1668 0142 4A46     		mov	r2, r9
 1669 0144 2946     		mov	r1, r5
 1670 0146 15A8     		add	r0, sp, #84
 1671 0148 FFF7FEFF 		bl	_ZN3Mat9swap_RowsEhh
 1672              	.LVL211:
 220:Core/Src/utils/mat.cpp ****                                         L.swap_Cols(i, n);
 1673              		.loc 1 220 0
 1674 014c 4A46     		mov	r2, r9
 1675 014e 2946     		mov	r1, r5
 1676 0150 37A8     		add	r0, sp, #220
 1677 0152 FFF7FEFF 		bl	_ZN3Mat9swap_RowsEhh
 1678              	.LVL212:
 221:Core/Src/utils/mat.cpp ****                                         break;
 1679              		.loc 1 221 0
 1680 0156 019A     		ldr	r2, [sp, #4]
 1681 0158 2146     		mov	r1, r4
 1682 015a 37A8     		add	r0, sp, #220
 1683 015c FFF7FEFF 		bl	_ZN3Mat9swap_ColsEjj
 1684              	.LVL213:
 222:Core/Src/utils/mat.cpp ****                                 }
 1685              		.loc 1 222 0
 1686 0160 A1E7     		b	.L120
 1687              	.LVL214:
 1688              	.L142:
 1689              	.LBE172:
 1690              	.LBE202:
ARM GAS  C:\Users\Prashant\AppData\Local\Temp\ccEY5C3W.s 			page 42


 1691              	.LBB203:
 1692              	.LBB184:
 1693              	.LBB185:
 1694              	.LBB186:
 1695              	.LBB187:
  38:Core/Inc/utils/mat.h ****                 }
 1696              		.loc 2 38 0
 1697 0162 2621     		movs	r1, #38
 1698 0164 7D48     		ldr	r0, .L191+4
 1699 0166 FFF7FEFF 		bl	_Error_Handler
 1700              	.LVL215:
 1701              	.L143:
 1702              	.LBE187:
 1703              	.LBE186:
 234:Core/Src/utils/mat.cpp ****                         L.at(i, n) = U.at(i, n) / U.at(n, n);
 235:Core/Src/utils/mat.cpp **** 
 236:Core/Src/utils/mat.cpp ****                         // add i-th row and n-th row
 237:Core/Src/utils/mat.cpp ****                         // multiplied by: -a(i,n)/a(n,n)
 238:Core/Src/utils/mat.cpp ****                         for (size_t k = n; k < rows_; k++) {
 239:Core/Src/utils/mat.cpp ****                                 U.at(i, k) -= L.at(i, n) * U.at(n, k);
 1704              		.loc 1 239 0
 1705 016a 04EB8704 		add	r4, r4, r7, lsl #2
 1706 016e 48AB     		add	r3, sp, #288
 1707 0170 03EB8404 		add	r4, r3, r4, lsl #2
 1708 0174 54ED227A 		vldr.32	s15, [r4, #-136]
 1709 0178 37EEC88A 		vsub.f32	s16, s15, s16
 1710 017c 04ED228A 		vstr.32	s16, [r4, #-136]
 238:Core/Src/utils/mat.cpp ****                                 U.at(i, k) -= L.at(i, n) * U.at(n, k);
 1711              		.loc 1 238 0
 1712 0180 0135     		adds	r5, r5, #1
 1713              	.LVL216:
 1714              	.L144:
 238:Core/Src/utils/mat.cpp ****                                 U.at(i, k) -= L.at(i, n) * U.at(n, k);
 1715              		.loc 1 238 0 is_stmt 0 discriminator 3
 1716 0182 9AF84030 		ldrb	r3, [r10, #64]	@ zero_extendqisi2
 1717 0186 AB42     		cmp	r3, r5
 1718 0188 33D9     		bls	.L137
 1719              	.LVL217:
 1720              	.LBB189:
 1721              	.LBB190:
  37:Core/Inc/utils/mat.h ****                         _Error_Handler(__FILE__, __LINE__);
 1722              		.loc 2 37 0 is_stmt 1 discriminator 2
 1723 018a 9DF81C31 		ldrb	r3, [sp, #284]	@ zero_extendqisi2
 1724 018e 9845     		cmp	r8, r3
 1725 0190 03D2     		bcs	.L138
  37:Core/Inc/utils/mat.h ****                         _Error_Handler(__FILE__, __LINE__);
 1726              		.loc 2 37 0 is_stmt 0
 1727 0192 9DF81D31 		ldrb	r3, [sp, #285]	@ zero_extendqisi2
 1728 0196 9945     		cmp	r9, r3
 1729 0198 03D3     		bcc	.L139
 1730              	.L138:
  38:Core/Inc/utils/mat.h ****                 }
 1731              		.loc 2 38 0 is_stmt 1
 1732 019a 2621     		movs	r1, #38
 1733 019c 6F48     		ldr	r0, .L191+4
 1734 019e FFF7FEFF 		bl	_Error_Handler
 1735              	.LVL218:
ARM GAS  C:\Users\Prashant\AppData\Local\Temp\ccEY5C3W.s 			page 43


 1736              	.L139:
 1737              	.LBE190:
 1738              	.LBE189:
 1739              		.loc 1 239 0
 1740 01a2 06EB8703 		add	r3, r6, r7, lsl #2
 1741 01a6 48AA     		add	r2, sp, #288
 1742 01a8 02EB8303 		add	r3, r2, r3, lsl #2
 1743 01ac 13ED118A 		vldr.32	s16, [r3, #-68]
 1744 01b0 5FFA85FB 		uxtb	fp, r5
 1745              	.LVL219:
 1746              	.LBB191:
 1747              	.LBB192:
  37:Core/Inc/utils/mat.h ****                         _Error_Handler(__FILE__, __LINE__);
 1748              		.loc 2 37 0
 1749 01b4 9DF8D830 		ldrb	r3, [sp, #216]	@ zero_extendqisi2
 1750 01b8 9945     		cmp	r9, r3
 1751 01ba 03D2     		bcs	.L140
 1752 01bc 9DF8D930 		ldrb	r3, [sp, #217]	@ zero_extendqisi2
 1753 01c0 9B45     		cmp	fp, r3
 1754 01c2 03D3     		bcc	.L141
 1755              	.L140:
  38:Core/Inc/utils/mat.h ****                 }
 1756              		.loc 2 38 0
 1757 01c4 2621     		movs	r1, #38
 1758 01c6 6548     		ldr	r0, .L191+4
 1759 01c8 FFF7FEFF 		bl	_Error_Handler
 1760              	.LVL220:
 1761              	.L141:
  40:Core/Inc/utils/mat.h ****         }
 1762              		.loc 2 40 0
 1763 01cc ECB2     		uxtb	r4, r5
 1764              	.LVL221:
 1765              	.LBE192:
 1766              	.LBE191:
 1767              		.loc 1 239 0
 1768 01ce 04EB8603 		add	r3, r4, r6, lsl #2
 1769 01d2 48AA     		add	r2, sp, #288
 1770 01d4 02EB8303 		add	r3, r2, r3, lsl #2
 1771 01d8 53ED227A 		vldr.32	s15, [r3, #-136]
 1772 01dc 28EE278A 		vmul.f32	s16, s16, s15
 1773              	.LVL222:
 1774              	.LBB193:
 1775              	.LBB188:
  37:Core/Inc/utils/mat.h ****                         _Error_Handler(__FILE__, __LINE__);
 1776              		.loc 2 37 0
 1777 01e0 9DF8D830 		ldrb	r3, [sp, #216]	@ zero_extendqisi2
 1778 01e4 9845     		cmp	r8, r3
 1779 01e6 BCD2     		bcs	.L142
 1780 01e8 9DF8D930 		ldrb	r3, [sp, #217]	@ zero_extendqisi2
 1781 01ec 9B45     		cmp	fp, r3
 1782 01ee BCD3     		bcc	.L143
 1783 01f0 B7E7     		b	.L142
 1784              	.LVL223:
 1785              	.L137:
 1786              	.LBE188:
 1787              	.LBE193:
 1788              	.LBE185:
ARM GAS  C:\Users\Prashant\AppData\Local\Temp\ccEY5C3W.s 			page 44


 1789              	.LBE184:
 233:Core/Src/utils/mat.cpp ****                         L.at(i, n) = U.at(i, n) / U.at(n, n);
 1790              		.loc 1 233 0 discriminator 2
 1791 01f2 009B     		ldr	r3, [sp]
 1792 01f4 0133     		adds	r3, r3, #1
 1793 01f6 0093     		str	r3, [sp]
 1794              	.LVL224:
 1795              	.L145:
 233:Core/Src/utils/mat.cpp ****                         L.at(i, n) = U.at(i, n) / U.at(n, n);
 1796              		.loc 1 233 0 is_stmt 0 discriminator 1
 1797 01f8 9AF84030 		ldrb	r3, [r10, #64]	@ zero_extendqisi2
 1798 01fc 009A     		ldr	r2, [sp]
 1799 01fe 9342     		cmp	r3, r2
 1800 0200 7FF629AF 		bls	.L179
 1801              	.LBB201:
 234:Core/Src/utils/mat.cpp **** 
 1802              		.loc 1 234 0 is_stmt 1
 1803 0204 5FFA82F8 		uxtb	r8, r2
 1804              	.LVL225:
 1805              	.LBB194:
 1806              	.LBB195:
  37:Core/Inc/utils/mat.h ****                         _Error_Handler(__FILE__, __LINE__);
 1807              		.loc 2 37 0
 1808 0208 9DF8D830 		ldrb	r3, [sp, #216]	@ zero_extendqisi2
 1809 020c 9845     		cmp	r8, r3
 1810 020e 03D2     		bcs	.L131
 1811 0210 9DF8D930 		ldrb	r3, [sp, #217]	@ zero_extendqisi2
 1812 0214 9945     		cmp	r9, r3
 1813 0216 03D3     		bcc	.L132
 1814              	.L131:
  38:Core/Inc/utils/mat.h ****                 }
 1815              		.loc 2 38 0
 1816 0218 2621     		movs	r1, #38
 1817 021a 5048     		ldr	r0, .L191+4
 1818 021c FFF7FEFF 		bl	_Error_Handler
 1819              	.LVL226:
 1820              	.L132:
  40:Core/Inc/utils/mat.h ****         }
 1821              		.loc 2 40 0
 1822 0220 9DF80070 		ldrb	r7, [sp]	@ zero_extendqisi2
 1823              	.LVL227:
 1824              	.LBE195:
 1825              	.LBE194:
 234:Core/Src/utils/mat.cpp **** 
 1826              		.loc 1 234 0
 1827 0224 06EB8703 		add	r3, r6, r7, lsl #2
 1828 0228 48AA     		add	r2, sp, #288
 1829 022a 02EB8303 		add	r3, r2, r3, lsl #2
 1830 022e 53ED228A 		vldr.32	s17, [r3, #-136]
 1831              	.LVL228:
 1832              	.LBB196:
 1833              	.LBB197:
  37:Core/Inc/utils/mat.h ****                         _Error_Handler(__FILE__, __LINE__);
 1834              		.loc 2 37 0
 1835 0232 9DF8D830 		ldrb	r3, [sp, #216]	@ zero_extendqisi2
 1836 0236 9945     		cmp	r9, r3
 1837 0238 03D2     		bcs	.L133
ARM GAS  C:\Users\Prashant\AppData\Local\Temp\ccEY5C3W.s 			page 45


 1838 023a 9DF8D930 		ldrb	r3, [sp, #217]	@ zero_extendqisi2
 1839 023e 9945     		cmp	r9, r3
 1840 0240 03D3     		bcc	.L134
 1841              	.L133:
  38:Core/Inc/utils/mat.h ****                 }
 1842              		.loc 2 38 0
 1843 0242 2621     		movs	r1, #38
 1844 0244 4548     		ldr	r0, .L191+4
 1845 0246 FFF7FEFF 		bl	_Error_Handler
 1846              	.LVL229:
 1847              	.L134:
 1848              	.LBE197:
 1849              	.LBE196:
 234:Core/Src/utils/mat.cpp **** 
 1850              		.loc 1 234 0
 1851 024a 06EB8602 		add	r2, r6, r6, lsl #2
 1852 024e 9300     		lsls	r3, r2, #2
 1853 0250 48AA     		add	r2, sp, #288
 1854 0252 1344     		add	r3, r3, r2
 1855 0254 13ED228A 		vldr.32	s16, [r3, #-136]
 1856              	.LVL230:
 1857              	.LBB198:
 1858              	.LBB199:
  37:Core/Inc/utils/mat.h ****                         _Error_Handler(__FILE__, __LINE__);
 1859              		.loc 2 37 0
 1860 0258 9DF81C31 		ldrb	r3, [sp, #284]	@ zero_extendqisi2
 1861 025c 9845     		cmp	r8, r3
 1862 025e 03D2     		bcs	.L135
 1863 0260 9DF81D31 		ldrb	r3, [sp, #285]	@ zero_extendqisi2
 1864 0264 9945     		cmp	r9, r3
 1865 0266 03D3     		bcc	.L136
 1866              	.L135:
  38:Core/Inc/utils/mat.h ****                 }
 1867              		.loc 2 38 0
 1868 0268 2621     		movs	r1, #38
 1869 026a 3C48     		ldr	r0, .L191+4
 1870 026c FFF7FEFF 		bl	_Error_Handler
 1871              	.LVL231:
 1872              	.L136:
 1873              	.LBE199:
 1874              	.LBE198:
 234:Core/Src/utils/mat.cpp **** 
 1875              		.loc 1 234 0
 1876 0270 C8EE887A 		vdiv.f32	s15, s17, s16
 1877 0274 06EB8703 		add	r3, r6, r7, lsl #2
 1878 0278 48AA     		add	r2, sp, #288
 1879 027a 02EB8303 		add	r3, r2, r3, lsl #2
 1880 027e 43ED117A 		vstr.32	s15, [r3, #-68]
 1881              	.LVL232:
 1882              	.LBB200:
 238:Core/Src/utils/mat.cpp ****                                 U.at(i, k) -= L.at(i, n) * U.at(n, k);
 1883              		.loc 1 238 0
 1884 0282 019D     		ldr	r5, [sp, #4]
 1885 0284 7DE7     		b	.L144
 1886              	.LVL233:
 1887              	.L177:
 1888              	.LBE200:
ARM GAS  C:\Users\Prashant\AppData\Local\Temp\ccEY5C3W.s 			page 46


 1889              	.LBE201:
 1890              	.LBE203:
 1891              	.LBE166:
 1892              	.LBE207:
 1893              	.LBB208:
 240:Core/Src/utils/mat.cpp ****                         }
 241:Core/Src/utils/mat.cpp ****                 }
 242:Core/Src/utils/mat.cpp ****         }
 243:Core/Src/utils/mat.cpp **** 
 244:Core/Src/utils/mat.cpp ****         //printf("L:\n"); L.print();
 245:Core/Src/utils/mat.cpp ****         //printf("U:\n"); U.print();
 246:Core/Src/utils/mat.cpp **** 
 247:Core/Src/utils/mat.cpp ****         // solve LY=P*I for Y by forward subst
 248:Core/Src/utils/mat.cpp ****         //SquareMatrix<Type, M> Y = P;
 249:Core/Src/utils/mat.cpp **** 
 250:Core/Src/utils/mat.cpp ****         // for all columns of Y
 251:Core/Src/utils/mat.cpp ****         for (size_t c = 0; c < rows_; c++) {
 1894              		.loc 1 251 0
 1895 0286 0023     		movs	r3, #0
 1896 0288 9B46     		mov	fp, r3
 1897 028a CDF800A0 		str	r10, [sp]
 1898 028e 56E0     		b	.L117
 1899              	.LVL234:
 1900              	.L153:
 1901              	.LBB209:
 1902              	.LBB210:
 1903              	.LBB211:
 1904              	.LBB212:
  38:Core/Inc/utils/mat.h ****                 }
 1905              		.loc 2 38 0
 1906 0290 2621     		movs	r1, #38
 1907 0292 3248     		ldr	r0, .L191+4
 1908 0294 FFF7FEFF 		bl	_Error_Handler
 1909              	.LVL235:
 1910              	.L154:
 1911              	.LBE212:
 1912              	.LBE211:
 252:Core/Src/utils/mat.cpp ****                 // for all rows of L
 253:Core/Src/utils/mat.cpp ****                 for (size_t i = 0; i < rows_; i++) {
 254:Core/Src/utils/mat.cpp ****                         // for all columns of L
 255:Core/Src/utils/mat.cpp ****                         for (size_t j = 0; j < i; j++) {
 256:Core/Src/utils/mat.cpp ****                                 // for all existing y
 257:Core/Src/utils/mat.cpp ****                                 // subtract the component they
 258:Core/Src/utils/mat.cpp ****                                 // contribute to the solution
 259:Core/Src/utils/mat.cpp ****                                 P.at(i, c) -= L.at(i, j) * P.at(j, c);
 1913              		.loc 1 259 0
 1914 0298 04EB8804 		add	r4, r4, r8, lsl #2
 1915 029c 48AB     		add	r3, sp, #288
 1916 029e 03EB8404 		add	r4, r3, r4, lsl #2
 1917 02a2 54ED337A 		vldr.32	s15, [r4, #-204]
 1918 02a6 37EEC88A 		vsub.f32	s16, s15, s16
 1919 02aa 04ED338A 		vstr.32	s16, [r4, #-204]
 255:Core/Src/utils/mat.cpp ****                                 // for all existing y
 1920              		.loc 1 255 0
 1921 02ae 0136     		adds	r6, r6, #1
 1922              	.LVL236:
 1923              	.L155:
ARM GAS  C:\Users\Prashant\AppData\Local\Temp\ccEY5C3W.s 			page 47


 255:Core/Src/utils/mat.cpp ****                                 // for all existing y
 1924              		.loc 1 255 0 is_stmt 0 discriminator 3
 1925 02b0 B742     		cmp	r7, r6
 1926 02b2 3AD9     		bls	.L148
 1927              		.loc 1 259 0 is_stmt 1 discriminator 2
 1928 02b4 5FFA87F9 		uxtb	r9, r7
 1929 02b8 F4B2     		uxtb	r4, r6
 1930              	.LVL237:
 1931              	.LBB214:
 1932              	.LBB215:
  37:Core/Inc/utils/mat.h ****                         _Error_Handler(__FILE__, __LINE__);
 1933              		.loc 2 37 0 discriminator 2
 1934 02ba 9DF81C31 		ldrb	r3, [sp, #284]	@ zero_extendqisi2
 1935 02be 9945     		cmp	r9, r3
 1936 02c0 03D2     		bcs	.L149
  37:Core/Inc/utils/mat.h ****                         _Error_Handler(__FILE__, __LINE__);
 1937              		.loc 2 37 0 is_stmt 0
 1938 02c2 9DF81D31 		ldrb	r3, [sp, #285]	@ zero_extendqisi2
 1939 02c6 9C42     		cmp	r4, r3
 1940 02c8 03D3     		bcc	.L150
 1941              	.L149:
  38:Core/Inc/utils/mat.h ****                 }
 1942              		.loc 2 38 0 is_stmt 1
 1943 02ca 2621     		movs	r1, #38
 1944 02cc 2348     		ldr	r0, .L191+4
 1945 02ce FFF7FEFF 		bl	_Error_Handler
 1946              	.LVL238:
 1947              	.L150:
  40:Core/Inc/utils/mat.h ****         }
 1948              		.loc 2 40 0
 1949 02d2 5FFA87F8 		uxtb	r8, r7
 1950 02d6 F5B2     		uxtb	r5, r6
 1951              	.LVL239:
 1952              	.LBE215:
 1953              	.LBE214:
 1954              		.loc 1 259 0
 1955 02d8 05EB8803 		add	r3, r5, r8, lsl #2
 1956 02dc 48AA     		add	r2, sp, #288
 1957 02de 02EB8303 		add	r3, r2, r3, lsl #2
 1958 02e2 13ED118A 		vldr.32	s16, [r3, #-68]
 1959 02e6 5FFA8BFA 		uxtb	r10, fp
 1960              	.LVL240:
 1961              	.LBB216:
 1962              	.LBB217:
  37:Core/Inc/utils/mat.h ****                         _Error_Handler(__FILE__, __LINE__);
 1963              		.loc 2 37 0
 1964 02ea 9DF89430 		ldrb	r3, [sp, #148]	@ zero_extendqisi2
 1965 02ee 9C42     		cmp	r4, r3
 1966 02f0 03D2     		bcs	.L151
 1967 02f2 9DF89530 		ldrb	r3, [sp, #149]	@ zero_extendqisi2
 1968 02f6 9A45     		cmp	r10, r3
 1969 02f8 03D3     		bcc	.L152
 1970              	.L151:
  38:Core/Inc/utils/mat.h ****                 }
 1971              		.loc 2 38 0
 1972 02fa 2621     		movs	r1, #38
 1973 02fc 1748     		ldr	r0, .L191+4
ARM GAS  C:\Users\Prashant\AppData\Local\Temp\ccEY5C3W.s 			page 48


 1974 02fe FFF7FEFF 		bl	_Error_Handler
 1975              	.LVL241:
 1976              	.L152:
  40:Core/Inc/utils/mat.h ****         }
 1977              		.loc 2 40 0
 1978 0302 5FFA8BF4 		uxtb	r4, fp
 1979              	.LVL242:
 1980              	.LBE217:
 1981              	.LBE216:
 1982              		.loc 1 259 0
 1983 0306 04EB8505 		add	r5, r4, r5, lsl #2
 1984 030a 48AB     		add	r3, sp, #288
 1985 030c 03EB8505 		add	r5, r3, r5, lsl #2
 1986 0310 55ED337A 		vldr.32	s15, [r5, #-204]
 1987 0314 28EE278A 		vmul.f32	s16, s16, s15
 1988              	.LVL243:
 1989              	.LBB218:
 1990              	.LBB213:
  37:Core/Inc/utils/mat.h ****                         _Error_Handler(__FILE__, __LINE__);
 1991              		.loc 2 37 0
 1992 0318 9DF89430 		ldrb	r3, [sp, #148]	@ zero_extendqisi2
 1993 031c 9945     		cmp	r9, r3
 1994 031e B7D2     		bcs	.L153
 1995 0320 9DF89530 		ldrb	r3, [sp, #149]	@ zero_extendqisi2
 1996 0324 9A45     		cmp	r10, r3
 1997 0326 B7D3     		bcc	.L154
 1998 0328 B2E7     		b	.L153
 1999              	.LVL244:
 2000              	.L148:
 2001              	.LBE213:
 2002              	.LBE218:
 2003              	.LBE210:
 253:Core/Src/utils/mat.cpp ****                         // for all columns of L
 2004              		.loc 1 253 0 discriminator 2
 2005 032a 0137     		adds	r7, r7, #1
 2006              	.LVL245:
 2007              	.L156:
 253:Core/Src/utils/mat.cpp ****                         // for all columns of L
 2008              		.loc 1 253 0 is_stmt 0 discriminator 1
 2009 032c 009B     		ldr	r3, [sp]
 2010 032e 93F84030 		ldrb	r3, [r3, #64]	@ zero_extendqisi2
 2011 0332 BB42     		cmp	r3, r7
 2012 0334 01D9     		bls	.L147
 2013              	.LBB219:
 255:Core/Src/utils/mat.cpp ****                                 // for all existing y
 2014              		.loc 1 255 0 is_stmt 1
 2015 0336 0026     		movs	r6, #0
 2016 0338 BAE7     		b	.L155
 2017              	.L147:
 2018              	.LBE219:
 2019              	.LBE209:
 251:Core/Src/utils/mat.cpp ****                 // for all rows of L
 2020              		.loc 1 251 0 discriminator 2
 2021 033a 0BF1010B 		add	fp, fp, #1
 2022              	.LVL246:
 2023              	.L117:
 251:Core/Src/utils/mat.cpp ****                 // for all rows of L
ARM GAS  C:\Users\Prashant\AppData\Local\Temp\ccEY5C3W.s 			page 49


 2024              		.loc 1 251 0 is_stmt 0 discriminator 1
 2025 033e 009B     		ldr	r3, [sp]
 2026 0340 93F84030 		ldrb	r3, [r3, #64]	@ zero_extendqisi2
 2027 0344 5B45     		cmp	r3, fp
 2028 0346 01D9     		bls	.L180
 2029              	.LBB220:
 253:Core/Src/utils/mat.cpp ****                         // for all columns of L
 2030              		.loc 1 253 0 is_stmt 1
 2031 0348 0027     		movs	r7, #0
 2032 034a EFE7     		b	.L156
 2033              	.L180:
 2034 034c DDF800A0 		ldr	r10, [sp]
 2035              	.LBE220:
 2036              	.LBE208:
 2037              	.LBB221:
 260:Core/Src/utils/mat.cpp ****                         }
 261:Core/Src/utils/mat.cpp **** 
 262:Core/Src/utils/mat.cpp ****                         // divide by the factor
 263:Core/Src/utils/mat.cpp ****                         // on current
 264:Core/Src/utils/mat.cpp ****                         // term to be solved
 265:Core/Src/utils/mat.cpp ****                         // Y(i,c) /= L(i,i);
 266:Core/Src/utils/mat.cpp ****                         // but L(i,i) = 1.0
 267:Core/Src/utils/mat.cpp ****                 }
 268:Core/Src/utils/mat.cpp ****         }
 269:Core/Src/utils/mat.cpp **** 
 270:Core/Src/utils/mat.cpp ****         //printf("Y:\n"); Y.print();
 271:Core/Src/utils/mat.cpp **** 
 272:Core/Src/utils/mat.cpp ****         // solve Ux=y for x by back subst
 273:Core/Src/utils/mat.cpp ****         //SquareMatrix<Type, M> X = Y;
 274:Core/Src/utils/mat.cpp **** 
 275:Core/Src/utils/mat.cpp ****         // for all columns of X
 276:Core/Src/utils/mat.cpp ****         for (size_t c = 0; c < rows_; c++) {
 2038              		.loc 1 276 0
 2039 0350 0023     		movs	r3, #0
 2040 0352 0193     		str	r3, [sp, #4]
 2041              	.LVL247:
 2042 0354 96E0     		b	.L146
 2043              	.L192:
 2044 0356 00BF     		.align	2
 2045              	.L191:
 2046 0358 00000000 		.word	.LC0
 2047 035c 00000000 		.word	.LC1
 2048 0360 77CC2B32 		.word	841731191
 2049              	.LVL248:
 2050              	.L164:
 2051              	.LBB222:
 2052              	.LBB223:
 2053              	.LBB224:
 2054              	.LBB225:
 2055              	.LBB226:
  38:Core/Inc/utils/mat.h ****                 }
 2056              		.loc 2 38 0
 2057 0364 2621     		movs	r1, #38
 2058 0366 6C48     		ldr	r0, .L193
 2059 0368 FFF7FEFF 		bl	_Error_Handler
 2060              	.LVL249:
 2061              	.L165:
ARM GAS  C:\Users\Prashant\AppData\Local\Temp\ccEY5C3W.s 			page 50


 2062              	.LBE226:
 2063              	.LBE225:
 277:Core/Src/utils/mat.cpp ****                 // for all rows of U
 278:Core/Src/utils/mat.cpp ****                 for (size_t k = 0; k < rows_; k++) {
 279:Core/Src/utils/mat.cpp ****                         // have to go in reverse order
 280:Core/Src/utils/mat.cpp ****                         size_t i = rows_ - 1 - k;
 281:Core/Src/utils/mat.cpp **** 
 282:Core/Src/utils/mat.cpp ****                         // for all columns of U
 283:Core/Src/utils/mat.cpp ****                         for (size_t j = i + 1; j < rows_; j++) {
 284:Core/Src/utils/mat.cpp ****                                 // for all existing x
 285:Core/Src/utils/mat.cpp ****                                 // subtract the component they
 286:Core/Src/utils/mat.cpp ****                                 // contribute to the solution
 287:Core/Src/utils/mat.cpp ****                                 P.at(i, c) -= U.at(i, j) * P.at(j, c);
 2064              		.loc 1 287 0
 2065 036c 04EB8704 		add	r4, r4, r7, lsl #2
 2066 0370 48AB     		add	r3, sp, #288
 2067 0372 03EB8404 		add	r4, r3, r4, lsl #2
 2068 0376 54ED337A 		vldr.32	s15, [r4, #-204]
 2069 037a 37EEC88A 		vsub.f32	s16, s15, s16
 2070 037e 04ED338A 		vstr.32	s16, [r4, #-204]
 283:Core/Src/utils/mat.cpp ****                                 // for all existing x
 2071              		.loc 1 283 0
 2072 0382 0136     		adds	r6, r6, #1
 2073              	.LVL250:
 2074              	.L166:
 283:Core/Src/utils/mat.cpp ****                                 // for all existing x
 2075              		.loc 1 283 0 is_stmt 0 discriminator 3
 2076 0384 9AF84030 		ldrb	r3, [r10, #64]	@ zero_extendqisi2
 2077 0388 B342     		cmp	r3, r6
 2078 038a 3AD9     		bls	.L159
 2079              		.loc 1 287 0 is_stmt 1 discriminator 2
 2080 038c 9DF80080 		ldrb	r8, [sp]	@ zero_extendqisi2
 2081 0390 F4B2     		uxtb	r4, r6
 2082              	.LVL251:
 2083              	.LBB228:
 2084              	.LBB229:
  37:Core/Inc/utils/mat.h ****                         _Error_Handler(__FILE__, __LINE__);
 2085              		.loc 2 37 0 discriminator 2
 2086 0392 9DF8D830 		ldrb	r3, [sp, #216]	@ zero_extendqisi2
 2087 0396 9845     		cmp	r8, r3
 2088 0398 03D2     		bcs	.L160
  37:Core/Inc/utils/mat.h ****                         _Error_Handler(__FILE__, __LINE__);
 2089              		.loc 2 37 0 is_stmt 0
 2090 039a 9DF8D930 		ldrb	r3, [sp, #217]	@ zero_extendqisi2
 2091 039e 9C42     		cmp	r4, r3
 2092 03a0 03D3     		bcc	.L161
 2093              	.L160:
  38:Core/Inc/utils/mat.h ****                 }
 2094              		.loc 2 38 0 is_stmt 1
 2095 03a2 2621     		movs	r1, #38
 2096 03a4 5C48     		ldr	r0, .L193
 2097 03a6 FFF7FEFF 		bl	_Error_Handler
 2098              	.LVL252:
 2099              	.L161:
  40:Core/Inc/utils/mat.h ****         }
 2100              		.loc 2 40 0
 2101 03aa 9DF80070 		ldrb	r7, [sp]	@ zero_extendqisi2
ARM GAS  C:\Users\Prashant\AppData\Local\Temp\ccEY5C3W.s 			page 51


 2102 03ae F5B2     		uxtb	r5, r6
 2103              	.LVL253:
 2104              	.LBE229:
 2105              	.LBE228:
 2106              		.loc 1 287 0
 2107 03b0 05EB8703 		add	r3, r5, r7, lsl #2
 2108 03b4 48AA     		add	r2, sp, #288
 2109 03b6 02EB8303 		add	r3, r2, r3, lsl #2
 2110 03ba 13ED228A 		vldr.32	s16, [r3, #-136]
 2111 03be 9DF80490 		ldrb	r9, [sp, #4]	@ zero_extendqisi2
 2112              	.LVL254:
 2113              	.LBB230:
 2114              	.LBB231:
  37:Core/Inc/utils/mat.h ****                         _Error_Handler(__FILE__, __LINE__);
 2115              		.loc 2 37 0
 2116 03c2 9DF89430 		ldrb	r3, [sp, #148]	@ zero_extendqisi2
 2117 03c6 9C42     		cmp	r4, r3
 2118 03c8 03D2     		bcs	.L162
 2119 03ca 9DF89530 		ldrb	r3, [sp, #149]	@ zero_extendqisi2
 2120 03ce 9945     		cmp	r9, r3
 2121 03d0 03D3     		bcc	.L163
 2122              	.L162:
  38:Core/Inc/utils/mat.h ****                 }
 2123              		.loc 2 38 0
 2124 03d2 2621     		movs	r1, #38
 2125 03d4 5048     		ldr	r0, .L193
 2126 03d6 FFF7FEFF 		bl	_Error_Handler
 2127              	.LVL255:
 2128              	.L163:
  40:Core/Inc/utils/mat.h ****         }
 2129              		.loc 2 40 0
 2130 03da 9DF80440 		ldrb	r4, [sp, #4]	@ zero_extendqisi2
 2131              	.LVL256:
 2132              	.LBE231:
 2133              	.LBE230:
 2134              		.loc 1 287 0
 2135 03de 04EB8505 		add	r5, r4, r5, lsl #2
 2136 03e2 48AB     		add	r3, sp, #288
 2137 03e4 03EB8505 		add	r5, r3, r5, lsl #2
 2138 03e8 55ED337A 		vldr.32	s15, [r5, #-204]
 2139 03ec 28EE278A 		vmul.f32	s16, s16, s15
 2140              	.LVL257:
 2141              	.LBB232:
 2142              	.LBB227:
  37:Core/Inc/utils/mat.h ****                         _Error_Handler(__FILE__, __LINE__);
 2143              		.loc 2 37 0
 2144 03f0 9DF89430 		ldrb	r3, [sp, #148]	@ zero_extendqisi2
 2145 03f4 9845     		cmp	r8, r3
 2146 03f6 B5D2     		bcs	.L164
 2147 03f8 9DF89530 		ldrb	r3, [sp, #149]	@ zero_extendqisi2
 2148 03fc 9945     		cmp	r9, r3
 2149 03fe B5D3     		bcc	.L165
 2150 0400 B0E7     		b	.L164
 2151              	.LVL258:
 2152              	.L159:
 2153              	.LBE227:
 2154              	.LBE232:
ARM GAS  C:\Users\Prashant\AppData\Local\Temp\ccEY5C3W.s 			page 52


 2155              	.LBE224:
 288:Core/Src/utils/mat.cpp ****                         }
 289:Core/Src/utils/mat.cpp **** 
 290:Core/Src/utils/mat.cpp ****                         // divide by the factor
 291:Core/Src/utils/mat.cpp ****                         // on current
 292:Core/Src/utils/mat.cpp ****                         // term to be solved
 293:Core/Src/utils/mat.cpp ****                         //
 294:Core/Src/utils/mat.cpp ****                         // we know that U(i, i) != 0 from above
 295:Core/Src/utils/mat.cpp ****                         P.at(i, c) /= U.at(i, i);
 2156              		.loc 1 295 0 discriminator 2
 2157 0402 9DF80050 		ldrb	r5, [sp]	@ zero_extendqisi2
 2158              	.LVL259:
 2159              	.LBB233:
 2160              	.LBB234:
  37:Core/Inc/utils/mat.h ****                         _Error_Handler(__FILE__, __LINE__);
 2161              		.loc 2 37 0 discriminator 2
 2162 0406 9DF8D830 		ldrb	r3, [sp, #216]	@ zero_extendqisi2
 2163 040a 9D42     		cmp	r5, r3
 2164 040c 03D2     		bcs	.L167
  37:Core/Inc/utils/mat.h ****                         _Error_Handler(__FILE__, __LINE__);
 2165              		.loc 2 37 0 is_stmt 0
 2166 040e 9DF8D930 		ldrb	r3, [sp, #217]	@ zero_extendqisi2
 2167 0412 9D42     		cmp	r5, r3
 2168 0414 03D3     		bcc	.L168
 2169              	.L167:
  38:Core/Inc/utils/mat.h ****                 }
 2170              		.loc 2 38 0 is_stmt 1
 2171 0416 2621     		movs	r1, #38
 2172 0418 3F48     		ldr	r0, .L193
 2173 041a FFF7FEFF 		bl	_Error_Handler
 2174              	.LVL260:
 2175              	.L168:
  40:Core/Inc/utils/mat.h ****         }
 2176              		.loc 2 40 0
 2177 041e 9DF80040 		ldrb	r4, [sp]	@ zero_extendqisi2
 2178              	.LVL261:
 2179              	.LBE234:
 2180              	.LBE233:
 2181              		.loc 1 295 0
 2182 0422 04EB8402 		add	r2, r4, r4, lsl #2
 2183 0426 9300     		lsls	r3, r2, #2
 2184 0428 48AA     		add	r2, sp, #288
 2185 042a 1344     		add	r3, r3, r2
 2186 042c 13ED228A 		vldr.32	s16, [r3, #-136]
 2187 0430 9DF80420 		ldrb	r2, [sp, #4]	@ zero_extendqisi2
 2188              	.LVL262:
 2189              	.LBB235:
 2190              	.LBB236:
  37:Core/Inc/utils/mat.h ****                         _Error_Handler(__FILE__, __LINE__);
 2191              		.loc 2 37 0
 2192 0434 9DF89430 		ldrb	r3, [sp, #148]	@ zero_extendqisi2
 2193 0438 9D42     		cmp	r5, r3
 2194 043a 03D2     		bcs	.L169
 2195 043c 9DF89530 		ldrb	r3, [sp, #149]	@ zero_extendqisi2
 2196 0440 9A42     		cmp	r2, r3
 2197 0442 03D3     		bcc	.L170
 2198              	.L169:
ARM GAS  C:\Users\Prashant\AppData\Local\Temp\ccEY5C3W.s 			page 53


  38:Core/Inc/utils/mat.h ****                 }
 2199              		.loc 2 38 0
 2200 0444 2621     		movs	r1, #38
 2201 0446 3448     		ldr	r0, .L193
 2202 0448 FFF7FEFF 		bl	_Error_Handler
 2203              	.LVL263:
 2204              	.L170:
 2205              	.LBE236:
 2206              	.LBE235:
 2207              		.loc 1 295 0
 2208 044c A400     		lsls	r4, r4, #2
 2209 044e 9DF80430 		ldrb	r3, [sp, #4]	@ zero_extendqisi2
 2210 0452 54FA83F4 		uxtab	r4, r4, r3
 2211 0456 48AB     		add	r3, sp, #288
 2212 0458 03EB8404 		add	r4, r3, r4, lsl #2
 2213 045c 14ED337A 		vldr.32	s14, [r4, #-204]
 2214 0460 C7EE087A 		vdiv.f32	s15, s14, s16
 2215 0464 44ED337A 		vstr.32	s15, [r4, #-204]
 2216              	.LBE223:
 278:Core/Src/utils/mat.cpp ****                         // have to go in reverse order
 2217              		.loc 1 278 0
 2218 0468 0BF1010B 		add	fp, fp, #1
 2219              	.LVL264:
 2220              	.L171:
 278:Core/Src/utils/mat.cpp ****                         // have to go in reverse order
 2221              		.loc 1 278 0 is_stmt 0 discriminator 1
 2222 046c 9AF84060 		ldrb	r6, [r10, #64]	@ zero_extendqisi2
 2223 0470 5E45     		cmp	r6, fp
 2224 0472 04D9     		bls	.L158
 2225              	.LBB237:
 280:Core/Src/utils/mat.cpp **** 
 2226              		.loc 1 280 0 is_stmt 1
 2227 0474 A6EB0B06 		sub	r6, r6, fp
 2228 0478 731E     		subs	r3, r6, #1
 2229 047a 0093     		str	r3, [sp]
 2230              	.LVL265:
 2231 047c 82E7     		b	.L166
 2232              	.LVL266:
 2233              	.L158:
 2234              	.LBE237:
 2235              	.LBE222:
 276:Core/Src/utils/mat.cpp ****                 // for all rows of U
 2236              		.loc 1 276 0 discriminator 2
 2237 047e 019B     		ldr	r3, [sp, #4]
 2238 0480 0133     		adds	r3, r3, #1
 2239 0482 0193     		str	r3, [sp, #4]
 2240              	.LVL267:
 2241              	.L146:
 276:Core/Src/utils/mat.cpp ****                 // for all rows of U
 2242              		.loc 1 276 0 is_stmt 0 discriminator 1
 2243 0484 9AF84030 		ldrb	r3, [r10, #64]	@ zero_extendqisi2
 2244 0488 019A     		ldr	r2, [sp, #4]
 2245 048a 9342     		cmp	r3, r2
 2246 048c 02D9     		bls	.L181
 2247              	.LBB238:
 278:Core/Src/utils/mat.cpp ****                         // have to go in reverse order
 2248              		.loc 1 278 0 is_stmt 1
ARM GAS  C:\Users\Prashant\AppData\Local\Temp\ccEY5C3W.s 			page 54


 2249 048e 4FF0000B 		mov	fp, #0
 2250 0492 EBE7     		b	.L171
 2251              	.L181:
 2252              	.LBE238:
 2253              	.LBE221:
 2254              	.LBB239:
 296:Core/Src/utils/mat.cpp ****                 }
 297:Core/Src/utils/mat.cpp ****         }
 298:Core/Src/utils/mat.cpp **** 
 299:Core/Src/utils/mat.cpp ****         //check sanity of results
 300:Core/Src/utils/mat.cpp ****         for (size_t i = 0; i < rows_; i++) {
 2255              		.loc 1 300 0
 2256 0494 0025     		movs	r5, #0
 2257              	.L157:
 2258              	.LVL268:
 2259              		.loc 1 300 0 is_stmt 0 discriminator 1
 2260 0496 9AF84030 		ldrb	r3, [r10, #64]	@ zero_extendqisi2
 2261 049a AB42     		cmp	r3, r5
 2262 049c 29D9     		bls	.L172
 2263              	.LBB240:
 301:Core/Src/utils/mat.cpp ****                 for (size_t j = 0; j < rows_; j++) {
 2264              		.loc 1 301 0 is_stmt 1
 2265 049e 0024     		movs	r4, #0
 2266 04a0 16E0     		b	.L176
 2267              	.LVL269:
 2268              	.L174:
 2269              	.LBB241:
 2270              	.LBB242:
  38:Core/Inc/utils/mat.h ****                 }
 2271              		.loc 2 38 0
 2272 04a2 2621     		movs	r1, #38
 2273              	.LVL270:
 2274 04a4 1C48     		ldr	r0, .L193
 2275 04a6 FFF7FEFF 		bl	_Error_Handler
 2276              	.LVL271:
 2277              	.L175:
  40:Core/Inc/utils/mat.h ****         }
 2278              		.loc 2 40 0
 2279 04aa EBB2     		uxtb	r3, r5
 2280              	.LVL272:
 2281              	.LBE242:
 2282              	.LBE241:
 302:Core/Src/utils/mat.cpp ****                         if (!isfinite(P.at(i, j))) {
 2283              		.loc 1 302 0
 2284 04ac 9B00     		lsls	r3, r3, #2
 2285 04ae 53FA84F3 		uxtab	r3, r3, r4
 2286 04b2 48AA     		add	r2, sp, #288
 2287 04b4 02EB8303 		add	r3, r2, r3, lsl #2
 2288 04b8 53ED337A 		vldr.32	s15, [r3, #-204]
 2289              	.LVL273:
 2290              	.LBB244:
 2291              	.LBB245:
 243:c:\program files (x86)\gnu tools arm embedded\7 2017-q4-major\arm-none-eabi\include\c++\7.2.1\cmath **** 
 244:c:\program files (x86)\gnu tools arm embedded\7 2017-q4-major\arm-none-eabi\include\c++\7.2.1\cmath ****   inline _GLIBCXX_CONSTEXPR long double
 245:c:\program files (x86)\gnu tools arm embedded\7 2017-q4-major\arm-none-eabi\include\c++\7.2.1\cmath ****   fabs(long double __x)
 246:c:\program files (x86)\gnu tools arm embedded\7 2017-q4-major\arm-none-eabi\include\c++\7.2.1\cmath ****   { return __builtin_fabsl(__x); }
 247:c:\program files (x86)\gnu tools arm embedded\7 2017-q4-major\arm-none-eabi\include\c++\7.2.1\cmath **** #endif
ARM GAS  C:\Users\Prashant\AppData\Local\Temp\ccEY5C3W.s 			page 55


 248:c:\program files (x86)\gnu tools arm embedded\7 2017-q4-major\arm-none-eabi\include\c++\7.2.1\cmath **** 
 249:c:\program files (x86)\gnu tools arm embedded\7 2017-q4-major\arm-none-eabi\include\c++\7.2.1\cmath ****   template<typename _Tp>
 250:c:\program files (x86)\gnu tools arm embedded\7 2017-q4-major\arm-none-eabi\include\c++\7.2.1\cmath ****     inline _GLIBCXX_CONSTEXPR
 251:c:\program files (x86)\gnu tools arm embedded\7 2017-q4-major\arm-none-eabi\include\c++\7.2.1\cmath ****     typename __gnu_cxx::__enable_if<__is_integer<_Tp>::__value,
 252:c:\program files (x86)\gnu tools arm embedded\7 2017-q4-major\arm-none-eabi\include\c++\7.2.1\cmath ****                                     double>::__type
 253:c:\program files (x86)\gnu tools arm embedded\7 2017-q4-major\arm-none-eabi\include\c++\7.2.1\cmath ****     fabs(_Tp __x)
 254:c:\program files (x86)\gnu tools arm embedded\7 2017-q4-major\arm-none-eabi\include\c++\7.2.1\cmath ****     { return __builtin_fabs(__x); }
 255:c:\program files (x86)\gnu tools arm embedded\7 2017-q4-major\arm-none-eabi\include\c++\7.2.1\cmath **** 
 256:c:\program files (x86)\gnu tools arm embedded\7 2017-q4-major\arm-none-eabi\include\c++\7.2.1\cmath ****   using ::floor;
 257:c:\program files (x86)\gnu tools arm embedded\7 2017-q4-major\arm-none-eabi\include\c++\7.2.1\cmath **** 
 258:c:\program files (x86)\gnu tools arm embedded\7 2017-q4-major\arm-none-eabi\include\c++\7.2.1\cmath **** #ifndef __CORRECT_ISO_CPP_MATH_H_PROTO
 259:c:\program files (x86)\gnu tools arm embedded\7 2017-q4-major\arm-none-eabi\include\c++\7.2.1\cmath ****   inline _GLIBCXX_CONSTEXPR float
 260:c:\program files (x86)\gnu tools arm embedded\7 2017-q4-major\arm-none-eabi\include\c++\7.2.1\cmath ****   floor(float __x)
 261:c:\program files (x86)\gnu tools arm embedded\7 2017-q4-major\arm-none-eabi\include\c++\7.2.1\cmath ****   { return __builtin_floorf(__x); }
 262:c:\program files (x86)\gnu tools arm embedded\7 2017-q4-major\arm-none-eabi\include\c++\7.2.1\cmath **** 
 263:c:\program files (x86)\gnu tools arm embedded\7 2017-q4-major\arm-none-eabi\include\c++\7.2.1\cmath ****   inline _GLIBCXX_CONSTEXPR long double
 264:c:\program files (x86)\gnu tools arm embedded\7 2017-q4-major\arm-none-eabi\include\c++\7.2.1\cmath ****   floor(long double __x)
 265:c:\program files (x86)\gnu tools arm embedded\7 2017-q4-major\arm-none-eabi\include\c++\7.2.1\cmath ****   { return __builtin_floorl(__x); }
 266:c:\program files (x86)\gnu tools arm embedded\7 2017-q4-major\arm-none-eabi\include\c++\7.2.1\cmath **** #endif
 267:c:\program files (x86)\gnu tools arm embedded\7 2017-q4-major\arm-none-eabi\include\c++\7.2.1\cmath **** 
 268:c:\program files (x86)\gnu tools arm embedded\7 2017-q4-major\arm-none-eabi\include\c++\7.2.1\cmath ****   template<typename _Tp>
 269:c:\program files (x86)\gnu tools arm embedded\7 2017-q4-major\arm-none-eabi\include\c++\7.2.1\cmath ****     inline _GLIBCXX_CONSTEXPR
 270:c:\program files (x86)\gnu tools arm embedded\7 2017-q4-major\arm-none-eabi\include\c++\7.2.1\cmath ****     typename __gnu_cxx::__enable_if<__is_integer<_Tp>::__value,
 271:c:\program files (x86)\gnu tools arm embedded\7 2017-q4-major\arm-none-eabi\include\c++\7.2.1\cmath ****                                     double>::__type
 272:c:\program files (x86)\gnu tools arm embedded\7 2017-q4-major\arm-none-eabi\include\c++\7.2.1\cmath ****     floor(_Tp __x)
 273:c:\program files (x86)\gnu tools arm embedded\7 2017-q4-major\arm-none-eabi\include\c++\7.2.1\cmath ****     { return __builtin_floor(__x); }
 274:c:\program files (x86)\gnu tools arm embedded\7 2017-q4-major\arm-none-eabi\include\c++\7.2.1\cmath **** 
 275:c:\program files (x86)\gnu tools arm embedded\7 2017-q4-major\arm-none-eabi\include\c++\7.2.1\cmath ****   using ::fmod;
 276:c:\program files (x86)\gnu tools arm embedded\7 2017-q4-major\arm-none-eabi\include\c++\7.2.1\cmath **** 
 277:c:\program files (x86)\gnu tools arm embedded\7 2017-q4-major\arm-none-eabi\include\c++\7.2.1\cmath **** #ifndef __CORRECT_ISO_CPP_MATH_H_PROTO
 278:c:\program files (x86)\gnu tools arm embedded\7 2017-q4-major\arm-none-eabi\include\c++\7.2.1\cmath ****   inline _GLIBCXX_CONSTEXPR float
 279:c:\program files (x86)\gnu tools arm embedded\7 2017-q4-major\arm-none-eabi\include\c++\7.2.1\cmath ****   fmod(float __x, float __y)
 280:c:\program files (x86)\gnu tools arm embedded\7 2017-q4-major\arm-none-eabi\include\c++\7.2.1\cmath ****   { return __builtin_fmodf(__x, __y); }
 281:c:\program files (x86)\gnu tools arm embedded\7 2017-q4-major\arm-none-eabi\include\c++\7.2.1\cmath **** 
 282:c:\program files (x86)\gnu tools arm embedded\7 2017-q4-major\arm-none-eabi\include\c++\7.2.1\cmath ****   inline _GLIBCXX_CONSTEXPR long double
 283:c:\program files (x86)\gnu tools arm embedded\7 2017-q4-major\arm-none-eabi\include\c++\7.2.1\cmath ****   fmod(long double __x, long double __y)
 284:c:\program files (x86)\gnu tools arm embedded\7 2017-q4-major\arm-none-eabi\include\c++\7.2.1\cmath ****   { return __builtin_fmodl(__x, __y); }
 285:c:\program files (x86)\gnu tools arm embedded\7 2017-q4-major\arm-none-eabi\include\c++\7.2.1\cmath **** #endif
 286:c:\program files (x86)\gnu tools arm embedded\7 2017-q4-major\arm-none-eabi\include\c++\7.2.1\cmath **** 
 287:c:\program files (x86)\gnu tools arm embedded\7 2017-q4-major\arm-none-eabi\include\c++\7.2.1\cmath ****   template<typename _Tp, typename _Up>
 288:c:\program files (x86)\gnu tools arm embedded\7 2017-q4-major\arm-none-eabi\include\c++\7.2.1\cmath ****     inline _GLIBCXX_CONSTEXPR
 289:c:\program files (x86)\gnu tools arm embedded\7 2017-q4-major\arm-none-eabi\include\c++\7.2.1\cmath ****     typename __gnu_cxx::__promote_2<_Tp, _Up>::__type
 290:c:\program files (x86)\gnu tools arm embedded\7 2017-q4-major\arm-none-eabi\include\c++\7.2.1\cmath ****     fmod(_Tp __x, _Up __y)
 291:c:\program files (x86)\gnu tools arm embedded\7 2017-q4-major\arm-none-eabi\include\c++\7.2.1\cmath ****     {
 292:c:\program files (x86)\gnu tools arm embedded\7 2017-q4-major\arm-none-eabi\include\c++\7.2.1\cmath ****       typedef typename __gnu_cxx::__promote_2<_Tp, _Up>::__type __type;
 293:c:\program files (x86)\gnu tools arm embedded\7 2017-q4-major\arm-none-eabi\include\c++\7.2.1\cmath ****       return fmod(__type(__x), __type(__y));
 294:c:\program files (x86)\gnu tools arm embedded\7 2017-q4-major\arm-none-eabi\include\c++\7.2.1\cmath ****     }
 295:c:\program files (x86)\gnu tools arm embedded\7 2017-q4-major\arm-none-eabi\include\c++\7.2.1\cmath **** 
 296:c:\program files (x86)\gnu tools arm embedded\7 2017-q4-major\arm-none-eabi\include\c++\7.2.1\cmath ****   using ::frexp;
 297:c:\program files (x86)\gnu tools arm embedded\7 2017-q4-major\arm-none-eabi\include\c++\7.2.1\cmath **** 
 298:c:\program files (x86)\gnu tools arm embedded\7 2017-q4-major\arm-none-eabi\include\c++\7.2.1\cmath **** #ifndef __CORRECT_ISO_CPP_MATH_H_PROTO
 299:c:\program files (x86)\gnu tools arm embedded\7 2017-q4-major\arm-none-eabi\include\c++\7.2.1\cmath ****   inline float
 300:c:\program files (x86)\gnu tools arm embedded\7 2017-q4-major\arm-none-eabi\include\c++\7.2.1\cmath ****   frexp(float __x, int* __exp)
 301:c:\program files (x86)\gnu tools arm embedded\7 2017-q4-major\arm-none-eabi\include\c++\7.2.1\cmath ****   { return __builtin_frexpf(__x, __exp); }
 302:c:\program files (x86)\gnu tools arm embedded\7 2017-q4-major\arm-none-eabi\include\c++\7.2.1\cmath **** 
 303:c:\program files (x86)\gnu tools arm embedded\7 2017-q4-major\arm-none-eabi\include\c++\7.2.1\cmath ****   inline long double
 304:c:\program files (x86)\gnu tools arm embedded\7 2017-q4-major\arm-none-eabi\include\c++\7.2.1\cmath ****   frexp(long double __x, int* __exp)
ARM GAS  C:\Users\Prashant\AppData\Local\Temp\ccEY5C3W.s 			page 56


 305:c:\program files (x86)\gnu tools arm embedded\7 2017-q4-major\arm-none-eabi\include\c++\7.2.1\cmath ****   { return __builtin_frexpl(__x, __exp); }
 306:c:\program files (x86)\gnu tools arm embedded\7 2017-q4-major\arm-none-eabi\include\c++\7.2.1\cmath **** #endif
 307:c:\program files (x86)\gnu tools arm embedded\7 2017-q4-major\arm-none-eabi\include\c++\7.2.1\cmath **** 
 308:c:\program files (x86)\gnu tools arm embedded\7 2017-q4-major\arm-none-eabi\include\c++\7.2.1\cmath ****   template<typename _Tp>
 309:c:\program files (x86)\gnu tools arm embedded\7 2017-q4-major\arm-none-eabi\include\c++\7.2.1\cmath ****     inline _GLIBCXX_CONSTEXPR
 310:c:\program files (x86)\gnu tools arm embedded\7 2017-q4-major\arm-none-eabi\include\c++\7.2.1\cmath ****     typename __gnu_cxx::__enable_if<__is_integer<_Tp>::__value, 
 311:c:\program files (x86)\gnu tools arm embedded\7 2017-q4-major\arm-none-eabi\include\c++\7.2.1\cmath ****                                     double>::__type
 312:c:\program files (x86)\gnu tools arm embedded\7 2017-q4-major\arm-none-eabi\include\c++\7.2.1\cmath ****     frexp(_Tp __x, int* __exp)
 313:c:\program files (x86)\gnu tools arm embedded\7 2017-q4-major\arm-none-eabi\include\c++\7.2.1\cmath ****     { return __builtin_frexp(__x, __exp); }
 314:c:\program files (x86)\gnu tools arm embedded\7 2017-q4-major\arm-none-eabi\include\c++\7.2.1\cmath **** 
 315:c:\program files (x86)\gnu tools arm embedded\7 2017-q4-major\arm-none-eabi\include\c++\7.2.1\cmath ****   using ::ldexp;
 316:c:\program files (x86)\gnu tools arm embedded\7 2017-q4-major\arm-none-eabi\include\c++\7.2.1\cmath **** 
 317:c:\program files (x86)\gnu tools arm embedded\7 2017-q4-major\arm-none-eabi\include\c++\7.2.1\cmath **** #ifndef __CORRECT_ISO_CPP_MATH_H_PROTO
 318:c:\program files (x86)\gnu tools arm embedded\7 2017-q4-major\arm-none-eabi\include\c++\7.2.1\cmath ****   inline _GLIBCXX_CONSTEXPR float
 319:c:\program files (x86)\gnu tools arm embedded\7 2017-q4-major\arm-none-eabi\include\c++\7.2.1\cmath ****   ldexp(float __x, int __exp)
 320:c:\program files (x86)\gnu tools arm embedded\7 2017-q4-major\arm-none-eabi\include\c++\7.2.1\cmath ****   { return __builtin_ldexpf(__x, __exp); }
 321:c:\program files (x86)\gnu tools arm embedded\7 2017-q4-major\arm-none-eabi\include\c++\7.2.1\cmath **** 
 322:c:\program files (x86)\gnu tools arm embedded\7 2017-q4-major\arm-none-eabi\include\c++\7.2.1\cmath ****   inline _GLIBCXX_CONSTEXPR long double
 323:c:\program files (x86)\gnu tools arm embedded\7 2017-q4-major\arm-none-eabi\include\c++\7.2.1\cmath ****   ldexp(long double __x, int __exp)
 324:c:\program files (x86)\gnu tools arm embedded\7 2017-q4-major\arm-none-eabi\include\c++\7.2.1\cmath ****   { return __builtin_ldexpl(__x, __exp); }
 325:c:\program files (x86)\gnu tools arm embedded\7 2017-q4-major\arm-none-eabi\include\c++\7.2.1\cmath **** #endif
 326:c:\program files (x86)\gnu tools arm embedded\7 2017-q4-major\arm-none-eabi\include\c++\7.2.1\cmath **** 
 327:c:\program files (x86)\gnu tools arm embedded\7 2017-q4-major\arm-none-eabi\include\c++\7.2.1\cmath ****   template<typename _Tp>
 328:c:\program files (x86)\gnu tools arm embedded\7 2017-q4-major\arm-none-eabi\include\c++\7.2.1\cmath ****     inline _GLIBCXX_CONSTEXPR
 329:c:\program files (x86)\gnu tools arm embedded\7 2017-q4-major\arm-none-eabi\include\c++\7.2.1\cmath ****     typename __gnu_cxx::__enable_if<__is_integer<_Tp>::__value, 
 330:c:\program files (x86)\gnu tools arm embedded\7 2017-q4-major\arm-none-eabi\include\c++\7.2.1\cmath ****                                     double>::__type
 331:c:\program files (x86)\gnu tools arm embedded\7 2017-q4-major\arm-none-eabi\include\c++\7.2.1\cmath ****     ldexp(_Tp __x, int __exp)
 332:c:\program files (x86)\gnu tools arm embedded\7 2017-q4-major\arm-none-eabi\include\c++\7.2.1\cmath ****     { return __builtin_ldexp(__x, __exp); }
 333:c:\program files (x86)\gnu tools arm embedded\7 2017-q4-major\arm-none-eabi\include\c++\7.2.1\cmath **** 
 334:c:\program files (x86)\gnu tools arm embedded\7 2017-q4-major\arm-none-eabi\include\c++\7.2.1\cmath ****   using ::log;
 335:c:\program files (x86)\gnu tools arm embedded\7 2017-q4-major\arm-none-eabi\include\c++\7.2.1\cmath **** 
 336:c:\program files (x86)\gnu tools arm embedded\7 2017-q4-major\arm-none-eabi\include\c++\7.2.1\cmath **** #ifndef __CORRECT_ISO_CPP_MATH_H_PROTO
 337:c:\program files (x86)\gnu tools arm embedded\7 2017-q4-major\arm-none-eabi\include\c++\7.2.1\cmath ****   inline _GLIBCXX_CONSTEXPR float
 338:c:\program files (x86)\gnu tools arm embedded\7 2017-q4-major\arm-none-eabi\include\c++\7.2.1\cmath ****   log(float __x)
 339:c:\program files (x86)\gnu tools arm embedded\7 2017-q4-major\arm-none-eabi\include\c++\7.2.1\cmath ****   { return __builtin_logf(__x); }
 340:c:\program files (x86)\gnu tools arm embedded\7 2017-q4-major\arm-none-eabi\include\c++\7.2.1\cmath **** 
 341:c:\program files (x86)\gnu tools arm embedded\7 2017-q4-major\arm-none-eabi\include\c++\7.2.1\cmath ****   inline _GLIBCXX_CONSTEXPR long double
 342:c:\program files (x86)\gnu tools arm embedded\7 2017-q4-major\arm-none-eabi\include\c++\7.2.1\cmath ****   log(long double __x)
 343:c:\program files (x86)\gnu tools arm embedded\7 2017-q4-major\arm-none-eabi\include\c++\7.2.1\cmath ****   { return __builtin_logl(__x); }
 344:c:\program files (x86)\gnu tools arm embedded\7 2017-q4-major\arm-none-eabi\include\c++\7.2.1\cmath **** #endif
 345:c:\program files (x86)\gnu tools arm embedded\7 2017-q4-major\arm-none-eabi\include\c++\7.2.1\cmath **** 
 346:c:\program files (x86)\gnu tools arm embedded\7 2017-q4-major\arm-none-eabi\include\c++\7.2.1\cmath ****   template<typename _Tp>
 347:c:\program files (x86)\gnu tools arm embedded\7 2017-q4-major\arm-none-eabi\include\c++\7.2.1\cmath ****     inline _GLIBCXX_CONSTEXPR
 348:c:\program files (x86)\gnu tools arm embedded\7 2017-q4-major\arm-none-eabi\include\c++\7.2.1\cmath ****     typename __gnu_cxx::__enable_if<__is_integer<_Tp>::__value, 
 349:c:\program files (x86)\gnu tools arm embedded\7 2017-q4-major\arm-none-eabi\include\c++\7.2.1\cmath ****                                     double>::__type
 350:c:\program files (x86)\gnu tools arm embedded\7 2017-q4-major\arm-none-eabi\include\c++\7.2.1\cmath ****     log(_Tp __x)
 351:c:\program files (x86)\gnu tools arm embedded\7 2017-q4-major\arm-none-eabi\include\c++\7.2.1\cmath ****     { return __builtin_log(__x); }
 352:c:\program files (x86)\gnu tools arm embedded\7 2017-q4-major\arm-none-eabi\include\c++\7.2.1\cmath **** 
 353:c:\program files (x86)\gnu tools arm embedded\7 2017-q4-major\arm-none-eabi\include\c++\7.2.1\cmath ****   using ::log10;
 354:c:\program files (x86)\gnu tools arm embedded\7 2017-q4-major\arm-none-eabi\include\c++\7.2.1\cmath **** 
 355:c:\program files (x86)\gnu tools arm embedded\7 2017-q4-major\arm-none-eabi\include\c++\7.2.1\cmath **** #ifndef __CORRECT_ISO_CPP_MATH_H_PROTO
 356:c:\program files (x86)\gnu tools arm embedded\7 2017-q4-major\arm-none-eabi\include\c++\7.2.1\cmath ****   inline _GLIBCXX_CONSTEXPR float
 357:c:\program files (x86)\gnu tools arm embedded\7 2017-q4-major\arm-none-eabi\include\c++\7.2.1\cmath ****   log10(float __x)
 358:c:\program files (x86)\gnu tools arm embedded\7 2017-q4-major\arm-none-eabi\include\c++\7.2.1\cmath ****   { return __builtin_log10f(__x); }
 359:c:\program files (x86)\gnu tools arm embedded\7 2017-q4-major\arm-none-eabi\include\c++\7.2.1\cmath **** 
 360:c:\program files (x86)\gnu tools arm embedded\7 2017-q4-major\arm-none-eabi\include\c++\7.2.1\cmath ****   inline _GLIBCXX_CONSTEXPR long double
 361:c:\program files (x86)\gnu tools arm embedded\7 2017-q4-major\arm-none-eabi\include\c++\7.2.1\cmath ****   log10(long double __x)
ARM GAS  C:\Users\Prashant\AppData\Local\Temp\ccEY5C3W.s 			page 57


 362:c:\program files (x86)\gnu tools arm embedded\7 2017-q4-major\arm-none-eabi\include\c++\7.2.1\cmath ****   { return __builtin_log10l(__x); }
 363:c:\program files (x86)\gnu tools arm embedded\7 2017-q4-major\arm-none-eabi\include\c++\7.2.1\cmath **** #endif
 364:c:\program files (x86)\gnu tools arm embedded\7 2017-q4-major\arm-none-eabi\include\c++\7.2.1\cmath **** 
 365:c:\program files (x86)\gnu tools arm embedded\7 2017-q4-major\arm-none-eabi\include\c++\7.2.1\cmath ****   template<typename _Tp>
 366:c:\program files (x86)\gnu tools arm embedded\7 2017-q4-major\arm-none-eabi\include\c++\7.2.1\cmath ****     inline _GLIBCXX_CONSTEXPR
 367:c:\program files (x86)\gnu tools arm embedded\7 2017-q4-major\arm-none-eabi\include\c++\7.2.1\cmath ****     typename __gnu_cxx::__enable_if<__is_integer<_Tp>::__value,
 368:c:\program files (x86)\gnu tools arm embedded\7 2017-q4-major\arm-none-eabi\include\c++\7.2.1\cmath ****                                     double>::__type
 369:c:\program files (x86)\gnu tools arm embedded\7 2017-q4-major\arm-none-eabi\include\c++\7.2.1\cmath ****     log10(_Tp __x)
 370:c:\program files (x86)\gnu tools arm embedded\7 2017-q4-major\arm-none-eabi\include\c++\7.2.1\cmath ****     { return __builtin_log10(__x); }
 371:c:\program files (x86)\gnu tools arm embedded\7 2017-q4-major\arm-none-eabi\include\c++\7.2.1\cmath **** 
 372:c:\program files (x86)\gnu tools arm embedded\7 2017-q4-major\arm-none-eabi\include\c++\7.2.1\cmath ****   using ::modf;
 373:c:\program files (x86)\gnu tools arm embedded\7 2017-q4-major\arm-none-eabi\include\c++\7.2.1\cmath **** 
 374:c:\program files (x86)\gnu tools arm embedded\7 2017-q4-major\arm-none-eabi\include\c++\7.2.1\cmath **** #ifndef __CORRECT_ISO_CPP_MATH_H_PROTO
 375:c:\program files (x86)\gnu tools arm embedded\7 2017-q4-major\arm-none-eabi\include\c++\7.2.1\cmath ****   inline float
 376:c:\program files (x86)\gnu tools arm embedded\7 2017-q4-major\arm-none-eabi\include\c++\7.2.1\cmath ****   modf(float __x, float* __iptr)
 377:c:\program files (x86)\gnu tools arm embedded\7 2017-q4-major\arm-none-eabi\include\c++\7.2.1\cmath ****   { return __builtin_modff(__x, __iptr); }
 378:c:\program files (x86)\gnu tools arm embedded\7 2017-q4-major\arm-none-eabi\include\c++\7.2.1\cmath **** 
 379:c:\program files (x86)\gnu tools arm embedded\7 2017-q4-major\arm-none-eabi\include\c++\7.2.1\cmath ****   inline long double
 380:c:\program files (x86)\gnu tools arm embedded\7 2017-q4-major\arm-none-eabi\include\c++\7.2.1\cmath ****   modf(long double __x, long double* __iptr)
 381:c:\program files (x86)\gnu tools arm embedded\7 2017-q4-major\arm-none-eabi\include\c++\7.2.1\cmath ****   { return __builtin_modfl(__x, __iptr); }
 382:c:\program files (x86)\gnu tools arm embedded\7 2017-q4-major\arm-none-eabi\include\c++\7.2.1\cmath **** #endif
 383:c:\program files (x86)\gnu tools arm embedded\7 2017-q4-major\arm-none-eabi\include\c++\7.2.1\cmath **** 
 384:c:\program files (x86)\gnu tools arm embedded\7 2017-q4-major\arm-none-eabi\include\c++\7.2.1\cmath ****   using ::pow;
 385:c:\program files (x86)\gnu tools arm embedded\7 2017-q4-major\arm-none-eabi\include\c++\7.2.1\cmath **** 
 386:c:\program files (x86)\gnu tools arm embedded\7 2017-q4-major\arm-none-eabi\include\c++\7.2.1\cmath **** #ifndef __CORRECT_ISO_CPP_MATH_H_PROTO
 387:c:\program files (x86)\gnu tools arm embedded\7 2017-q4-major\arm-none-eabi\include\c++\7.2.1\cmath ****   inline _GLIBCXX_CONSTEXPR float
 388:c:\program files (x86)\gnu tools arm embedded\7 2017-q4-major\arm-none-eabi\include\c++\7.2.1\cmath ****   pow(float __x, float __y)
 389:c:\program files (x86)\gnu tools arm embedded\7 2017-q4-major\arm-none-eabi\include\c++\7.2.1\cmath ****   { return __builtin_powf(__x, __y); }
 390:c:\program files (x86)\gnu tools arm embedded\7 2017-q4-major\arm-none-eabi\include\c++\7.2.1\cmath **** 
 391:c:\program files (x86)\gnu tools arm embedded\7 2017-q4-major\arm-none-eabi\include\c++\7.2.1\cmath ****   inline _GLIBCXX_CONSTEXPR long double
 392:c:\program files (x86)\gnu tools arm embedded\7 2017-q4-major\arm-none-eabi\include\c++\7.2.1\cmath ****   pow(long double __x, long double __y)
 393:c:\program files (x86)\gnu tools arm embedded\7 2017-q4-major\arm-none-eabi\include\c++\7.2.1\cmath ****   { return __builtin_powl(__x, __y); }
 394:c:\program files (x86)\gnu tools arm embedded\7 2017-q4-major\arm-none-eabi\include\c++\7.2.1\cmath **** 
 395:c:\program files (x86)\gnu tools arm embedded\7 2017-q4-major\arm-none-eabi\include\c++\7.2.1\cmath **** #if __cplusplus < 201103L
 396:c:\program files (x86)\gnu tools arm embedded\7 2017-q4-major\arm-none-eabi\include\c++\7.2.1\cmath ****   // _GLIBCXX_RESOLVE_LIB_DEFECTS
 397:c:\program files (x86)\gnu tools arm embedded\7 2017-q4-major\arm-none-eabi\include\c++\7.2.1\cmath ****   // DR 550. What should the return type of pow(float,int) be?
 398:c:\program files (x86)\gnu tools arm embedded\7 2017-q4-major\arm-none-eabi\include\c++\7.2.1\cmath ****   inline double
 399:c:\program files (x86)\gnu tools arm embedded\7 2017-q4-major\arm-none-eabi\include\c++\7.2.1\cmath ****   pow(double __x, int __i)
 400:c:\program files (x86)\gnu tools arm embedded\7 2017-q4-major\arm-none-eabi\include\c++\7.2.1\cmath ****   { return __builtin_powi(__x, __i); }
 401:c:\program files (x86)\gnu tools arm embedded\7 2017-q4-major\arm-none-eabi\include\c++\7.2.1\cmath **** 
 402:c:\program files (x86)\gnu tools arm embedded\7 2017-q4-major\arm-none-eabi\include\c++\7.2.1\cmath ****   inline float
 403:c:\program files (x86)\gnu tools arm embedded\7 2017-q4-major\arm-none-eabi\include\c++\7.2.1\cmath ****   pow(float __x, int __n)
 404:c:\program files (x86)\gnu tools arm embedded\7 2017-q4-major\arm-none-eabi\include\c++\7.2.1\cmath ****   { return __builtin_powif(__x, __n); }
 405:c:\program files (x86)\gnu tools arm embedded\7 2017-q4-major\arm-none-eabi\include\c++\7.2.1\cmath **** 
 406:c:\program files (x86)\gnu tools arm embedded\7 2017-q4-major\arm-none-eabi\include\c++\7.2.1\cmath ****   inline long double
 407:c:\program files (x86)\gnu tools arm embedded\7 2017-q4-major\arm-none-eabi\include\c++\7.2.1\cmath ****   pow(long double __x, int __n)
 408:c:\program files (x86)\gnu tools arm embedded\7 2017-q4-major\arm-none-eabi\include\c++\7.2.1\cmath ****   { return __builtin_powil(__x, __n); }
 409:c:\program files (x86)\gnu tools arm embedded\7 2017-q4-major\arm-none-eabi\include\c++\7.2.1\cmath **** #endif
 410:c:\program files (x86)\gnu tools arm embedded\7 2017-q4-major\arm-none-eabi\include\c++\7.2.1\cmath **** #endif
 411:c:\program files (x86)\gnu tools arm embedded\7 2017-q4-major\arm-none-eabi\include\c++\7.2.1\cmath **** 
 412:c:\program files (x86)\gnu tools arm embedded\7 2017-q4-major\arm-none-eabi\include\c++\7.2.1\cmath ****   template<typename _Tp, typename _Up>
 413:c:\program files (x86)\gnu tools arm embedded\7 2017-q4-major\arm-none-eabi\include\c++\7.2.1\cmath ****     inline _GLIBCXX_CONSTEXPR
 414:c:\program files (x86)\gnu tools arm embedded\7 2017-q4-major\arm-none-eabi\include\c++\7.2.1\cmath ****     typename __gnu_cxx::__promote_2<_Tp, _Up>::__type
 415:c:\program files (x86)\gnu tools arm embedded\7 2017-q4-major\arm-none-eabi\include\c++\7.2.1\cmath ****     pow(_Tp __x, _Up __y)
 416:c:\program files (x86)\gnu tools arm embedded\7 2017-q4-major\arm-none-eabi\include\c++\7.2.1\cmath ****     {
 417:c:\program files (x86)\gnu tools arm embedded\7 2017-q4-major\arm-none-eabi\include\c++\7.2.1\cmath ****       typedef typename __gnu_cxx::__promote_2<_Tp, _Up>::__type __type;
 418:c:\program files (x86)\gnu tools arm embedded\7 2017-q4-major\arm-none-eabi\include\c++\7.2.1\cmath ****       return pow(__type(__x), __type(__y));
ARM GAS  C:\Users\Prashant\AppData\Local\Temp\ccEY5C3W.s 			page 58


 419:c:\program files (x86)\gnu tools arm embedded\7 2017-q4-major\arm-none-eabi\include\c++\7.2.1\cmath ****     }
 420:c:\program files (x86)\gnu tools arm embedded\7 2017-q4-major\arm-none-eabi\include\c++\7.2.1\cmath **** 
 421:c:\program files (x86)\gnu tools arm embedded\7 2017-q4-major\arm-none-eabi\include\c++\7.2.1\cmath ****   using ::sin;
 422:c:\program files (x86)\gnu tools arm embedded\7 2017-q4-major\arm-none-eabi\include\c++\7.2.1\cmath **** 
 423:c:\program files (x86)\gnu tools arm embedded\7 2017-q4-major\arm-none-eabi\include\c++\7.2.1\cmath **** #ifndef __CORRECT_ISO_CPP_MATH_H_PROTO
 424:c:\program files (x86)\gnu tools arm embedded\7 2017-q4-major\arm-none-eabi\include\c++\7.2.1\cmath ****   inline _GLIBCXX_CONSTEXPR float
 425:c:\program files (x86)\gnu tools arm embedded\7 2017-q4-major\arm-none-eabi\include\c++\7.2.1\cmath ****   sin(float __x)
 426:c:\program files (x86)\gnu tools arm embedded\7 2017-q4-major\arm-none-eabi\include\c++\7.2.1\cmath ****   { return __builtin_sinf(__x); }
 427:c:\program files (x86)\gnu tools arm embedded\7 2017-q4-major\arm-none-eabi\include\c++\7.2.1\cmath **** 
 428:c:\program files (x86)\gnu tools arm embedded\7 2017-q4-major\arm-none-eabi\include\c++\7.2.1\cmath ****   inline _GLIBCXX_CONSTEXPR long double
 429:c:\program files (x86)\gnu tools arm embedded\7 2017-q4-major\arm-none-eabi\include\c++\7.2.1\cmath ****   sin(long double __x)
 430:c:\program files (x86)\gnu tools arm embedded\7 2017-q4-major\arm-none-eabi\include\c++\7.2.1\cmath ****   { return __builtin_sinl(__x); }
 431:c:\program files (x86)\gnu tools arm embedded\7 2017-q4-major\arm-none-eabi\include\c++\7.2.1\cmath **** #endif
 432:c:\program files (x86)\gnu tools arm embedded\7 2017-q4-major\arm-none-eabi\include\c++\7.2.1\cmath **** 
 433:c:\program files (x86)\gnu tools arm embedded\7 2017-q4-major\arm-none-eabi\include\c++\7.2.1\cmath ****   template<typename _Tp>
 434:c:\program files (x86)\gnu tools arm embedded\7 2017-q4-major\arm-none-eabi\include\c++\7.2.1\cmath ****     inline _GLIBCXX_CONSTEXPR
 435:c:\program files (x86)\gnu tools arm embedded\7 2017-q4-major\arm-none-eabi\include\c++\7.2.1\cmath ****     typename __gnu_cxx::__enable_if<__is_integer<_Tp>::__value, 
 436:c:\program files (x86)\gnu tools arm embedded\7 2017-q4-major\arm-none-eabi\include\c++\7.2.1\cmath ****                                     double>::__type
 437:c:\program files (x86)\gnu tools arm embedded\7 2017-q4-major\arm-none-eabi\include\c++\7.2.1\cmath ****     sin(_Tp __x)
 438:c:\program files (x86)\gnu tools arm embedded\7 2017-q4-major\arm-none-eabi\include\c++\7.2.1\cmath ****     { return __builtin_sin(__x); }
 439:c:\program files (x86)\gnu tools arm embedded\7 2017-q4-major\arm-none-eabi\include\c++\7.2.1\cmath **** 
 440:c:\program files (x86)\gnu tools arm embedded\7 2017-q4-major\arm-none-eabi\include\c++\7.2.1\cmath ****   using ::sinh;
 441:c:\program files (x86)\gnu tools arm embedded\7 2017-q4-major\arm-none-eabi\include\c++\7.2.1\cmath **** 
 442:c:\program files (x86)\gnu tools arm embedded\7 2017-q4-major\arm-none-eabi\include\c++\7.2.1\cmath **** #ifndef __CORRECT_ISO_CPP_MATH_H_PROTO
 443:c:\program files (x86)\gnu tools arm embedded\7 2017-q4-major\arm-none-eabi\include\c++\7.2.1\cmath ****   inline _GLIBCXX_CONSTEXPR float
 444:c:\program files (x86)\gnu tools arm embedded\7 2017-q4-major\arm-none-eabi\include\c++\7.2.1\cmath ****   sinh(float __x)
 445:c:\program files (x86)\gnu tools arm embedded\7 2017-q4-major\arm-none-eabi\include\c++\7.2.1\cmath ****   { return __builtin_sinhf(__x); }
 446:c:\program files (x86)\gnu tools arm embedded\7 2017-q4-major\arm-none-eabi\include\c++\7.2.1\cmath **** 
 447:c:\program files (x86)\gnu tools arm embedded\7 2017-q4-major\arm-none-eabi\include\c++\7.2.1\cmath ****   inline _GLIBCXX_CONSTEXPR long double
 448:c:\program files (x86)\gnu tools arm embedded\7 2017-q4-major\arm-none-eabi\include\c++\7.2.1\cmath ****   sinh(long double __x)
 449:c:\program files (x86)\gnu tools arm embedded\7 2017-q4-major\arm-none-eabi\include\c++\7.2.1\cmath ****   { return __builtin_sinhl(__x); }
 450:c:\program files (x86)\gnu tools arm embedded\7 2017-q4-major\arm-none-eabi\include\c++\7.2.1\cmath **** #endif
 451:c:\program files (x86)\gnu tools arm embedded\7 2017-q4-major\arm-none-eabi\include\c++\7.2.1\cmath **** 
 452:c:\program files (x86)\gnu tools arm embedded\7 2017-q4-major\arm-none-eabi\include\c++\7.2.1\cmath ****   template<typename _Tp>
 453:c:\program files (x86)\gnu tools arm embedded\7 2017-q4-major\arm-none-eabi\include\c++\7.2.1\cmath ****     inline _GLIBCXX_CONSTEXPR
 454:c:\program files (x86)\gnu tools arm embedded\7 2017-q4-major\arm-none-eabi\include\c++\7.2.1\cmath ****     typename __gnu_cxx::__enable_if<__is_integer<_Tp>::__value, 
 455:c:\program files (x86)\gnu tools arm embedded\7 2017-q4-major\arm-none-eabi\include\c++\7.2.1\cmath ****                                     double>::__type
 456:c:\program files (x86)\gnu tools arm embedded\7 2017-q4-major\arm-none-eabi\include\c++\7.2.1\cmath ****     sinh(_Tp __x)
 457:c:\program files (x86)\gnu tools arm embedded\7 2017-q4-major\arm-none-eabi\include\c++\7.2.1\cmath ****     { return __builtin_sinh(__x); }
 458:c:\program files (x86)\gnu tools arm embedded\7 2017-q4-major\arm-none-eabi\include\c++\7.2.1\cmath **** 
 459:c:\program files (x86)\gnu tools arm embedded\7 2017-q4-major\arm-none-eabi\include\c++\7.2.1\cmath ****   using ::sqrt;
 460:c:\program files (x86)\gnu tools arm embedded\7 2017-q4-major\arm-none-eabi\include\c++\7.2.1\cmath **** 
 461:c:\program files (x86)\gnu tools arm embedded\7 2017-q4-major\arm-none-eabi\include\c++\7.2.1\cmath **** #ifndef __CORRECT_ISO_CPP_MATH_H_PROTO
 462:c:\program files (x86)\gnu tools arm embedded\7 2017-q4-major\arm-none-eabi\include\c++\7.2.1\cmath ****   inline _GLIBCXX_CONSTEXPR float
 463:c:\program files (x86)\gnu tools arm embedded\7 2017-q4-major\arm-none-eabi\include\c++\7.2.1\cmath ****   sqrt(float __x)
 464:c:\program files (x86)\gnu tools arm embedded\7 2017-q4-major\arm-none-eabi\include\c++\7.2.1\cmath ****   { return __builtin_sqrtf(__x); }
 465:c:\program files (x86)\gnu tools arm embedded\7 2017-q4-major\arm-none-eabi\include\c++\7.2.1\cmath **** 
 466:c:\program files (x86)\gnu tools arm embedded\7 2017-q4-major\arm-none-eabi\include\c++\7.2.1\cmath ****   inline _GLIBCXX_CONSTEXPR long double
 467:c:\program files (x86)\gnu tools arm embedded\7 2017-q4-major\arm-none-eabi\include\c++\7.2.1\cmath ****   sqrt(long double __x)
 468:c:\program files (x86)\gnu tools arm embedded\7 2017-q4-major\arm-none-eabi\include\c++\7.2.1\cmath ****   { return __builtin_sqrtl(__x); }
 469:c:\program files (x86)\gnu tools arm embedded\7 2017-q4-major\arm-none-eabi\include\c++\7.2.1\cmath **** #endif
 470:c:\program files (x86)\gnu tools arm embedded\7 2017-q4-major\arm-none-eabi\include\c++\7.2.1\cmath **** 
 471:c:\program files (x86)\gnu tools arm embedded\7 2017-q4-major\arm-none-eabi\include\c++\7.2.1\cmath ****   template<typename _Tp>
 472:c:\program files (x86)\gnu tools arm embedded\7 2017-q4-major\arm-none-eabi\include\c++\7.2.1\cmath ****     inline _GLIBCXX_CONSTEXPR
 473:c:\program files (x86)\gnu tools arm embedded\7 2017-q4-major\arm-none-eabi\include\c++\7.2.1\cmath ****     typename __gnu_cxx::__enable_if<__is_integer<_Tp>::__value, 
 474:c:\program files (x86)\gnu tools arm embedded\7 2017-q4-major\arm-none-eabi\include\c++\7.2.1\cmath ****                                     double>::__type
 475:c:\program files (x86)\gnu tools arm embedded\7 2017-q4-major\arm-none-eabi\include\c++\7.2.1\cmath ****     sqrt(_Tp __x)
ARM GAS  C:\Users\Prashant\AppData\Local\Temp\ccEY5C3W.s 			page 59


 476:c:\program files (x86)\gnu tools arm embedded\7 2017-q4-major\arm-none-eabi\include\c++\7.2.1\cmath ****     { return __builtin_sqrt(__x); }
 477:c:\program files (x86)\gnu tools arm embedded\7 2017-q4-major\arm-none-eabi\include\c++\7.2.1\cmath **** 
 478:c:\program files (x86)\gnu tools arm embedded\7 2017-q4-major\arm-none-eabi\include\c++\7.2.1\cmath ****   using ::tan;
 479:c:\program files (x86)\gnu tools arm embedded\7 2017-q4-major\arm-none-eabi\include\c++\7.2.1\cmath **** 
 480:c:\program files (x86)\gnu tools arm embedded\7 2017-q4-major\arm-none-eabi\include\c++\7.2.1\cmath **** #ifndef __CORRECT_ISO_CPP_MATH_H_PROTO
 481:c:\program files (x86)\gnu tools arm embedded\7 2017-q4-major\arm-none-eabi\include\c++\7.2.1\cmath ****   inline _GLIBCXX_CONSTEXPR float
 482:c:\program files (x86)\gnu tools arm embedded\7 2017-q4-major\arm-none-eabi\include\c++\7.2.1\cmath ****   tan(float __x)
 483:c:\program files (x86)\gnu tools arm embedded\7 2017-q4-major\arm-none-eabi\include\c++\7.2.1\cmath ****   { return __builtin_tanf(__x); }
 484:c:\program files (x86)\gnu tools arm embedded\7 2017-q4-major\arm-none-eabi\include\c++\7.2.1\cmath **** 
 485:c:\program files (x86)\gnu tools arm embedded\7 2017-q4-major\arm-none-eabi\include\c++\7.2.1\cmath ****   inline _GLIBCXX_CONSTEXPR long double
 486:c:\program files (x86)\gnu tools arm embedded\7 2017-q4-major\arm-none-eabi\include\c++\7.2.1\cmath ****   tan(long double __x)
 487:c:\program files (x86)\gnu tools arm embedded\7 2017-q4-major\arm-none-eabi\include\c++\7.2.1\cmath ****   { return __builtin_tanl(__x); }
 488:c:\program files (x86)\gnu tools arm embedded\7 2017-q4-major\arm-none-eabi\include\c++\7.2.1\cmath **** #endif
 489:c:\program files (x86)\gnu tools arm embedded\7 2017-q4-major\arm-none-eabi\include\c++\7.2.1\cmath **** 
 490:c:\program files (x86)\gnu tools arm embedded\7 2017-q4-major\arm-none-eabi\include\c++\7.2.1\cmath ****   template<typename _Tp>
 491:c:\program files (x86)\gnu tools arm embedded\7 2017-q4-major\arm-none-eabi\include\c++\7.2.1\cmath ****     inline _GLIBCXX_CONSTEXPR
 492:c:\program files (x86)\gnu tools arm embedded\7 2017-q4-major\arm-none-eabi\include\c++\7.2.1\cmath ****     typename __gnu_cxx::__enable_if<__is_integer<_Tp>::__value, 
 493:c:\program files (x86)\gnu tools arm embedded\7 2017-q4-major\arm-none-eabi\include\c++\7.2.1\cmath ****                                     double>::__type
 494:c:\program files (x86)\gnu tools arm embedded\7 2017-q4-major\arm-none-eabi\include\c++\7.2.1\cmath ****     tan(_Tp __x)
 495:c:\program files (x86)\gnu tools arm embedded\7 2017-q4-major\arm-none-eabi\include\c++\7.2.1\cmath ****     { return __builtin_tan(__x); }
 496:c:\program files (x86)\gnu tools arm embedded\7 2017-q4-major\arm-none-eabi\include\c++\7.2.1\cmath **** 
 497:c:\program files (x86)\gnu tools arm embedded\7 2017-q4-major\arm-none-eabi\include\c++\7.2.1\cmath ****   using ::tanh;
 498:c:\program files (x86)\gnu tools arm embedded\7 2017-q4-major\arm-none-eabi\include\c++\7.2.1\cmath **** 
 499:c:\program files (x86)\gnu tools arm embedded\7 2017-q4-major\arm-none-eabi\include\c++\7.2.1\cmath **** #ifndef __CORRECT_ISO_CPP_MATH_H_PROTO
 500:c:\program files (x86)\gnu tools arm embedded\7 2017-q4-major\arm-none-eabi\include\c++\7.2.1\cmath ****   inline _GLIBCXX_CONSTEXPR float
 501:c:\program files (x86)\gnu tools arm embedded\7 2017-q4-major\arm-none-eabi\include\c++\7.2.1\cmath ****   tanh(float __x)
 502:c:\program files (x86)\gnu tools arm embedded\7 2017-q4-major\arm-none-eabi\include\c++\7.2.1\cmath ****   { return __builtin_tanhf(__x); }
 503:c:\program files (x86)\gnu tools arm embedded\7 2017-q4-major\arm-none-eabi\include\c++\7.2.1\cmath **** 
 504:c:\program files (x86)\gnu tools arm embedded\7 2017-q4-major\arm-none-eabi\include\c++\7.2.1\cmath ****   inline _GLIBCXX_CONSTEXPR long double
 505:c:\program files (x86)\gnu tools arm embedded\7 2017-q4-major\arm-none-eabi\include\c++\7.2.1\cmath ****   tanh(long double __x)
 506:c:\program files (x86)\gnu tools arm embedded\7 2017-q4-major\arm-none-eabi\include\c++\7.2.1\cmath ****   { return __builtin_tanhl(__x); }
 507:c:\program files (x86)\gnu tools arm embedded\7 2017-q4-major\arm-none-eabi\include\c++\7.2.1\cmath **** #endif
 508:c:\program files (x86)\gnu tools arm embedded\7 2017-q4-major\arm-none-eabi\include\c++\7.2.1\cmath **** 
 509:c:\program files (x86)\gnu tools arm embedded\7 2017-q4-major\arm-none-eabi\include\c++\7.2.1\cmath ****   template<typename _Tp>
 510:c:\program files (x86)\gnu tools arm embedded\7 2017-q4-major\arm-none-eabi\include\c++\7.2.1\cmath ****     inline _GLIBCXX_CONSTEXPR
 511:c:\program files (x86)\gnu tools arm embedded\7 2017-q4-major\arm-none-eabi\include\c++\7.2.1\cmath ****     typename __gnu_cxx::__enable_if<__is_integer<_Tp>::__value, 
 512:c:\program files (x86)\gnu tools arm embedded\7 2017-q4-major\arm-none-eabi\include\c++\7.2.1\cmath ****                                     double>::__type
 513:c:\program files (x86)\gnu tools arm embedded\7 2017-q4-major\arm-none-eabi\include\c++\7.2.1\cmath ****     tanh(_Tp __x)
 514:c:\program files (x86)\gnu tools arm embedded\7 2017-q4-major\arm-none-eabi\include\c++\7.2.1\cmath ****     { return __builtin_tanh(__x); }
 515:c:\program files (x86)\gnu tools arm embedded\7 2017-q4-major\arm-none-eabi\include\c++\7.2.1\cmath **** 
 516:c:\program files (x86)\gnu tools arm embedded\7 2017-q4-major\arm-none-eabi\include\c++\7.2.1\cmath **** _GLIBCXX_END_NAMESPACE_VERSION
 517:c:\program files (x86)\gnu tools arm embedded\7 2017-q4-major\arm-none-eabi\include\c++\7.2.1\cmath **** } // namespace
 518:c:\program files (x86)\gnu tools arm embedded\7 2017-q4-major\arm-none-eabi\include\c++\7.2.1\cmath **** 
 519:c:\program files (x86)\gnu tools arm embedded\7 2017-q4-major\arm-none-eabi\include\c++\7.2.1\cmath **** #if _GLIBCXX_USE_C99_MATH
 520:c:\program files (x86)\gnu tools arm embedded\7 2017-q4-major\arm-none-eabi\include\c++\7.2.1\cmath **** #if !_GLIBCXX_USE_C99_FP_MACROS_DYNAMIC
 521:c:\program files (x86)\gnu tools arm embedded\7 2017-q4-major\arm-none-eabi\include\c++\7.2.1\cmath **** 
 522:c:\program files (x86)\gnu tools arm embedded\7 2017-q4-major\arm-none-eabi\include\c++\7.2.1\cmath **** // These are possible macros imported from C99-land.
 523:c:\program files (x86)\gnu tools arm embedded\7 2017-q4-major\arm-none-eabi\include\c++\7.2.1\cmath **** #undef fpclassify
 524:c:\program files (x86)\gnu tools arm embedded\7 2017-q4-major\arm-none-eabi\include\c++\7.2.1\cmath **** #undef isfinite
 525:c:\program files (x86)\gnu tools arm embedded\7 2017-q4-major\arm-none-eabi\include\c++\7.2.1\cmath **** #undef isinf
 526:c:\program files (x86)\gnu tools arm embedded\7 2017-q4-major\arm-none-eabi\include\c++\7.2.1\cmath **** #undef isnan
 527:c:\program files (x86)\gnu tools arm embedded\7 2017-q4-major\arm-none-eabi\include\c++\7.2.1\cmath **** #undef isnormal
 528:c:\program files (x86)\gnu tools arm embedded\7 2017-q4-major\arm-none-eabi\include\c++\7.2.1\cmath **** #undef signbit
 529:c:\program files (x86)\gnu tools arm embedded\7 2017-q4-major\arm-none-eabi\include\c++\7.2.1\cmath **** #undef isgreater
 530:c:\program files (x86)\gnu tools arm embedded\7 2017-q4-major\arm-none-eabi\include\c++\7.2.1\cmath **** #undef isgreaterequal
 531:c:\program files (x86)\gnu tools arm embedded\7 2017-q4-major\arm-none-eabi\include\c++\7.2.1\cmath **** #undef isless
 532:c:\program files (x86)\gnu tools arm embedded\7 2017-q4-major\arm-none-eabi\include\c++\7.2.1\cmath **** #undef islessequal
ARM GAS  C:\Users\Prashant\AppData\Local\Temp\ccEY5C3W.s 			page 60


 533:c:\program files (x86)\gnu tools arm embedded\7 2017-q4-major\arm-none-eabi\include\c++\7.2.1\cmath **** #undef islessgreater
 534:c:\program files (x86)\gnu tools arm embedded\7 2017-q4-major\arm-none-eabi\include\c++\7.2.1\cmath **** #undef isunordered
 535:c:\program files (x86)\gnu tools arm embedded\7 2017-q4-major\arm-none-eabi\include\c++\7.2.1\cmath **** 
 536:c:\program files (x86)\gnu tools arm embedded\7 2017-q4-major\arm-none-eabi\include\c++\7.2.1\cmath **** namespace std _GLIBCXX_VISIBILITY(default)
 537:c:\program files (x86)\gnu tools arm embedded\7 2017-q4-major\arm-none-eabi\include\c++\7.2.1\cmath **** {
 538:c:\program files (x86)\gnu tools arm embedded\7 2017-q4-major\arm-none-eabi\include\c++\7.2.1\cmath **** _GLIBCXX_BEGIN_NAMESPACE_VERSION
 539:c:\program files (x86)\gnu tools arm embedded\7 2017-q4-major\arm-none-eabi\include\c++\7.2.1\cmath **** 
 540:c:\program files (x86)\gnu tools arm embedded\7 2017-q4-major\arm-none-eabi\include\c++\7.2.1\cmath **** #if __cplusplus >= 201103L
 541:c:\program files (x86)\gnu tools arm embedded\7 2017-q4-major\arm-none-eabi\include\c++\7.2.1\cmath **** 
 542:c:\program files (x86)\gnu tools arm embedded\7 2017-q4-major\arm-none-eabi\include\c++\7.2.1\cmath **** #ifndef __CORRECT_ISO_CPP11_MATH_H_PROTO_FP
 543:c:\program files (x86)\gnu tools arm embedded\7 2017-q4-major\arm-none-eabi\include\c++\7.2.1\cmath ****   constexpr int
 544:c:\program files (x86)\gnu tools arm embedded\7 2017-q4-major\arm-none-eabi\include\c++\7.2.1\cmath ****   fpclassify(float __x)
 545:c:\program files (x86)\gnu tools arm embedded\7 2017-q4-major\arm-none-eabi\include\c++\7.2.1\cmath ****   { return __builtin_fpclassify(FP_NAN, FP_INFINITE, FP_NORMAL,
 546:c:\program files (x86)\gnu tools arm embedded\7 2017-q4-major\arm-none-eabi\include\c++\7.2.1\cmath **** 				FP_SUBNORMAL, FP_ZERO, __x); }
 547:c:\program files (x86)\gnu tools arm embedded\7 2017-q4-major\arm-none-eabi\include\c++\7.2.1\cmath **** 
 548:c:\program files (x86)\gnu tools arm embedded\7 2017-q4-major\arm-none-eabi\include\c++\7.2.1\cmath ****   constexpr int
 549:c:\program files (x86)\gnu tools arm embedded\7 2017-q4-major\arm-none-eabi\include\c++\7.2.1\cmath ****   fpclassify(double __x)
 550:c:\program files (x86)\gnu tools arm embedded\7 2017-q4-major\arm-none-eabi\include\c++\7.2.1\cmath ****   { return __builtin_fpclassify(FP_NAN, FP_INFINITE, FP_NORMAL,
 551:c:\program files (x86)\gnu tools arm embedded\7 2017-q4-major\arm-none-eabi\include\c++\7.2.1\cmath **** 				FP_SUBNORMAL, FP_ZERO, __x); }
 552:c:\program files (x86)\gnu tools arm embedded\7 2017-q4-major\arm-none-eabi\include\c++\7.2.1\cmath **** 
 553:c:\program files (x86)\gnu tools arm embedded\7 2017-q4-major\arm-none-eabi\include\c++\7.2.1\cmath ****   constexpr int
 554:c:\program files (x86)\gnu tools arm embedded\7 2017-q4-major\arm-none-eabi\include\c++\7.2.1\cmath ****   fpclassify(long double __x)
 555:c:\program files (x86)\gnu tools arm embedded\7 2017-q4-major\arm-none-eabi\include\c++\7.2.1\cmath ****   { return __builtin_fpclassify(FP_NAN, FP_INFINITE, FP_NORMAL,
 556:c:\program files (x86)\gnu tools arm embedded\7 2017-q4-major\arm-none-eabi\include\c++\7.2.1\cmath **** 				FP_SUBNORMAL, FP_ZERO, __x); }
 557:c:\program files (x86)\gnu tools arm embedded\7 2017-q4-major\arm-none-eabi\include\c++\7.2.1\cmath **** #endif
 558:c:\program files (x86)\gnu tools arm embedded\7 2017-q4-major\arm-none-eabi\include\c++\7.2.1\cmath **** 
 559:c:\program files (x86)\gnu tools arm embedded\7 2017-q4-major\arm-none-eabi\include\c++\7.2.1\cmath **** #ifndef __CORRECT_ISO_CPP11_MATH_H_PROTO_INT
 560:c:\program files (x86)\gnu tools arm embedded\7 2017-q4-major\arm-none-eabi\include\c++\7.2.1\cmath ****   template<typename _Tp>
 561:c:\program files (x86)\gnu tools arm embedded\7 2017-q4-major\arm-none-eabi\include\c++\7.2.1\cmath ****     constexpr typename __gnu_cxx::__enable_if<__is_integer<_Tp>::__value,
 562:c:\program files (x86)\gnu tools arm embedded\7 2017-q4-major\arm-none-eabi\include\c++\7.2.1\cmath ****                                               int>::__type
 563:c:\program files (x86)\gnu tools arm embedded\7 2017-q4-major\arm-none-eabi\include\c++\7.2.1\cmath ****     fpclassify(_Tp __x)
 564:c:\program files (x86)\gnu tools arm embedded\7 2017-q4-major\arm-none-eabi\include\c++\7.2.1\cmath ****     { return __x != 0 ? FP_NORMAL : FP_ZERO; }
 565:c:\program files (x86)\gnu tools arm embedded\7 2017-q4-major\arm-none-eabi\include\c++\7.2.1\cmath **** #endif
 566:c:\program files (x86)\gnu tools arm embedded\7 2017-q4-major\arm-none-eabi\include\c++\7.2.1\cmath **** 
 567:c:\program files (x86)\gnu tools arm embedded\7 2017-q4-major\arm-none-eabi\include\c++\7.2.1\cmath **** #ifndef __CORRECT_ISO_CPP11_MATH_H_PROTO_FP
 568:c:\program files (x86)\gnu tools arm embedded\7 2017-q4-major\arm-none-eabi\include\c++\7.2.1\cmath ****   constexpr bool
 569:c:\program files (x86)\gnu tools arm embedded\7 2017-q4-major\arm-none-eabi\include\c++\7.2.1\cmath ****   isfinite(float __x)
 570:c:\program files (x86)\gnu tools arm embedded\7 2017-q4-major\arm-none-eabi\include\c++\7.2.1\cmath ****   { return __builtin_isfinite(__x); }
 2292              		.loc 4 570 0
 2293 04bc F0EEE77A 		vabs.f32	s15, s15
 2294              	.LVL274:
 2295              	.LBE245:
 2296              	.LBE244:
 2297              		.loc 1 302 0
 2298 04c0 9FED167A 		vldr.32	s14, .L193+4
 2299 04c4 F4EE477A 		vcmp.f32	s15, s14
 2300 04c8 F1EE10FA 		vmrs	APSR_nzcv, FPSCR
 2301 04cc 21D8     		bhi	.L182
 301:Core/Src/utils/mat.cpp ****                         if (!isfinite(P.at(i, j))) {
 2302              		.loc 1 301 0 discriminator 2
 2303 04ce 0134     		adds	r4, r4, #1
 2304              	.LVL275:
 2305              	.L176:
 301:Core/Src/utils/mat.cpp ****                         if (!isfinite(P.at(i, j))) {
 2306              		.loc 1 301 0 is_stmt 0 discriminator 1
 2307 04d0 9AF84030 		ldrb	r3, [r10, #64]	@ zero_extendqisi2
 2308 04d4 A342     		cmp	r3, r4
ARM GAS  C:\Users\Prashant\AppData\Local\Temp\ccEY5C3W.s 			page 61


 2309 04d6 0AD9     		bls	.L173
 2310              		.loc 1 302 0 is_stmt 1
 2311 04d8 EBB2     		uxtb	r3, r5
 2312 04da E1B2     		uxtb	r1, r4
 2313              	.LVL276:
 2314              	.LBB246:
 2315              	.LBB243:
  37:Core/Inc/utils/mat.h ****                         _Error_Handler(__FILE__, __LINE__);
 2316              		.loc 2 37 0
 2317 04dc 9DF89420 		ldrb	r2, [sp, #148]	@ zero_extendqisi2
 2318 04e0 9342     		cmp	r3, r2
 2319 04e2 DED2     		bcs	.L174
 2320 04e4 9DF89530 		ldrb	r3, [sp, #149]	@ zero_extendqisi2
 2321 04e8 9942     		cmp	r1, r3
 2322 04ea DED3     		bcc	.L175
 2323 04ec D9E7     		b	.L174
 2324              	.LVL277:
 2325              	.L173:
 2326              	.LBE243:
 2327              	.LBE246:
 2328              	.LBE240:
 300:Core/Src/utils/mat.cpp ****                 for (size_t j = 0; j < rows_; j++) {
 2329              		.loc 1 300 0 discriminator 2
 2330 04ee 0135     		adds	r5, r5, #1
 2331              	.LVL278:
 2332 04f0 D1E7     		b	.L157
 2333              	.LVL279:
 2334              	.L172:
 2335              	.LBE239:
 2336              	.LBB248:
 2337              	.LBB249:
  47:Core/Inc/utils/mat.h ****                 swap(*this, temp);
 2338              		.loc 2 47 0
 2339 04f2 15A9     		add	r1, sp, #84
 2340              	.LVL280:
 2341 04f4 04A8     		add	r0, sp, #16
 2342 04f6 FFF7FEFF 		bl	_ZN3MatC1ERKS_
 2343              	.LVL281:
  48:Core/Inc/utils/mat.h **** 
 2344              		.loc 2 48 0
 2345 04fa 04A9     		add	r1, sp, #16
 2346 04fc 0398     		ldr	r0, [sp, #12]
 2347 04fe FFF7FEFF 		bl	_Z4swapR3MatS0_
 2348              	.LVL282:
 2349              	.LBE249:
 2350              	.LBE248:
 303:Core/Src/utils/mat.cpp ****                                 return false;
 304:Core/Src/utils/mat.cpp ****                         }
 305:Core/Src/utils/mat.cpp ****                 }
 306:Core/Src/utils/mat.cpp ****         }
 307:Core/Src/utils/mat.cpp ****         //printf("X:\n"); X.print();
 308:Core/Src/utils/mat.cpp ****         inv = P;
 309:Core/Src/utils/mat.cpp ****         return true;
 2351              		.loc 1 309 0
 2352 0502 0120     		movs	r0, #1
 2353 0504 00E0     		b	.L129
 2354              	.LVL283:
ARM GAS  C:\Users\Prashant\AppData\Local\Temp\ccEY5C3W.s 			page 62


 2355              	.L178:
 2356              	.LBB250:
 2357              	.LBB204:
 229:Core/Src/utils/mat.cpp ****                 }
 2358              		.loc 1 229 0
 2359 0506 0020     		movs	r0, #0
 2360              	.LVL284:
 2361              	.L129:
 2362              	.LBE204:
 2363              	.LBE250:
 310:Core/Src/utils/mat.cpp **** }
 2364              		.loc 1 310 0
 2365 0508 49B0     		add	sp, sp, #292
 2366              	.LCFI23:
 2367              		.cfi_remember_state
 2368              		.cfi_def_cfa_offset 44
 2369              		@ sp needed
 2370 050a BDEC028B 		vldm	sp!, {d8}
 2371              	.LCFI24:
 2372              		.cfi_restore 80
 2373              		.cfi_restore 81
 2374              		.cfi_def_cfa_offset 36
 2375 050e BDE8F08F 		pop	{r4, r5, r6, r7, r8, r9, r10, fp, pc}
 2376              	.LVL285:
 2377              	.L182:
 2378              	.LCFI25:
 2379              		.cfi_restore_state
 2380              	.LBB251:
 2381              	.LBB247:
 303:Core/Src/utils/mat.cpp ****                                 return false;
 2382              		.loc 1 303 0
 2383 0512 0020     		movs	r0, #0
 2384 0514 F8E7     		b	.L129
 2385              	.L194:
 2386 0516 00BF     		.align	2
 2387              	.L193:
 2388 0518 00000000 		.word	.LC1
 2389 051c FFFF7F7F 		.word	2139095039
 2390              	.LBE247:
 2391              	.LBE251:
 2392              		.cfi_endproc
 2393              	.LFE415:
 2395              		.section	.rodata._ZN3MatC2Ehh.str1.4,"aMS",%progbits,1
 2396              		.align	2
 2397              	.LC0:
 2398 0000 436F7265 		.ascii	"Core/Src/utils/mat.cpp\000"
 2398      2F537263 
 2398      2F757469 
 2398      6C732F6D 
 2398      61742E63 
 2399              		.section	.rodata._ZN3MatmLERK4Vec3IfE.str1.4,"aMS",%progbits,1
 2400              		.align	2
 2401              	.LC1:
 2402 0000 436F7265 		.ascii	"Core/Inc/utils/mat.h\000"
 2402      2F496E63 
 2402      2F757469 
 2402      6C732F6D 
ARM GAS  C:\Users\Prashant\AppData\Local\Temp\ccEY5C3W.s 			page 63


 2402      61742E68 
 2403              		.text
 2404              	.Letext0:
 2405              		.file 5 "c:\\program files (x86)\\gnu tools arm embedded\\7 2017-q4-major\\arm-none-eabi\\include\
 2406              		.file 6 "c:\\program files (x86)\\gnu tools arm embedded\\7 2017-q4-major\\lib\\gcc\\arm-none-eabi
 2407              		.file 7 "c:\\program files (x86)\\gnu tools arm embedded\\7 2017-q4-major\\arm-none-eabi\\include\
 2408              		.file 8 "c:\\program files (x86)\\gnu tools arm embedded\\7 2017-q4-major\\arm-none-eabi\\include\
 2409              		.file 9 "c:\\program files (x86)\\gnu tools arm embedded\\7 2017-q4-major\\arm-none-eabi\\include\
 2410              		.file 10 "c:\\program files (x86)\\gnu tools arm embedded\\7 2017-q4-major\\arm-none-eabi\\include
 2411              		.file 11 "c:\\program files (x86)\\gnu tools arm embedded\\7 2017-q4-major\\arm-none-eabi\\include
 2412              		.file 12 "c:\\program files (x86)\\gnu tools arm embedded\\7 2017-q4-major\\arm-none-eabi\\include
 2413              		.file 13 "c:\\program files (x86)\\gnu tools arm embedded\\7 2017-q4-major\\arm-none-eabi\\include
 2414              		.file 14 "c:\\program files (x86)\\gnu tools arm embedded\\7 2017-q4-major\\arm-none-eabi\\include
 2415              		.file 15 "Drivers/CMSIS/Include/core_cm4.h"
 2416              		.file 16 "Drivers/CMSIS/Device/ST/STM32F4xx/Include/system_stm32f4xx.h"
 2417              		.file 17 "<built-in>"
 2418              		.file 18 "Core/Inc/main.h"
ARM GAS  C:\Users\Prashant\AppData\Local\Temp\ccEY5C3W.s 			page 64

