ARM GAS  C:\Users\Prashant\AppData\Local\Temp\ccY0xSzP.s 			page 1


   1              		.cpu cortex-m4
   2              		.eabi_attribute 27, 1
   3              		.eabi_attribute 28, 1
   4              		.eabi_attribute 20, 1
   5              		.eabi_attribute 21, 1
   6              		.eabi_attribute 23, 3
   7              		.eabi_attribute 24, 1
   8              		.eabi_attribute 25, 1
   9              		.eabi_attribute 26, 1
  10              		.eabi_attribute 30, 1
  11              		.eabi_attribute 34, 1
  12              		.eabi_attribute 18, 4
  13              		.file	"robot_tasks.cpp"
  14              		.text
  15              	.Ltext0:
  16              		.cfi_sections	.debug_frame
  17              		.section	.text.StartDefaultTask,"ax",%progbits
  18              		.align	1
  19              		.global	StartDefaultTask
  20              		.syntax unified
  21              		.thumb
  22              		.thumb_func
  23              		.fpu fpv4-sp-d16
  25              	StartDefaultTask:
  26              	.LFB503:
  27              		.file 1 "Core/Src/robot/robot_tasks.cpp"
   1:Core/Src/robot/robot_tasks.cpp **** #include "FreeRTOS.h"
   2:Core/Src/robot/robot_tasks.cpp **** #include "task.h"
   3:Core/Src/robot/robot_tasks.cpp **** #include "main.h"
   4:Core/Src/robot/robot_tasks.cpp **** #include "cmsis_os.h"
   5:Core/Src/robot/robot_tasks.cpp **** #include "robot.h"
   6:Core/Src/robot/robot_tasks.cpp **** #include "robot_functions.h"
   7:Core/Src/robot/robot_tasks.cpp **** 
   8:Core/Src/robot/robot_tasks.cpp **** extern bool ROBOT_START_FLAG;
   9:Core/Src/robot/robot_tasks.cpp **** extern Robot_States robo_state;
  10:Core/Src/robot/robot_tasks.cpp **** extern float angles[7];
  11:Core/Src/robot/robot_tasks.cpp **** extern leg leg[2];
  12:Core/Src/robot/robot_tasks.cpp **** extern steering steering;
  13:Core/Src/robot/robot_tasks.cpp **** extern "C" void StartDefaultTask(void const *argument);
  14:Core/Src/robot/robot_tasks.cpp **** extern "C" void StartRobotTask(void const *argument);
  15:Core/Src/robot/robot_tasks.cpp **** extern "C" void StartLoggerTask(void const *argument);
  16:Core/Src/robot/robot_tasks.cpp **** extern "C" void StartCalculationTask(void const *argument);
  17:Core/Src/robot/robot_tasks.cpp **** 
  18:Core/Src/robot/robot_tasks.cpp **** float leg0_omega, leg1_omega, leg0_angle, leg1_angle;
  19:Core/Src/robot/robot_tasks.cpp **** 
  20:Core/Src/robot/robot_tasks.cpp **** 
  21:Core/Src/robot/robot_tasks.cpp **** /* USER CODE BEGIN Header_StartDefaultTask */
  22:Core/Src/robot/robot_tasks.cpp **** /**
  23:Core/Src/robot/robot_tasks.cpp ****   * @brief  Function implementing the defaultTask thread.
  24:Core/Src/robot/robot_tasks.cpp ****   * @param  argument: Not used 
  25:Core/Src/robot/robot_tasks.cpp ****   * @retval None
  26:Core/Src/robot/robot_tasks.cpp ****   */
  27:Core/Src/robot/robot_tasks.cpp **** /* USER CODE END Header_StartDefaultTask */
  28:Core/Src/robot/robot_tasks.cpp **** void StartDefaultTask(void const *argument)
  29:Core/Src/robot/robot_tasks.cpp **** {
  28              		.loc 1 29 0
  29              		.cfi_startproc
ARM GAS  C:\Users\Prashant\AppData\Local\Temp\ccY0xSzP.s 			page 2


  30              		@ Volatile: function does not return.
  31              		@ args = 0, pretend = 0, frame = 0
  32              		@ frame_needed = 0, uses_anonymous_args = 0
  33              	.LVL0:
  34 0000 08B5     		push	{r3, lr}
  35              	.LCFI0:
  36              		.cfi_def_cfa_offset 8
  37              		.cfi_offset 3, -8
  38              		.cfi_offset 14, -4
  39              	.LVL1:
  40              	.L2:
  30:Core/Src/robot/robot_tasks.cpp **** 
  31:Core/Src/robot/robot_tasks.cpp **** 	/* USER CODE BEGIN StartDefaultTask */
  32:Core/Src/robot/robot_tasks.cpp **** 	/* Infinite loop */
  33:Core/Src/robot/robot_tasks.cpp **** 	for (;;)
  34:Core/Src/robot/robot_tasks.cpp **** 	{
  35:Core/Src/robot/robot_tasks.cpp **** 		osDelay(1);
  41              		.loc 1 35 0 discriminator 1
  42 0002 0120     		movs	r0, #1
  43 0004 FFF7FEFF 		bl	osDelay
  44              	.LVL2:
  45 0008 FBE7     		b	.L2
  46              		.cfi_endproc
  47              	.LFE503:
  49              		.section	.text.StartRobotTask,"ax",%progbits
  50              		.align	1
  51              		.global	StartRobotTask
  52              		.syntax unified
  53              		.thumb
  54              		.thumb_func
  55              		.fpu fpv4-sp-d16
  57              	StartRobotTask:
  58              	.LFB504:
  36:Core/Src/robot/robot_tasks.cpp **** 	}
  37:Core/Src/robot/robot_tasks.cpp **** 	/* USER CODE END StartDefaultTask */
  38:Core/Src/robot/robot_tasks.cpp **** }
  39:Core/Src/robot/robot_tasks.cpp **** 
  40:Core/Src/robot/robot_tasks.cpp **** /* USER CODE BEGIN Header_StartRobotTask */
  41:Core/Src/robot/robot_tasks.cpp **** /**
  42:Core/Src/robot/robot_tasks.cpp **** * @brief Function implementing the RobotTask thread.
  43:Core/Src/robot/robot_tasks.cpp **** * @param argument: Not used
  44:Core/Src/robot/robot_tasks.cpp **** * @retval None
  45:Core/Src/robot/robot_tasks.cpp **** */
  46:Core/Src/robot/robot_tasks.cpp **** /* USER CODE END Header_StartRobotTask */
  47:Core/Src/robot/robot_tasks.cpp **** void StartRobotTask(void const *argument)
  48:Core/Src/robot/robot_tasks.cpp **** {
  59              		.loc 1 48 0
  60              		.cfi_startproc
  61              		@ args = 0, pretend = 0, frame = 0
  62              		@ frame_needed = 0, uses_anonymous_args = 0
  63              	.LVL3:
  64 0000 10B5     		push	{r4, lr}
  65              	.LCFI1:
  66              		.cfi_def_cfa_offset 8
  67              		.cfi_offset 4, -8
  68              		.cfi_offset 14, -4
  69              	.LVL4:
ARM GAS  C:\Users\Prashant\AppData\Local\Temp\ccY0xSzP.s 			page 3


  49:Core/Src/robot/robot_tasks.cpp **** 	/* USER CODE BEGIN StartRobotTask */
  50:Core/Src/robot/robot_tasks.cpp **** 	uint8_t sample_time = 10;
  51:Core/Src/robot/robot_tasks.cpp **** 	uint32_t dt = HAL_GetTick();
  70              		.loc 1 51 0
  71 0002 FFF7FEFF 		bl	HAL_GetTick
  72              	.LVL5:
  52:Core/Src/robot/robot_tasks.cpp **** 	robo_state = HOME;
  73              		.loc 1 52 0
  74 0006 0E4B     		ldr	r3, .L7
  75 0008 0022     		movs	r2, #0
  76 000a 1A70     		strb	r2, [r3]
  53:Core/Src/robot/robot_tasks.cpp **** 	leg[0].reset_angle(90 * PI / 180);
  77              		.loc 1 53 0
  78 000c 0D4C     		ldr	r4, .L7+4
  79 000e 9FED0E0A 		vldr.32	s0, .L7+8
  80 0012 2046     		mov	r0, r4
  81 0014 FFF7FEFF 		bl	_ZN3leg11reset_angleEf
  82              	.LVL6:
  54:Core/Src/robot/robot_tasks.cpp **** 	leg[1].reset_angle(270 * PI / 180);
  83              		.loc 1 54 0
  84 0018 9FED0C0A 		vldr.32	s0, .L7+12
  85 001c 04F15800 		add	r0, r4, #88
  86 0020 FFF7FEFF 		bl	_ZN3leg11reset_angleEf
  87              	.LVL7:
  88              	.L5:
  55:Core/Src/robot/robot_tasks.cpp **** 	/* Infinite loop */
  56:Core/Src/robot/robot_tasks.cpp **** 	for (;;)
  57:Core/Src/robot/robot_tasks.cpp **** 	{
  58:Core/Src/robot/robot_tasks.cpp **** 		dt = HAL_GetTick();
  89              		.loc 1 58 0 discriminator 1
  90 0024 FFF7FEFF 		bl	HAL_GetTick
  91              	.LVL8:
  92 0028 0446     		mov	r4, r0
  93              	.LVL9:
  59:Core/Src/robot/robot_tasks.cpp **** 		play();
  94              		.loc 1 59 0 discriminator 1
  95 002a FFF7FEFF 		bl	_Z4playv
  96              	.LVL10:
  60:Core/Src/robot/robot_tasks.cpp **** 		// if(HAL_GPIO_ReadPin(Proximity_Front_GPIO_Port, Proximity_Front_Pin) == GPIO_PIN_RESET){
  61:Core/Src/robot/robot_tasks.cpp **** 		// 	printf("\n FRONT");
  62:Core/Src/robot/robot_tasks.cpp **** 		// }
  63:Core/Src/robot/robot_tasks.cpp **** 		// if(HAL_GPIO_ReadPin(Proximity_Back_GPIO_Port, Proximity_Back_Pin) == GPIO_PIN_RESET){
  64:Core/Src/robot/robot_tasks.cpp **** 		// 	printf("\n BACK");
  65:Core/Src/robot/robot_tasks.cpp **** 		// }
  66:Core/Src/robot/robot_tasks.cpp **** 		// if(HAL_GPIO_ReadPin(Proximity_Up_GPIO_Port, Proximity_Up_Pin) == GPIO_PIN_RESET){
  67:Core/Src/robot/robot_tasks.cpp **** 		// 	printf("\n UP");
  68:Core/Src/robot/robot_tasks.cpp **** 		// }
  69:Core/Src/robot/robot_tasks.cpp **** 		// leg[0].set_omega(0);
  70:Core/Src/robot/robot_tasks.cpp **** 		// leg[1].set_omega(0);
  71:Core/Src/robot/robot_tasks.cpp **** 		// steering.set_angle(0);
  72:Core/Src/robot/robot_tasks.cpp **** 		// printf("\nleg0_angle = %d\tleg1_angle = %d\tsteering_angle = %d", (int)(leg[0].get_actual_angl
  73:Core/Src/robot/robot_tasks.cpp **** 		//        (int)(leg[1].get_actual_angle() * 180 / PI), (int)(steering.get_angle() * 180 / PI));
  74:Core/Src/robot/robot_tasks.cpp **** 		
  75:Core/Src/robot/robot_tasks.cpp **** 		// leg0_omega = leg[0].get_omega();
  76:Core/Src/robot/robot_tasks.cpp **** 		// leg1_omega = leg[1].get_omega();
  77:Core/Src/robot/robot_tasks.cpp **** 		// leg0_angle = leg[0].get_angle();
  78:Core/Src/robot/robot_tasks.cpp **** 		// leg1_angle = leg[1].get_angle();
ARM GAS  C:\Users\Prashant\AppData\Local\Temp\ccY0xSzP.s 			page 4


  79:Core/Src/robot/robot_tasks.cpp **** 		dt = HAL_GetTick() - dt;
  97              		.loc 1 79 0 discriminator 1
  98 002e FFF7FEFF 		bl	HAL_GetTick
  99              	.LVL11:
 100 0032 001B     		subs	r0, r0, r4
 101              	.LVL12:
  80:Core/Src/robot/robot_tasks.cpp **** 		osDelay(sample_time - dt);
 102              		.loc 1 80 0 discriminator 1
 103 0034 C0F10A00 		rsb	r0, r0, #10
 104              	.LVL13:
 105 0038 FFF7FEFF 		bl	osDelay
 106              	.LVL14:
 107 003c F2E7     		b	.L5
 108              	.L8:
 109 003e 00BF     		.align	2
 110              	.L7:
 111 0040 00000000 		.word	robo_state
 112 0044 00000000 		.word	leg
 113 0048 DB0FC93F 		.word	1070141403
 114 004c E4CB9640 		.word	1083624420
 115              		.cfi_endproc
 116              	.LFE504:
 118              		.section	.text.StartLoggerTask,"ax",%progbits
 119              		.align	1
 120              		.global	StartLoggerTask
 121              		.syntax unified
 122              		.thumb
 123              		.thumb_func
 124              		.fpu fpv4-sp-d16
 126              	StartLoggerTask:
 127              	.LFB505:
  81:Core/Src/robot/robot_tasks.cpp **** 	}
  82:Core/Src/robot/robot_tasks.cpp **** 	/* USER CODE END StartRobotTask */
  83:Core/Src/robot/robot_tasks.cpp **** }
  84:Core/Src/robot/robot_tasks.cpp **** 
  85:Core/Src/robot/robot_tasks.cpp **** /* USER CODE BEGIN Header_StartLoggerTask */
  86:Core/Src/robot/robot_tasks.cpp **** /**
  87:Core/Src/robot/robot_tasks.cpp **** * @brief Function implementing the LoggerTask thread.
  88:Core/Src/robot/robot_tasks.cpp **** * @param argument: Not used
  89:Core/Src/robot/robot_tasks.cpp **** * @retval None
  90:Core/Src/robot/robot_tasks.cpp **** */
  91:Core/Src/robot/robot_tasks.cpp **** /* USER CODE END Header_StartLoggerTask */
  92:Core/Src/robot/robot_tasks.cpp **** void StartLoggerTask(void const *argument)
  93:Core/Src/robot/robot_tasks.cpp **** {
 128              		.loc 1 93 0
 129              		.cfi_startproc
 130              		@ args = 0, pretend = 0, frame = 0
 131              		@ frame_needed = 0, uses_anonymous_args = 0
 132              	.LVL15:
 133 0000 10B5     		push	{r4, lr}
 134              	.LCFI2:
 135              		.cfi_def_cfa_offset 8
 136              		.cfi_offset 4, -8
 137              		.cfi_offset 14, -4
 138              	.LVL16:
  94:Core/Src/robot/robot_tasks.cpp **** 	/* USER CODE BEGIN StartLoggerTask */
  95:Core/Src/robot/robot_tasks.cpp **** 	/* Infinite loop */
ARM GAS  C:\Users\Prashant\AppData\Local\Temp\ccY0xSzP.s 			page 5


  96:Core/Src/robot/robot_tasks.cpp **** 	uint8_t sample_time = 50;
  97:Core/Src/robot/robot_tasks.cpp **** 	uint32_t dt = HAL_GetTick();
 139              		.loc 1 97 0
 140 0002 FFF7FEFF 		bl	HAL_GetTick
 141              	.LVL17:
 142              	.L10:
  98:Core/Src/robot/robot_tasks.cpp **** 	for (;;)
  99:Core/Src/robot/robot_tasks.cpp **** 	{
 100:Core/Src/robot/robot_tasks.cpp **** 		dt = HAL_GetTick();
 143              		.loc 1 100 0 discriminator 1
 144 0006 FFF7FEFF 		bl	HAL_GetTick
 145              	.LVL18:
 146 000a 0446     		mov	r4, r0
 147              	.LVL19:
 101:Core/Src/robot/robot_tasks.cpp **** 
 102:Core/Src/robot/robot_tasks.cpp **** 		dt = HAL_GetTick() - dt;
 148              		.loc 1 102 0 discriminator 1
 149 000c FFF7FEFF 		bl	HAL_GetTick
 150              	.LVL20:
 151 0010 001B     		subs	r0, r0, r4
 152              	.LVL21:
 103:Core/Src/robot/robot_tasks.cpp **** 		osDelay(sample_time - dt);
 153              		.loc 1 103 0 discriminator 1
 154 0012 C0F13200 		rsb	r0, r0, #50
 155              	.LVL22:
 156 0016 FFF7FEFF 		bl	osDelay
 157              	.LVL23:
 158 001a F4E7     		b	.L10
 159              		.cfi_endproc
 160              	.LFE505:
 162              		.section	.text.StartCalculationTask,"ax",%progbits
 163              		.align	1
 164              		.global	StartCalculationTask
 165              		.syntax unified
 166              		.thumb
 167              		.thumb_func
 168              		.fpu fpv4-sp-d16
 170              	StartCalculationTask:
 171              	.LFB506:
 104:Core/Src/robot/robot_tasks.cpp **** 	}
 105:Core/Src/robot/robot_tasks.cpp **** 	/* USER CODE END StartLoggerTask */
 106:Core/Src/robot/robot_tasks.cpp **** }
 107:Core/Src/robot/robot_tasks.cpp **** 
 108:Core/Src/robot/robot_tasks.cpp **** /* USER CODE BEGIN Header_StartCalculationTask */
 109:Core/Src/robot/robot_tasks.cpp **** /**
 110:Core/Src/robot/robot_tasks.cpp **** * @brief Function implementing the CalculationTask thread.
 111:Core/Src/robot/robot_tasks.cpp **** * @param argument: Not used
 112:Core/Src/robot/robot_tasks.cpp **** * @retval None
 113:Core/Src/robot/robot_tasks.cpp **** */
 114:Core/Src/robot/robot_tasks.cpp **** /* USER CODE END Header_StartCalculationTask */
 115:Core/Src/robot/robot_tasks.cpp **** void StartCalculationTask(void const *argument)
 116:Core/Src/robot/robot_tasks.cpp **** {
 172              		.loc 1 116 0
 173              		.cfi_startproc
 174              		@ args = 0, pretend = 0, frame = 0
 175              		@ frame_needed = 0, uses_anonymous_args = 0
 176              	.LVL24:
ARM GAS  C:\Users\Prashant\AppData\Local\Temp\ccY0xSzP.s 			page 6


 177 0000 10B5     		push	{r4, lr}
 178              	.LCFI3:
 179              		.cfi_def_cfa_offset 8
 180              		.cfi_offset 4, -8
 181              		.cfi_offset 14, -4
 182              	.LVL25:
 117:Core/Src/robot/robot_tasks.cpp **** 	/* USER CODE BEGIN StartCalculationTask */
 118:Core/Src/robot/robot_tasks.cpp **** 	/* Infinite loop */
 119:Core/Src/robot/robot_tasks.cpp **** 	uint8_t sample_time = 10;
 120:Core/Src/robot/robot_tasks.cpp **** 	uint32_t dt = HAL_GetTick();
 183              		.loc 1 120 0
 184 0002 FFF7FEFF 		bl	HAL_GetTick
 185              	.LVL26:
 186              	.L13:
 121:Core/Src/robot/robot_tasks.cpp **** 	for (;;)
 122:Core/Src/robot/robot_tasks.cpp **** 	{
 123:Core/Src/robot/robot_tasks.cpp **** 		dt = HAL_GetTick();
 187              		.loc 1 123 0 discriminator 1
 188 0006 FFF7FEFF 		bl	HAL_GetTick
 189              	.LVL27:
 190 000a 0446     		mov	r4, r0
 191              	.LVL28:
 124:Core/Src/robot/robot_tasks.cpp **** 		calculate_datas();
 192              		.loc 1 124 0 discriminator 1
 193 000c FFF7FEFF 		bl	_Z15calculate_datasv
 194              	.LVL29:
 125:Core/Src/robot/robot_tasks.cpp **** 		dt = HAL_GetTick() - dt;
 195              		.loc 1 125 0 discriminator 1
 196 0010 FFF7FEFF 		bl	HAL_GetTick
 197              	.LVL30:
 198 0014 001B     		subs	r0, r0, r4
 199              	.LVL31:
 126:Core/Src/robot/robot_tasks.cpp **** 		osDelay(sample_time - dt);
 200              		.loc 1 126 0 discriminator 1
 201 0016 C0F10A00 		rsb	r0, r0, #10
 202              	.LVL32:
 203 001a FFF7FEFF 		bl	osDelay
 204              	.LVL33:
 205 001e F2E7     		b	.L13
 206              		.cfi_endproc
 207              	.LFE506:
 209              		.global	leg1_angle
 210              		.global	leg0_angle
 211              		.global	leg1_omega
 212              		.global	leg0_omega
 213              		.section	.bss.leg0_angle,"aw",%nobits
 214              		.align	2
 217              	leg0_angle:
 218 0000 00000000 		.space	4
 219              		.section	.bss.leg0_omega,"aw",%nobits
 220              		.align	2
 223              	leg0_omega:
 224 0000 00000000 		.space	4
 225              		.section	.bss.leg1_angle,"aw",%nobits
 226              		.align	2
 229              	leg1_angle:
 230 0000 00000000 		.space	4
ARM GAS  C:\Users\Prashant\AppData\Local\Temp\ccY0xSzP.s 			page 7


 231              		.section	.bss.leg1_omega,"aw",%nobits
 232              		.align	2
 235              	leg1_omega:
 236 0000 00000000 		.space	4
 237              		.text
 238              	.Letext0:
 239              		.file 2 "c:\\program files (x86)\\gnu tools arm embedded\\7 2017-q4-major\\arm-none-eabi\\include\
 240              		.file 3 "c:\\program files (x86)\\gnu tools arm embedded\\7 2017-q4-major\\arm-none-eabi\\include\
 241              		.file 4 "Core/Inc/sys/FreeRTOSConfig.h"
 242              		.file 5 "Drivers/CMSIS/Include/core_cm4.h"
 243              		.file 6 "Drivers/CMSIS/Device/ST/STM32F4xx/Include/system_stm32f4xx.h"
 244              		.file 7 "Drivers/CMSIS/Device/ST/STM32F4xx/Include/stm32f407xx.h"
 245              		.file 8 "c:\\program files (x86)\\gnu tools arm embedded\\7 2017-q4-major\\arm-none-eabi\\include\
 246              		.file 9 "c:\\program files (x86)\\gnu tools arm embedded\\7 2017-q4-major\\arm-none-eabi\\include\
 247              		.file 10 "c:\\program files (x86)\\gnu tools arm embedded\\7 2017-q4-major\\lib\\gcc\\arm-none-eab
 248              		.file 11 "c:\\program files (x86)\\gnu tools arm embedded\\7 2017-q4-major\\arm-none-eabi\\include
 249              		.file 12 "Drivers/STM32F4xx_HAL_Driver/Inc/stm32f4xx_hal_def.h"
 250              		.file 13 "Drivers/STM32F4xx_HAL_Driver/Inc/stm32f4xx_hal_dma.h"
 251              		.file 14 "Drivers/STM32F4xx_HAL_Driver/Inc/stm32f4xx_hal_tim.h"
 252              		.file 15 "Core/Inc/periphs/tim.h"
 253              		.file 16 "c:\\program files (x86)\\gnu tools arm embedded\\7 2017-q4-major\\arm-none-eabi\\include
 254              		.file 17 "c:\\program files (x86)\\gnu tools arm embedded\\7 2017-q4-major\\arm-none-eabi\\include
 255              		.file 18 "c:\\program files (x86)\\gnu tools arm embedded\\7 2017-q4-major\\arm-none-eabi\\include
 256              		.file 19 "c:\\program files (x86)\\gnu tools arm embedded\\7 2017-q4-major\\arm-none-eabi\\include
 257              		.file 20 "c:\\program files (x86)\\gnu tools arm embedded\\7 2017-q4-major\\arm-none-eabi\\include
 258              		.file 21 "Core/Inc/devs/motor.h"
 259              		.file 22 "Core/Inc/devs/encoder.h"
 260              		.file 23 "Core/Inc/utils/pid_algorithms.h"
 261              		.file 24 "Core/Inc/devs/limit_switch.h"
 262              		.file 25 "Core/Inc/devs/leg.h"
 263              		.file 26 "Core/Inc/devs/steering.h"
 264              		.file 27 "Core/Inc/robot/robot.h"
 265              		.file 28 "Drivers/STM32F4xx_HAL_Driver/Inc/stm32f4xx_hal.h"
 266              		.file 29 "Middlewares/Third_Party/FreeRTOS/Source/CMSIS_RTOS/cmsis_os.h"
 267              		.file 30 "Core/Inc/robot/robot_functions.h"
 268              		.file 31 "<built-in>"
ARM GAS  C:\Users\Prashant\AppData\Local\Temp\ccY0xSzP.s 			page 8


DEFINED SYMBOLS
                            *ABS*:00000000 robot_tasks.cpp
C:\Users\Prashant\AppData\Local\Temp\ccY0xSzP.s:18     .text.StartDefaultTask:00000000 $t
C:\Users\Prashant\AppData\Local\Temp\ccY0xSzP.s:25     .text.StartDefaultTask:00000000 StartDefaultTask
C:\Users\Prashant\AppData\Local\Temp\ccY0xSzP.s:50     .text.StartRobotTask:00000000 $t
C:\Users\Prashant\AppData\Local\Temp\ccY0xSzP.s:57     .text.StartRobotTask:00000000 StartRobotTask
C:\Users\Prashant\AppData\Local\Temp\ccY0xSzP.s:111    .text.StartRobotTask:00000040 $d
C:\Users\Prashant\AppData\Local\Temp\ccY0xSzP.s:119    .text.StartLoggerTask:00000000 $t
C:\Users\Prashant\AppData\Local\Temp\ccY0xSzP.s:126    .text.StartLoggerTask:00000000 StartLoggerTask
C:\Users\Prashant\AppData\Local\Temp\ccY0xSzP.s:163    .text.StartCalculationTask:00000000 $t
C:\Users\Prashant\AppData\Local\Temp\ccY0xSzP.s:170    .text.StartCalculationTask:00000000 StartCalculationTask
C:\Users\Prashant\AppData\Local\Temp\ccY0xSzP.s:229    .bss.leg1_angle:00000000 leg1_angle
C:\Users\Prashant\AppData\Local\Temp\ccY0xSzP.s:217    .bss.leg0_angle:00000000 leg0_angle
C:\Users\Prashant\AppData\Local\Temp\ccY0xSzP.s:235    .bss.leg1_omega:00000000 leg1_omega
C:\Users\Prashant\AppData\Local\Temp\ccY0xSzP.s:223    .bss.leg0_omega:00000000 leg0_omega
C:\Users\Prashant\AppData\Local\Temp\ccY0xSzP.s:214    .bss.leg0_angle:00000000 $d
C:\Users\Prashant\AppData\Local\Temp\ccY0xSzP.s:220    .bss.leg0_omega:00000000 $d
C:\Users\Prashant\AppData\Local\Temp\ccY0xSzP.s:226    .bss.leg1_angle:00000000 $d
C:\Users\Prashant\AppData\Local\Temp\ccY0xSzP.s:232    .bss.leg1_omega:00000000 $d

UNDEFINED SYMBOLS
osDelay
HAL_GetTick
_ZN3leg11reset_angleEf
_Z4playv
robo_state
leg
_Z15calculate_datasv
