ARM GAS  C:\Users\Prashant\AppData\Local\Temp\ccbSUpIk.s 			page 1


   1              		.cpu cortex-m4
   2              		.eabi_attribute 27, 1
   3              		.eabi_attribute 28, 1
   4              		.eabi_attribute 20, 1
   5              		.eabi_attribute 21, 1
   6              		.eabi_attribute 23, 3
   7              		.eabi_attribute 24, 1
   8              		.eabi_attribute 25, 1
   9              		.eabi_attribute 26, 1
  10              		.eabi_attribute 30, 1
  11              		.eabi_attribute 34, 1
  12              		.eabi_attribute 18, 4
  13              		.file	"robot_tasks.cpp"
  14              		.text
  15              	.Ltext0:
  16              		.cfi_sections	.debug_frame
  17              		.section	.text.StartDefaultTask,"ax",%progbits
  18              		.align	1
  19              		.global	StartDefaultTask
  20              		.syntax unified
  21              		.thumb
  22              		.thumb_func
  23              		.fpu fpv4-sp-d16
  25              	StartDefaultTask:
  26              	.LFB497:
  27              		.file 1 "Core/Src/robot/robot_tasks.cpp"
   1:Core/Src/robot/robot_tasks.cpp **** #include "FreeRTOS.h"
   2:Core/Src/robot/robot_tasks.cpp **** #include "task.h"
   3:Core/Src/robot/robot_tasks.cpp **** #include "main.h"
   4:Core/Src/robot/robot_tasks.cpp **** #include "cmsis_os.h"
   5:Core/Src/robot/robot_tasks.cpp **** #include "robot.h"
   6:Core/Src/robot/robot_tasks.cpp **** #include "robot_functions.h"
   7:Core/Src/robot/robot_tasks.cpp **** 
   8:Core/Src/robot/robot_tasks.cpp **** extern bool ROBOT_START_FLAG;
   9:Core/Src/robot/robot_tasks.cpp **** extern Robot_States robo_state;
  10:Core/Src/robot/robot_tasks.cpp **** extern float angles[7];
  11:Core/Src/robot/robot_tasks.cpp **** extern leg leg[2];
  12:Core/Src/robot/robot_tasks.cpp **** extern steering steering;
  13:Core/Src/robot/robot_tasks.cpp **** extern "C" void StartDefaultTask(void const *argument);
  14:Core/Src/robot/robot_tasks.cpp **** extern "C" void StartRobotTask(void const *argument);
  15:Core/Src/robot/robot_tasks.cpp **** extern "C" void StartLoggerTask(void const *argument);
  16:Core/Src/robot/robot_tasks.cpp **** extern "C" void StartCalculationTask(void const *argument);
  17:Core/Src/robot/robot_tasks.cpp **** 
  18:Core/Src/robot/robot_tasks.cpp **** float leg0_omega, leg1_omega, leg0_angle, leg1_angle;
  19:Core/Src/robot/robot_tasks.cpp **** 
  20:Core/Src/robot/robot_tasks.cpp **** 
  21:Core/Src/robot/robot_tasks.cpp **** /* USER CODE BEGIN Header_StartDefaultTask */
  22:Core/Src/robot/robot_tasks.cpp **** /**
  23:Core/Src/robot/robot_tasks.cpp ****   * @brief  Function implementing the defaultTask thread.
  24:Core/Src/robot/robot_tasks.cpp ****   * @param  argument: Not used 
  25:Core/Src/robot/robot_tasks.cpp ****   * @retval None
  26:Core/Src/robot/robot_tasks.cpp ****   */
  27:Core/Src/robot/robot_tasks.cpp **** /* USER CODE END Header_StartDefaultTask */
  28:Core/Src/robot/robot_tasks.cpp **** void StartDefaultTask(void const *argument)
  29:Core/Src/robot/robot_tasks.cpp **** {
  28              		.loc 1 29 0
  29              		.cfi_startproc
ARM GAS  C:\Users\Prashant\AppData\Local\Temp\ccbSUpIk.s 			page 2


  30              		@ Volatile: function does not return.
  31              		@ args = 0, pretend = 0, frame = 0
  32              		@ frame_needed = 0, uses_anonymous_args = 0
  33              	.LVL0:
  34 0000 08B5     		push	{r3, lr}
  35              	.LCFI0:
  36              		.cfi_def_cfa_offset 8
  37              		.cfi_offset 3, -8
  38              		.cfi_offset 14, -4
  39              	.LVL1:
  40              	.L2:
  30:Core/Src/robot/robot_tasks.cpp **** 
  31:Core/Src/robot/robot_tasks.cpp **** 	/* USER CODE BEGIN StartDefaultTask */
  32:Core/Src/robot/robot_tasks.cpp **** 	/* Infinite loop */
  33:Core/Src/robot/robot_tasks.cpp **** 	for (;;)
  34:Core/Src/robot/robot_tasks.cpp **** 	{
  35:Core/Src/robot/robot_tasks.cpp **** 		osDelay(1);
  41              		.loc 1 35 0 discriminator 1
  42 0002 0120     		movs	r0, #1
  43 0004 FFF7FEFF 		bl	osDelay
  44              	.LVL2:
  45 0008 FBE7     		b	.L2
  46              		.cfi_endproc
  47              	.LFE497:
  49              		.section	.text.StartRobotTask,"ax",%progbits
  50              		.align	1
  51              		.global	StartRobotTask
  52              		.syntax unified
  53              		.thumb
  54              		.thumb_func
  55              		.fpu fpv4-sp-d16
  57              	StartRobotTask:
  58              	.LFB498:
  36:Core/Src/robot/robot_tasks.cpp **** 	}
  37:Core/Src/robot/robot_tasks.cpp **** 	/* USER CODE END StartDefaultTask */
  38:Core/Src/robot/robot_tasks.cpp **** }
  39:Core/Src/robot/robot_tasks.cpp **** 
  40:Core/Src/robot/robot_tasks.cpp **** /* USER CODE BEGIN Header_StartRobotTask */
  41:Core/Src/robot/robot_tasks.cpp **** /**
  42:Core/Src/robot/robot_tasks.cpp **** * @brief Function implementing the RobotTask thread.
  43:Core/Src/robot/robot_tasks.cpp **** * @param argument: Not used
  44:Core/Src/robot/robot_tasks.cpp **** * @retval None
  45:Core/Src/robot/robot_tasks.cpp **** */
  46:Core/Src/robot/robot_tasks.cpp **** /* USER CODE END Header_StartRobotTask */
  47:Core/Src/robot/robot_tasks.cpp **** void StartRobotTask(void const *argument)
  48:Core/Src/robot/robot_tasks.cpp **** {
  59              		.loc 1 48 0
  60              		.cfi_startproc
  61              		@ args = 0, pretend = 0, frame = 0
  62              		@ frame_needed = 0, uses_anonymous_args = 0
  63              	.LVL3:
  64 0000 10B5     		push	{r4, lr}
  65              	.LCFI1:
  66              		.cfi_def_cfa_offset 8
  67              		.cfi_offset 4, -8
  68              		.cfi_offset 14, -4
  69              	.LVL4:
ARM GAS  C:\Users\Prashant\AppData\Local\Temp\ccbSUpIk.s 			page 3


  49:Core/Src/robot/robot_tasks.cpp **** 	/* USER CODE BEGIN StartRobotTask */
  50:Core/Src/robot/robot_tasks.cpp **** 	uint8_t sample_time = 10;
  51:Core/Src/robot/robot_tasks.cpp **** 	uint32_t dt = HAL_GetTick();
  70              		.loc 1 51 0
  71 0002 FFF7FEFF 		bl	HAL_GetTick
  72              	.LVL5:
  52:Core/Src/robot/robot_tasks.cpp **** 	robo_state = HOME;
  73              		.loc 1 52 0
  74 0006 194B     		ldr	r3, .L9
  75 0008 0022     		movs	r2, #0
  76 000a 1A70     		strb	r2, [r3]
  53:Core/Src/robot/robot_tasks.cpp **** 	leg[0].reset_angle(90 * PI / 180);
  77              		.loc 1 53 0
  78 000c 184C     		ldr	r4, .L9+4
  79 000e 9FED190A 		vldr.32	s0, .L9+8
  80 0012 2046     		mov	r0, r4
  81 0014 FFF7FEFF 		bl	_ZN3leg11reset_angleEf
  82              	.LVL6:
  54:Core/Src/robot/robot_tasks.cpp **** 	leg[1].reset_angle(270 * PI / 180);
  83              		.loc 1 54 0
  84 0018 9FED170A 		vldr.32	s0, .L9+12
  85 001c 04F15800 		add	r0, r4, #88
  86 0020 FFF7FEFF 		bl	_ZN3leg11reset_angleEf
  87              	.LVL7:
  88 0024 0BE0     		b	.L7
  89              	.LVL8:
  90              	.L5:
  55:Core/Src/robot/robot_tasks.cpp **** 	/* Infinite loop */
  56:Core/Src/robot/robot_tasks.cpp **** 	for (;;)
  57:Core/Src/robot/robot_tasks.cpp **** 	{
  58:Core/Src/robot/robot_tasks.cpp **** 		dt = HAL_GetTick();
  59:Core/Src/robot/robot_tasks.cpp **** 		if((HAL_GPIO_ReadPin(ZONE_RED_GPIO_Port, ZONE_RED_Pin)==GPIO_PIN_RESET) &&
  60:Core/Src/robot/robot_tasks.cpp **** 		   (HAL_GPIO_ReadPin(ZONE_BLUE_GPIO_Port, ZONE_BLUE_Pin)==GPIO_PIN_RESET)){
  61:Core/Src/robot/robot_tasks.cpp **** 			zone_select();
  62:Core/Src/robot/robot_tasks.cpp **** 		}
  63:Core/Src/robot/robot_tasks.cpp **** 		else{
  64:Core/Src/robot/robot_tasks.cpp **** 			// play();
  65:Core/Src/robot/robot_tasks.cpp **** 			go(31,0);
  91              		.loc 1 65 0 discriminator 4
  92 0026 9FED150A 		vldr.32	s0, .L9+16
  93 002a 1F20     		movs	r0, #31
  94 002c FFF7FEFF 		bl	_Z2goif
  95              	.LVL9:
  96              	.L6:
  66:Core/Src/robot/robot_tasks.cpp **** 		}
  67:Core/Src/robot/robot_tasks.cpp **** 		// leg0_omega = leg[0].get_omega();
  68:Core/Src/robot/robot_tasks.cpp **** 		// leg1_omega = leg[1].get_omega();
  69:Core/Src/robot/robot_tasks.cpp **** 		// leg0_angle = leg[0].get_angle();
  70:Core/Src/robot/robot_tasks.cpp **** 		// leg1_angle = leg[1].get_angle();
  71:Core/Src/robot/robot_tasks.cpp **** 		dt = HAL_GetTick() - dt;
  97              		.loc 1 71 0
  98 0030 FFF7FEFF 		bl	HAL_GetTick
  99              	.LVL10:
 100 0034 001B     		subs	r0, r0, r4
 101              	.LVL11:
  72:Core/Src/robot/robot_tasks.cpp **** 		osDelay(sample_time - dt);
 102              		.loc 1 72 0
ARM GAS  C:\Users\Prashant\AppData\Local\Temp\ccbSUpIk.s 			page 4


 103 0036 C0F10A00 		rsb	r0, r0, #10
 104              	.LVL12:
 105 003a FFF7FEFF 		bl	osDelay
 106              	.LVL13:
 107              	.L7:
  58:Core/Src/robot/robot_tasks.cpp **** 		if((HAL_GPIO_ReadPin(ZONE_RED_GPIO_Port, ZONE_RED_Pin)==GPIO_PIN_RESET) &&
 108              		.loc 1 58 0
 109 003e FFF7FEFF 		bl	HAL_GetTick
 110              	.LVL14:
 111 0042 0446     		mov	r4, r0
 112              	.LVL15:
  59:Core/Src/robot/robot_tasks.cpp **** 		   (HAL_GPIO_ReadPin(ZONE_BLUE_GPIO_Port, ZONE_BLUE_Pin)==GPIO_PIN_RESET)){
 113              		.loc 1 59 0
 114 0044 4FF48061 		mov	r1, #1024
 115 0048 0D48     		ldr	r0, .L9+20
 116              	.LVL16:
 117 004a FFF7FEFF 		bl	HAL_GPIO_ReadPin
 118              	.LVL17:
 119 004e 0028     		cmp	r0, #0
 120 0050 E9D1     		bne	.L5
  60:Core/Src/robot/robot_tasks.cpp **** 			zone_select();
 121              		.loc 1 60 0 discriminator 1
 122 0052 1021     		movs	r1, #16
 123 0054 00F18040 		add	r0, r0, #1073741824
 124 0058 00F50430 		add	r0, r0, #135168
 125 005c FFF7FEFF 		bl	HAL_GPIO_ReadPin
 126              	.LVL18:
  59:Core/Src/robot/robot_tasks.cpp **** 		   (HAL_GPIO_ReadPin(ZONE_BLUE_GPIO_Port, ZONE_BLUE_Pin)==GPIO_PIN_RESET)){
 127              		.loc 1 59 0 discriminator 1
 128 0060 0028     		cmp	r0, #0
 129 0062 E0D1     		bne	.L5
  61:Core/Src/robot/robot_tasks.cpp **** 		}
 130              		.loc 1 61 0
 131 0064 FFF7FEFF 		bl	_Z11zone_selectv
 132              	.LVL19:
 133 0068 E2E7     		b	.L6
 134              	.L10:
 135 006a 00BF     		.align	2
 136              	.L9:
 137 006c 00000000 		.word	robo_state
 138 0070 00000000 		.word	leg
 139 0074 DB0FC93F 		.word	1070141403
 140 0078 E4CB9640 		.word	1083624420
 141 007c 00000000 		.word	0
 142 0080 00080240 		.word	1073874944
 143              		.cfi_endproc
 144              	.LFE498:
 146              		.section	.text.StartLoggerTask,"ax",%progbits
 147              		.align	1
 148              		.global	StartLoggerTask
 149              		.syntax unified
 150              		.thumb
 151              		.thumb_func
 152              		.fpu fpv4-sp-d16
 154              	StartLoggerTask:
 155              	.LFB499:
  73:Core/Src/robot/robot_tasks.cpp **** 	}
ARM GAS  C:\Users\Prashant\AppData\Local\Temp\ccbSUpIk.s 			page 5


  74:Core/Src/robot/robot_tasks.cpp **** 	/* USER CODE END StartRobotTask */
  75:Core/Src/robot/robot_tasks.cpp **** }
  76:Core/Src/robot/robot_tasks.cpp **** 
  77:Core/Src/robot/robot_tasks.cpp **** /* USER CODE BEGIN Header_StartLoggerTask */
  78:Core/Src/robot/robot_tasks.cpp **** /**
  79:Core/Src/robot/robot_tasks.cpp **** * @brief Function implementing the LoggerTask thread.
  80:Core/Src/robot/robot_tasks.cpp **** * @param argument: Not used
  81:Core/Src/robot/robot_tasks.cpp **** * @retval None
  82:Core/Src/robot/robot_tasks.cpp **** */
  83:Core/Src/robot/robot_tasks.cpp **** /* USER CODE END Header_StartLoggerTask */
  84:Core/Src/robot/robot_tasks.cpp **** void StartLoggerTask(void const *argument)
  85:Core/Src/robot/robot_tasks.cpp **** {
 156              		.loc 1 85 0
 157              		.cfi_startproc
 158              		@ args = 0, pretend = 0, frame = 0
 159              		@ frame_needed = 0, uses_anonymous_args = 0
 160              	.LVL20:
 161 0000 10B5     		push	{r4, lr}
 162              	.LCFI2:
 163              		.cfi_def_cfa_offset 8
 164              		.cfi_offset 4, -8
 165              		.cfi_offset 14, -4
 166              	.LVL21:
  86:Core/Src/robot/robot_tasks.cpp **** 	/* USER CODE BEGIN StartLoggerTask */
  87:Core/Src/robot/robot_tasks.cpp **** 	/* Infinite loop */
  88:Core/Src/robot/robot_tasks.cpp **** 	uint8_t sample_time = 50;
  89:Core/Src/robot/robot_tasks.cpp **** 	uint32_t dt = HAL_GetTick();
 167              		.loc 1 89 0
 168 0002 FFF7FEFF 		bl	HAL_GetTick
 169              	.LVL22:
 170              	.L12:
  90:Core/Src/robot/robot_tasks.cpp **** 	for (;;)
  91:Core/Src/robot/robot_tasks.cpp **** 	{
  92:Core/Src/robot/robot_tasks.cpp **** 		dt = HAL_GetTick();
 171              		.loc 1 92 0 discriminator 1
 172 0006 FFF7FEFF 		bl	HAL_GetTick
 173              	.LVL23:
 174 000a 0446     		mov	r4, r0
 175              	.LVL24:
  93:Core/Src/robot/robot_tasks.cpp **** 
  94:Core/Src/robot/robot_tasks.cpp **** 		dt = HAL_GetTick() - dt;
 176              		.loc 1 94 0 discriminator 1
 177 000c FFF7FEFF 		bl	HAL_GetTick
 178              	.LVL25:
 179 0010 001B     		subs	r0, r0, r4
 180              	.LVL26:
  95:Core/Src/robot/robot_tasks.cpp **** 		osDelay(sample_time - dt);
 181              		.loc 1 95 0 discriminator 1
 182 0012 C0F13200 		rsb	r0, r0, #50
 183              	.LVL27:
 184 0016 FFF7FEFF 		bl	osDelay
 185              	.LVL28:
 186 001a F4E7     		b	.L12
 187              		.cfi_endproc
 188              	.LFE499:
 190              		.section	.text.StartCalculationTask,"ax",%progbits
 191              		.align	1
ARM GAS  C:\Users\Prashant\AppData\Local\Temp\ccbSUpIk.s 			page 6


 192              		.global	StartCalculationTask
 193              		.syntax unified
 194              		.thumb
 195              		.thumb_func
 196              		.fpu fpv4-sp-d16
 198              	StartCalculationTask:
 199              	.LFB500:
  96:Core/Src/robot/robot_tasks.cpp **** 	}
  97:Core/Src/robot/robot_tasks.cpp **** 	/* USER CODE END StartLoggerTask */
  98:Core/Src/robot/robot_tasks.cpp **** }
  99:Core/Src/robot/robot_tasks.cpp **** 
 100:Core/Src/robot/robot_tasks.cpp **** /* USER CODE BEGIN Header_StartCalculationTask */
 101:Core/Src/robot/robot_tasks.cpp **** /**
 102:Core/Src/robot/robot_tasks.cpp **** * @brief Function implementing the CalculationTask thread.
 103:Core/Src/robot/robot_tasks.cpp **** * @param argument: Not used
 104:Core/Src/robot/robot_tasks.cpp **** * @retval None
 105:Core/Src/robot/robot_tasks.cpp **** */
 106:Core/Src/robot/robot_tasks.cpp **** /* USER CODE END Header_StartCalculationTask */
 107:Core/Src/robot/robot_tasks.cpp **** void StartCalculationTask(void const *argument)
 108:Core/Src/robot/robot_tasks.cpp **** {
 200              		.loc 1 108 0
 201              		.cfi_startproc
 202              		@ args = 0, pretend = 0, frame = 0
 203              		@ frame_needed = 0, uses_anonymous_args = 0
 204              	.LVL29:
 205 0000 10B5     		push	{r4, lr}
 206              	.LCFI3:
 207              		.cfi_def_cfa_offset 8
 208              		.cfi_offset 4, -8
 209              		.cfi_offset 14, -4
 210              	.LVL30:
 109:Core/Src/robot/robot_tasks.cpp **** 	/* USER CODE BEGIN StartCalculationTask */
 110:Core/Src/robot/robot_tasks.cpp **** 	/* Infinite loop */
 111:Core/Src/robot/robot_tasks.cpp **** 	uint8_t sample_time = 10;
 112:Core/Src/robot/robot_tasks.cpp **** 	uint32_t dt = HAL_GetTick();
 211              		.loc 1 112 0
 212 0002 FFF7FEFF 		bl	HAL_GetTick
 213              	.LVL31:
 214              	.L15:
 113:Core/Src/robot/robot_tasks.cpp **** 	for (;;)
 114:Core/Src/robot/robot_tasks.cpp **** 	{
 115:Core/Src/robot/robot_tasks.cpp **** 		dt = HAL_GetTick();
 215              		.loc 1 115 0 discriminator 1
 216 0006 FFF7FEFF 		bl	HAL_GetTick
 217              	.LVL32:
 218 000a 0446     		mov	r4, r0
 219              	.LVL33:
 116:Core/Src/robot/robot_tasks.cpp **** 		calculate_datas();
 220              		.loc 1 116 0 discriminator 1
 221 000c FFF7FEFF 		bl	_Z15calculate_datasv
 222              	.LVL34:
 117:Core/Src/robot/robot_tasks.cpp **** 		dt = HAL_GetTick() - dt;
 223              		.loc 1 117 0 discriminator 1
 224 0010 FFF7FEFF 		bl	HAL_GetTick
 225              	.LVL35:
 226 0014 001B     		subs	r0, r0, r4
 227              	.LVL36:
ARM GAS  C:\Users\Prashant\AppData\Local\Temp\ccbSUpIk.s 			page 7


 118:Core/Src/robot/robot_tasks.cpp **** 		osDelay(sample_time - dt);
 228              		.loc 1 118 0 discriminator 1
 229 0016 C0F10A00 		rsb	r0, r0, #10
 230              	.LVL37:
 231 001a FFF7FEFF 		bl	osDelay
 232              	.LVL38:
 233 001e F2E7     		b	.L15
 234              		.cfi_endproc
 235              	.LFE500:
 237              		.global	leg1_angle
 238              		.global	leg0_angle
 239              		.global	leg1_omega
 240              		.global	leg0_omega
 241              		.section	.bss.leg0_angle,"aw",%nobits
 242              		.align	2
 245              	leg0_angle:
 246 0000 00000000 		.space	4
 247              		.section	.bss.leg0_omega,"aw",%nobits
 248              		.align	2
 251              	leg0_omega:
 252 0000 00000000 		.space	4
 253              		.section	.bss.leg1_angle,"aw",%nobits
 254              		.align	2
 257              	leg1_angle:
 258 0000 00000000 		.space	4
 259              		.section	.bss.leg1_omega,"aw",%nobits
 260              		.align	2
 263              	leg1_omega:
 264 0000 00000000 		.space	4
 265              		.text
 266              	.Letext0:
 267              		.file 2 "c:\\program files (x86)\\gnu tools arm embedded\\7 2017-q4-major\\arm-none-eabi\\include\
 268              		.file 3 "c:\\program files (x86)\\gnu tools arm embedded\\7 2017-q4-major\\arm-none-eabi\\include\
 269              		.file 4 "Core/Inc/sys/FreeRTOSConfig.h"
 270              		.file 5 "Drivers/CMSIS/Include/core_cm4.h"
 271              		.file 6 "Drivers/CMSIS/Device/ST/STM32F4xx/Include/system_stm32f4xx.h"
 272              		.file 7 "Drivers/CMSIS/Device/ST/STM32F4xx/Include/stm32f407xx.h"
 273              		.file 8 "c:\\program files (x86)\\gnu tools arm embedded\\7 2017-q4-major\\arm-none-eabi\\include\
 274              		.file 9 "c:\\program files (x86)\\gnu tools arm embedded\\7 2017-q4-major\\arm-none-eabi\\include\
 275              		.file 10 "c:\\program files (x86)\\gnu tools arm embedded\\7 2017-q4-major\\lib\\gcc\\arm-none-eab
 276              		.file 11 "c:\\program files (x86)\\gnu tools arm embedded\\7 2017-q4-major\\arm-none-eabi\\include
 277              		.file 12 "Drivers/STM32F4xx_HAL_Driver/Inc/stm32f4xx_hal_def.h"
 278              		.file 13 "Drivers/STM32F4xx_HAL_Driver/Inc/stm32f4xx_hal_gpio.h"
 279              		.file 14 "Drivers/STM32F4xx_HAL_Driver/Inc/stm32f4xx_hal_dma.h"
 280              		.file 15 "Drivers/STM32F4xx_HAL_Driver/Inc/stm32f4xx_hal_tim.h"
 281              		.file 16 "Core/Inc/periphs/tim.h"
 282              		.file 17 "c:\\program files (x86)\\gnu tools arm embedded\\7 2017-q4-major\\arm-none-eabi\\include
 283              		.file 18 "c:\\program files (x86)\\gnu tools arm embedded\\7 2017-q4-major\\arm-none-eabi\\include
 284              		.file 19 "c:\\program files (x86)\\gnu tools arm embedded\\7 2017-q4-major\\arm-none-eabi\\include
 285              		.file 20 "c:\\program files (x86)\\gnu tools arm embedded\\7 2017-q4-major\\arm-none-eabi\\include
 286              		.file 21 "c:\\program files (x86)\\gnu tools arm embedded\\7 2017-q4-major\\arm-none-eabi\\include
 287              		.file 22 "Core/Inc/devs/motor.h"
 288              		.file 23 "Core/Inc/devs/encoder.h"
 289              		.file 24 "Core/Inc/utils/pid_algorithms.h"
 290              		.file 25 "Core/Inc/devs/limit_switch.h"
 291              		.file 26 "Core/Inc/devs/leg.h"
 292              		.file 27 "Core/Inc/devs/steering.h"
ARM GAS  C:\Users\Prashant\AppData\Local\Temp\ccbSUpIk.s 			page 8


 293              		.file 28 "Core/Inc/robot/robot.h"
 294              		.file 29 "Drivers/STM32F4xx_HAL_Driver/Inc/stm32f4xx_hal.h"
 295              		.file 30 "Middlewares/Third_Party/FreeRTOS/Source/CMSIS_RTOS/cmsis_os.h"
 296              		.file 31 "Core/Inc/robot/robot_functions.h"
 297              		.file 32 "<built-in>"
ARM GAS  C:\Users\Prashant\AppData\Local\Temp\ccbSUpIk.s 			page 9

