ARM GAS  C:\Users\Prashant\AppData\Local\Temp\cciDrHEh.s 			page 1


   1              		.cpu cortex-m4
   2              		.eabi_attribute 27, 1
   3              		.eabi_attribute 28, 1
   4              		.eabi_attribute 20, 1
   5              		.eabi_attribute 21, 1
   6              		.eabi_attribute 23, 3
   7              		.eabi_attribute 24, 1
   8              		.eabi_attribute 25, 1
   9              		.eabi_attribute 26, 1
  10              		.eabi_attribute 30, 1
  11              		.eabi_attribute 34, 1
  12              		.eabi_attribute 18, 4
  13              		.file	"devs_tests.cpp"
  14              		.text
  15              	.Ltext0:
  16              		.cfi_sections	.debug_frame
  17              		.section	.text._Z8mpu_TestP7MPU6050,"ax",%progbits
  18              		.align	1
  19              		.global	_Z8mpu_TestP7MPU6050
  20              		.syntax unified
  21              		.thumb
  22              		.thumb_func
  23              		.fpu fpv4-sp-d16
  25              	_Z8mpu_TestP7MPU6050:
  26              	.LFB172:
  27              		.file 1 "Core/Src/devs/devs_tests.cpp"
   1:Core/Src/devs/devs_tests.cpp **** /*
   2:Core/Src/devs/devs_tests.cpp ****  * play.cpp
   3:Core/Src/devs/devs_tests.cpp ****  * 
   4:Core/Src/devs/devs_tests.cpp ****  * Created : 11/9/2018
   5:Core/Src/devs/devs_tests.cpp ****  *  Author : n-is
   6:Core/Src/devs/devs_tests.cpp ****  *   email : 073bex422.nischal@pcampus.edu.np
   7:Core/Src/devs/devs_tests.cpp ****  */
   8:Core/Src/devs/devs_tests.cpp **** 
   9:Core/Src/devs/devs_tests.cpp **** #include "devs/mpu6050.h"
  10:Core/Src/devs/devs_tests.cpp **** #include "devs/hmc5883.h"
  11:Core/Src/devs/devs_tests.cpp **** #include "devs/a4988.h"
  12:Core/Src/devs/devs_tests.cpp **** 
  13:Core/Src/devs/devs_tests.cpp **** #include "devs/lidar.h"
  14:Core/Src/devs/devs_tests.cpp **** #include "devs/encoder.h"
  15:Core/Src/devs/devs_tests.cpp **** 
  16:Core/Src/devs/devs_tests.cpp **** void mpu_Test(struct MPU6050 *mpu)
  17:Core/Src/devs/devs_tests.cpp **** {
  28              		.loc 1 17 0
  29              		.cfi_startproc
  30              		@ args = 0, pretend = 0, frame = 0
  31              		@ frame_needed = 0, uses_anonymous_args = 0
  32              	.LVL0:
  33 0000 08B5     		push	{r3, lr}
  34              	.LCFI0:
  35              		.cfi_def_cfa_offset 8
  36              		.cfi_offset 3, -8
  37              		.cfi_offset 14, -4
  18:Core/Src/devs/devs_tests.cpp ****         if (HAL_I2C_IsDeviceReady(mpu->hi2c, mpu->address, 1, 5)) {
  38              		.loc 1 18 0
  39 0002 0523     		movs	r3, #5
  40 0004 0122     		movs	r2, #1
ARM GAS  C:\Users\Prashant\AppData\Local\Temp\cciDrHEh.s 			page 2


  41 0006 90F82810 		ldrb	r1, [r0, #40]	@ zero_extendqisi2
  42 000a 0068     		ldr	r0, [r0]
  43              	.LVL1:
  44 000c FFF7FEFF 		bl	HAL_I2C_IsDeviceReady
  45              	.LVL2:
  46 0010 00B9     		cbnz	r0, .L4
  47              	.L1:
  19:Core/Src/devs/devs_tests.cpp ****                 printf("MPU6050 is Ready..\n");
  20:Core/Src/devs/devs_tests.cpp ****         }
  21:Core/Src/devs/devs_tests.cpp **** }
  48              		.loc 1 21 0
  49 0012 08BD     		pop	{r3, pc}
  50              	.L4:
  19:Core/Src/devs/devs_tests.cpp ****                 printf("MPU6050 is Ready..\n");
  51              		.loc 1 19 0
  52 0014 0148     		ldr	r0, .L5
  53 0016 FFF7FEFF 		bl	puts
  54              	.LVL3:
  55              		.loc 1 21 0
  56 001a FAE7     		b	.L1
  57              	.L6:
  58              		.align	2
  59              	.L5:
  60 001c 00000000 		.word	.LC0
  61              		.cfi_endproc
  62              	.LFE172:
  64              		.section	.text._Z8hmc_TestP7HMC5883,"ax",%progbits
  65              		.align	1
  66              		.global	_Z8hmc_TestP7HMC5883
  67              		.syntax unified
  68              		.thumb
  69              		.thumb_func
  70              		.fpu fpv4-sp-d16
  72              	_Z8hmc_TestP7HMC5883:
  73              	.LFB173:
  22:Core/Src/devs/devs_tests.cpp **** 
  23:Core/Src/devs/devs_tests.cpp **** void hmc_Test(struct HMC5883 *hmc)
  24:Core/Src/devs/devs_tests.cpp **** {
  74              		.loc 1 24 0
  75              		.cfi_startproc
  76              		@ args = 0, pretend = 0, frame = 0
  77              		@ frame_needed = 0, uses_anonymous_args = 0
  78              	.LVL4:
  79 0000 08B5     		push	{r3, lr}
  80              	.LCFI1:
  81              		.cfi_def_cfa_offset 8
  82              		.cfi_offset 3, -8
  83              		.cfi_offset 14, -4
  25:Core/Src/devs/devs_tests.cpp ****         if (HAL_I2C_IsDeviceReady(hmc->hi2c, hmc->address, 1, 5)) {
  84              		.loc 1 25 0
  85 0002 0523     		movs	r3, #5
  86 0004 0122     		movs	r2, #1
  87 0006 017C     		ldrb	r1, [r0, #16]	@ zero_extendqisi2
  88 0008 0068     		ldr	r0, [r0]
  89              	.LVL5:
  90 000a FFF7FEFF 		bl	HAL_I2C_IsDeviceReady
  91              	.LVL6:
ARM GAS  C:\Users\Prashant\AppData\Local\Temp\cciDrHEh.s 			page 3


  92 000e 00B9     		cbnz	r0, .L10
  93              	.L7:
  26:Core/Src/devs/devs_tests.cpp ****                 printf("HMC5883 is Ready..\n");
  27:Core/Src/devs/devs_tests.cpp ****         }
  28:Core/Src/devs/devs_tests.cpp **** }
  94              		.loc 1 28 0
  95 0010 08BD     		pop	{r3, pc}
  96              	.L10:
  26:Core/Src/devs/devs_tests.cpp ****                 printf("HMC5883 is Ready..\n");
  97              		.loc 1 26 0
  98 0012 0248     		ldr	r0, .L11
  99 0014 FFF7FEFF 		bl	puts
 100              	.LVL7:
 101              		.loc 1 28 0
 102 0018 FAE7     		b	.L7
 103              	.L12:
 104 001a 00BF     		.align	2
 105              	.L11:
 106 001c 00000000 		.word	.LC1
 107              		.cfi_endproc
 108              	.LFE173:
 110              		.section	.rodata._Z8hmc_TestP7HMC5883.str1.4,"aMS",%progbits,1
 111              		.align	2
 112              	.LC1:
 113 0000 484D4335 		.ascii	"HMC5883 is Ready..\000"
 113      38383320 
 113      69732052 
 113      65616479 
 113      2E2E00
 114              		.section	.rodata._Z8mpu_TestP7MPU6050.str1.4,"aMS",%progbits,1
 115              		.align	2
 116              	.LC0:
 117 0000 4D505536 		.ascii	"MPU6050 is Ready..\000"
 117      30353020 
 117      69732052 
 117      65616479 
 117      2E2E00
 118              		.text
 119              	.Letext0:
 120              		.file 2 "c:\\program files (x86)\\gnu tools arm embedded\\7 2017-q4-major\\arm-none-eabi\\include\
 121              		.file 3 "c:\\program files (x86)\\gnu tools arm embedded\\7 2017-q4-major\\arm-none-eabi\\include\
 122              		.file 4 "C:/Users/Prashant/STM32Cube/Repository/STM32Cube_FW_F4_V1.21.0/Drivers/CMSIS/Include/core
 123              		.file 5 "C:/Users/Prashant/STM32Cube/Repository/STM32Cube_FW_F4_V1.21.0/Drivers/CMSIS/Device/ST/ST
 124              		.file 6 "C:/Users/Prashant/STM32Cube/Repository/STM32Cube_FW_F4_V1.21.0/Drivers/CMSIS/Device/ST/ST
 125              		.file 7 "c:\\program files (x86)\\gnu tools arm embedded\\7 2017-q4-major\\arm-none-eabi\\include\
 126              		.file 8 "c:\\program files (x86)\\gnu tools arm embedded\\7 2017-q4-major\\arm-none-eabi\\include\
 127              		.file 9 "c:\\program files (x86)\\gnu tools arm embedded\\7 2017-q4-major\\lib\\gcc\\arm-none-eabi
 128              		.file 10 "c:\\program files (x86)\\gnu tools arm embedded\\7 2017-q4-major\\arm-none-eabi\\include
 129              		.file 11 "C:/Users/Prashant/STM32Cube/Repository/STM32Cube_FW_F4_V1.21.0/Drivers/STM32F4xx_HAL_Dri
 130              		.file 12 "C:/Users/Prashant/STM32Cube/Repository/STM32Cube_FW_F4_V1.21.0/Drivers/STM32F4xx_HAL_Dri
 131              		.file 13 "C:/Users/Prashant/STM32Cube/Repository/STM32Cube_FW_F4_V1.21.0/Drivers/STM32F4xx_HAL_Dri
 132              		.file 14 "C:/Users/Prashant/STM32Cube/Repository/STM32Cube_FW_F4_V1.21.0/Drivers/STM32F4xx_HAL_Dri
 133              		.file 15 "Core/Inc\\periphs/i2c.h"
 134              		.file 16 "Core/Inc/devs/mpu6050.h"
 135              		.file 17 "Core/Inc\\utils/vec3.h"
 136              		.file 18 "Core/Inc/periphs/tim.h"
 137              		.file 19 "Core/Inc/devs/hmc5883.h"
ARM GAS  C:\Users\Prashant\AppData\Local\Temp\cciDrHEh.s 			page 4


ARM GAS  C:\Users\Prashant\AppData\Local\Temp\cciDrHEh.s 			page 5

