ARM GAS  C:\Users\Prashant\AppData\Local\Temp\ccqABJc7.s 			page 1


   1              		.cpu cortex-m4
   2              		.eabi_attribute 27, 1
   3              		.eabi_attribute 28, 1
   4              		.eabi_attribute 20, 1
   5              		.eabi_attribute 21, 1
   6              		.eabi_attribute 23, 3
   7              		.eabi_attribute 24, 1
   8              		.eabi_attribute 25, 1
   9              		.eabi_attribute 26, 1
  10              		.eabi_attribute 30, 1
  11              		.eabi_attribute 34, 1
  12              		.eabi_attribute 18, 4
  13              		.file	"devs_config.cpp"
  14              		.text
  15              	.Ltext0:
  16              		.cfi_sections	.debug_frame
  17              		.section	.text._Z8IMU_Initv,"ax",%progbits
  18              		.align	1
  19              		.global	_Z8IMU_Initv
  20              		.syntax unified
  21              		.thumb
  22              		.thumb_func
  23              		.fpu fpv4-sp-d16
  25              	_Z8IMU_Initv:
  26              	.LFB177:
  27              		.file 1 "Core/Src/robot/devs_config.cpp"
   1:Core/Src/robot/devs_config.cpp **** /*
   2:Core/Src/robot/devs_config.cpp ****  * devs_config.cpp
   3:Core/Src/robot/devs_config.cpp ****  * 
   4:Core/Src/robot/devs_config.cpp ****  * Created : 11/9/2018
   5:Core/Src/robot/devs_config.cpp ****  *  Author : n-is
   6:Core/Src/robot/devs_config.cpp ****  *   email : 073bex422.nischal@pcampus.edu.np
   7:Core/Src/robot/devs_config.cpp ****  */
   8:Core/Src/robot/devs_config.cpp **** 
   9:Core/Src/robot/devs_config.cpp **** #include "robot/devs_config.h"
  10:Core/Src/robot/devs_config.cpp **** 
  11:Core/Src/robot/devs_config.cpp **** 
  12:Core/Src/robot/devs_config.cpp **** void IMU_Init()
  13:Core/Src/robot/devs_config.cpp **** {
  28              		.loc 1 13 0
  29              		.cfi_startproc
  30              		@ args = 0, pretend = 0, frame = 0
  31              		@ frame_needed = 0, uses_anonymous_args = 0
  32 0000 10B5     		push	{r4, lr}
  33              	.LCFI0:
  34              		.cfi_def_cfa_offset 8
  35              		.cfi_offset 4, -8
  36              		.cfi_offset 14, -4
  14:Core/Src/robot/devs_config.cpp ****         Body_IMU.hi2c = &hi2c1;
  37              		.loc 1 14 0
  38 0002 0A48     		ldr	r0, .L3
  39 0004 0A4B     		ldr	r3, .L3+4
  40 0006 0360     		str	r3, [r0]
  15:Core/Src/robot/devs_config.cpp ****         Body_IMU.address = 0xD0;
  41              		.loc 1 15 0
  42 0008 D022     		movs	r2, #208
  43 000a 80F82820 		strb	r2, [r0, #40]
ARM GAS  C:\Users\Prashant\AppData\Local\Temp\ccqABJc7.s 			page 2


  16:Core/Src/robot/devs_config.cpp ****         Body_IMU.a_scale = Accel_Scale::SCALE_2G;
  44              		.loc 1 16 0
  45 000e 0022     		movs	r2, #0
  46 0010 80F83020 		strb	r2, [r0, #48]
  17:Core/Src/robot/devs_config.cpp ****         Body_IMU.g_scale = Gyro_Scale::SCALE_250;
  47              		.loc 1 17 0
  48 0014 80F83120 		strb	r2, [r0, #49]
  18:Core/Src/robot/devs_config.cpp **** 
  19:Core/Src/robot/devs_config.cpp ****         Body_HMC.hi2c = &hi2c1;
  49              		.loc 1 19 0
  50 0018 064C     		ldr	r4, .L3+8
  51 001a 2360     		str	r3, [r4]
  20:Core/Src/robot/devs_config.cpp ****         Body_HMC.address = 0x3C;
  52              		.loc 1 20 0
  53 001c 3C23     		movs	r3, #60
  54 001e 2374     		strb	r3, [r4, #16]
  21:Core/Src/robot/devs_config.cpp ****         // Body_HMC.hard_iron_offset.set_Values(43, 45, 0);
  22:Core/Src/robot/devs_config.cpp **** 
  23:Core/Src/robot/devs_config.cpp ****         MPU6050_Init(&Body_IMU);
  55              		.loc 1 23 0
  56 0020 FFF7FEFF 		bl	_Z12MPU6050_InitP7MPU6050
  57              	.LVL0:
  24:Core/Src/robot/devs_config.cpp ****         HMC5883_Init(&Body_HMC);
  58              		.loc 1 24 0
  59 0024 2046     		mov	r0, r4
  60 0026 FFF7FEFF 		bl	_Z12HMC5883_InitP7HMC5883
  61              	.LVL1:
  25:Core/Src/robot/devs_config.cpp **** }
  62              		.loc 1 25 0
  63 002a 10BD     		pop	{r4, pc}
  64              	.L4:
  65              		.align	2
  66              	.L3:
  67 002c 00000000 		.word	Body_IMU
  68 0030 00000000 		.word	hi2c1
  69 0034 00000000 		.word	Body_HMC
  70              		.cfi_endproc
  71              	.LFE177:
  73              		.section	.text._Z12Stepper_Initv,"ax",%progbits
  74              		.align	1
  75              		.global	_Z12Stepper_Initv
  76              		.syntax unified
  77              		.thumb
  78              		.thumb_func
  79              		.fpu fpv4-sp-d16
  81              	_Z12Stepper_Initv:
  82              	.LFB178:
  26:Core/Src/robot/devs_config.cpp **** 
  27:Core/Src/robot/devs_config.cpp **** void Stepper_Init()
  28:Core/Src/robot/devs_config.cpp **** {
  83              		.loc 1 28 0
  84              		.cfi_startproc
  85              		@ args = 0, pretend = 0, frame = 0
  86              		@ frame_needed = 0, uses_anonymous_args = 0
  87 0000 08B5     		push	{r3, lr}
  88              	.LCFI1:
  89              		.cfi_def_cfa_offset 8
ARM GAS  C:\Users\Prashant\AppData\Local\Temp\ccqABJc7.s 			page 3


  90              		.cfi_offset 3, -8
  91              		.cfi_offset 14, -4
  29:Core/Src/robot/devs_config.cpp ****         IMU_Stepper.htim = &htim2;
  92              		.loc 1 29 0
  93 0002 0848     		ldr	r0, .L7
  94 0004 084B     		ldr	r3, .L7+4
  95 0006 0360     		str	r3, [r0]
  30:Core/Src/robot/devs_config.cpp ****         IMU_Stepper.steps_per_rev = 200;
  96              		.loc 1 30 0
  97 0008 C823     		movs	r3, #200
  98 000a 4360     		str	r3, [r0, #4]
  31:Core/Src/robot/devs_config.cpp ****         IMU_Stepper.dir_port = GPIOC;
  99              		.loc 1 31 0
 100 000c 074B     		ldr	r3, .L7+8
 101 000e 8360     		str	r3, [r0, #8]
  32:Core/Src/robot/devs_config.cpp ****         IMU_Stepper.dir_pin = GPIO_PIN_0;
 102              		.loc 1 32 0
 103 0010 0123     		movs	r3, #1
 104 0012 0361     		str	r3, [r0, #16]
  33:Core/Src/robot/devs_config.cpp ****         IMU_Stepper.step_port = GPIOA;
 105              		.loc 1 33 0
 106 0014 064B     		ldr	r3, .L7+12
 107 0016 C360     		str	r3, [r0, #12]
  34:Core/Src/robot/devs_config.cpp ****         IMU_Stepper.step_pin = GPIO_PIN_2;
 108              		.loc 1 34 0
 109 0018 0423     		movs	r3, #4
 110 001a 4361     		str	r3, [r0, #20]
  35:Core/Src/robot/devs_config.cpp **** 
  36:Core/Src/robot/devs_config.cpp ****         A4988_setDirection(&IMU_Stepper, 0);
 111              		.loc 1 36 0
 112 001c 0021     		movs	r1, #0
 113 001e FFF7FEFF 		bl	_Z18A4988_setDirectionP5A4988m
 114              	.LVL2:
  37:Core/Src/robot/devs_config.cpp **** }
 115              		.loc 1 37 0
 116 0022 08BD     		pop	{r3, pc}
 117              	.L8:
 118              		.align	2
 119              	.L7:
 120 0024 00000000 		.word	IMU_Stepper
 121 0028 00000000 		.word	htim2
 122 002c 00080240 		.word	1073874944
 123 0030 00000240 		.word	1073872896
 124              		.cfi_endproc
 125              	.LFE178:
 127              		.section	.text._Z13Encoders_Initv,"ax",%progbits
 128              		.align	1
 129              		.global	_Z13Encoders_Initv
 130              		.syntax unified
 131              		.thumb
 132              		.thumb_func
 133              		.fpu fpv4-sp-d16
 135              	_Z13Encoders_Initv:
 136              	.LFB179:
  38:Core/Src/robot/devs_config.cpp **** 
  39:Core/Src/robot/devs_config.cpp **** void Encoders_Init()
  40:Core/Src/robot/devs_config.cpp **** {
ARM GAS  C:\Users\Prashant\AppData\Local\Temp\ccqABJc7.s 			page 4


 137              		.loc 1 40 0
 138              		.cfi_startproc
 139              		@ args = 0, pretend = 0, frame = 0
 140              		@ frame_needed = 0, uses_anonymous_args = 0
 141              		@ link register save eliminated.
  41:Core/Src/robot/devs_config.cpp ****         gXEnc.chB_port = GPIOE;
 142              		.loc 1 41 0
 143 0000 094B     		ldr	r3, .L10
 144 0002 0A4A     		ldr	r2, .L10+4
 145 0004 1A60     		str	r2, [r3]
  42:Core/Src/robot/devs_config.cpp ****         gXEnc.chB_pin = GPIO_PIN_11;
 146              		.loc 1 42 0
 147 0006 4FF40062 		mov	r2, #2048
 148 000a 9A80     		strh	r2, [r3, #4]	@ movhi
  43:Core/Src/robot/devs_config.cpp ****         gXEnc.count = 0;
 149              		.loc 1 43 0
 150 000c 0022     		movs	r2, #0
 151 000e 9A60     		str	r2, [r3, #8]
  44:Core/Src/robot/devs_config.cpp ****         gXEnc.radius = 30;
 152              		.loc 1 44 0
 153 0010 0749     		ldr	r1, .L10+8
 154 0012 D960     		str	r1, [r3, #12]	@ float
  45:Core/Src/robot/devs_config.cpp **** 
  46:Core/Src/robot/devs_config.cpp ****         gYEnc.chB_port = GPIOC;
 155              		.loc 1 46 0
 156 0014 074B     		ldr	r3, .L10+12
 157 0016 0849     		ldr	r1, .L10+16
 158 0018 1960     		str	r1, [r3]
  47:Core/Src/robot/devs_config.cpp ****         gYEnc.chB_pin = GPIO_PIN_10;
 159              		.loc 1 47 0
 160 001a 4FF48061 		mov	r1, #1024
 161 001e 9980     		strh	r1, [r3, #4]	@ movhi
  48:Core/Src/robot/devs_config.cpp ****         gYEnc.count = 0;
 162              		.loc 1 48 0
 163 0020 9A60     		str	r2, [r3, #8]
  49:Core/Src/robot/devs_config.cpp ****         gYEnc.radius = 29;
 164              		.loc 1 49 0
 165 0022 064A     		ldr	r2, .L10+20
 166 0024 DA60     		str	r2, [r3, #12]	@ float
  50:Core/Src/robot/devs_config.cpp **** }
 167              		.loc 1 50 0
 168 0026 7047     		bx	lr
 169              	.L11:
 170              		.align	2
 171              	.L10:
 172 0028 00000000 		.word	gXEnc
 173 002c 00100240 		.word	1073876992
 174 0030 0000F041 		.word	1106247680
 175 0034 00000000 		.word	gYEnc
 176 0038 00080240 		.word	1073874944
 177 003c 0000E841 		.word	1105723392
 178              		.cfi_endproc
 179              	.LFE179:
 181              		.text
 182              	.Letext0:
 183              		.file 2 "c:\\program files (x86)\\gnu tools arm embedded\\7 2017-q4-major\\arm-none-eabi\\include\
 184              		.file 3 "c:\\program files (x86)\\gnu tools arm embedded\\7 2017-q4-major\\arm-none-eabi\\include\
ARM GAS  C:\Users\Prashant\AppData\Local\Temp\ccqABJc7.s 			page 5


 185              		.file 4 "C:/Users/Prashant/STM32Cube/Repository/STM32Cube_FW_F4_V1.21.0/Drivers/CMSIS/Include/core
 186              		.file 5 "C:/Users/Prashant/STM32Cube/Repository/STM32Cube_FW_F4_V1.21.0/Drivers/CMSIS/Device/ST/ST
 187              		.file 6 "C:/Users/Prashant/STM32Cube/Repository/STM32Cube_FW_F4_V1.21.0/Drivers/CMSIS/Device/ST/ST
 188              		.file 7 "c:\\program files (x86)\\gnu tools arm embedded\\7 2017-q4-major\\arm-none-eabi\\include\
 189              		.file 8 "c:\\program files (x86)\\gnu tools arm embedded\\7 2017-q4-major\\arm-none-eabi\\include\
 190              		.file 9 "c:\\program files (x86)\\gnu tools arm embedded\\7 2017-q4-major\\lib\\gcc\\arm-none-eabi
 191              		.file 10 "c:\\program files (x86)\\gnu tools arm embedded\\7 2017-q4-major\\arm-none-eabi\\include
 192              		.file 11 "C:/Users/Prashant/STM32Cube/Repository/STM32Cube_FW_F4_V1.21.0/Drivers/STM32F4xx_HAL_Dri
 193              		.file 12 "C:/Users/Prashant/STM32Cube/Repository/STM32Cube_FW_F4_V1.21.0/Drivers/STM32F4xx_HAL_Dri
 194              		.file 13 "C:/Users/Prashant/STM32Cube/Repository/STM32Cube_FW_F4_V1.21.0/Drivers/STM32F4xx_HAL_Dri
 195              		.file 14 "C:/Users/Prashant/STM32Cube/Repository/STM32Cube_FW_F4_V1.21.0/Drivers/STM32F4xx_HAL_Dri
 196              		.file 15 "C:/Users/Prashant/STM32Cube/Repository/STM32Cube_FW_F4_V1.21.0/Drivers/STM32F4xx_HAL_Dri
 197              		.file 16 "Core/Inc/periphs/i2c.h"
 198              		.file 17 "Core/Inc/periphs/tim.h"
 199              		.file 18 "Core/Inc/devs/mpu6050.h"
 200              		.file 19 "Core/Inc\\utils/vec3.h"
 201              		.file 20 "Core/Inc/devs/a4988.h"
 202              		.file 21 "Core/Inc/devs/hmc5883.h"
 203              		.file 22 "Core/Inc/devs/encoder.h"
 204              		.file 23 "Core/Inc/periphs/usart.h"
 205              		.file 24 "Core/Inc\\devs/wheeler.h"
 206              		.file 25 "Core/Inc/robot/devs_config.h"
ARM GAS  C:\Users\Prashant\AppData\Local\Temp\ccqABJc7.s 			page 6

