ARM GAS  C:\Users\Prashant\AppData\Local\Temp\ccQAwpZb.s 			page 1


   1              		.cpu cortex-m4
   2              		.eabi_attribute 27, 1
   3              		.eabi_attribute 28, 1
   4              		.eabi_attribute 20, 1
   5              		.eabi_attribute 21, 1
   6              		.eabi_attribute 23, 3
   7              		.eabi_attribute 24, 1
   8              		.eabi_attribute 25, 1
   9              		.eabi_attribute 26, 1
  10              		.eabi_attribute 30, 1
  11              		.eabi_attribute 34, 1
  12              		.eabi_attribute 18, 4
  13              		.file	"int_config.cpp"
  14              		.text
  15              	.Ltext0:
  16              		.cfi_sections	.debug_frame
  17              		.section	.text.HAL_GPIO_EXTI_Callback,"ax",%progbits
  18              		.align	1
  19              		.global	HAL_GPIO_EXTI_Callback
  20              		.syntax unified
  21              		.thumb
  22              		.thumb_func
  23              		.fpu fpv4-sp-d16
  25              	HAL_GPIO_EXTI_Callback:
  26              	.LFB177:
  27              		.file 1 "Core/Src/robot/int_config.cpp"
   1:Core/Src/robot/int_config.cpp **** /*
   2:Core/Src/robot/int_config.cpp ****  * int_config.cpp
   3:Core/Src/robot/int_config.cpp ****  * 
   4:Core/Src/robot/int_config.cpp ****  * Created : 11/16/2018
   5:Core/Src/robot/int_config.cpp ****  *  Author : n-is
   6:Core/Src/robot/int_config.cpp ****  *   email : 073bex422.nischal@pcampus.edu.np
   7:Core/Src/robot/int_config.cpp ****  */
   8:Core/Src/robot/int_config.cpp **** 
   9:Core/Src/robot/int_config.cpp **** #include "robot/devs_config.h"
  10:Core/Src/robot/int_config.cpp **** 
  11:Core/Src/robot/int_config.cpp **** extern bool gSendBufferDataFlag;
  12:Core/Src/robot/int_config.cpp **** 
  13:Core/Src/robot/int_config.cpp **** void HAL_GPIO_EXTI_Callback(uint16_t GPIO_Pin)
  14:Core/Src/robot/int_config.cpp **** {
  28              		.loc 1 14 0
  29              		.cfi_startproc
  30              		@ args = 0, pretend = 0, frame = 0
  31              		@ frame_needed = 0, uses_anonymous_args = 0
  32              	.LVL0:
  33 0000 08B5     		push	{r3, lr}
  34              	.LCFI0:
  35              		.cfi_def_cfa_offset 8
  36              		.cfi_offset 3, -8
  37              		.cfi_offset 14, -4
  15:Core/Src/robot/int_config.cpp ****         switch (GPIO_Pin) {
  38              		.loc 1 15 0
  39 0002 B0F5005F 		cmp	r0, #8192
  40 0006 09D0     		beq	.L3
  41 0008 B0F5804F 		cmp	r0, #16384
  42 000c 0AD0     		beq	.L4
  43 000e 1028     		cmp	r0, #16
ARM GAS  C:\Users\Prashant\AppData\Local\Temp\ccQAwpZb.s 			page 2


  44 0010 00D0     		beq	.L7
  45              	.LVL1:
  46              	.L1:
  16:Core/Src/robot/int_config.cpp ****                 // This interrupt pin is connected to gXEnc
  17:Core/Src/robot/int_config.cpp ****                 case GPIO_PIN_4 : {     // PA4
  18:Core/Src/robot/int_config.cpp ****                         Enc_HandleCount(&gXEnc);
  19:Core/Src/robot/int_config.cpp ****                 } break;
  20:Core/Src/robot/int_config.cpp ****                 
  21:Core/Src/robot/int_config.cpp ****                 // This interrupt pin is connected to gYEnc
  22:Core/Src/robot/int_config.cpp ****                 case GPIO_PIN_13 : {    // PE13
  23:Core/Src/robot/int_config.cpp ****                         Enc_HandleCount(&gYEnc);
  24:Core/Src/robot/int_config.cpp ****                 } break;
  25:Core/Src/robot/int_config.cpp **** 
  26:Core/Src/robot/int_config.cpp ****                 // This interrupt pin is connected to push button
  27:Core/Src/robot/int_config.cpp ****                 case GPIO_PIN_14 : {    // PC14
  28:Core/Src/robot/int_config.cpp ****                         gSendBufferDataFlag = true;
  29:Core/Src/robot/int_config.cpp ****                 }
  30:Core/Src/robot/int_config.cpp ****         }
  31:Core/Src/robot/int_config.cpp **** }
  47              		.loc 1 31 0
  48 0012 08BD     		pop	{r3, pc}
  49              	.LVL2:
  50              	.L7:
  18:Core/Src/robot/int_config.cpp ****                 } break;
  51              		.loc 1 18 0
  52 0014 0548     		ldr	r0, .L8
  53              	.LVL3:
  54 0016 FFF7FEFF 		bl	_Z15Enc_HandleCountP3Enc
  55              	.LVL4:
  19:Core/Src/robot/int_config.cpp ****                 
  56              		.loc 1 19 0
  57 001a FAE7     		b	.L1
  58              	.LVL5:
  59              	.L3:
  23:Core/Src/robot/int_config.cpp ****                 } break;
  60              		.loc 1 23 0
  61 001c 0448     		ldr	r0, .L8+4
  62              	.LVL6:
  63 001e FFF7FEFF 		bl	_Z15Enc_HandleCountP3Enc
  64              	.LVL7:
  24:Core/Src/robot/int_config.cpp **** 
  65              		.loc 1 24 0
  66 0022 F6E7     		b	.L1
  67              	.LVL8:
  68              	.L4:
  28:Core/Src/robot/int_config.cpp ****                 }
  69              		.loc 1 28 0
  70 0024 034B     		ldr	r3, .L8+8
  71 0026 0122     		movs	r2, #1
  72 0028 1A70     		strb	r2, [r3]
  73              		.loc 1 31 0
  74 002a F2E7     		b	.L1
  75              	.L9:
  76              		.align	2
  77              	.L8:
  78 002c 00000000 		.word	gXEnc
  79 0030 00000000 		.word	gYEnc
ARM GAS  C:\Users\Prashant\AppData\Local\Temp\ccQAwpZb.s 			page 3


  80 0034 00000000 		.word	gSendBufferDataFlag
  81              		.cfi_endproc
  82              	.LFE177:
  84              		.section	.text.HAL_UART_RxCpltCallback,"ax",%progbits
  85              		.align	1
  86              		.global	HAL_UART_RxCpltCallback
  87              		.syntax unified
  88              		.thumb
  89              		.thumb_func
  90              		.fpu fpv4-sp-d16
  92              	HAL_UART_RxCpltCallback:
  93              	.LFB178:
  32:Core/Src/robot/int_config.cpp **** 
  33:Core/Src/robot/int_config.cpp **** void HAL_UART_RxCpltCallback(UART_HandleTypeDef *huart)
  34:Core/Src/robot/int_config.cpp **** {
  94              		.loc 1 34 0
  95              		.cfi_startproc
  96              		@ args = 0, pretend = 0, frame = 0
  97              		@ frame_needed = 0, uses_anonymous_args = 0
  98              	.LVL9:
  99 0000 08B5     		push	{r3, lr}
 100              	.LCFI1:
 101              		.cfi_def_cfa_offset 8
 102              		.cfi_offset 3, -8
 103              		.cfi_offset 14, -4
  35:Core/Src/robot/int_config.cpp ****         if (huart->Instance == USART3) {
 104              		.loc 1 35 0
 105 0002 0268     		ldr	r2, [r0]
 106 0004 034B     		ldr	r3, .L14
 107 0006 9A42     		cmp	r2, r3
 108 0008 00D0     		beq	.L13
 109              	.LVL10:
 110              	.L10:
  36:Core/Src/robot/int_config.cpp ****                 LIDAR_UART3_RxCpltCallback();
  37:Core/Src/robot/int_config.cpp ****         }
  38:Core/Src/robot/int_config.cpp **** }
 111              		.loc 1 38 0
 112 000a 08BD     		pop	{r3, pc}
 113              	.LVL11:
 114              	.L13:
  36:Core/Src/robot/int_config.cpp ****                 LIDAR_UART3_RxCpltCallback();
 115              		.loc 1 36 0
 116 000c FFF7FEFF 		bl	_Z26LIDAR_UART3_RxCpltCallbackv
 117              	.LVL12:
 118              		.loc 1 38 0
 119 0010 FBE7     		b	.L10
 120              	.L15:
 121 0012 00BF     		.align	2
 122              	.L14:
 123 0014 00480040 		.word	1073760256
 124              		.cfi_endproc
 125              	.LFE178:
 127              		.section	.text.HAL_UART_TxCpltCallback,"ax",%progbits
 128              		.align	1
 129              		.global	HAL_UART_TxCpltCallback
 130              		.syntax unified
 131              		.thumb
ARM GAS  C:\Users\Prashant\AppData\Local\Temp\ccQAwpZb.s 			page 4


 132              		.thumb_func
 133              		.fpu fpv4-sp-d16
 135              	HAL_UART_TxCpltCallback:
 136              	.LFB179:
  39:Core/Src/robot/int_config.cpp **** 
  40:Core/Src/robot/int_config.cpp **** void HAL_UART_TxCpltCallback(UART_HandleTypeDef *huart)
  41:Core/Src/robot/int_config.cpp **** {
 137              		.loc 1 41 0
 138              		.cfi_startproc
 139              		@ args = 0, pretend = 0, frame = 0
 140              		@ frame_needed = 0, uses_anonymous_args = 0
 141              	.LVL13:
 142 0000 08B5     		push	{r3, lr}
 143              	.LCFI2:
 144              		.cfi_def_cfa_offset 8
 145              		.cfi_offset 3, -8
 146              		.cfi_offset 14, -4
  42:Core/Src/robot/int_config.cpp ****         if (huart->Instance == USART2) {
 147              		.loc 1 42 0
 148 0002 0268     		ldr	r2, [r0]
 149 0004 034B     		ldr	r3, .L20
 150 0006 9A42     		cmp	r2, r3
 151 0008 00D0     		beq	.L19
 152              	.LVL14:
 153              	.L16:
  43:Core/Src/robot/int_config.cpp ****                 Wheeler_UART2_TxCpltCallback();
  44:Core/Src/robot/int_config.cpp ****         }
  45:Core/Src/robot/int_config.cpp **** }
 154              		.loc 1 45 0
 155 000a 08BD     		pop	{r3, pc}
 156              	.LVL15:
 157              	.L19:
  43:Core/Src/robot/int_config.cpp ****                 Wheeler_UART2_TxCpltCallback();
 158              		.loc 1 43 0
 159 000c FFF7FEFF 		bl	_Z28Wheeler_UART2_TxCpltCallbackv
 160              	.LVL16:
 161              		.loc 1 45 0
 162 0010 FBE7     		b	.L16
 163              	.L21:
 164 0012 00BF     		.align	2
 165              	.L20:
 166 0014 00440040 		.word	1073759232
 167              		.cfi_endproc
 168              	.LFE179:
 170              		.text
 171              	.Letext0:
 172              		.file 2 "c:\\program files (x86)\\gnu tools arm embedded\\7 2017-q4-major\\arm-none-eabi\\include\
 173              		.file 3 "c:\\program files (x86)\\gnu tools arm embedded\\7 2017-q4-major\\arm-none-eabi\\include\
 174              		.file 4 "C:/Users/Prashant/STM32Cube/Repository/STM32Cube_FW_F4_V1.21.0/Drivers/CMSIS/Include/core
 175              		.file 5 "C:/Users/Prashant/STM32Cube/Repository/STM32Cube_FW_F4_V1.21.0/Drivers/CMSIS/Device/ST/ST
 176              		.file 6 "C:/Users/Prashant/STM32Cube/Repository/STM32Cube_FW_F4_V1.21.0/Drivers/CMSIS/Device/ST/ST
 177              		.file 7 "c:\\program files (x86)\\gnu tools arm embedded\\7 2017-q4-major\\arm-none-eabi\\include\
 178              		.file 8 "c:\\program files (x86)\\gnu tools arm embedded\\7 2017-q4-major\\arm-none-eabi\\include\
 179              		.file 9 "c:\\program files (x86)\\gnu tools arm embedded\\7 2017-q4-major\\lib\\gcc\\arm-none-eabi
 180              		.file 10 "c:\\program files (x86)\\gnu tools arm embedded\\7 2017-q4-major\\arm-none-eabi\\include
 181              		.file 11 "C:/Users/Prashant/STM32Cube/Repository/STM32Cube_FW_F4_V1.21.0/Drivers/STM32F4xx_HAL_Dri
 182              		.file 12 "C:/Users/Prashant/STM32Cube/Repository/STM32Cube_FW_F4_V1.21.0/Drivers/STM32F4xx_HAL_Dri
ARM GAS  C:\Users\Prashant\AppData\Local\Temp\ccQAwpZb.s 			page 5


 183              		.file 13 "C:/Users/Prashant/STM32Cube/Repository/STM32Cube_FW_F4_V1.21.0/Drivers/STM32F4xx_HAL_Dri
 184              		.file 14 "C:/Users/Prashant/STM32Cube/Repository/STM32Cube_FW_F4_V1.21.0/Drivers/STM32F4xx_HAL_Dri
 185              		.file 15 "C:/Users/Prashant/STM32Cube/Repository/STM32Cube_FW_F4_V1.21.0/Drivers/STM32F4xx_HAL_Dri
 186              		.file 16 "Core/Inc/periphs/i2c.h"
 187              		.file 17 "Core/Inc/periphs/tim.h"
 188              		.file 18 "Core/Inc/devs/mpu6050.h"
 189              		.file 19 "Core/Inc\\utils/vec3.h"
 190              		.file 20 "Core/Inc/devs/a4988.h"
 191              		.file 21 "Core/Inc/devs/hmc5883.h"
 192              		.file 22 "Core/Inc/devs/encoder.h"
 193              		.file 23 "Core/Inc/periphs/usart.h"
 194              		.file 24 "Core/Inc\\devs/wheeler.h"
 195              		.file 25 "Core/Inc/robot/devs_config.h"
 196              		.file 26 "Core/Inc/devs/lidar.h"
ARM GAS  C:\Users\Prashant\AppData\Local\Temp\ccQAwpZb.s 			page 6

