ARM GAS  C:\Users\Prashant\AppData\Local\Temp\cczsYW6b.s 			page 1


   1              		.cpu cortex-m4
   2              		.eabi_attribute 27, 1
   3              		.eabi_attribute 28, 1
   4              		.eabi_attribute 20, 1
   5              		.eabi_attribute 21, 1
   6              		.eabi_attribute 23, 3
   7              		.eabi_attribute 24, 1
   8              		.eabi_attribute 25, 1
   9              		.eabi_attribute 26, 1
  10              		.eabi_attribute 30, 1
  11              		.eabi_attribute 34, 1
  12              		.eabi_attribute 18, 4
  13              		.file	"play.cpp"
  14              		.text
  15              	.Ltext0:
  16              		.cfi_sections	.debug_frame
  17              		.section	.text._ZN7EncoderD2Ev,"axG",%progbits,_ZN7EncoderD5Ev,comdat
  18              		.align	1
  19              		.weak	_ZN7EncoderD2Ev
  20              		.syntax unified
  21              		.thumb
  22              		.thumb_func
  23              		.fpu fpv4-sp-d16
  25              	_ZN7EncoderD2Ev:
  26              	.LFB460:
  27              		.file 1 "Core/Inc/devs/encoder.h"
   1:Core/Inc/devs/encoder.h **** /*
   2:Core/Inc/devs/encoder.h ****  * encoder.h
   3:Core/Inc/devs/encoder.h ****  * 
   4:Core/Inc/devs/encoder.h ****  * Created : 11/16/2018
   5:Core/Inc/devs/encoder.h ****  *  Author : n-is
   6:Core/Inc/devs/encoder.h ****  *   email : 073bex422.nischal@pcampus.edu.np
   7:Core/Inc/devs/encoder.h ****  */
   8:Core/Inc/devs/encoder.h **** 
   9:Core/Inc/devs/encoder.h **** #ifndef _ENCODER_H_
  10:Core/Inc/devs/encoder.h **** #define _ENCODER_H_
  11:Core/Inc/devs/encoder.h **** 
  12:Core/Inc/devs/encoder.h **** #include "periphs/gpio.h"
  13:Core/Inc/devs/encoder.h **** #include "sensor.h"
  14:Core/Inc/devs/encoder.h **** 
  15:Core/Inc/devs/encoder.h **** struct Enc
  16:Core/Inc/devs/encoder.h **** {
  17:Core/Inc/devs/encoder.h ****         GPIO_TypeDef *chB_port;
  18:Core/Inc/devs/encoder.h ****         uint16_t chB_pin;
  19:Core/Inc/devs/encoder.h ****         int32_t count;
  20:Core/Inc/devs/encoder.h ****         float radius;
  21:Core/Inc/devs/encoder.h **** };
  22:Core/Inc/devs/encoder.h **** 
  23:Core/Inc/devs/encoder.h **** void Enc_HandleCount(struct Enc *enc);
  24:Core/Inc/devs/encoder.h **** 
  25:Core/Inc/devs/encoder.h **** 
  26:Core/Inc/devs/encoder.h **** class Encoder : public Sensor
  27:Core/Inc/devs/encoder.h **** {
  28:Core/Inc/devs/encoder.h **** public:
  29:Core/Inc/devs/encoder.h ****         Encoder() = default;
  30:Core/Inc/devs/encoder.h ****         Encoder(Encoder &&) = default;
  31:Core/Inc/devs/encoder.h ****         Encoder(const Encoder &) = default;
ARM GAS  C:\Users\Prashant\AppData\Local\Temp\cczsYW6b.s 			page 2


  32:Core/Inc/devs/encoder.h ****         Encoder &operator=(Encoder &&) = default;
  33:Core/Inc/devs/encoder.h ****         Encoder &operator=(const Encoder &) = default;
  34:Core/Inc/devs/encoder.h ****         ~Encoder() { }
  28              		.loc 1 34 0
  29              		.cfi_startproc
  30              		@ args = 0, pretend = 0, frame = 0
  31              		@ frame_needed = 0, uses_anonymous_args = 0
  32              		@ link register save eliminated.
  33              	.LVL0:
  34              		.loc 1 34 0
  35 0000 7047     		bx	lr
  36              		.cfi_endproc
  37              	.LFE460:
  39              		.weak	_ZN7EncoderD1Ev
  40              		.thumb_set _ZN7EncoderD1Ev,_ZN7EncoderD2Ev
  41              		.section	.text._ZN5LidarD2Ev,"axG",%progbits,_ZN5LidarD5Ev,comdat
  42              		.align	1
  43              		.weak	_ZN5LidarD2Ev
  44              		.syntax unified
  45              		.thumb
  46              		.thumb_func
  47              		.fpu fpv4-sp-d16
  49              	_ZN5LidarD2Ev:
  50              	.LFB470:
  51              		.file 2 "Core/Inc/devs/lidar.h"
   1:Core/Inc/devs/lidar.h **** /*
   2:Core/Inc/devs/lidar.h ****  * lidar.h
   3:Core/Inc/devs/lidar.h ****  * 
   4:Core/Inc/devs/lidar.h ****  * Created : 11/9/2018
   5:Core/Inc/devs/lidar.h ****  *  Author : n-is
   6:Core/Inc/devs/lidar.h ****  *   email : 073bex422.nischal@pcampus.edu.np
   7:Core/Inc/devs/lidar.h ****  */
   8:Core/Inc/devs/lidar.h **** 
   9:Core/Inc/devs/lidar.h **** #ifndef _LIDAR_H_
  10:Core/Inc/devs/lidar.h **** #define _LIDAR_H_
  11:Core/Inc/devs/lidar.h **** 
  12:Core/Inc/devs/lidar.h **** #include "sensor.h"
  13:Core/Inc/devs/lidar.h **** 
  14:Core/Inc/devs/lidar.h **** void LIDAR_Init();
  15:Core/Inc/devs/lidar.h **** uint16_t LIDAR_Read();
  16:Core/Inc/devs/lidar.h **** void LIDAR_UART3_RxCpltCallback();
  17:Core/Inc/devs/lidar.h **** bool LIDAR_IsEmpty();
  18:Core/Inc/devs/lidar.h **** 
  19:Core/Inc/devs/lidar.h **** class Lidar : public Sensor
  20:Core/Inc/devs/lidar.h **** {
  21:Core/Inc/devs/lidar.h **** public:
  22:Core/Inc/devs/lidar.h ****         Lidar() = default;
  23:Core/Inc/devs/lidar.h ****         Lidar(Lidar &&) = default;
  24:Core/Inc/devs/lidar.h ****         Lidar(const Lidar &) = default;
  25:Core/Inc/devs/lidar.h ****         Lidar &operator=(Lidar &&) = default;
  26:Core/Inc/devs/lidar.h ****         Lidar &operator=(const Lidar &) = default;
  27:Core/Inc/devs/lidar.h ****         ~Lidar() { }
  52              		.loc 2 27 0
  53              		.cfi_startproc
  54              		@ args = 0, pretend = 0, frame = 0
  55              		@ frame_needed = 0, uses_anonymous_args = 0
  56              		@ link register save eliminated.
ARM GAS  C:\Users\Prashant\AppData\Local\Temp\cczsYW6b.s 			page 3


  57              	.LVL1:
  58              		.loc 2 27 0
  59 0000 7047     		bx	lr
  60              		.cfi_endproc
  61              	.LFE470:
  63              		.weak	_ZN5LidarD1Ev
  64              		.thumb_set _ZN5LidarD1Ev,_ZN5LidarD2Ev
  65              		.section	.text._ZN14PositionSensorD2Ev,"axG",%progbits,_ZN14PositionSensorD5Ev,comdat
  66              		.align	1
  67              		.weak	_ZN14PositionSensorD2Ev
  68              		.syntax unified
  69              		.thumb
  70              		.thumb_func
  71              		.fpu fpv4-sp-d16
  73              	_ZN14PositionSensorD2Ev:
  74              	.LFB485:
  75              		.file 3 "Core/Inc/devs/position_sensor.h"
   1:Core/Inc/devs/position_sensor.h **** /*
   2:Core/Inc/devs/position_sensor.h ****  * position_sensor.h
   3:Core/Inc/devs/position_sensor.h ****  * 
   4:Core/Inc/devs/position_sensor.h ****  * Created : 11/29/2018
   5:Core/Inc/devs/position_sensor.h ****  *  Author : n-is
   6:Core/Inc/devs/position_sensor.h ****  *   email : 073bex422.nischal@pcampus.edu.np
   7:Core/Inc/devs/position_sensor.h ****  */
   8:Core/Inc/devs/position_sensor.h **** 
   9:Core/Inc/devs/position_sensor.h **** #ifndef _POSITION_SENSOR_H_
  10:Core/Inc/devs/position_sensor.h **** #define _POSITION_SENSOR_H_
  11:Core/Inc/devs/position_sensor.h **** 
  12:Core/Inc/devs/position_sensor.h **** #include "utils/vec3.h"
  13:Core/Inc/devs/position_sensor.h **** #include "sensor.h"
  14:Core/Inc/devs/position_sensor.h **** 
  15:Core/Inc/devs/position_sensor.h **** #define MAX_POSITION_SENSORS    (4)
  16:Core/Inc/devs/position_sensor.h **** 
  17:Core/Inc/devs/position_sensor.h **** class PositionSensor
  18:Core/Inc/devs/position_sensor.h **** {
  19:Core/Inc/devs/position_sensor.h **** public:
  20:Core/Inc/devs/position_sensor.h ****         PositionSensor() {
  21:Core/Inc/devs/position_sensor.h ****                 sensor_count = 0;
  22:Core/Inc/devs/position_sensor.h ****         }
  23:Core/Inc/devs/position_sensor.h ****         PositionSensor(PositionSensor &&) = default;
  24:Core/Inc/devs/position_sensor.h ****         PositionSensor(const PositionSensor &) = default;
  25:Core/Inc/devs/position_sensor.h ****         PositionSensor &operator=(PositionSensor &&) = default;
  26:Core/Inc/devs/position_sensor.h ****         PositionSensor &operator=(const PositionSensor &) = default;
  27:Core/Inc/devs/position_sensor.h ****         ~PositionSensor() { }
  76              		.loc 3 27 0
  77              		.cfi_startproc
  78              		@ args = 0, pretend = 0, frame = 0
  79              		@ frame_needed = 0, uses_anonymous_args = 0
  80              		@ link register save eliminated.
  81              	.LVL2:
  82              		.loc 3 27 0
  83 0000 7047     		bx	lr
  84              		.cfi_endproc
  85              	.LFE485:
  87              		.weak	_ZN14PositionSensorD1Ev
  88              		.thumb_set _ZN14PositionSensorD1Ev,_ZN14PositionSensorD2Ev
  89              		.section	.text._ZN5RobotD2Ev,"axG",%progbits,_ZN5RobotD5Ev,comdat
ARM GAS  C:\Users\Prashant\AppData\Local\Temp\cczsYW6b.s 			page 4


  90              		.align	1
  91              		.weak	_ZN5RobotD2Ev
  92              		.syntax unified
  93              		.thumb
  94              		.thumb_func
  95              		.fpu fpv4-sp-d16
  97              	_ZN5RobotD2Ev:
  98              	.LFB599:
  99              		.file 4 "Core/Inc/robot/robot.h"
   1:Core/Inc/robot/robot.h **** #ifndef _ROBOT_H_
   2:Core/Inc/robot/robot.h **** #define _ROBOT_H_
   3:Core/Inc/robot/robot.h **** 
   4:Core/Inc/robot/robot.h **** #include "robo_states.h"
   5:Core/Inc/robot/robot.h **** #include "devs/wheeler.h"
   6:Core/Inc/robot/robot.h **** #include "devs/position_sensor.h"
   7:Core/Inc/robot/robot.h **** 
   8:Core/Inc/robot/robot.h **** extern ForestA gPointA;
   9:Core/Inc/robot/robot.h **** extern ForestH gPointH;
  10:Core/Inc/robot/robot.h **** 
  11:Core/Inc/robot/robot.h **** class Robot
  12:Core/Inc/robot/robot.h **** {
  13:Core/Inc/robot/robot.h **** public:
  14:Core/Inc/robot/robot.h ****         Robot() {
  15:Core/Inc/robot/robot.h ****                 state_ = &gPointA;
  16:Core/Inc/robot/robot.h ****                 // state_ = &gPointH;
  17:Core/Inc/robot/robot.h ****                 pos_ = 0;
  18:Core/Inc/robot/robot.h ****                 is_first_reading_ = true;
  19:Core/Inc/robot/robot.h ****                 first_heading_ = 0;
  20:Core/Inc/robot/robot.h ****         }
  21:Core/Inc/robot/robot.h ****         Robot(Robot &&) = default;
  22:Core/Inc/robot/robot.h ****         Robot(const Robot &) = default;
  23:Core/Inc/robot/robot.h ****         Robot &operator=(Robot &&) = default;
  24:Core/Inc/robot/robot.h ****         Robot &operator=(const Robot &) = default;
  25:Core/Inc/robot/robot.h ****         ~Robot() { }
 100              		.loc 4 25 0
 101              		.cfi_startproc
 102              		@ args = 0, pretend = 0, frame = 0
 103              		@ frame_needed = 0, uses_anonymous_args = 0
 104              		@ link register save eliminated.
 105              	.LVL3:
 106              		.loc 4 25 0
 107 0000 7047     		bx	lr
 108              		.cfi_endproc
 109              	.LFE599:
 111              		.weak	_ZN5RobotD1Ev
 112              		.thumb_set _ZN5RobotD1Ev,_ZN5RobotD2Ev
 113              		.section	.text._Z41__static_initialization_and_destruction_0ii,"ax",%progbits
 114              		.align	1
 115              		.syntax unified
 116              		.thumb
 117              		.thumb_func
 118              		.fpu fpv4-sp-d16
 120              	_Z41__static_initialization_and_destruction_0ii:
 121              	.LFB611:
 122              		.file 5 "Core/Src/robot/play.cpp"
   1:Core/Src/robot/play.cpp **** /*
   2:Core/Src/robot/play.cpp ****  * play.cpp
ARM GAS  C:\Users\Prashant\AppData\Local\Temp\cczsYW6b.s 			page 5


   3:Core/Src/robot/play.cpp ****  * 
   4:Core/Src/robot/play.cpp ****  * Created : 11/9/2018
   5:Core/Src/robot/play.cpp ****  *  Author : n-is
   6:Core/Src/robot/play.cpp ****  *   email : 073bex422.nischal@pcampus.edu.np
   7:Core/Src/robot/play.cpp ****  */
   8:Core/Src/robot/play.cpp **** 
   9:Core/Src/robot/play.cpp **** #include <math.h>
  10:Core/Src/robot/play.cpp **** #include "robot/play.h"
  11:Core/Src/robot/play.cpp **** #include "devs/sensor.h"
  12:Core/Src/robot/play.cpp **** #include "devs/position_sensor.h"
  13:Core/Src/robot/play.cpp **** 
  14:Core/Src/robot/play.cpp **** #include "robot/robot.h"
  15:Core/Src/robot/play.cpp **** 
  16:Core/Src/robot/play.cpp **** 
  17:Core/Src/robot/play.cpp **** #define MAX_POSSIBLE_OMEGA      (40)
  18:Core/Src/robot/play.cpp **** 
  19:Core/Src/robot/play.cpp **** 
  20:Core/Src/robot/play.cpp **** float gFirst_Heading = 0;
  21:Core/Src/robot/play.cpp **** bool gIs_First_Heading = true;
  22:Core/Src/robot/play.cpp **** 
  23:Core/Src/robot/play.cpp **** 
  24:Core/Src/robot/play.cpp **** Encoder gXEncoder(&gXEnc, SensorName::XEncoder);
  25:Core/Src/robot/play.cpp **** Encoder gYEncoder(&gYEnc, SensorName::YEncoder);
  26:Core/Src/robot/play.cpp **** Lidar gXLidar(SensorName::XLidar);
  27:Core/Src/robot/play.cpp **** PositionSensor gPSensor;
  28:Core/Src/robot/play.cpp **** 
  29:Core/Src/robot/play.cpp **** Robot gKhangaiRobot;
  30:Core/Src/robot/play.cpp **** 
  31:Core/Src/robot/play.cpp **** float go_abs[1130][2] = {{500 , 500},
  32:Core/Src/robot/play.cpp **** 			{510 , 500.05},
  33:Core/Src/robot/play.cpp **** 			{520 , 500.2},
  34:Core/Src/robot/play.cpp **** 			{530 , 500.45},
  35:Core/Src/robot/play.cpp **** 			{540 , 500.8},
  36:Core/Src/robot/play.cpp **** 			{550 , 501.25},
  37:Core/Src/robot/play.cpp **** 			{560 , 501.8},
  38:Core/Src/robot/play.cpp **** 			{570 , 502.451},
  39:Core/Src/robot/play.cpp **** 			{580 , 503.202},
  40:Core/Src/robot/play.cpp **** 			{590 , 504.054},
  41:Core/Src/robot/play.cpp **** 			{600 , 505.006},
  42:Core/Src/robot/play.cpp **** 			{610 , 506.06},
  43:Core/Src/robot/play.cpp **** 			{620 , 507.214},
  44:Core/Src/robot/play.cpp **** 			{630 , 508.47},
  45:Core/Src/robot/play.cpp **** 			{640 , 509.828},
  46:Core/Src/robot/play.cpp **** 			{650 , 511.288},
  47:Core/Src/robot/play.cpp **** 			{660 , 512.85},
  48:Core/Src/robot/play.cpp **** 			{670 , 514.514},
  49:Core/Src/robot/play.cpp **** 			{680 , 516.282},
  50:Core/Src/robot/play.cpp **** 			{690 , 518.152},
  51:Core/Src/robot/play.cpp **** 			{700 , 520.127},
  52:Core/Src/robot/play.cpp **** 			{710 , 522.205},
  53:Core/Src/robot/play.cpp **** 			{720 , 524.388},
  54:Core/Src/robot/play.cpp **** 			{730 , 526.676},
  55:Core/Src/robot/play.cpp **** 			{740 , 529.07},
  56:Core/Src/robot/play.cpp **** 			{750 , 531.569},
  57:Core/Src/robot/play.cpp **** 			{760 , 534.175},
  58:Core/Src/robot/play.cpp **** 			{770 , 536.888},
  59:Core/Src/robot/play.cpp **** 			{780 , 539.709},
ARM GAS  C:\Users\Prashant\AppData\Local\Temp\cczsYW6b.s 			page 6


  60:Core/Src/robot/play.cpp **** 			{790 , 542.638},
  61:Core/Src/robot/play.cpp **** 			{800 , 545.677},
  62:Core/Src/robot/play.cpp **** 			{810 , 548.825},
  63:Core/Src/robot/play.cpp **** 			{820 , 552.083},
  64:Core/Src/robot/play.cpp **** 			{830 , 555.452},
  65:Core/Src/robot/play.cpp **** 			{840 , 558.934},
  66:Core/Src/robot/play.cpp **** 			{850 , 562.528},
  67:Core/Src/robot/play.cpp **** 			{860 , 566.235},
  68:Core/Src/robot/play.cpp **** 			{870 , 570.057},
  69:Core/Src/robot/play.cpp **** 			{880 , 573.995},
  70:Core/Src/robot/play.cpp **** 			{890 , 578.049},
  71:Core/Src/robot/play.cpp **** 			{900 , 582.22},
  72:Core/Src/robot/play.cpp **** 			{910 , 586.51},
  73:Core/Src/robot/play.cpp **** 			{920 , 590.919},
  74:Core/Src/robot/play.cpp **** 			{930 , 595.448},
  75:Core/Src/robot/play.cpp **** 			{940 , 600.1},
  76:Core/Src/robot/play.cpp **** 			{950 , 604.874},
  77:Core/Src/robot/play.cpp **** 			{960 , 609.773},
  78:Core/Src/robot/play.cpp **** 			{970 , 614.797},
  79:Core/Src/robot/play.cpp **** 			{980 , 619.948},
  80:Core/Src/robot/play.cpp **** 			{990 , 625.227},
  81:Core/Src/robot/play.cpp **** 			{1000 , 630.637},
  82:Core/Src/robot/play.cpp **** 			{1010 , 636.177},
  83:Core/Src/robot/play.cpp **** 			{1020 , 641.851},
  84:Core/Src/robot/play.cpp **** 			{1030 , 647.659},
  85:Core/Src/robot/play.cpp **** 			{1040 , 653.604},
  86:Core/Src/robot/play.cpp **** 			{1050 , 659.687},
  87:Core/Src/robot/play.cpp **** 			{1060 , 665.91},
  88:Core/Src/robot/play.cpp **** 			{1070 , 672.275},
  89:Core/Src/robot/play.cpp **** 			{1080 , 678.785},
  90:Core/Src/robot/play.cpp **** 			{1090 , 685.44},
  91:Core/Src/robot/play.cpp **** 			{1100 , 692.244},
  92:Core/Src/robot/play.cpp **** 			{1110 , 699.199},
  93:Core/Src/robot/play.cpp **** 			{1120 , 706.308},
  94:Core/Src/robot/play.cpp **** 			{1130 , 713.572},
  95:Core/Src/robot/play.cpp **** 			{1140 , 720.994},
  96:Core/Src/robot/play.cpp **** 			{1150 , 728.578},
  97:Core/Src/robot/play.cpp **** 			{1160 , 736.326},
  98:Core/Src/robot/play.cpp **** 			{1170 , 744.241},
  99:Core/Src/robot/play.cpp **** 			{1180 , 752.327},
 100:Core/Src/robot/play.cpp **** 			{1190 , 760.586},
 101:Core/Src/robot/play.cpp **** 			{1200 , 769.022},
 102:Core/Src/robot/play.cpp **** 			{1210 , 777.64},
 103:Core/Src/robot/play.cpp **** 			{1220 , 786.442},
 104:Core/Src/robot/play.cpp **** 			{1230 , 795.432},
 105:Core/Src/robot/play.cpp **** 			{1240 , 804.616},
 106:Core/Src/robot/play.cpp **** 			{1250 , 813.998},
 107:Core/Src/robot/play.cpp **** 			{1260 , 823.581},
 108:Core/Src/robot/play.cpp **** 			{1270 , 833.372},
 109:Core/Src/robot/play.cpp **** 			{1280 , 843.376},
 110:Core/Src/robot/play.cpp **** 			{1290 , 853.597},
 111:Core/Src/robot/play.cpp **** 			{1300 , 864.042},
 112:Core/Src/robot/play.cpp **** 			{1310 , 874.718},
 113:Core/Src/robot/play.cpp **** 			{1320 , 885.63},
 114:Core/Src/robot/play.cpp **** 			{1330 , 896.786},
 115:Core/Src/robot/play.cpp **** 			{1340 , 908.194},
 116:Core/Src/robot/play.cpp **** 			{1350 , 919.86},
ARM GAS  C:\Users\Prashant\AppData\Local\Temp\cczsYW6b.s 			page 7


 117:Core/Src/robot/play.cpp **** 			{1360 , 931.795},
 118:Core/Src/robot/play.cpp **** 			{1370 , 944.006},
 119:Core/Src/robot/play.cpp **** 			{1380 , 956.504},
 120:Core/Src/robot/play.cpp **** 			{1390 , 969.299},
 121:Core/Src/robot/play.cpp **** 			{1400 , 982.402},
 122:Core/Src/robot/play.cpp **** 			{1410 , 995.825},
 123:Core/Src/robot/play.cpp **** 			{1420 , 1009.58},
 124:Core/Src/robot/play.cpp **** 			{1430 , 1023.69},
 125:Core/Src/robot/play.cpp **** 			{1440 , 1038.15},
 126:Core/Src/robot/play.cpp **** 			{1450 , 1053},
 127:Core/Src/robot/play.cpp **** 			{1460 , 1068.24},
 128:Core/Src/robot/play.cpp **** 			{1470 , 1083.9},
 129:Core/Src/robot/play.cpp **** 			{1480 , 1100},
 130:Core/Src/robot/play.cpp **** 			{1490 , 1116.56},
 131:Core/Src/robot/play.cpp **** 			{1500 , 1133.61},
 132:Core/Src/robot/play.cpp **** 			{1510 , 1151.18},
 133:Core/Src/robot/play.cpp **** 			{1520 , 1169.31},
 134:Core/Src/robot/play.cpp **** 			{1530 , 1188.02},
 135:Core/Src/robot/play.cpp **** 			{1540 , 1207.36},
 136:Core/Src/robot/play.cpp **** 			{1550 , 1227.38},
 137:Core/Src/robot/play.cpp **** 			{1560 , 1248.13},
 138:Core/Src/robot/play.cpp **** 			{1570 , 1269.68},
 139:Core/Src/robot/play.cpp **** 			{1580 , 1292.1},
 140:Core/Src/robot/play.cpp **** 			{1590 , 1315.46},
 141:Core/Src/robot/play.cpp **** 			{1600 , 1339.88},
 142:Core/Src/robot/play.cpp **** 			{1610 , 1365.48},
 143:Core/Src/robot/play.cpp **** 			{1620 , 1392.4},
 144:Core/Src/robot/play.cpp **** 			{1630 , 1420.82},
 145:Core/Src/robot/play.cpp **** 			{1640 , 1450.99},
 146:Core/Src/robot/play.cpp **** 			{1650 , 1483.21},
 147:Core/Src/robot/play.cpp **** 			{1660 , 1517.88},
 148:Core/Src/robot/play.cpp **** 			{1670 , 1555.58},
 149:Core/Src/robot/play.cpp **** 			{1680 , 1597.17},
 150:Core/Src/robot/play.cpp **** 			{1690 , 1644},
 151:Core/Src/robot/play.cpp **** 			{1700 , 1698.5},
 152:Core/Src/robot/play.cpp **** 			{1710 , 1765.98},
 153:Core/Src/robot/play.cpp **** 			{1720 , 1864.61},
 154:Core/Src/robot/play.cpp **** 			{1725 , 2000},
 155:Core/Src/robot/play.cpp **** 			{1715 , 2149.25},
 156:Core/Src/robot/play.cpp **** 			{1705 , 2210},
 157:Core/Src/robot/play.cpp **** 			{1695 , 2255.88},
 158:Core/Src/robot/play.cpp **** 			{1685 , 2293.94},
 159:Core/Src/robot/play.cpp **** 			{1675 , 2326.92},
 160:Core/Src/robot/play.cpp **** 			{1665 , 2356.23},
 161:Core/Src/robot/play.cpp **** 			{1655 , 2382.72},
 162:Core/Src/robot/play.cpp **** 			{1645 , 2406.94},
 163:Core/Src/robot/play.cpp **** 			{1635 , 2429.27},
 164:Core/Src/robot/play.cpp **** 			{1625 , 2450},
 165:Core/Src/robot/play.cpp **** 			{1615 , 2469.33},
 166:Core/Src/robot/play.cpp **** 			{1605 , 2487.44},
 167:Core/Src/robot/play.cpp **** 			{1595 , 2504.46},
 168:Core/Src/robot/play.cpp **** 			{1585 , 2520.48},
 169:Core/Src/robot/play.cpp **** 			{1575 , 2535.61},
 170:Core/Src/robot/play.cpp **** 			{1565 , 2549.91},
 171:Core/Src/robot/play.cpp **** 			{1555 , 2563.45},
 172:Core/Src/robot/play.cpp **** 			{1545 , 2576.28},
 173:Core/Src/robot/play.cpp **** 			{1535 , 2588.45},
ARM GAS  C:\Users\Prashant\AppData\Local\Temp\cczsYW6b.s 			page 8


 174:Core/Src/robot/play.cpp **** 			{1525 , 2600},
 175:Core/Src/robot/play.cpp **** 			{1515 , 2610.96},
 176:Core/Src/robot/play.cpp **** 			{1505 , 2621.37},
 177:Core/Src/robot/play.cpp **** 			{1495 , 2631.25},
 178:Core/Src/robot/play.cpp **** 			{1485 , 2640.62},
 179:Core/Src/robot/play.cpp **** 			{1475 , 2649.52},
 180:Core/Src/robot/play.cpp **** 			{1465 , 2657.95},
 181:Core/Src/robot/play.cpp **** 			{1455 , 2665.94},
 182:Core/Src/robot/play.cpp **** 			{1445 , 2673.5},
 183:Core/Src/robot/play.cpp **** 			{1435 , 2680.64},
 184:Core/Src/robot/play.cpp **** 			{1425 , 2687.39},
 185:Core/Src/robot/play.cpp **** 			{1415 , 2693.74},
 186:Core/Src/robot/play.cpp **** 			{1405 , 2699.71},
 187:Core/Src/robot/play.cpp **** 			{1395 , 2705.32},
 188:Core/Src/robot/play.cpp **** 			{1385 , 2710.56},
 189:Core/Src/robot/play.cpp **** 			{1375 , 2715.45},
 190:Core/Src/robot/play.cpp **** 			{1365 , 2720},
 191:Core/Src/robot/play.cpp **** 			{1355 , 2724.21},
 192:Core/Src/robot/play.cpp **** 			{1345 , 2728.08},
 193:Core/Src/robot/play.cpp **** 			{1335 , 2731.62},
 194:Core/Src/robot/play.cpp **** 			{1325 , 2734.85},
 195:Core/Src/robot/play.cpp **** 			{1315 , 2737.75},
 196:Core/Src/robot/play.cpp **** 			{1305 , 2740.34},
 197:Core/Src/robot/play.cpp **** 			{1295 , 2742.61},
 198:Core/Src/robot/play.cpp **** 			{1285 , 2744.58},
 199:Core/Src/robot/play.cpp **** 			{1275 , 2746.24},
 200:Core/Src/robot/play.cpp **** 			{1265 , 2747.6},
 201:Core/Src/robot/play.cpp **** 			{1255 , 2748.65},
 202:Core/Src/robot/play.cpp **** 			{1245 , 2749.4},
 203:Core/Src/robot/play.cpp **** 			{1235 , 2749.85},
 204:Core/Src/robot/play.cpp **** 			{1225 , 2750},
 205:Core/Src/robot/play.cpp **** 			{1214.53 , 2760},
 206:Core/Src/robot/play.cpp **** 			{1204.06 , 2770},
 207:Core/Src/robot/play.cpp **** 			{1193.6 , 2780},
 208:Core/Src/robot/play.cpp **** 			{1183.16 , 2790},
 209:Core/Src/robot/play.cpp **** 			{1172.74 , 2800},
 210:Core/Src/robot/play.cpp **** 			{1162.33 , 2810},
 211:Core/Src/robot/play.cpp **** 			{1151.96 , 2820},
 212:Core/Src/robot/play.cpp **** 			{1141.62 , 2830},
 213:Core/Src/robot/play.cpp **** 			{1131.31 , 2840},
 214:Core/Src/robot/play.cpp **** 			{1121.04 , 2850},
 215:Core/Src/robot/play.cpp **** 			{1110.82 , 2860},
 216:Core/Src/robot/play.cpp **** 			{1100.66 , 2870},
 217:Core/Src/robot/play.cpp **** 			{1090.54 , 2880},
 218:Core/Src/robot/play.cpp **** 			{1080.48 , 2890},
 219:Core/Src/robot/play.cpp **** 			{1070.49 , 2900},
 220:Core/Src/robot/play.cpp **** 			{1060.57 , 2910},
 221:Core/Src/robot/play.cpp **** 			{1050.71 , 2920},
 222:Core/Src/robot/play.cpp **** 			{1040.94 , 2930},
 223:Core/Src/robot/play.cpp **** 			{1031.24 , 2940},
 224:Core/Src/robot/play.cpp **** 			{1021.63 , 2950},
 225:Core/Src/robot/play.cpp **** 			{1012.11 , 2960},
 226:Core/Src/robot/play.cpp **** 			{1002.68 , 2970},
 227:Core/Src/robot/play.cpp **** 			{993.352 , 2980},
 228:Core/Src/robot/play.cpp **** 			{984.123 , 2990},
 229:Core/Src/robot/play.cpp **** 			{975 , 3000},
 230:Core/Src/robot/play.cpp **** 			{965.987 , 3010},
ARM GAS  C:\Users\Prashant\AppData\Local\Temp\cczsYW6b.s 			page 9


 231:Core/Src/robot/play.cpp **** 			{957.087 , 3020},
 232:Core/Src/robot/play.cpp **** 			{948.304 , 3030},
 233:Core/Src/robot/play.cpp **** 			{939.643 , 3040},
 234:Core/Src/robot/play.cpp **** 			{931.107 , 3050},
 235:Core/Src/robot/play.cpp **** 			{922.7 , 3060},
 236:Core/Src/robot/play.cpp **** 			{914.426 , 3070},
 237:Core/Src/robot/play.cpp **** 			{906.288 , 3080},
 238:Core/Src/robot/play.cpp **** 			{898.29 , 3090},
 239:Core/Src/robot/play.cpp **** 			{890.435 , 3100},
 240:Core/Src/robot/play.cpp **** 			{882.726 , 3110},
 241:Core/Src/robot/play.cpp **** 			{875.168 , 3120},
 242:Core/Src/robot/play.cpp **** 			{867.764 , 3130},
 243:Core/Src/robot/play.cpp **** 			{860.516 , 3140},
 244:Core/Src/robot/play.cpp **** 			{853.428 , 3150},
 245:Core/Src/robot/play.cpp **** 			{846.503 , 3160},
 246:Core/Src/robot/play.cpp **** 			{839.743 , 3170},
 247:Core/Src/robot/play.cpp **** 			{833.153 , 3180},
 248:Core/Src/robot/play.cpp **** 			{826.735 , 3190},
 249:Core/Src/robot/play.cpp **** 			{820.492 , 3200},
 250:Core/Src/robot/play.cpp **** 			{814.425 , 3210},
 251:Core/Src/robot/play.cpp **** 			{808.539 , 3220},
 252:Core/Src/robot/play.cpp **** 			{802.836 , 3230},
 253:Core/Src/robot/play.cpp **** 			{797.318 , 3240},
 254:Core/Src/robot/play.cpp **** 			{791.987 , 3250},
 255:Core/Src/robot/play.cpp **** 			{786.847 , 3260},
 256:Core/Src/robot/play.cpp **** 			{781.898 , 3270},
 257:Core/Src/robot/play.cpp **** 			{777.144 , 3280},
 258:Core/Src/robot/play.cpp **** 			{772.586 , 3290},
 259:Core/Src/robot/play.cpp **** 			{768.227 , 3300},
 260:Core/Src/robot/play.cpp **** 			{764.068 , 3310},
 261:Core/Src/robot/play.cpp **** 			{760.112 , 3320},
 262:Core/Src/robot/play.cpp **** 			{756.359 , 3330},
 263:Core/Src/robot/play.cpp **** 			{752.812 , 3340},
 264:Core/Src/robot/play.cpp **** 			{749.472 , 3350},
 265:Core/Src/robot/play.cpp **** 			{746.34 , 3360},
 266:Core/Src/robot/play.cpp **** 			{743.419 , 3370},
 267:Core/Src/robot/play.cpp **** 			{740.708 , 3380},
 268:Core/Src/robot/play.cpp **** 			{738.211 , 3390},
 269:Core/Src/robot/play.cpp **** 			{735.926 , 3400},
 270:Core/Src/robot/play.cpp **** 			{733.856 , 3410},
 271:Core/Src/robot/play.cpp **** 			{732.002 , 3420},
 272:Core/Src/robot/play.cpp **** 			{730.364 , 3430},
 273:Core/Src/robot/play.cpp **** 			{728.943 , 3440},
 274:Core/Src/robot/play.cpp **** 			{727.739 , 3450},
 275:Core/Src/robot/play.cpp **** 			{726.754 , 3460},
 276:Core/Src/robot/play.cpp **** 			{725.987 , 3470},
 277:Core/Src/robot/play.cpp **** 			{725.439 , 3480},
 278:Core/Src/robot/play.cpp **** 			{725.11 , 3490},
 279:Core/Src/robot/play.cpp **** 			{725 , 3500},
 280:Core/Src/robot/play.cpp **** 			{725.11 , 3510},
 281:Core/Src/robot/play.cpp **** 			{725.439 , 3520},
 282:Core/Src/robot/play.cpp **** 			{725.987 , 3530},
 283:Core/Src/robot/play.cpp **** 			{726.754 , 3540},
 284:Core/Src/robot/play.cpp **** 			{727.739 , 3550},
 285:Core/Src/robot/play.cpp **** 			{728.943 , 3560},
 286:Core/Src/robot/play.cpp **** 			{730.364 , 3570},
 287:Core/Src/robot/play.cpp **** 			{732.002 , 3580},
ARM GAS  C:\Users\Prashant\AppData\Local\Temp\cczsYW6b.s 			page 10


 288:Core/Src/robot/play.cpp **** 			{733.856 , 3590},
 289:Core/Src/robot/play.cpp **** 			{735.926 , 3600},
 290:Core/Src/robot/play.cpp **** 			{738.211 , 3610},
 291:Core/Src/robot/play.cpp **** 			{740.708 , 3620},
 292:Core/Src/robot/play.cpp **** 			{743.419 , 3630},
 293:Core/Src/robot/play.cpp **** 			{746.34 , 3640},
 294:Core/Src/robot/play.cpp **** 			{749.472 , 3650},
 295:Core/Src/robot/play.cpp **** 			{752.812 , 3660},
 296:Core/Src/robot/play.cpp **** 			{756.359 , 3670},
 297:Core/Src/robot/play.cpp **** 			{760.112 , 3680},
 298:Core/Src/robot/play.cpp **** 			{764.068 , 3690},
 299:Core/Src/robot/play.cpp **** 			{768.227 , 3700},
 300:Core/Src/robot/play.cpp **** 			{772.586 , 3710},
 301:Core/Src/robot/play.cpp **** 			{777.144 , 3720},
 302:Core/Src/robot/play.cpp **** 			{781.898 , 3730},
 303:Core/Src/robot/play.cpp **** 			{786.847 , 3740},
 304:Core/Src/robot/play.cpp **** 			{791.987 , 3750},
 305:Core/Src/robot/play.cpp **** 			{797.318 , 3760},
 306:Core/Src/robot/play.cpp **** 			{802.836 , 3770},
 307:Core/Src/robot/play.cpp **** 			{808.539 , 3780},
 308:Core/Src/robot/play.cpp **** 			{814.425 , 3790},
 309:Core/Src/robot/play.cpp **** 			{820.492 , 3800},
 310:Core/Src/robot/play.cpp **** 			{826.735 , 3810},
 311:Core/Src/robot/play.cpp **** 			{833.153 , 3820},
 312:Core/Src/robot/play.cpp **** 			{839.743 , 3830},
 313:Core/Src/robot/play.cpp **** 			{846.503 , 3840},
 314:Core/Src/robot/play.cpp **** 			{853.428 , 3850},
 315:Core/Src/robot/play.cpp **** 			{860.516 , 3860},
 316:Core/Src/robot/play.cpp **** 			{867.764 , 3870},
 317:Core/Src/robot/play.cpp **** 			{875.168 , 3880},
 318:Core/Src/robot/play.cpp **** 			{882.726 , 3890},
 319:Core/Src/robot/play.cpp **** 			{890.435 , 3900},
 320:Core/Src/robot/play.cpp **** 			{898.29 , 3910},
 321:Core/Src/robot/play.cpp **** 			{906.288 , 3920},
 322:Core/Src/robot/play.cpp **** 			{914.426 , 3930},
 323:Core/Src/robot/play.cpp **** 			{922.7 , 3940},
 324:Core/Src/robot/play.cpp **** 			{931.107 , 3950},
 325:Core/Src/robot/play.cpp **** 			{939.643 , 3960},
 326:Core/Src/robot/play.cpp **** 			{948.304 , 3970},
 327:Core/Src/robot/play.cpp **** 			{957.087 , 3980},
 328:Core/Src/robot/play.cpp **** 			{965.987 , 3990},
 329:Core/Src/robot/play.cpp **** 			{975 , 4000},
 330:Core/Src/robot/play.cpp **** 			{984.123 , 4010},
 331:Core/Src/robot/play.cpp **** 			{993.352 , 4020},
 332:Core/Src/robot/play.cpp **** 			{1002.68 , 4030},
 333:Core/Src/robot/play.cpp **** 			{1012.11 , 4040},
 334:Core/Src/robot/play.cpp **** 			{1021.63 , 4050},
 335:Core/Src/robot/play.cpp **** 			{1031.24 , 4060},
 336:Core/Src/robot/play.cpp **** 			{1040.94 , 4070},
 337:Core/Src/robot/play.cpp **** 			{1050.71 , 4080},
 338:Core/Src/robot/play.cpp **** 			{1060.57 , 4090},
 339:Core/Src/robot/play.cpp **** 			{1070.49 , 4100},
 340:Core/Src/robot/play.cpp **** 			{1080.48 , 4110},
 341:Core/Src/robot/play.cpp **** 			{1090.54 , 4120},
 342:Core/Src/robot/play.cpp **** 			{1100.66 , 4130},
 343:Core/Src/robot/play.cpp **** 			{1110.82 , 4140},
 344:Core/Src/robot/play.cpp **** 			{1121.04 , 4150},
ARM GAS  C:\Users\Prashant\AppData\Local\Temp\cczsYW6b.s 			page 11


 345:Core/Src/robot/play.cpp **** 			{1131.31 , 4160},
 346:Core/Src/robot/play.cpp **** 			{1141.62 , 4170},
 347:Core/Src/robot/play.cpp **** 			{1151.96 , 4180},
 348:Core/Src/robot/play.cpp **** 			{1162.33 , 4190},
 349:Core/Src/robot/play.cpp **** 			{1172.74 , 4200},
 350:Core/Src/robot/play.cpp **** 			{1183.16 , 4210},
 351:Core/Src/robot/play.cpp **** 			{1193.6 , 4220},
 352:Core/Src/robot/play.cpp **** 			{1204.06 , 4230},
 353:Core/Src/robot/play.cpp **** 			{1214.53 , 4240},
 354:Core/Src/robot/play.cpp **** 			{1225 , 4250},
 355:Core/Src/robot/play.cpp **** 			{1235.47 , 4260},
 356:Core/Src/robot/play.cpp **** 			{1245.94 , 4270},
 357:Core/Src/robot/play.cpp **** 			{1256.4 , 4280},
 358:Core/Src/robot/play.cpp **** 			{1266.84 , 4290},
 359:Core/Src/robot/play.cpp **** 			{1277.26 , 4300},
 360:Core/Src/robot/play.cpp **** 			{1287.67 , 4310},
 361:Core/Src/robot/play.cpp **** 			{1298.04 , 4320},
 362:Core/Src/robot/play.cpp **** 			{1308.38 , 4330},
 363:Core/Src/robot/play.cpp **** 			{1318.69 , 4340},
 364:Core/Src/robot/play.cpp **** 			{1328.96 , 4350},
 365:Core/Src/robot/play.cpp **** 			{1339.18 , 4360},
 366:Core/Src/robot/play.cpp **** 			{1349.34 , 4370},
 367:Core/Src/robot/play.cpp **** 			{1359.46 , 4380},
 368:Core/Src/robot/play.cpp **** 			{1369.52 , 4390},
 369:Core/Src/robot/play.cpp **** 			{1379.51 , 4400},
 370:Core/Src/robot/play.cpp **** 			{1389.43 , 4410},
 371:Core/Src/robot/play.cpp **** 			{1399.29 , 4420},
 372:Core/Src/robot/play.cpp **** 			{1409.06 , 4430},
 373:Core/Src/robot/play.cpp **** 			{1418.76 , 4440},
 374:Core/Src/robot/play.cpp **** 			{1428.37 , 4450},
 375:Core/Src/robot/play.cpp **** 			{1437.89 , 4460},
 376:Core/Src/robot/play.cpp **** 			{1447.32 , 4470},
 377:Core/Src/robot/play.cpp **** 			{1456.65 , 4480},
 378:Core/Src/robot/play.cpp **** 			{1465.88 , 4490},
 379:Core/Src/robot/play.cpp **** 			{1475 , 4500},
 380:Core/Src/robot/play.cpp **** 			{1484.01 , 4510},
 381:Core/Src/robot/play.cpp **** 			{1492.91 , 4520},
 382:Core/Src/robot/play.cpp **** 			{1501.7 , 4530},
 383:Core/Src/robot/play.cpp **** 			{1510.36 , 4540},
 384:Core/Src/robot/play.cpp **** 			{1518.89 , 4550},
 385:Core/Src/robot/play.cpp **** 			{1527.3 , 4560},
 386:Core/Src/robot/play.cpp **** 			{1535.57 , 4570},
 387:Core/Src/robot/play.cpp **** 			{1543.71 , 4580},
 388:Core/Src/robot/play.cpp **** 			{1551.71 , 4590},
 389:Core/Src/robot/play.cpp **** 			{1559.57 , 4600},
 390:Core/Src/robot/play.cpp **** 			{1567.27 , 4610},
 391:Core/Src/robot/play.cpp **** 			{1574.83 , 4620},
 392:Core/Src/robot/play.cpp **** 			{1582.24 , 4630},
 393:Core/Src/robot/play.cpp **** 			{1589.48 , 4640},
 394:Core/Src/robot/play.cpp **** 			{1596.57 , 4650},
 395:Core/Src/robot/play.cpp **** 			{1603.5 , 4660},
 396:Core/Src/robot/play.cpp **** 			{1610.26 , 4670},
 397:Core/Src/robot/play.cpp **** 			{1616.85 , 4680},
 398:Core/Src/robot/play.cpp **** 			{1623.27 , 4690},
 399:Core/Src/robot/play.cpp **** 			{1629.51 , 4700},
 400:Core/Src/robot/play.cpp **** 			{1635.57 , 4710},
 401:Core/Src/robot/play.cpp **** 			{1641.46 , 4720},
ARM GAS  C:\Users\Prashant\AppData\Local\Temp\cczsYW6b.s 			page 12


 402:Core/Src/robot/play.cpp **** 			{1647.16 , 4730},
 403:Core/Src/robot/play.cpp **** 			{1652.68 , 4740},
 404:Core/Src/robot/play.cpp **** 			{1658.01 , 4750},
 405:Core/Src/robot/play.cpp **** 			{1663.15 , 4760},
 406:Core/Src/robot/play.cpp **** 			{1668.1 , 4770},
 407:Core/Src/robot/play.cpp **** 			{1672.86 , 4780},
 408:Core/Src/robot/play.cpp **** 			{1677.41 , 4790},
 409:Core/Src/robot/play.cpp **** 			{1681.77 , 4800},
 410:Core/Src/robot/play.cpp **** 			{1685.93 , 4810},
 411:Core/Src/robot/play.cpp **** 			{1689.89 , 4820},
 412:Core/Src/robot/play.cpp **** 			{1693.64 , 4830},
 413:Core/Src/robot/play.cpp **** 			{1697.19 , 4840},
 414:Core/Src/robot/play.cpp **** 			{1700.53 , 4850},
 415:Core/Src/robot/play.cpp **** 			{1703.66 , 4860},
 416:Core/Src/robot/play.cpp **** 			{1706.58 , 4870},
 417:Core/Src/robot/play.cpp **** 			{1709.29 , 4880},
 418:Core/Src/robot/play.cpp **** 			{1711.79 , 4890},
 419:Core/Src/robot/play.cpp **** 			{1714.07 , 4900},
 420:Core/Src/robot/play.cpp **** 			{1716.14 , 4910},
 421:Core/Src/robot/play.cpp **** 			{1718 , 4920},
 422:Core/Src/robot/play.cpp **** 			{1719.64 , 4930},
 423:Core/Src/robot/play.cpp **** 			{1721.06 , 4940},
 424:Core/Src/robot/play.cpp **** 			{1722.26 , 4950},
 425:Core/Src/robot/play.cpp **** 			{1723.25 , 4960},
 426:Core/Src/robot/play.cpp **** 			{1724.01 , 4970},
 427:Core/Src/robot/play.cpp **** 			{1724.56 , 4980},
 428:Core/Src/robot/play.cpp **** 			{1724.89 , 4990},
 429:Core/Src/robot/play.cpp **** 			{1725 , 5000},
 430:Core/Src/robot/play.cpp **** 			{1724.89 , 5010},
 431:Core/Src/robot/play.cpp **** 			{1724.56 , 5020},
 432:Core/Src/robot/play.cpp **** 			{1724.01 , 5030},
 433:Core/Src/robot/play.cpp **** 			{1723.25 , 5040},
 434:Core/Src/robot/play.cpp **** 			{1722.26 , 5050},
 435:Core/Src/robot/play.cpp **** 			{1721.06 , 5060},
 436:Core/Src/robot/play.cpp **** 			{1719.64 , 5070},
 437:Core/Src/robot/play.cpp **** 			{1718 , 5080},
 438:Core/Src/robot/play.cpp **** 			{1716.14 , 5090},
 439:Core/Src/robot/play.cpp **** 			{1714.07 , 5100},
 440:Core/Src/robot/play.cpp **** 			{1711.79 , 5110},
 441:Core/Src/robot/play.cpp **** 			{1709.29 , 5120},
 442:Core/Src/robot/play.cpp **** 			{1706.58 , 5130},
 443:Core/Src/robot/play.cpp **** 			{1703.66 , 5140},
 444:Core/Src/robot/play.cpp **** 			{1700.53 , 5150},
 445:Core/Src/robot/play.cpp **** 			{1697.19 , 5160},
 446:Core/Src/robot/play.cpp **** 			{1693.64 , 5170},
 447:Core/Src/robot/play.cpp **** 			{1689.89 , 5180},
 448:Core/Src/robot/play.cpp **** 			{1685.93 , 5190},
 449:Core/Src/robot/play.cpp **** 			{1681.77 , 5200},
 450:Core/Src/robot/play.cpp **** 			{1677.41 , 5210},
 451:Core/Src/robot/play.cpp **** 			{1672.86 , 5220},
 452:Core/Src/robot/play.cpp **** 			{1668.1 , 5230},
 453:Core/Src/robot/play.cpp **** 			{1663.15 , 5240},
 454:Core/Src/robot/play.cpp **** 			{1658.01 , 5250},
 455:Core/Src/robot/play.cpp **** 			{1652.68 , 5260},
 456:Core/Src/robot/play.cpp **** 			{1647.16 , 5270},
 457:Core/Src/robot/play.cpp **** 			{1641.46 , 5280},
 458:Core/Src/robot/play.cpp **** 			{1635.57 , 5290},
ARM GAS  C:\Users\Prashant\AppData\Local\Temp\cczsYW6b.s 			page 13


 459:Core/Src/robot/play.cpp **** 			{1629.51 , 5300},
 460:Core/Src/robot/play.cpp **** 			{1623.27 , 5310},
 461:Core/Src/robot/play.cpp **** 			{1616.85 , 5320},
 462:Core/Src/robot/play.cpp **** 			{1610.26 , 5330},
 463:Core/Src/robot/play.cpp **** 			{1603.5 , 5340},
 464:Core/Src/robot/play.cpp **** 			{1596.57 , 5350},
 465:Core/Src/robot/play.cpp **** 			{1589.48 , 5360},
 466:Core/Src/robot/play.cpp **** 			{1582.24 , 5370},
 467:Core/Src/robot/play.cpp **** 			{1574.83 , 5380},
 468:Core/Src/robot/play.cpp **** 			{1567.27 , 5390},
 469:Core/Src/robot/play.cpp **** 			{1559.57 , 5400},
 470:Core/Src/robot/play.cpp **** 			{1551.71 , 5410},
 471:Core/Src/robot/play.cpp **** 			{1543.71 , 5420},
 472:Core/Src/robot/play.cpp **** 			{1535.57 , 5430},
 473:Core/Src/robot/play.cpp **** 			{1527.3 , 5440},
 474:Core/Src/robot/play.cpp **** 			{1518.89 , 5450},
 475:Core/Src/robot/play.cpp **** 			{1510.36 , 5460},
 476:Core/Src/robot/play.cpp **** 			{1501.7 , 5470},
 477:Core/Src/robot/play.cpp **** 			{1492.91 , 5480},
 478:Core/Src/robot/play.cpp **** 			{1484.01 , 5490},
 479:Core/Src/robot/play.cpp **** 			{1475 , 5500},
 480:Core/Src/robot/play.cpp **** 			{1465.88 , 5510},
 481:Core/Src/robot/play.cpp **** 			{1456.65 , 5520},
 482:Core/Src/robot/play.cpp **** 			{1447.32 , 5530},
 483:Core/Src/robot/play.cpp **** 			{1437.89 , 5540},
 484:Core/Src/robot/play.cpp **** 			{1428.37 , 5550},
 485:Core/Src/robot/play.cpp **** 			{1418.76 , 5560},
 486:Core/Src/robot/play.cpp **** 			{1409.06 , 5570},
 487:Core/Src/robot/play.cpp **** 			{1399.29 , 5580},
 488:Core/Src/robot/play.cpp **** 			{1389.43 , 5590},
 489:Core/Src/robot/play.cpp **** 			{1379.51 , 5600},
 490:Core/Src/robot/play.cpp **** 			{1369.52 , 5610},
 491:Core/Src/robot/play.cpp **** 			{1359.46 , 5620},
 492:Core/Src/robot/play.cpp **** 			{1349.34 , 5630},
 493:Core/Src/robot/play.cpp **** 			{1339.18 , 5640},
 494:Core/Src/robot/play.cpp **** 			{1328.96 , 5650},
 495:Core/Src/robot/play.cpp **** 			{1318.69 , 5660},
 496:Core/Src/robot/play.cpp **** 			{1308.38 , 5670},
 497:Core/Src/robot/play.cpp **** 			{1298.04 , 5680},
 498:Core/Src/robot/play.cpp **** 			{1287.67 , 5690},
 499:Core/Src/robot/play.cpp **** 			{1277.26 , 5700},
 500:Core/Src/robot/play.cpp **** 			{1266.84 , 5710},
 501:Core/Src/robot/play.cpp **** 			{1256.4 , 5720},
 502:Core/Src/robot/play.cpp **** 			{1245.94 , 5730},
 503:Core/Src/robot/play.cpp **** 			{1235.47 , 5740},
 504:Core/Src/robot/play.cpp **** 			{1225 , 5750},
 505:Core/Src/robot/play.cpp **** 			{1225 , 5760},
 506:Core/Src/robot/play.cpp **** 			{1225 , 5770},
 507:Core/Src/robot/play.cpp **** 			{1225 , 5780},
 508:Core/Src/robot/play.cpp **** 			{1225 , 5790},
 509:Core/Src/robot/play.cpp **** 			{1225 , 5800},
 510:Core/Src/robot/play.cpp **** 			{1225 , 5810},
 511:Core/Src/robot/play.cpp **** 			{1225 , 5820},
 512:Core/Src/robot/play.cpp **** 			{1225 , 5830},
 513:Core/Src/robot/play.cpp **** 			{1225 , 5840},
 514:Core/Src/robot/play.cpp **** 			{1225 , 5850},
 515:Core/Src/robot/play.cpp **** 			{1225 , 5860},
ARM GAS  C:\Users\Prashant\AppData\Local\Temp\cczsYW6b.s 			page 14


 516:Core/Src/robot/play.cpp **** 			{1225 , 5870},
 517:Core/Src/robot/play.cpp **** 			{1225 , 5880},
 518:Core/Src/robot/play.cpp **** 			{1225 , 5890},
 519:Core/Src/robot/play.cpp **** 			{1225 , 5900},
 520:Core/Src/robot/play.cpp **** 			{1225 , 5910},
 521:Core/Src/robot/play.cpp **** 			{1225 , 5920},
 522:Core/Src/robot/play.cpp **** 			{1225 , 5930},
 523:Core/Src/robot/play.cpp **** 			{1225 , 5940},
 524:Core/Src/robot/play.cpp **** 			{1225 , 5950},
 525:Core/Src/robot/play.cpp **** 			{1225 , 5960},
 526:Core/Src/robot/play.cpp **** 			{1225 , 5970},
 527:Core/Src/robot/play.cpp **** 			{1225 , 5980},
 528:Core/Src/robot/play.cpp **** 			{1225 , 5990},
 529:Core/Src/robot/play.cpp **** 			{1225 , 6000},
 530:Core/Src/robot/play.cpp **** 			{1225 , 6010},
 531:Core/Src/robot/play.cpp **** 			{1225 , 6020},
 532:Core/Src/robot/play.cpp **** 			{1225 , 6030},
 533:Core/Src/robot/play.cpp **** 			{1225 , 6040},
 534:Core/Src/robot/play.cpp **** 			{1225 , 6050},
 535:Core/Src/robot/play.cpp **** 			{1225 , 6060},
 536:Core/Src/robot/play.cpp **** 			{1225 , 6070},
 537:Core/Src/robot/play.cpp **** 			{1225 , 6080},
 538:Core/Src/robot/play.cpp **** 			{1225 , 6090},
 539:Core/Src/robot/play.cpp **** 			{1225 , 6100},
 540:Core/Src/robot/play.cpp **** 			{1225 , 6110},
 541:Core/Src/robot/play.cpp **** 			{1225 , 6120},
 542:Core/Src/robot/play.cpp **** 			{1225 , 6130},
 543:Core/Src/robot/play.cpp **** 			{1225 , 6140},
 544:Core/Src/robot/play.cpp **** 			{1225 , 6150},
 545:Core/Src/robot/play.cpp **** 			{1225 , 6160},
 546:Core/Src/robot/play.cpp **** 			{1225 , 6170},
 547:Core/Src/robot/play.cpp **** 			{1225 , 6180},
 548:Core/Src/robot/play.cpp **** 			{1225 , 6190},
 549:Core/Src/robot/play.cpp **** 			{1225 , 6200},
 550:Core/Src/robot/play.cpp **** 			{1225 , 6210},
 551:Core/Src/robot/play.cpp **** 			{1225 , 6220},
 552:Core/Src/robot/play.cpp **** 			{1225 , 6230},
 553:Core/Src/robot/play.cpp **** 			{1225 , 6240},
 554:Core/Src/robot/play.cpp **** 			{1225 , 6250},
 555:Core/Src/robot/play.cpp **** 			{1225 , 6260},
 556:Core/Src/robot/play.cpp **** 			{1225 , 6270},
 557:Core/Src/robot/play.cpp **** 			{1225 , 6280},
 558:Core/Src/robot/play.cpp **** 			{1225 , 6290},
 559:Core/Src/robot/play.cpp **** 			{1225 , 6300},
 560:Core/Src/robot/play.cpp **** 			{1225 , 6310},
 561:Core/Src/robot/play.cpp **** 			{1225 , 6320},
 562:Core/Src/robot/play.cpp **** 			{1225 , 6330},
 563:Core/Src/robot/play.cpp **** 			{1225 , 6340},
 564:Core/Src/robot/play.cpp **** 			{1225 , 6350},
 565:Core/Src/robot/play.cpp **** 			{1225 , 6360},
 566:Core/Src/robot/play.cpp **** 			{1225 , 6370},
 567:Core/Src/robot/play.cpp **** 			{1225 , 6380},
 568:Core/Src/robot/play.cpp **** 			{1225 , 6390},
 569:Core/Src/robot/play.cpp **** 			{1225 , 6400},
 570:Core/Src/robot/play.cpp **** 			{1225 , 6410},
 571:Core/Src/robot/play.cpp **** 			{1225 , 6420},
 572:Core/Src/robot/play.cpp **** 			{1225 , 6430},
ARM GAS  C:\Users\Prashant\AppData\Local\Temp\cczsYW6b.s 			page 15


 573:Core/Src/robot/play.cpp **** 			{1225 , 6440},
 574:Core/Src/robot/play.cpp **** 			{1225 , 6450},
 575:Core/Src/robot/play.cpp **** 			{1225 , 6460},
 576:Core/Src/robot/play.cpp **** 			{1225 , 6470},
 577:Core/Src/robot/play.cpp **** 			{1225 , 6480},
 578:Core/Src/robot/play.cpp **** 			{1225 , 6490},
 579:Core/Src/robot/play.cpp **** 			{1225 , 6500},
 580:Core/Src/robot/play.cpp **** 			{1225 , 6510},
 581:Core/Src/robot/play.cpp **** 			{1225 , 6520},
 582:Core/Src/robot/play.cpp **** 			{1225 , 6530},
 583:Core/Src/robot/play.cpp **** 			{1225 , 6540},
 584:Core/Src/robot/play.cpp **** 			{1225 , 6550},
 585:Core/Src/robot/play.cpp **** 			{1225 , 6560},
 586:Core/Src/robot/play.cpp **** 			{1225 , 6570},
 587:Core/Src/robot/play.cpp **** 			{1225 , 6580},
 588:Core/Src/robot/play.cpp **** 			{1225 , 6590},
 589:Core/Src/robot/play.cpp **** 			{1225 , 6600},
 590:Core/Src/robot/play.cpp **** 			{1225 , 6610},
 591:Core/Src/robot/play.cpp **** 			{1225 , 6620},
 592:Core/Src/robot/play.cpp **** 			{1225 , 6630},
 593:Core/Src/robot/play.cpp **** 			{1225 , 6640},
 594:Core/Src/robot/play.cpp **** 			{1225 , 6650},
 595:Core/Src/robot/play.cpp **** 			{1225 , 6660},
 596:Core/Src/robot/play.cpp **** 			{1225 , 6670},
 597:Core/Src/robot/play.cpp **** 			{1225 , 6680},
 598:Core/Src/robot/play.cpp **** 			{1225 , 6690},
 599:Core/Src/robot/play.cpp **** 			{1225 , 6700},
 600:Core/Src/robot/play.cpp **** 			{1225 , 6710},
 601:Core/Src/robot/play.cpp **** 			{1225 , 6720},
 602:Core/Src/robot/play.cpp **** 			{1225 , 6730},
 603:Core/Src/robot/play.cpp **** 			{1225 , 6740},
 604:Core/Src/robot/play.cpp **** 			{1225 , 6750},
 605:Core/Src/robot/play.cpp **** 			{1225 , 6760},
 606:Core/Src/robot/play.cpp **** 			{1225 , 6770},
 607:Core/Src/robot/play.cpp **** 			{1225 , 6780},
 608:Core/Src/robot/play.cpp **** 			{1225 , 6790},
 609:Core/Src/robot/play.cpp **** 			{1225 , 6800},
 610:Core/Src/robot/play.cpp **** 			{1225 , 6810},
 611:Core/Src/robot/play.cpp **** 			{1225 , 6820},
 612:Core/Src/robot/play.cpp **** 			{1225 , 6830},
 613:Core/Src/robot/play.cpp **** 			{1225 , 6840},
 614:Core/Src/robot/play.cpp **** 			{1225 , 6850},
 615:Core/Src/robot/play.cpp **** 			{1225 , 6860},
 616:Core/Src/robot/play.cpp **** 			{1225 , 6870},
 617:Core/Src/robot/play.cpp **** 			{1225 , 6880},
 618:Core/Src/robot/play.cpp **** 			{1225 , 6890},
 619:Core/Src/robot/play.cpp **** 			{1225 , 6900},
 620:Core/Src/robot/play.cpp **** 			{1225 , 6910},
 621:Core/Src/robot/play.cpp **** 			{1225 , 6920},
 622:Core/Src/robot/play.cpp **** 			{1225 , 6930},
 623:Core/Src/robot/play.cpp **** 			{1225 , 6940},
 624:Core/Src/robot/play.cpp **** 			{1225 , 6950},
 625:Core/Src/robot/play.cpp **** 			{1225 , 6960},
 626:Core/Src/robot/play.cpp **** 			{1225 , 6970},
 627:Core/Src/robot/play.cpp **** 			{1225 , 6980},
 628:Core/Src/robot/play.cpp **** 			{1225 , 6990},
 629:Core/Src/robot/play.cpp **** 			{1225 , 7000},
ARM GAS  C:\Users\Prashant\AppData\Local\Temp\cczsYW6b.s 			page 16


 630:Core/Src/robot/play.cpp **** 			{1225 , 7010},
 631:Core/Src/robot/play.cpp **** 			{1225 , 7020},
 632:Core/Src/robot/play.cpp **** 			{1225 , 7030},
 633:Core/Src/robot/play.cpp **** 			{1225 , 7040},
 634:Core/Src/robot/play.cpp **** 			{1225 , 7050},
 635:Core/Src/robot/play.cpp **** 			{1225 , 7060},
 636:Core/Src/robot/play.cpp **** 			{1225 , 7070},
 637:Core/Src/robot/play.cpp **** 			{1225 , 7080},
 638:Core/Src/robot/play.cpp **** 			{1225 , 7090},
 639:Core/Src/robot/play.cpp **** 			{1225 , 7100},
 640:Core/Src/robot/play.cpp **** 			{1225 , 7110},
 641:Core/Src/robot/play.cpp **** 			{1225 , 7120},
 642:Core/Src/robot/play.cpp **** 			{1225 , 7130},
 643:Core/Src/robot/play.cpp **** 			{1225 , 7140},
 644:Core/Src/robot/play.cpp **** 			{1225 , 7150},
 645:Core/Src/robot/play.cpp **** 			{1225 , 7160},
 646:Core/Src/robot/play.cpp **** 			{1225 , 7170},
 647:Core/Src/robot/play.cpp **** 			{1225 , 7180},
 648:Core/Src/robot/play.cpp **** 			{1225 , 7190},
 649:Core/Src/robot/play.cpp **** 			{1225 , 7200},
 650:Core/Src/robot/play.cpp **** 			{1225 , 7210},
 651:Core/Src/robot/play.cpp **** 			{1225 , 7220},
 652:Core/Src/robot/play.cpp **** 			{1225 , 7230},
 653:Core/Src/robot/play.cpp **** 			{1225 , 7240},
 654:Core/Src/robot/play.cpp **** 			{1225 , 7250},
 655:Core/Src/robot/play.cpp **** 			{1225 , 7260},
 656:Core/Src/robot/play.cpp **** 			{1225 , 7270},
 657:Core/Src/robot/play.cpp **** 			{1225 , 7280},
 658:Core/Src/robot/play.cpp **** 			{1225 , 7290},
 659:Core/Src/robot/play.cpp **** 			{1225 , 7300},
 660:Core/Src/robot/play.cpp **** 			{1225 , 7310},
 661:Core/Src/robot/play.cpp **** 			{1225 , 7320},
 662:Core/Src/robot/play.cpp **** 			{1225 , 7330},
 663:Core/Src/robot/play.cpp **** 			{1225 , 7340},
 664:Core/Src/robot/play.cpp **** 			{1225 , 7350},
 665:Core/Src/robot/play.cpp **** 			{1225 , 7360},
 666:Core/Src/robot/play.cpp **** 			{1225 , 7370},
 667:Core/Src/robot/play.cpp **** 			{1225 , 7380},
 668:Core/Src/robot/play.cpp **** 			{1225 , 7390},
 669:Core/Src/robot/play.cpp **** 			{1225 , 7400},
 670:Core/Src/robot/play.cpp **** 			{1225 , 7410},
 671:Core/Src/robot/play.cpp **** 			{1225 , 7420},
 672:Core/Src/robot/play.cpp **** 			{1225 , 7430},
 673:Core/Src/robot/play.cpp **** 			{1225 , 7440},
 674:Core/Src/robot/play.cpp **** 			{1225 , 7450},
 675:Core/Src/robot/play.cpp **** 			{1225 , 7460},
 676:Core/Src/robot/play.cpp **** 			{1225 , 7470},
 677:Core/Src/robot/play.cpp **** 			{1225 , 7480},
 678:Core/Src/robot/play.cpp **** 			{1225 , 7490},
 679:Core/Src/robot/play.cpp **** 			{1225 , 7500},
 680:Core/Src/robot/play.cpp **** 			{1225 , 7510},
 681:Core/Src/robot/play.cpp **** 			{1225 , 7520},
 682:Core/Src/robot/play.cpp **** 			{1225 , 7530},
 683:Core/Src/robot/play.cpp **** 			{1225 , 7540},
 684:Core/Src/robot/play.cpp **** 			{1225 , 7550},
 685:Core/Src/robot/play.cpp **** 			{1225 , 7560},
 686:Core/Src/robot/play.cpp **** 			{1225 , 7570},
ARM GAS  C:\Users\Prashant\AppData\Local\Temp\cczsYW6b.s 			page 17


 687:Core/Src/robot/play.cpp **** 			{1225 , 7580},
 688:Core/Src/robot/play.cpp **** 			{1225 , 7590},
 689:Core/Src/robot/play.cpp **** 			{1225 , 7600},
 690:Core/Src/robot/play.cpp **** 			{1225 , 7610},
 691:Core/Src/robot/play.cpp **** 			{1225 , 7620},
 692:Core/Src/robot/play.cpp **** 			{1225 , 7630},
 693:Core/Src/robot/play.cpp **** 			{1225 , 7640},
 694:Core/Src/robot/play.cpp **** 			{1225 , 7650},
 695:Core/Src/robot/play.cpp **** 			{1225 , 7660},
 696:Core/Src/robot/play.cpp **** 			{1225 , 7670},
 697:Core/Src/robot/play.cpp **** 			{1225 , 7680},
 698:Core/Src/robot/play.cpp **** 			{1225 , 7690},
 699:Core/Src/robot/play.cpp **** 			{1225 , 7700},
 700:Core/Src/robot/play.cpp **** 			{1225 , 7710},
 701:Core/Src/robot/play.cpp **** 			{1225 , 7720},
 702:Core/Src/robot/play.cpp **** 			{1225 , 7730},
 703:Core/Src/robot/play.cpp **** 			{1225 , 7740},
 704:Core/Src/robot/play.cpp **** 			{1225 , 7750},
 705:Core/Src/robot/play.cpp **** 			{1225 , 7760},
 706:Core/Src/robot/play.cpp **** 			{1225 , 7770},
 707:Core/Src/robot/play.cpp **** 			{1225 , 7780},
 708:Core/Src/robot/play.cpp **** 			{1225 , 7790},
 709:Core/Src/robot/play.cpp **** 			{1225 , 7800},
 710:Core/Src/robot/play.cpp **** 			{1225 , 7810},
 711:Core/Src/robot/play.cpp **** 			{1225 , 7820},
 712:Core/Src/robot/play.cpp **** 			{1225 , 7830},
 713:Core/Src/robot/play.cpp **** 			{1225 , 7840},
 714:Core/Src/robot/play.cpp **** 			{1225 , 7850},
 715:Core/Src/robot/play.cpp **** 			{1225 , 7860},
 716:Core/Src/robot/play.cpp **** 			{1225 , 7870},
 717:Core/Src/robot/play.cpp **** 			{1225 , 7880},
 718:Core/Src/robot/play.cpp **** 			{1225 , 7890},
 719:Core/Src/robot/play.cpp **** 			{1225 , 7900},
 720:Core/Src/robot/play.cpp **** 			{1225 , 7910},
 721:Core/Src/robot/play.cpp **** 			{1225 , 7920},
 722:Core/Src/robot/play.cpp **** 			{1225 , 7930},
 723:Core/Src/robot/play.cpp **** 			{1225 , 7940},
 724:Core/Src/robot/play.cpp **** 			{1225 , 7950},
 725:Core/Src/robot/play.cpp **** 			{1225 , 7960},
 726:Core/Src/robot/play.cpp **** 			{1225 , 7970},
 727:Core/Src/robot/play.cpp **** 			{1225 , 7980},
 728:Core/Src/robot/play.cpp **** 			{1225 , 7990},
 729:Core/Src/robot/play.cpp **** 			{1225 , 8000},
 730:Core/Src/robot/play.cpp **** 			{1235 , 8141.07},
 731:Core/Src/robot/play.cpp **** 			{1245 , 8199},
 732:Core/Src/robot/play.cpp **** 			{1255 , 8243.1},
 733:Core/Src/robot/play.cpp **** 			{1265 , 8280},
 734:Core/Src/robot/play.cpp **** 			{1275 , 8312.25},
 735:Core/Src/robot/play.cpp **** 			{1285 , 8341.17},
 736:Core/Src/robot/play.cpp **** 			{1295 , 8367.56},
 737:Core/Src/robot/play.cpp **** 			{1305 , 8391.92},
 738:Core/Src/robot/play.cpp **** 			{1315 , 8414.61},
 739:Core/Src/robot/play.cpp **** 			{1325 , 8435.89},
 740:Core/Src/robot/play.cpp **** 			{1335 , 8455.96},
 741:Core/Src/robot/play.cpp **** 			{1345 , 8474.97},
 742:Core/Src/robot/play.cpp **** 			{1355 , 8493.05},
 743:Core/Src/robot/play.cpp **** 			{1365 , 8510.29},
ARM GAS  C:\Users\Prashant\AppData\Local\Temp\cczsYW6b.s 			page 18


 744:Core/Src/robot/play.cpp **** 			{1375 , 8526.78},
 745:Core/Src/robot/play.cpp **** 			{1385 , 8542.59},
 746:Core/Src/robot/play.cpp **** 			{1395 , 8557.76},
 747:Core/Src/robot/play.cpp **** 			{1405 , 8572.36},
 748:Core/Src/robot/play.cpp **** 			{1415 , 8586.43},
 749:Core/Src/robot/play.cpp **** 			{1425 , 8600},
 750:Core/Src/robot/play.cpp **** 			{1435 , 8613.11},
 751:Core/Src/robot/play.cpp **** 			{1445 , 8625.78},
 752:Core/Src/robot/play.cpp **** 			{1455 , 8638.04},
 753:Core/Src/robot/play.cpp **** 			{1465 , 8649.92},
 754:Core/Src/robot/play.cpp **** 			{1475 , 8661.44},
 755:Core/Src/robot/play.cpp **** 			{1485 , 8672.61},
 756:Core/Src/robot/play.cpp **** 			{1495 , 8683.45},
 757:Core/Src/robot/play.cpp **** 			{1505 , 8693.97},
 758:Core/Src/robot/play.cpp **** 			{1515 , 8704.2},
 759:Core/Src/robot/play.cpp **** 			{1525 , 8714.14},
 760:Core/Src/robot/play.cpp **** 			{1535 , 8723.81},
 761:Core/Src/robot/play.cpp **** 			{1545 , 8733.21},
 762:Core/Src/robot/play.cpp **** 			{1555 , 8742.36},
 763:Core/Src/robot/play.cpp **** 			{1565 , 8751.27},
 764:Core/Src/robot/play.cpp **** 			{1575 , 8759.93},
 765:Core/Src/robot/play.cpp **** 			{1585 , 8768.38},
 766:Core/Src/robot/play.cpp **** 			{1595 , 8776.59},
 767:Core/Src/robot/play.cpp **** 			{1605 , 8784.6},
 768:Core/Src/robot/play.cpp **** 			{1615 , 8792.4},
 769:Core/Src/robot/play.cpp **** 			{1625 , 8800},
 770:Core/Src/robot/play.cpp **** 			{1635 , 8807.4},
 771:Core/Src/robot/play.cpp **** 			{1645 , 8814.62},
 772:Core/Src/robot/play.cpp **** 			{1655 , 8821.64},
 773:Core/Src/robot/play.cpp **** 			{1665 , 8828.49},
 774:Core/Src/robot/play.cpp **** 			{1675 , 8835.17},
 775:Core/Src/robot/play.cpp **** 			{1685 , 8841.67},
 776:Core/Src/robot/play.cpp **** 			{1695 , 8848},
 777:Core/Src/robot/play.cpp **** 			{1705 , 8854.17},
 778:Core/Src/robot/play.cpp **** 			{1715 , 8860.17},
 779:Core/Src/robot/play.cpp **** 			{1725 , 8866.03},
 780:Core/Src/robot/play.cpp **** 			{1735 , 8871.72},
 781:Core/Src/robot/play.cpp **** 			{1745 , 8877.27},
 782:Core/Src/robot/play.cpp **** 			{1755 , 8882.67},
 783:Core/Src/robot/play.cpp **** 			{1765 , 8887.92},
 784:Core/Src/robot/play.cpp **** 			{1775 , 8893.03},
 785:Core/Src/robot/play.cpp **** 			{1785 , 8898},
 786:Core/Src/robot/play.cpp **** 			{1795 , 8902.83},
 787:Core/Src/robot/play.cpp **** 			{1805 , 8907.52},
 788:Core/Src/robot/play.cpp **** 			{1815 , 8912.09},
 789:Core/Src/robot/play.cpp **** 			{1825 , 8916.52},
 790:Core/Src/robot/play.cpp **** 			{1835 , 8920.81},
 791:Core/Src/robot/play.cpp **** 			{1845 , 8924.99},
 792:Core/Src/robot/play.cpp **** 			{1855 , 8929.03},
 793:Core/Src/robot/play.cpp **** 			{1865 , 8932.95},
 794:Core/Src/robot/play.cpp **** 			{1875 , 8936.75},
 795:Core/Src/robot/play.cpp **** 			{1885 , 8940.43},
 796:Core/Src/robot/play.cpp **** 			{1895 , 8943.98},
 797:Core/Src/robot/play.cpp **** 			{1905 , 8947.42},
 798:Core/Src/robot/play.cpp **** 			{1915 , 8950.74},
 799:Core/Src/robot/play.cpp **** 			{1925 , 8953.94},
 800:Core/Src/robot/play.cpp **** 			{1935 , 8957.03},
ARM GAS  C:\Users\Prashant\AppData\Local\Temp\cczsYW6b.s 			page 19


 801:Core/Src/robot/play.cpp **** 			{1945 , 8960},
 802:Core/Src/robot/play.cpp **** 			{1955 , 8962.86},
 803:Core/Src/robot/play.cpp **** 			{1965 , 8965.61},
 804:Core/Src/robot/play.cpp **** 			{1975 , 8968.25},
 805:Core/Src/robot/play.cpp **** 			{1985 , 8970.77},
 806:Core/Src/robot/play.cpp **** 			{1995 , 8973.19},
 807:Core/Src/robot/play.cpp **** 			{2005 , 8975.5},
 808:Core/Src/robot/play.cpp **** 			{2015 , 8977.7},
 809:Core/Src/robot/play.cpp **** 			{2025 , 8979.8},
 810:Core/Src/robot/play.cpp **** 			{2035 , 8981.78},
 811:Core/Src/robot/play.cpp **** 			{2045 , 8983.67},
 812:Core/Src/robot/play.cpp **** 			{2055 , 8985.44},
 813:Core/Src/robot/play.cpp **** 			{2065 , 8987.12},
 814:Core/Src/robot/play.cpp **** 			{2075 , 8988.69},
 815:Core/Src/robot/play.cpp **** 			{2085 , 8990.15},
 816:Core/Src/robot/play.cpp **** 			{2095 , 8991.51},
 817:Core/Src/robot/play.cpp **** 			{2105 , 8992.77},
 818:Core/Src/robot/play.cpp **** 			{2115 , 8993.93},
 819:Core/Src/robot/play.cpp **** 			{2125 , 8994.99},
 820:Core/Src/robot/play.cpp **** 			{2135 , 8995.94},
 821:Core/Src/robot/play.cpp **** 			{2145 , 8996.79},
 822:Core/Src/robot/play.cpp **** 			{2155 , 8997.55},
 823:Core/Src/robot/play.cpp **** 			{2165 , 8998.2},
 824:Core/Src/robot/play.cpp **** 			{2175 , 8998.75},
 825:Core/Src/robot/play.cpp **** 			{2185 , 8999.2},
 826:Core/Src/robot/play.cpp **** 			{2195 , 8999.55},
 827:Core/Src/robot/play.cpp **** 			{2205 , 8999.8},
 828:Core/Src/robot/play.cpp **** 			{2215 , 8999.95},
 829:Core/Src/robot/play.cpp **** 			{2225 , 9000},
 830:Core/Src/robot/play.cpp **** 			{2235 , 9000},
 831:Core/Src/robot/play.cpp **** 			{2245 , 9000},
 832:Core/Src/robot/play.cpp **** 			{2255 , 9000},
 833:Core/Src/robot/play.cpp **** 			{2265 , 9000},
 834:Core/Src/robot/play.cpp **** 			{2275 , 9000},
 835:Core/Src/robot/play.cpp **** 			{2285 , 9000},
 836:Core/Src/robot/play.cpp **** 			{2295 , 9000},
 837:Core/Src/robot/play.cpp **** 			{2305 , 9000},
 838:Core/Src/robot/play.cpp **** 			{2315 , 9000},
 839:Core/Src/robot/play.cpp **** 			{2325 , 9000},
 840:Core/Src/robot/play.cpp **** 			{2335 , 9000},
 841:Core/Src/robot/play.cpp **** 			{2345 , 9000},
 842:Core/Src/robot/play.cpp **** 			{2355 , 9000},
 843:Core/Src/robot/play.cpp **** 			{2365 , 9000},
 844:Core/Src/robot/play.cpp **** 			{2375 , 9000},
 845:Core/Src/robot/play.cpp **** 			{2385 , 9000},
 846:Core/Src/robot/play.cpp **** 			{2395 , 9000},
 847:Core/Src/robot/play.cpp **** 			{2405 , 9000},
 848:Core/Src/robot/play.cpp **** 			{2415 , 9000},
 849:Core/Src/robot/play.cpp **** 			{2425 , 9000},
 850:Core/Src/robot/play.cpp **** 			{2435 , 9000},
 851:Core/Src/robot/play.cpp **** 			{2445 , 9000},
 852:Core/Src/robot/play.cpp **** 			{2455 , 9000},
 853:Core/Src/robot/play.cpp **** 			{2465 , 9000},
 854:Core/Src/robot/play.cpp **** 			{2475 , 9000},
 855:Core/Src/robot/play.cpp **** 			{2485 , 9000},
 856:Core/Src/robot/play.cpp **** 			{2495 , 9000},
 857:Core/Src/robot/play.cpp **** 			{2505 , 9000},
ARM GAS  C:\Users\Prashant\AppData\Local\Temp\cczsYW6b.s 			page 20


 858:Core/Src/robot/play.cpp **** 			{2515 , 9000},
 859:Core/Src/robot/play.cpp **** 			{2525 , 9000},
 860:Core/Src/robot/play.cpp **** 			{2535 , 9000},
 861:Core/Src/robot/play.cpp **** 			{2545 , 9000},
 862:Core/Src/robot/play.cpp **** 			{2555 , 9000},
 863:Core/Src/robot/play.cpp **** 			{2565 , 9000},
 864:Core/Src/robot/play.cpp **** 			{2575 , 9000},
 865:Core/Src/robot/play.cpp **** 			{2585 , 9000},
 866:Core/Src/robot/play.cpp **** 			{2595 , 9000},
 867:Core/Src/robot/play.cpp **** 			{2605 , 9000},
 868:Core/Src/robot/play.cpp **** 			{2615 , 9000},
 869:Core/Src/robot/play.cpp **** 			{2625 , 9000},
 870:Core/Src/robot/play.cpp **** 			{2635 , 9000},
 871:Core/Src/robot/play.cpp **** 			{2645 , 9000},
 872:Core/Src/robot/play.cpp **** 			{2655 , 9000},
 873:Core/Src/robot/play.cpp **** 			{2665 , 9000},
 874:Core/Src/robot/play.cpp **** 			{2675 , 9000},
 875:Core/Src/robot/play.cpp **** 			{2685 , 9000},
 876:Core/Src/robot/play.cpp **** 			{2695 , 9000},
 877:Core/Src/robot/play.cpp **** 			{2705 , 9000},
 878:Core/Src/robot/play.cpp **** 			{2715 , 9000},
 879:Core/Src/robot/play.cpp **** 			{2725 , 9000},
 880:Core/Src/robot/play.cpp **** 			{2735 , 9000},
 881:Core/Src/robot/play.cpp **** 			{2745 , 9000},
 882:Core/Src/robot/play.cpp **** 			{2755 , 9000},
 883:Core/Src/robot/play.cpp **** 			{2765 , 9000},
 884:Core/Src/robot/play.cpp **** 			{2775 , 9000},
 885:Core/Src/robot/play.cpp **** 			{2785 , 9000},
 886:Core/Src/robot/play.cpp **** 			{2795 , 9000},
 887:Core/Src/robot/play.cpp **** 			{2805 , 9000},
 888:Core/Src/robot/play.cpp **** 			{2815 , 9000},
 889:Core/Src/robot/play.cpp **** 			{2825 , 9000},
 890:Core/Src/robot/play.cpp **** 			{2835 , 9000},
 891:Core/Src/robot/play.cpp **** 			{2845 , 9000},
 892:Core/Src/robot/play.cpp **** 			{2855 , 9000},
 893:Core/Src/robot/play.cpp **** 			{2865 , 9000},
 894:Core/Src/robot/play.cpp **** 			{2875 , 9000},
 895:Core/Src/robot/play.cpp **** 			{2885 , 9000},
 896:Core/Src/robot/play.cpp **** 			{2895 , 9000},
 897:Core/Src/robot/play.cpp **** 			{2905 , 9000},
 898:Core/Src/robot/play.cpp **** 			{2915 , 9000},
 899:Core/Src/robot/play.cpp **** 			{2925 , 9000},
 900:Core/Src/robot/play.cpp **** 			{2935 , 9000},
 901:Core/Src/robot/play.cpp **** 			{2945 , 9000},
 902:Core/Src/robot/play.cpp **** 			{2955 , 9000},
 903:Core/Src/robot/play.cpp **** 			{2965 , 9000},
 904:Core/Src/robot/play.cpp **** 			{2975 , 9000},
 905:Core/Src/robot/play.cpp **** 			{2985 , 9000},
 906:Core/Src/robot/play.cpp **** 			{2995 , 9000},
 907:Core/Src/robot/play.cpp **** 			{3005 , 9000},
 908:Core/Src/robot/play.cpp **** 			{3015 , 9000},
 909:Core/Src/robot/play.cpp **** 			{3025 , 9000},
 910:Core/Src/robot/play.cpp **** 			{3035 , 9000},
 911:Core/Src/robot/play.cpp **** 			{3045 , 9000},
 912:Core/Src/robot/play.cpp **** 			{3055 , 9000},
 913:Core/Src/robot/play.cpp **** 			{3065 , 9000},
 914:Core/Src/robot/play.cpp **** 			{3075 , 9000},
ARM GAS  C:\Users\Prashant\AppData\Local\Temp\cczsYW6b.s 			page 21


 915:Core/Src/robot/play.cpp **** 			{3085 , 9000},
 916:Core/Src/robot/play.cpp **** 			{3095 , 9000},
 917:Core/Src/robot/play.cpp **** 			{3105 , 9000},
 918:Core/Src/robot/play.cpp **** 			{3115 , 9000},
 919:Core/Src/robot/play.cpp **** 			{3125 , 9000},
 920:Core/Src/robot/play.cpp **** 			{3135 , 9000},
 921:Core/Src/robot/play.cpp **** 			{3145 , 9000},
 922:Core/Src/robot/play.cpp **** 			{3155 , 9000},
 923:Core/Src/robot/play.cpp **** 			{3165 , 9000},
 924:Core/Src/robot/play.cpp **** 			{3175 , 9000},
 925:Core/Src/robot/play.cpp **** 			{3185 , 9000},
 926:Core/Src/robot/play.cpp **** 			{3195 , 9000},
 927:Core/Src/robot/play.cpp **** 			{3205 , 9000},
 928:Core/Src/robot/play.cpp **** 			{3215 , 9000},
 929:Core/Src/robot/play.cpp **** 			{3225 , 9000},
 930:Core/Src/robot/play.cpp **** 			{3235 , 9000},
 931:Core/Src/robot/play.cpp **** 			{3245 , 9000},
 932:Core/Src/robot/play.cpp **** 			{3255 , 9000},
 933:Core/Src/robot/play.cpp **** 			{3265 , 9000},
 934:Core/Src/robot/play.cpp **** 			{3275 , 9000},
 935:Core/Src/robot/play.cpp **** 			{3285 , 9000},
 936:Core/Src/robot/play.cpp **** 			{3295 , 9000},
 937:Core/Src/robot/play.cpp **** 			{3305 , 9000},
 938:Core/Src/robot/play.cpp **** 			{3315 , 9000},
 939:Core/Src/robot/play.cpp **** 			{3325 , 9000},
 940:Core/Src/robot/play.cpp **** 			{3335 , 9000},
 941:Core/Src/robot/play.cpp **** 			{3345 , 9000},
 942:Core/Src/robot/play.cpp **** 			{3355 , 9000},
 943:Core/Src/robot/play.cpp **** 			{3365 , 9000},
 944:Core/Src/robot/play.cpp **** 			{3375 , 9000},
 945:Core/Src/robot/play.cpp **** 			{3385 , 9000},
 946:Core/Src/robot/play.cpp **** 			{3395 , 9000},
 947:Core/Src/robot/play.cpp **** 			{3405 , 9000},
 948:Core/Src/robot/play.cpp **** 			{3415 , 9000},
 949:Core/Src/robot/play.cpp **** 			{3425 , 9000},
 950:Core/Src/robot/play.cpp **** 			{3435 , 9000},
 951:Core/Src/robot/play.cpp **** 			{3445 , 9000},
 952:Core/Src/robot/play.cpp **** 			{3455 , 9000},
 953:Core/Src/robot/play.cpp **** 			{3465 , 9000},
 954:Core/Src/robot/play.cpp **** 			{3475 , 9000},
 955:Core/Src/robot/play.cpp **** 			{3485 , 9000},
 956:Core/Src/robot/play.cpp **** 			{3495 , 9000},
 957:Core/Src/robot/play.cpp **** 			{3505 , 9000},
 958:Core/Src/robot/play.cpp **** 			{3515 , 9000},
 959:Core/Src/robot/play.cpp **** 			{3525 , 9000},
 960:Core/Src/robot/play.cpp **** 			{3535 , 9000},
 961:Core/Src/robot/play.cpp **** 			{3545 , 9000},
 962:Core/Src/robot/play.cpp **** 			{3555 , 9000},
 963:Core/Src/robot/play.cpp **** 			{3565 , 9000},
 964:Core/Src/robot/play.cpp **** 			{3575 , 9000},
 965:Core/Src/robot/play.cpp **** 			{3585 , 9000},
 966:Core/Src/robot/play.cpp **** 			{3595 , 9000},
 967:Core/Src/robot/play.cpp **** 			{3605 , 9000},
 968:Core/Src/robot/play.cpp **** 			{3615 , 9000},
 969:Core/Src/robot/play.cpp **** 			{3625 , 9000},
 970:Core/Src/robot/play.cpp **** 			{3635 , 9000},
 971:Core/Src/robot/play.cpp **** 			{3645 , 9000},
ARM GAS  C:\Users\Prashant\AppData\Local\Temp\cczsYW6b.s 			page 22


 972:Core/Src/robot/play.cpp **** 			{3655 , 9000},
 973:Core/Src/robot/play.cpp **** 			{3665 , 9000},
 974:Core/Src/robot/play.cpp **** 			{3675 , 9000},
 975:Core/Src/robot/play.cpp **** 			{3685 , 9000},
 976:Core/Src/robot/play.cpp **** 			{3695 , 9000},
 977:Core/Src/robot/play.cpp **** 			{3705 , 9000},
 978:Core/Src/robot/play.cpp **** 			{3715 , 9000},
 979:Core/Src/robot/play.cpp **** 			{3725 , 9000},
 980:Core/Src/robot/play.cpp **** 			{3735 , 9000},
 981:Core/Src/robot/play.cpp **** 			{3745 , 9000},
 982:Core/Src/robot/play.cpp **** 			{3755 , 9000},
 983:Core/Src/robot/play.cpp **** 			{3765 , 9000},
 984:Core/Src/robot/play.cpp **** 			{3775 , 9000},
 985:Core/Src/robot/play.cpp **** 			{3785 , 9000},
 986:Core/Src/robot/play.cpp **** 			{3795 , 9000},
 987:Core/Src/robot/play.cpp **** 			{3805 , 9000},
 988:Core/Src/robot/play.cpp **** 			{3815 , 9000},
 989:Core/Src/robot/play.cpp **** 			{3825 , 9000},
 990:Core/Src/robot/play.cpp **** 			{3835 , 9000},
 991:Core/Src/robot/play.cpp **** 			{3845 , 9000},
 992:Core/Src/robot/play.cpp **** 			{3855 , 9000},
 993:Core/Src/robot/play.cpp **** 			{3865 , 9000},
 994:Core/Src/robot/play.cpp **** 			{3875 , 9000},
 995:Core/Src/robot/play.cpp **** 			{3885 , 9000},
 996:Core/Src/robot/play.cpp **** 			{3895 , 9000},
 997:Core/Src/robot/play.cpp **** 			{3905 , 9000},
 998:Core/Src/robot/play.cpp **** 			{3915 , 9000},
 999:Core/Src/robot/play.cpp **** 			{3925 , 9000},
1000:Core/Src/robot/play.cpp **** 			{3935 , 9000},
1001:Core/Src/robot/play.cpp **** 			{3945 , 9000},
1002:Core/Src/robot/play.cpp **** 			{3955 , 9000},
1003:Core/Src/robot/play.cpp **** 			{3965 , 9000},
1004:Core/Src/robot/play.cpp **** 			{3975 , 9000},
1005:Core/Src/robot/play.cpp **** 			{3985 , 9000},
1006:Core/Src/robot/play.cpp **** 			{3995 , 9000},
1007:Core/Src/robot/play.cpp **** 			{4005 , 9000},
1008:Core/Src/robot/play.cpp **** 			{4015 , 9000},
1009:Core/Src/robot/play.cpp **** 			{4025 , 9000},
1010:Core/Src/robot/play.cpp **** 			{4035 , 9000},
1011:Core/Src/robot/play.cpp **** 			{4045 , 9000},
1012:Core/Src/robot/play.cpp **** 			{4055 , 9000},
1013:Core/Src/robot/play.cpp **** 			{4065 , 9000},
1014:Core/Src/robot/play.cpp **** 			{4075 , 9000},
1015:Core/Src/robot/play.cpp **** 			{4085 , 9000},
1016:Core/Src/robot/play.cpp **** 			{4095 , 9000},
1017:Core/Src/robot/play.cpp **** 			{4105 , 9000},
1018:Core/Src/robot/play.cpp **** 			{4115 , 9000},
1019:Core/Src/robot/play.cpp **** 			{4125 , 9000},
1020:Core/Src/robot/play.cpp **** 			{4135 , 9000},
1021:Core/Src/robot/play.cpp **** 			{4145 , 9000},
1022:Core/Src/robot/play.cpp **** 			{4155 , 9000},
1023:Core/Src/robot/play.cpp **** 			{4165 , 9000},
1024:Core/Src/robot/play.cpp **** 			{4175 , 9000},
1025:Core/Src/robot/play.cpp **** 			{4185 , 9000},
1026:Core/Src/robot/play.cpp **** 			{4195 , 9000},
1027:Core/Src/robot/play.cpp **** 			{4205 , 9000},
1028:Core/Src/robot/play.cpp **** 			{4215 , 9000},
ARM GAS  C:\Users\Prashant\AppData\Local\Temp\cczsYW6b.s 			page 23


1029:Core/Src/robot/play.cpp **** 			{4225 , 9000},
1030:Core/Src/robot/play.cpp **** 			{4235 , 9000},
1031:Core/Src/robot/play.cpp **** 			{4245 , 9000},
1032:Core/Src/robot/play.cpp **** 			{4255 , 9000},
1033:Core/Src/robot/play.cpp **** 			{4265 , 9000},
1034:Core/Src/robot/play.cpp **** 			{4275 , 9000},
1035:Core/Src/robot/play.cpp **** 			{4285 , 9000},
1036:Core/Src/robot/play.cpp **** 			{4295 , 9000},
1037:Core/Src/robot/play.cpp **** 			{4305 , 9000},
1038:Core/Src/robot/play.cpp **** 			{4315 , 9000},
1039:Core/Src/robot/play.cpp **** 			{4325 , 9000},
1040:Core/Src/robot/play.cpp **** 			{4335 , 9000},
1041:Core/Src/robot/play.cpp **** 			{4345 , 9000},
1042:Core/Src/robot/play.cpp **** 			{4355 , 9000},
1043:Core/Src/robot/play.cpp **** 			{4365 , 9000},
1044:Core/Src/robot/play.cpp **** 			{4375 , 9000},
1045:Core/Src/robot/play.cpp **** 			{4385 , 9000},
1046:Core/Src/robot/play.cpp **** 			{4395 , 9000},
1047:Core/Src/robot/play.cpp **** 			{4405 , 9000},
1048:Core/Src/robot/play.cpp **** 			{4415 , 9000},
1049:Core/Src/robot/play.cpp **** 			{4425 , 9000},
1050:Core/Src/robot/play.cpp **** 			{4435 , 9000},
1051:Core/Src/robot/play.cpp **** 			{4445 , 9000},
1052:Core/Src/robot/play.cpp **** 			{4455 , 9000},
1053:Core/Src/robot/play.cpp **** 			{4465 , 9000},
1054:Core/Src/robot/play.cpp **** 			{4475 , 9000},
1055:Core/Src/robot/play.cpp **** 			{4485 , 9000},
1056:Core/Src/robot/play.cpp **** 			{4495 , 9000},
1057:Core/Src/robot/play.cpp **** 			{4505 , 9000},
1058:Core/Src/robot/play.cpp **** 			{4515 , 9000},
1059:Core/Src/robot/play.cpp **** 			{4525 , 9000},
1060:Core/Src/robot/play.cpp **** 			{4535 , 9000},
1061:Core/Src/robot/play.cpp **** 			{4545 , 9000},
1062:Core/Src/robot/play.cpp **** 			{4555 , 9000},
1063:Core/Src/robot/play.cpp **** 			{4565 , 9000},
1064:Core/Src/robot/play.cpp **** 			{4575 , 9000},
1065:Core/Src/robot/play.cpp **** 			{4585 , 9000},
1066:Core/Src/robot/play.cpp **** 			{4595 , 9000},
1067:Core/Src/robot/play.cpp **** 			{4605 , 9000},
1068:Core/Src/robot/play.cpp **** 			{4615 , 9000},
1069:Core/Src/robot/play.cpp **** 			{4625 , 9000},
1070:Core/Src/robot/play.cpp **** 			{4635 , 9000},
1071:Core/Src/robot/play.cpp **** 			{4645 , 9000},
1072:Core/Src/robot/play.cpp **** 			{4655 , 9000},
1073:Core/Src/robot/play.cpp **** 			{4665 , 9000},
1074:Core/Src/robot/play.cpp **** 			{4675 , 9000},
1075:Core/Src/robot/play.cpp **** 			{4685 , 9000},
1076:Core/Src/robot/play.cpp **** 			{4695 , 9000},
1077:Core/Src/robot/play.cpp **** 			{4705 , 9000},
1078:Core/Src/robot/play.cpp **** 			{4715 , 9000},
1079:Core/Src/robot/play.cpp **** 			{4725 , 9000},
1080:Core/Src/robot/play.cpp **** 			{4735 , 9000},
1081:Core/Src/robot/play.cpp **** 			{4745 , 9000},
1082:Core/Src/robot/play.cpp **** 			{4755 , 9000},
1083:Core/Src/robot/play.cpp **** 			{4765 , 9000},
1084:Core/Src/robot/play.cpp **** 			{4775 , 9000},
1085:Core/Src/robot/play.cpp **** 			{4785 , 9000},
ARM GAS  C:\Users\Prashant\AppData\Local\Temp\cczsYW6b.s 			page 24


1086:Core/Src/robot/play.cpp **** 			{4795 , 9000},
1087:Core/Src/robot/play.cpp **** 			{4805 , 9000},
1088:Core/Src/robot/play.cpp **** 			{4815 , 9000},
1089:Core/Src/robot/play.cpp **** 			{4825 , 9000},
1090:Core/Src/robot/play.cpp **** 			{4835 , 9000},
1091:Core/Src/robot/play.cpp **** 			{4845 , 9000},
1092:Core/Src/robot/play.cpp **** 			{4855 , 9000},
1093:Core/Src/robot/play.cpp **** 			{4865 , 9000},
1094:Core/Src/robot/play.cpp **** 			{4875 , 9000},
1095:Core/Src/robot/play.cpp **** 			{4885 , 9000},
1096:Core/Src/robot/play.cpp **** 			{4895 , 9000},
1097:Core/Src/robot/play.cpp **** 			{4905 , 9000},
1098:Core/Src/robot/play.cpp **** 			{4915 , 9000},
1099:Core/Src/robot/play.cpp **** 			{4925 , 9000},
1100:Core/Src/robot/play.cpp **** 			{4935 , 9000},
1101:Core/Src/robot/play.cpp **** 			{4945 , 9000},
1102:Core/Src/robot/play.cpp **** 			{4955 , 9000},
1103:Core/Src/robot/play.cpp **** 			{4965 , 9000},
1104:Core/Src/robot/play.cpp **** 			{4975 , 9000},
1105:Core/Src/robot/play.cpp **** 			{4985 , 9000},
1106:Core/Src/robot/play.cpp **** 			{4995 , 9000},
1107:Core/Src/robot/play.cpp **** 			{5005 , 9000},
1108:Core/Src/robot/play.cpp **** 			{5015 , 9000},
1109:Core/Src/robot/play.cpp **** 			{5025 , 9000},
1110:Core/Src/robot/play.cpp **** 			{5035 , 9000},
1111:Core/Src/robot/play.cpp **** 			{5045 , 9000},
1112:Core/Src/robot/play.cpp **** 			{5055 , 9000},
1113:Core/Src/robot/play.cpp **** 			{5065 , 9000},
1114:Core/Src/robot/play.cpp **** 			{5075 , 9000},
1115:Core/Src/robot/play.cpp **** 			{5085 , 9000},
1116:Core/Src/robot/play.cpp **** 			{5095 , 9000},
1117:Core/Src/robot/play.cpp **** 			{5105 , 9000},
1118:Core/Src/robot/play.cpp **** 			{5115 , 9000},
1119:Core/Src/robot/play.cpp **** 			{5125 , 9000},
1120:Core/Src/robot/play.cpp **** 			{5135 , 9000},
1121:Core/Src/robot/play.cpp **** 			{5145 , 9000},
1122:Core/Src/robot/play.cpp **** 			{5155 , 9000},
1123:Core/Src/robot/play.cpp **** 			{5165 , 9000},
1124:Core/Src/robot/play.cpp **** 			{5175 , 9000},
1125:Core/Src/robot/play.cpp **** 			{5185 , 9000},
1126:Core/Src/robot/play.cpp **** 			{5195 , 9000},
1127:Core/Src/robot/play.cpp **** 			{5205 , 9000},
1128:Core/Src/robot/play.cpp **** 			{5215 , 9000},
1129:Core/Src/robot/play.cpp **** 			{5225 , 9000},
1130:Core/Src/robot/play.cpp **** 			{5235 , 9000},
1131:Core/Src/robot/play.cpp **** 			{5245 , 9000},
1132:Core/Src/robot/play.cpp **** 			{5255 , 9000},
1133:Core/Src/robot/play.cpp **** 			{5265 , 9000},
1134:Core/Src/robot/play.cpp **** 			{5275 , 9000},
1135:Core/Src/robot/play.cpp **** 			{5285 , 9000},
1136:Core/Src/robot/play.cpp **** 			{5295 , 9000},
1137:Core/Src/robot/play.cpp **** 			{5305 , 9000},
1138:Core/Src/robot/play.cpp **** 			{5315 , 9000},
1139:Core/Src/robot/play.cpp **** 			{5325 , 9000},
1140:Core/Src/robot/play.cpp **** 			{5335 , 9000},
1141:Core/Src/robot/play.cpp **** 			{5345 , 9000},
1142:Core/Src/robot/play.cpp **** 			{5355 , 9000},
ARM GAS  C:\Users\Prashant\AppData\Local\Temp\cczsYW6b.s 			page 25


1143:Core/Src/robot/play.cpp **** 			{5365 , 9000},
1144:Core/Src/robot/play.cpp **** 			{5375 , 9000},
1145:Core/Src/robot/play.cpp **** 			{5385 , 9000},
1146:Core/Src/robot/play.cpp **** 			{5395 , 9000},
1147:Core/Src/robot/play.cpp **** 			{5405 , 9000},
1148:Core/Src/robot/play.cpp **** 			{5415 , 9000},
1149:Core/Src/robot/play.cpp **** 			{5425 , 9000},
1150:Core/Src/robot/play.cpp **** 			{5435 , 9000},
1151:Core/Src/robot/play.cpp **** 			{5445 , 9000},
1152:Core/Src/robot/play.cpp **** 			{5455 , 9000},
1153:Core/Src/robot/play.cpp **** 			{5465 , 9000},
1154:Core/Src/robot/play.cpp **** 			{5475 , 9000},
1155:Core/Src/robot/play.cpp **** 			{5485 , 9000},
1156:Core/Src/robot/play.cpp **** 			{5495 , 9000}};
1157:Core/Src/robot/play.cpp **** 
1158:Core/Src/robot/play.cpp **** void setup(uint32_t dt_millis)
1159:Core/Src/robot/play.cpp **** {
1160:Core/Src/robot/play.cpp ****         gPSensor.add_Sensor(&gXEncoder);
1161:Core/Src/robot/play.cpp ****         gPSensor.add_Sensor(&gYEncoder);
1162:Core/Src/robot/play.cpp ****         gPSensor.add_Sensor(&gXLidar);
1163:Core/Src/robot/play.cpp **** 
1164:Core/Src/robot/play.cpp ****         gKhangaiRobot.set_PositionSensor(&gPSensor);
1165:Core/Src/robot/play.cpp **** }
1166:Core/Src/robot/play.cpp **** 
1167:Core/Src/robot/play.cpp **** /*
1168:Core/Src/robot/play.cpp ****  * Tasks to be performed by this part of robot
1169:Core/Src/robot/play.cpp ****  TODO 1:  Read Orientation of Robot
1170:Core/Src/robot/play.cpp ****  TODO 2:  Smooth the Orientation Reading and Filter It Using CF or KF
1171:Core/Src/robot/play.cpp ****  TODO  :    -> Inclination : Gyroscope and Accelerometer
1172:Core/Src/robot/play.cpp ****  TODO  :    -> Heading : Gyroscope and Magnetometer
1173:Core/Src/robot/play.cpp ****  TODO 3:  Correct LIDAR Servo/Dynamixel if Used
1174:Core/Src/robot/play.cpp ****  TODO 4:  Read Distaces from Fences Using LIDAR
1175:Core/Src/robot/play.cpp ****  TODO 5:  Smooth the Distance Reading and Filter It using KF
1176:Core/Src/robot/play.cpp ****  TODO  :    -> should probably use enncoder for second data
1177:Core/Src/robot/play.cpp ****  TODO 6:  Calculate Four Corners of Robot using Distance and Orientation Data
1178:Core/Src/robot/play.cpp ****  TODO 7:  Transfer the Calulated values
1179:Core/Src/robot/play.cpp ****  TODO 8:  Repeat from step 1.
1180:Core/Src/robot/play.cpp ****  */
1181:Core/Src/robot/play.cpp **** 
1182:Core/Src/robot/play.cpp **** void play(uint32_t dt_millis)
1183:Core/Src/robot/play.cpp **** {
1184:Core/Src/robot/play.cpp ****         //gKhangaiRobot.run(dt_millis);
1185:Core/Src/robot/play.cpp **** 		gKhangaiRobot.goto_absolute_distance(-600,600,0,dt_millis);
1186:Core/Src/robot/play.cpp **** 		gKhangaiRobot.goto_absolute_distance(-600,2000,0,dt_millis);
1187:Core/Src/robot/play.cpp **** 		gKhangaiRobot.goto_absolute_distance(-1000,1000,0,dt_millis);
1188:Core/Src/robot/play.cpp **** 		gKhangaiRobot.goto_absolute_distance(-1500,2000,0,dt_millis);
1189:Core/Src/robot/play.cpp **** 		gKhangaiRobot.goto_absolute_distance(-1500,1000,0,dt_millis);
1190:Core/Src/robot/play.cpp **** 		gKhangaiRobot.goto_absolute_distance(-500,500,0,dt_millis);
1191:Core/Src/robot/play.cpp **** 		
1192:Core/Src/robot/play.cpp **** 		/*for(int i=0;i<600;i++)
1193:Core/Src/robot/play.cpp ****         {
1194:Core/Src/robot/play.cpp ****                 gKhangaiRobot.goto_absolute_distance(-go_abs[i][1],go_abs[i][2],0,dt_millis);
1195:Core/Src/robot/play.cpp ****         }*/
1196:Core/Src/robot/play.cpp **** }
 123              		.loc 5 1196 0
 124              		.cfi_startproc
 125              		@ args = 0, pretend = 0, frame = 0
ARM GAS  C:\Users\Prashant\AppData\Local\Temp\cczsYW6b.s 			page 26


 126              		@ frame_needed = 0, uses_anonymous_args = 0
 127              	.LVL4:
 128 0000 0128     		cmp	r0, #1
 129 0002 00D0     		beq	.L11
 130              	.L8:
 131 0004 7047     		bx	lr
 132              	.L11:
 133              		.loc 5 1196 0 is_stmt 0 discriminator 1
 134 0006 4FF6FF73 		movw	r3, #65535
 135 000a 9942     		cmp	r1, r3
 136 000c FAD1     		bne	.L8
 137              		.loc 5 1196 0
 138 000e 70B5     		push	{r4, r5, r6, lr}
 139              	.LCFI0:
 140              		.cfi_def_cfa_offset 16
 141              		.cfi_offset 4, -16
 142              		.cfi_offset 5, -12
 143              		.cfi_offset 6, -8
 144              		.cfi_offset 14, -4
 145              	.LVL5:
 146              	.LBB67:
 147              	.LBB68:
 148              	.LBB69:
  35:Core/Inc/devs/encoder.h ****         
  36:Core/Inc/devs/encoder.h ****         Encoder(struct Enc *enc, SensorName name) {
 149              		.loc 1 36 0 is_stmt 1
 150 0010 1A48     		ldr	r0, .L12
 151              	.LVL6:
 152 0012 1B4E     		ldr	r6, .L12+4
 153 0014 0660     		str	r6, [r0]
  37:Core/Inc/devs/encoder.h ****                 enc_ = enc;
 154              		.loc 1 37 0
 155 0016 1B4B     		ldr	r3, .L12+8
 156 0018 8360     		str	r3, [r0, #8]
  38:Core/Inc/devs/encoder.h ****                 name_ = name;
 157              		.loc 1 38 0
 158 001a 0223     		movs	r3, #2
 159 001c 4360     		str	r3, [r0, #4]
 160              	.LVL7:
 161              	.LBE69:
 162              	.LBE68:
 163              	.LBE67:
  24:Core/Src/robot/play.cpp **** Encoder gYEncoder(&gYEnc, SensorName::YEncoder);
 164              		.loc 5 24 0
 165 001e 1A4C     		ldr	r4, .L12+12
 166 0020 1A4D     		ldr	r5, .L12+16
 167 0022 2246     		mov	r2, r4
 168 0024 2946     		mov	r1, r5
 169              	.LVL8:
 170 0026 FFF7FEFF 		bl	__aeabi_atexit
 171              	.LVL9:
 172              	.LBB70:
 173              	.LBB71:
 174              	.LBB72:
  36:Core/Inc/devs/encoder.h ****                 enc_ = enc;
 175              		.loc 1 36 0
 176 002a 1948     		ldr	r0, .L12+20
ARM GAS  C:\Users\Prashant\AppData\Local\Temp\cczsYW6b.s 			page 27


 177 002c 0660     		str	r6, [r0]
  37:Core/Inc/devs/encoder.h ****                 name_ = name;
 178              		.loc 1 37 0
 179 002e 194B     		ldr	r3, .L12+24
 180 0030 8360     		str	r3, [r0, #8]
 181              		.loc 1 38 0
 182 0032 0323     		movs	r3, #3
 183 0034 4360     		str	r3, [r0, #4]
 184              	.LVL10:
 185              	.LBE72:
 186              	.LBE71:
 187              	.LBE70:
  25:Core/Src/robot/play.cpp **** Lidar gXLidar(SensorName::XLidar);
 188              		.loc 5 25 0
 189 0036 2246     		mov	r2, r4
 190 0038 2946     		mov	r1, r5
 191 003a FFF7FEFF 		bl	__aeabi_atexit
 192              	.LVL11:
 193              	.LBB73:
 194              	.LBB74:
 195              	.LBB75:
  28:Core/Inc/devs/lidar.h **** 
  29:Core/Inc/devs/lidar.h ****         Lidar(SensorName name) { name_ = name; }
 196              		.loc 2 29 0
 197 003e 1648     		ldr	r0, .L12+28
 198 0040 164B     		ldr	r3, .L12+32
 199 0042 0360     		str	r3, [r0]
 200 0044 0423     		movs	r3, #4
 201 0046 4360     		str	r3, [r0, #4]
 202              	.LVL12:
 203              	.LBE75:
 204              	.LBE74:
 205              	.LBE73:
  26:Core/Src/robot/play.cpp **** PositionSensor gPSensor;
 206              		.loc 5 26 0
 207 0048 2246     		mov	r2, r4
 208 004a 1549     		ldr	r1, .L12+36
 209 004c FFF7FEFF 		bl	__aeabi_atexit
 210              	.LVL13:
 211              	.LBB76:
 212              	.LBB77:
 213              	.LBB78:
  21:Core/Inc/devs/position_sensor.h ****         }
 214              		.loc 3 21 0
 215 0050 1448     		ldr	r0, .L12+40
 216 0052 0025     		movs	r5, #0
 217 0054 0574     		strb	r5, [r0, #16]
 218              	.LVL14:
 219              	.LBE78:
 220              	.LBE77:
 221              	.LBE76:
  27:Core/Src/robot/play.cpp **** 
 222              		.loc 5 27 0
 223 0056 2246     		mov	r2, r4
 224 0058 1349     		ldr	r1, .L12+44
 225 005a FFF7FEFF 		bl	__aeabi_atexit
 226              	.LVL15:
ARM GAS  C:\Users\Prashant\AppData\Local\Temp\cczsYW6b.s 			page 28


 227              	.LBB79:
 228              	.LBB80:
 229              	.LBB81:
  15:Core/Inc/robot/robot.h ****                 // state_ = &gPointH;
 230              		.loc 4 15 0
 231 005e 1348     		ldr	r0, .L12+48
 232 0060 134B     		ldr	r3, .L12+52
 233 0062 0360     		str	r3, [r0]
  17:Core/Inc/robot/robot.h ****                 is_first_reading_ = true;
 234              		.loc 4 17 0
 235 0064 4560     		str	r5, [r0, #4]
  18:Core/Inc/robot/robot.h ****                 first_heading_ = 0;
 236              		.loc 4 18 0
 237 0066 0123     		movs	r3, #1
 238 0068 80F82C30 		strb	r3, [r0, #44]
  19:Core/Inc/robot/robot.h ****         }
 239              		.loc 4 19 0
 240 006c 0023     		movs	r3, #0
 241 006e 0363     		str	r3, [r0, #48]	@ float
 242              	.LVL16:
 243              	.LBE81:
 244              	.LBE80:
 245              	.LBE79:
  29:Core/Src/robot/play.cpp **** 
 246              		.loc 5 29 0
 247 0070 2246     		mov	r2, r4
 248 0072 1049     		ldr	r1, .L12+56
 249 0074 FFF7FEFF 		bl	__aeabi_atexit
 250              	.LVL17:
 251              		.loc 5 1196 0
 252 0078 70BD     		pop	{r4, r5, r6, pc}
 253              	.L13:
 254 007a 00BF     		.align	2
 255              	.L12:
 256 007c 00000000 		.word	.LANCHOR0
 257 0080 08000000 		.word	_ZTV7Encoder+8
 258 0084 00000000 		.word	gXEnc
 259 0088 00000000 		.word	__dso_handle
 260 008c 00000000 		.word	_ZN7EncoderD1Ev
 261 0090 00000000 		.word	.LANCHOR1
 262 0094 00000000 		.word	gYEnc
 263 0098 00000000 		.word	.LANCHOR2
 264 009c 08000000 		.word	_ZTV5Lidar+8
 265 00a0 00000000 		.word	_ZN5LidarD1Ev
 266 00a4 00000000 		.word	.LANCHOR3
 267 00a8 00000000 		.word	_ZN14PositionSensorD1Ev
 268 00ac 00000000 		.word	.LANCHOR4
 269 00b0 00000000 		.word	gPointA
 270 00b4 00000000 		.word	_ZN5RobotD1Ev
 271              		.cfi_endproc
 272              	.LFE611:
 274              		.section	.text._ZN7EncoderD0Ev,"axG",%progbits,_ZN7EncoderD5Ev,comdat
 275              		.align	1
 276              		.weak	_ZN7EncoderD0Ev
 277              		.syntax unified
 278              		.thumb
 279              		.thumb_func
ARM GAS  C:\Users\Prashant\AppData\Local\Temp\cczsYW6b.s 			page 29


 280              		.fpu fpv4-sp-d16
 282              	_ZN7EncoderD0Ev:
 283              	.LFB462:
  34:Core/Inc/devs/encoder.h ****         
 284              		.loc 1 34 0
 285              		.cfi_startproc
 286              		@ args = 0, pretend = 0, frame = 0
 287              		@ frame_needed = 0, uses_anonymous_args = 0
 288              	.LVL18:
 289 0000 10B5     		push	{r4, lr}
 290              	.LCFI1:
 291              		.cfi_def_cfa_offset 8
 292              		.cfi_offset 4, -8
 293              		.cfi_offset 14, -4
 294 0002 0446     		mov	r4, r0
  34:Core/Inc/devs/encoder.h ****         
 295              		.loc 1 34 0
 296 0004 0C21     		movs	r1, #12
 297 0006 FFF7FEFF 		bl	_ZdlPvj
 298              	.LVL19:
 299 000a 2046     		mov	r0, r4
 300 000c 10BD     		pop	{r4, pc}
 301              		.cfi_endproc
 302              	.LFE462:
 304              		.section	.text._ZN5LidarD0Ev,"axG",%progbits,_ZN5LidarD5Ev,comdat
 305              		.align	1
 306              		.weak	_ZN5LidarD0Ev
 307              		.syntax unified
 308              		.thumb
 309              		.thumb_func
 310              		.fpu fpv4-sp-d16
 312              	_ZN5LidarD0Ev:
 313              	.LFB472:
  27:Core/Inc/devs/lidar.h **** 
 314              		.loc 2 27 0
 315              		.cfi_startproc
 316              		@ args = 0, pretend = 0, frame = 0
 317              		@ frame_needed = 0, uses_anonymous_args = 0
 318              	.LVL20:
 319 0000 10B5     		push	{r4, lr}
 320              	.LCFI2:
 321              		.cfi_def_cfa_offset 8
 322              		.cfi_offset 4, -8
 323              		.cfi_offset 14, -4
 324 0002 0446     		mov	r4, r0
  27:Core/Inc/devs/lidar.h **** 
 325              		.loc 2 27 0
 326 0004 0821     		movs	r1, #8
 327 0006 FFF7FEFF 		bl	_ZdlPvj
 328              	.LVL21:
 329 000a 2046     		mov	r0, r4
 330 000c 10BD     		pop	{r4, pc}
 331              		.cfi_endproc
 332              	.LFE472:
 334              		.section	.text._Z5setupm,"ax",%progbits
 335              		.align	1
 336              		.global	_Z5setupm
ARM GAS  C:\Users\Prashant\AppData\Local\Temp\cczsYW6b.s 			page 30


 337              		.syntax unified
 338              		.thumb
 339              		.thumb_func
 340              		.fpu fpv4-sp-d16
 342              	_Z5setupm:
 343              	.LFB605:
1159:Core/Src/robot/play.cpp ****         gPSensor.add_Sensor(&gXEncoder);
 344              		.loc 5 1159 0
 345              		.cfi_startproc
 346              		@ args = 0, pretend = 0, frame = 0
 347              		@ frame_needed = 0, uses_anonymous_args = 0
 348              		@ link register save eliminated.
 349              	.LVL22:
 350              	.LBB82:
 351              	.LBB83:
 352              	.LBB84:
  28:Core/Inc/devs/position_sensor.h **** 
  29:Core/Inc/devs/position_sensor.h ****         // Add sensor so that it can be used for calculating position
  30:Core/Inc/devs/position_sensor.h ****         void add_Sensor(Sensor *sen) {
  31:Core/Inc/devs/position_sensor.h ****                 for (uint8_t i = 0; i < sensor_count; ++i) {
 353              		.loc 3 31 0
 354 0000 0023     		movs	r3, #0
 355              	.LVL23:
 356              	.L21:
 357 0002 224A     		ldr	r2, .L28
 358 0004 127C     		ldrb	r2, [r2, #16]	@ zero_extendqisi2
 359 0006 9A42     		cmp	r2, r3
 360 0008 0AD9     		bls	.L19
  32:Core/Inc/devs/position_sensor.h ****                         if (*p_sensors_[i] == *sen) {
 361              		.loc 3 32 0
 362 000a 204A     		ldr	r2, .L28
 363 000c 52F82320 		ldr	r2, [r2, r3, lsl #2]
 364              	.LVL24:
 365              	.LBB85:
 366              	.LBB86:
 367              		.file 6 "Core/Inc/devs/sensor.h"
   1:Core/Inc/devs/sensor.h **** /*
   2:Core/Inc/devs/sensor.h ****  * sensor.h
   3:Core/Inc/devs/sensor.h ****  * 
   4:Core/Inc/devs/sensor.h ****  * Created : 11/29/2018
   5:Core/Inc/devs/sensor.h ****  *  Author : n-is
   6:Core/Inc/devs/sensor.h ****  *   email : 073bex422.nischal@pcampus.edu.np
   7:Core/Inc/devs/sensor.h ****  */
   8:Core/Inc/devs/sensor.h **** 
   9:Core/Inc/devs/sensor.h **** #ifndef _SENSOR_H_
  10:Core/Inc/devs/sensor.h **** #define _SENSOR_H_
  11:Core/Inc/devs/sensor.h **** 
  12:Core/Inc/devs/sensor.h **** enum class SensorName
  13:Core/Inc/devs/sensor.h **** {
  14:Core/Inc/devs/sensor.h ****         Gyro,
  15:Core/Inc/devs/sensor.h ****         Compass,
  16:Core/Inc/devs/sensor.h ****         XEncoder,
  17:Core/Inc/devs/sensor.h ****         YEncoder,
  18:Core/Inc/devs/sensor.h ****         XLidar,
  19:Core/Inc/devs/sensor.h ****         YLidar
  20:Core/Inc/devs/sensor.h **** };
  21:Core/Inc/devs/sensor.h **** 
ARM GAS  C:\Users\Prashant\AppData\Local\Temp\cczsYW6b.s 			page 31


  22:Core/Inc/devs/sensor.h **** class Sensor
  23:Core/Inc/devs/sensor.h **** {
  24:Core/Inc/devs/sensor.h **** public:
  25:Core/Inc/devs/sensor.h ****         Sensor() = default;
  26:Core/Inc/devs/sensor.h ****         Sensor(Sensor &&) = default;
  27:Core/Inc/devs/sensor.h ****         Sensor(const Sensor &) = default;
  28:Core/Inc/devs/sensor.h ****         Sensor &operator=(Sensor &&) = default;
  29:Core/Inc/devs/sensor.h ****         Sensor &operator=(const Sensor &) = default;
  30:Core/Inc/devs/sensor.h ****         virtual ~Sensor() { }
  31:Core/Inc/devs/sensor.h **** 
  32:Core/Inc/devs/sensor.h ****         virtual int init() = 0;
  33:Core/Inc/devs/sensor.h ****         SensorName get_Name() { return name_; }
  34:Core/Inc/devs/sensor.h ****         virtual float read() = 0;
  35:Core/Inc/devs/sensor.h ****         virtual bool available() = 0;
  36:Core/Inc/devs/sensor.h ****         virtual void denit() = 0;
  37:Core/Inc/devs/sensor.h **** 
  38:Core/Inc/devs/sensor.h ****         friend bool operator==(Sensor &sen1, Sensor &sen2) { return (sen1.name_ == sen2.name_); }
 368              		.loc 6 38 0
 369 0010 5168     		ldr	r1, [r2, #4]
 370 0012 1F4A     		ldr	r2, .L28+4
 371              	.LVL25:
 372 0014 5268     		ldr	r2, [r2, #4]
 373              	.LVL26:
 374              	.LBE86:
 375              	.LBE85:
 376              		.loc 3 32 0
 377 0016 9142     		cmp	r1, r2
 378 0018 08D0     		beq	.L20
  31:Core/Inc/devs/position_sensor.h ****                         if (*p_sensors_[i] == *sen) {
 379              		.loc 3 31 0
 380 001a 0133     		adds	r3, r3, #1
 381              	.LVL27:
 382 001c DBB2     		uxtb	r3, r3
 383              	.LVL28:
 384 001e F0E7     		b	.L21
 385              	.L19:
 386              	.LBE84:
  33:Core/Inc/devs/position_sensor.h ****                                 return;
  34:Core/Inc/devs/position_sensor.h ****                         }
  35:Core/Inc/devs/position_sensor.h ****                 }
  36:Core/Inc/devs/position_sensor.h ****                 p_sensors_[sensor_count++] = sen;
 387              		.loc 3 36 0
 388 0020 1A4B     		ldr	r3, .L28
 389              	.LVL29:
 390 0022 511C     		adds	r1, r2, #1
 391 0024 1974     		strb	r1, [r3, #16]
 392 0026 1A49     		ldr	r1, .L28+4
 393 0028 43F82210 		str	r1, [r3, r2, lsl #2]
 394              	.L20:
 395              	.LBB87:
  31:Core/Inc/devs/position_sensor.h ****                         if (*p_sensors_[i] == *sen) {
 396              		.loc 3 31 0
 397 002c 0023     		movs	r3, #0
 398              	.L24:
 399              	.LVL30:
 400              	.LBE87:
 401              	.LBE83:
ARM GAS  C:\Users\Prashant\AppData\Local\Temp\cczsYW6b.s 			page 32


 402              	.LBE82:
 403              	.LBB90:
 404              	.LBB91:
 405              	.LBB92:
 406 002e 174A     		ldr	r2, .L28
 407 0030 127C     		ldrb	r2, [r2, #16]	@ zero_extendqisi2
 408 0032 9A42     		cmp	r2, r3
 409 0034 0AD9     		bls	.L22
  32:Core/Inc/devs/position_sensor.h ****                                 return;
 410              		.loc 3 32 0
 411 0036 154A     		ldr	r2, .L28
 412 0038 52F82320 		ldr	r2, [r2, r3, lsl #2]
 413              	.LVL31:
 414              	.LBB93:
 415              	.LBB94:
 416              		.loc 6 38 0
 417 003c 5168     		ldr	r1, [r2, #4]
 418 003e 154A     		ldr	r2, .L28+8
 419              	.LVL32:
 420 0040 5268     		ldr	r2, [r2, #4]
 421              	.LVL33:
 422              	.LBE94:
 423              	.LBE93:
  32:Core/Inc/devs/position_sensor.h ****                                 return;
 424              		.loc 3 32 0
 425 0042 9142     		cmp	r1, r2
 426 0044 08D0     		beq	.L23
  31:Core/Inc/devs/position_sensor.h ****                         if (*p_sensors_[i] == *sen) {
 427              		.loc 3 31 0
 428 0046 0133     		adds	r3, r3, #1
 429              	.LVL34:
 430 0048 DBB2     		uxtb	r3, r3
 431              	.LVL35:
 432 004a F0E7     		b	.L24
 433              	.L22:
 434              	.LBE92:
 435              		.loc 3 36 0
 436 004c 0F4B     		ldr	r3, .L28
 437              	.LVL36:
 438 004e 511C     		adds	r1, r2, #1
 439 0050 1974     		strb	r1, [r3, #16]
 440 0052 1049     		ldr	r1, .L28+8
 441 0054 43F82210 		str	r1, [r3, r2, lsl #2]
 442              	.L23:
 443              	.LBE91:
 444              	.LBE90:
 445              	.LBB95:
 446              	.LBB89:
 447              	.LBB88:
  31:Core/Inc/devs/position_sensor.h ****                         if (*p_sensors_[i] == *sen) {
 448              		.loc 3 31 0
 449 0058 0023     		movs	r3, #0
 450              	.L27:
 451              	.LVL37:
 452              	.LBE88:
 453              	.LBE89:
 454              	.LBE95:
ARM GAS  C:\Users\Prashant\AppData\Local\Temp\cczsYW6b.s 			page 33


 455              	.LBB96:
 456              	.LBB97:
 457              	.LBB98:
 458 005a 0C4A     		ldr	r2, .L28
 459 005c 127C     		ldrb	r2, [r2, #16]	@ zero_extendqisi2
 460 005e 9A42     		cmp	r2, r3
 461 0060 0AD9     		bls	.L25
  32:Core/Inc/devs/position_sensor.h ****                                 return;
 462              		.loc 3 32 0
 463 0062 0A4A     		ldr	r2, .L28
 464 0064 52F82320 		ldr	r2, [r2, r3, lsl #2]
 465              	.LVL38:
 466              	.LBB99:
 467              	.LBB100:
 468              		.loc 6 38 0
 469 0068 5168     		ldr	r1, [r2, #4]
 470 006a 0B4A     		ldr	r2, .L28+12
 471              	.LVL39:
 472 006c 5268     		ldr	r2, [r2, #4]
 473              	.LVL40:
 474              	.LBE100:
 475              	.LBE99:
  32:Core/Inc/devs/position_sensor.h ****                                 return;
 476              		.loc 3 32 0
 477 006e 9142     		cmp	r1, r2
 478 0070 08D0     		beq	.L26
  31:Core/Inc/devs/position_sensor.h ****                         if (*p_sensors_[i] == *sen) {
 479              		.loc 3 31 0
 480 0072 0133     		adds	r3, r3, #1
 481              	.LVL41:
 482 0074 DBB2     		uxtb	r3, r3
 483              	.LVL42:
 484 0076 F0E7     		b	.L27
 485              	.L25:
 486              	.LBE98:
 487              		.loc 3 36 0
 488 0078 044B     		ldr	r3, .L28
 489              	.LVL43:
 490 007a 511C     		adds	r1, r2, #1
 491 007c 1974     		strb	r1, [r3, #16]
 492 007e 0649     		ldr	r1, .L28+12
 493 0080 43F82210 		str	r1, [r3, r2, lsl #2]
 494              	.L26:
 495              	.LVL44:
 496              	.LBE97:
 497              	.LBE96:
 498              	.LBB101:
 499              	.LBB102:
  26:Core/Inc/robot/robot.h **** 
  27:Core/Inc/robot/robot.h ****         void set_State(Robo_States *state) { state_ = state; }
  28:Core/Inc/robot/robot.h ****         Robo_States *get_State() { return state_; }    
  29:Core/Inc/robot/robot.h ****         void set_PositionSensor(PositionSensor *pos) { pos_ = pos; }
 500              		.loc 4 29 0
 501 0084 054B     		ldr	r3, .L28+16
 502 0086 014A     		ldr	r2, .L28
 503 0088 5A60     		str	r2, [r3, #4]
 504              	.LVL45:
ARM GAS  C:\Users\Prashant\AppData\Local\Temp\cczsYW6b.s 			page 34


 505              	.LBE102:
 506              	.LBE101:
1165:Core/Src/robot/play.cpp **** 
 507              		.loc 5 1165 0
 508 008a 7047     		bx	lr
 509              	.L29:
 510              		.align	2
 511              	.L28:
 512 008c 00000000 		.word	.LANCHOR3
 513 0090 00000000 		.word	.LANCHOR0
 514 0094 00000000 		.word	.LANCHOR1
 515 0098 00000000 		.word	.LANCHOR2
 516 009c 00000000 		.word	.LANCHOR4
 517              		.cfi_endproc
 518              	.LFE605:
 520              		.section	.text._Z4playm,"ax",%progbits
 521              		.align	1
 522              		.global	_Z4playm
 523              		.syntax unified
 524              		.thumb
 525              		.thumb_func
 526              		.fpu fpv4-sp-d16
 528              	_Z4playm:
 529              	.LFB606:
1183:Core/Src/robot/play.cpp ****         //gKhangaiRobot.run(dt_millis);
 530              		.loc 5 1183 0
 531              		.cfi_startproc
 532              		@ args = 0, pretend = 0, frame = 0
 533              		@ frame_needed = 0, uses_anonymous_args = 0
 534              	.LVL46:
 535 0000 38B5     		push	{r3, r4, r5, lr}
 536              	.LCFI3:
 537              		.cfi_def_cfa_offset 16
 538              		.cfi_offset 3, -16
 539              		.cfi_offset 4, -12
 540              		.cfi_offset 5, -8
 541              		.cfi_offset 14, -4
 542 0002 2DED048B 		vpush.64	{d8, d9}
 543              	.LCFI4:
 544              		.cfi_def_cfa_offset 32
 545              		.cfi_offset 80, -32
 546              		.cfi_offset 81, -28
 547              		.cfi_offset 82, -24
 548              		.cfi_offset 83, -20
 549 0006 0546     		mov	r5, r0
1185:Core/Src/robot/play.cpp **** 		gKhangaiRobot.goto_absolute_distance(-600,2000,0,dt_millis);
 550              		.loc 5 1185 0
 551 0008 9FED248A 		vldr.32	s16, .L32
 552 000c DFED248A 		vldr.32	s17, .L32+4
 553 0010 244C     		ldr	r4, .L32+8
 554 0012 0146     		mov	r1, r0
 555 0014 B0EE481A 		vmov.f32	s2, s16
 556 0018 DFED230A 		vldr.32	s1, .L32+12
 557 001c B0EE680A 		vmov.f32	s0, s17
 558 0020 2046     		mov	r0, r4
 559              	.LVL47:
 560 0022 FFF7FEFF 		bl	_ZN5Robot22goto_absolute_distanceEfffm
ARM GAS  C:\Users\Prashant\AppData\Local\Temp\cczsYW6b.s 			page 35


 561              	.LVL48:
1186:Core/Src/robot/play.cpp **** 		gKhangaiRobot.goto_absolute_distance(-1000,1000,0,dt_millis);
 562              		.loc 5 1186 0
 563 0026 DFED219A 		vldr.32	s19, .L32+16
 564 002a 2946     		mov	r1, r5
 565 002c B0EE481A 		vmov.f32	s2, s16
 566 0030 F0EE690A 		vmov.f32	s1, s19
 567 0034 B0EE680A 		vmov.f32	s0, s17
 568 0038 2046     		mov	r0, r4
 569 003a FFF7FEFF 		bl	_ZN5Robot22goto_absolute_distanceEfffm
 570              	.LVL49:
1187:Core/Src/robot/play.cpp **** 		gKhangaiRobot.goto_absolute_distance(-1500,2000,0,dt_millis);
 571              		.loc 5 1187 0
 572 003e 9FED1C9A 		vldr.32	s18, .L32+20
 573 0042 2946     		mov	r1, r5
 574 0044 B0EE481A 		vmov.f32	s2, s16
 575 0048 F0EE490A 		vmov.f32	s1, s18
 576 004c 9FED190A 		vldr.32	s0, .L32+24
 577 0050 2046     		mov	r0, r4
 578 0052 FFF7FEFF 		bl	_ZN5Robot22goto_absolute_distanceEfffm
 579              	.LVL50:
1188:Core/Src/robot/play.cpp **** 		gKhangaiRobot.goto_absolute_distance(-1500,1000,0,dt_millis);
 580              		.loc 5 1188 0
 581 0056 DFED188A 		vldr.32	s17, .L32+28
 582 005a 2946     		mov	r1, r5
 583 005c B0EE481A 		vmov.f32	s2, s16
 584 0060 F0EE690A 		vmov.f32	s1, s19
 585 0064 B0EE680A 		vmov.f32	s0, s17
 586 0068 2046     		mov	r0, r4
 587 006a FFF7FEFF 		bl	_ZN5Robot22goto_absolute_distanceEfffm
 588              	.LVL51:
1189:Core/Src/robot/play.cpp **** 		gKhangaiRobot.goto_absolute_distance(-500,500,0,dt_millis);
 589              		.loc 5 1189 0
 590 006e 2946     		mov	r1, r5
 591 0070 B0EE481A 		vmov.f32	s2, s16
 592 0074 F0EE490A 		vmov.f32	s1, s18
 593 0078 B0EE680A 		vmov.f32	s0, s17
 594 007c 2046     		mov	r0, r4
 595 007e FFF7FEFF 		bl	_ZN5Robot22goto_absolute_distanceEfffm
 596              	.LVL52:
1190:Core/Src/robot/play.cpp **** 		
 597              		.loc 5 1190 0
 598 0082 2946     		mov	r1, r5
 599 0084 B0EE481A 		vmov.f32	s2, s16
 600 0088 DFED0C0A 		vldr.32	s1, .L32+32
 601 008c 9FED0C0A 		vldr.32	s0, .L32+36
 602 0090 2046     		mov	r0, r4
 603 0092 FFF7FEFF 		bl	_ZN5Robot22goto_absolute_distanceEfffm
 604              	.LVL53:
 605              		.loc 5 1196 0
 606 0096 BDEC048B 		vldm	sp!, {d8-d9}
 607              	.LCFI5:
 608              		.cfi_restore 82
 609              		.cfi_restore 83
 610              		.cfi_restore 80
 611              		.cfi_restore 81
 612              		.cfi_def_cfa_offset 16
ARM GAS  C:\Users\Prashant\AppData\Local\Temp\cczsYW6b.s 			page 36


 613 009a 38BD     		pop	{r3, r4, r5, pc}
 614              	.LVL54:
 615              	.L33:
 616              		.align	2
 617              	.L32:
 618 009c 00000000 		.word	0
 619 00a0 000016C4 		.word	-1005191168
 620 00a4 00000000 		.word	.LANCHOR4
 621 00a8 00001644 		.word	1142292480
 622 00ac 0000FA44 		.word	1157234688
 623 00b0 00007A44 		.word	1148846080
 624 00b4 00007AC4 		.word	-998637568
 625 00b8 0080BBC4 		.word	-994344960
 626 00bc 0000FA43 		.word	1140457472
 627 00c0 0000FAC3 		.word	-1007026176
 628              		.cfi_endproc
 629              	.LFE606:
 631              		.section	.text._GLOBAL__sub_I_gFirst_Heading,"ax",%progbits
 632              		.align	1
 633              		.syntax unified
 634              		.thumb
 635              		.thumb_func
 636              		.fpu fpv4-sp-d16
 638              	_GLOBAL__sub_I_gFirst_Heading:
 639              	.LFB612:
 640              		.loc 5 1196 0
 641              		.cfi_startproc
 642              		@ args = 0, pretend = 0, frame = 0
 643              		@ frame_needed = 0, uses_anonymous_args = 0
 644 0000 08B5     		push	{r3, lr}
 645              	.LCFI6:
 646              		.cfi_def_cfa_offset 8
 647              		.cfi_offset 3, -8
 648              		.cfi_offset 14, -4
 649              		.loc 5 1196 0
 650 0002 4FF6FF71 		movw	r1, #65535
 651 0006 0120     		movs	r0, #1
 652 0008 FFF7FEFF 		bl	_Z41__static_initialization_and_destruction_0ii
 653              	.LVL55:
 654 000c 08BD     		pop	{r3, pc}
 655              		.cfi_endproc
 656              	.LFE612:
 658              		.section	.init_array,"aw",%init_array
 659              		.align	2
 660 0000 00000000 		.word	_GLOBAL__sub_I_gFirst_Heading(target1)
 661              		.global	go_abs
 662              		.global	gKhangaiRobot
 663              		.global	gPSensor
 664              		.global	gXLidar
 665              		.global	gYEncoder
 666              		.global	gXEncoder
 667              		.global	gIs_First_Heading
 668              		.global	gFirst_Heading
 669              		.section	.bss.gFirst_Heading,"aw",%nobits
 670              		.align	2
 673              	gFirst_Heading:
 674 0000 00000000 		.space	4
ARM GAS  C:\Users\Prashant\AppData\Local\Temp\cczsYW6b.s 			page 37


 675              		.section	.bss.gKhangaiRobot,"aw",%nobits
 676              		.align	2
 677              		.set	.LANCHOR4,. + 0
 680              	gKhangaiRobot:
 681 0000 00000000 		.space	52
 681      00000000 
 681      00000000 
 681      00000000 
 681      00000000 
 682              		.section	.bss.gPSensor,"aw",%nobits
 683              		.align	2
 684              		.set	.LANCHOR3,. + 0
 687              	gPSensor:
 688 0000 00000000 		.space	20
 688      00000000 
 688      00000000 
 688      00000000 
 688      00000000 
 689              		.section	.bss.gXEncoder,"aw",%nobits
 690              		.align	2
 691              		.set	.LANCHOR0,. + 0
 694              	gXEncoder:
 695 0000 00000000 		.space	12
 695      00000000 
 695      00000000 
 696              		.section	.bss.gXLidar,"aw",%nobits
 697              		.align	2
 698              		.set	.LANCHOR2,. + 0
 701              	gXLidar:
 702 0000 00000000 		.space	8
 702      00000000 
 703              		.section	.bss.gYEncoder,"aw",%nobits
 704              		.align	2
 705              		.set	.LANCHOR1,. + 0
 708              	gYEncoder:
 709 0000 00000000 		.space	12
 709      00000000 
 709      00000000 
 710              		.section	.data.gIs_First_Heading,"aw",%progbits
 713              	gIs_First_Heading:
 714 0000 01       		.byte	1
 715              		.section	.data.go_abs,"aw",%progbits
 716              		.align	2
 719              	go_abs:
 720 0000 0000FA43 		.word	1140457472
 721 0004 0000FA43 		.word	1140457472
 722 0008 0000FF43 		.word	1140785152
 723 000c 6606FA43 		.word	1140459110
 724 0010 00000244 		.word	1140981760
 725 0014 9A19FA43 		.word	1140464026
 726 0018 00800444 		.word	1141145600
 727 001c 9A39FA43 		.word	1140472218
 728 0020 00000744 		.word	1141309440
 729 0024 6666FA43 		.word	1140483686
 730 0028 00800944 		.word	1141473280
 731 002c 00A0FA43 		.word	1140498432
 732 0030 00000C44 		.word	1141637120
ARM GAS  C:\Users\Prashant\AppData\Local\Temp\cczsYW6b.s 			page 38


 733 0034 66E6FA43 		.word	1140516454
 734 0038 00800E44 		.word	1141800960
 735 003c BA39FB43 		.word	1140537786
 736 0040 00001144 		.word	1141964800
 737 0044 DB99FB43 		.word	1140562395
 738 0048 00801344 		.word	1142128640
 739 004c E906FC43 		.word	1140590313
 740 0050 00001644 		.word	1142292480
 741 0054 C580FC43 		.word	1140621509
 742 0058 00801844 		.word	1142456320
 743 005c AE07FD43 		.word	1140656046
 744 0060 00001B44 		.word	1142620160
 745 0064 649BFD43 		.word	1140693860
 746 0068 00801D44 		.word	1142784000
 747 006c 293CFE43 		.word	1140735017
 748 0070 00002044 		.word	1142947840
 749 0074 FCE9FE43 		.word	1140779516
 750 0078 00802244 		.word	1143111680
 751 007c DDA4FF43 		.word	1140827357
 752 0080 00002544 		.word	1143275520
 753 0084 66360044 		.word	1140864614
 754 0088 00802744 		.word	1143439360
 755 008c E5A00044 		.word	1140891877
 756 0090 00002A44 		.word	1143603200
 757 0094 0C120144 		.word	1140920844
 758 0098 00802C44 		.word	1143767040
 759 009c BA890144 		.word	1140951482
 760 00a0 00002F44 		.word	1143930880
 761 00a4 21080244 		.word	1140983841
 762 00a8 00803144 		.word	1144094720
 763 00ac 1F8D0244 		.word	1141017887
 764 00b0 00003444 		.word	1144258560
 765 00b4 D5180344 		.word	1141053653
 766 00b8 00803644 		.word	1144422400
 767 00bc 44AB0344 		.word	1141091140
 768 00c0 00003944 		.word	1144586240
 769 00c4 7B440444 		.word	1141130363
 770 00c8 00803B44 		.word	1144750080
 771 00cc 6AE40444 		.word	1141171306
 772 00d0 00003E44 		.word	1144913920
 773 00d4 338B0544 		.word	1141214003
 774 00d8 00804044 		.word	1145077760
 775 00dc D5380644 		.word	1141258453
 776 00e0 00004344 		.word	1145241600
 777 00e4 60ED0644 		.word	1141304672
 778 00e8 00804544 		.word	1145405440
 779 00ec D5A80744 		.word	1141352661
 780 00f0 00004844 		.word	1145569280
 781 00f4 546B0844 		.word	1141402452
 782 00f8 00804A44 		.word	1145733120
 783 00fc CD340944 		.word	1141454029
 784 0100 00004D44 		.word	1145896960
 785 0104 50050A44 		.word	1141507408
 786 0108 00804F44 		.word	1146060800
 787 010c EEDC0A44 		.word	1141562606
 788 0110 00005244 		.word	1146224640
 789 0114 C7BB0B44 		.word	1141619655
ARM GAS  C:\Users\Prashant\AppData\Local\Temp\cczsYW6b.s 			page 39


 790 0118 00805444 		.word	1146388480
 791 011c CBA10C44 		.word	1141678539
 792 0120 00005744 		.word	1146552320
 793 0124 0A8F0D44 		.word	1141739274
 794 0128 00805944 		.word	1146716160
 795 012c A6830E44 		.word	1141801894
 796 0130 00005C44 		.word	1146880000
 797 0134 AE7F0F44 		.word	1141866414
 798 0138 00805E44 		.word	1147043840
 799 013c 23831044 		.word	1141932835
 800 0140 00006144 		.word	1147207680
 801 0144 148E1144 		.word	1142001172
 802 0148 00806344 		.word	1147371520
 803 014c A4A01244 		.word	1142071460
 804 0150 00006644 		.word	1147535360
 805 0154 D1BA1344 		.word	1142143697
 806 0158 00806844 		.word	1147699200
 807 015c ACDC1444 		.word	1142217900
 808 0160 00006B44 		.word	1147863040
 809 0164 66061644 		.word	1142294118
 810 0168 00806D44 		.word	1148026880
 811 016c F0371744 		.word	1142372336
 812 0170 00007044 		.word	1148190720
 813 0174 79711844 		.word	1142452601
 814 0178 00807244 		.word	1148354560
 815 017c 02B31944 		.word	1142534914
 816 0180 00007544 		.word	1148518400
 817 0184 ACFC1A44 		.word	1142619308
 818 0188 00807744 		.word	1148682240
 819 018c 874E1C44 		.word	1142705799
 820 0190 00007A44 		.word	1148846080
 821 0194 C5A81D44 		.word	1142794437
 822 0198 00807C44 		.word	1149009920
 823 019c 540B1F44 		.word	1142885204
 824 01a0 00007F44 		.word	1149173760
 825 01a4 77762044 		.word	1142978167
 826 01a8 00C08044 		.word	1149288448
 827 01ac 2DEA2144 		.word	1143073325
 828 01b0 00008244 		.word	1149370368
 829 01b4 A8662344 		.word	1143170728
 830 01b8 00408344 		.word	1149452288
 831 01bc F8EB2444 		.word	1143270392
 832 01c0 00808444 		.word	1149534208
 833 01c4 3D7A2644 		.word	1143372349
 834 01c8 00C08544 		.word	1149616128
 835 01cc 9A112844 		.word	1143476634
 836 01d0 00008744 		.word	1149698048
 837 01d4 3DB22944 		.word	1143583293
 838 01d8 00408844 		.word	1149779968
 839 01dc 295C2B44 		.word	1143692329
 840 01e0 00808944 		.word	1149861888
 841 01e4 9E0F2D44 		.word	1143803806
 842 01e8 00C08A44 		.word	1149943808
 843 01ec BCCC2E44 		.word	1143917756
 844 01f0 00008C44 		.word	1150025728
 845 01f4 B6933044 		.word	1144034230
 846 01f8 00408D44 		.word	1150107648
ARM GAS  C:\Users\Prashant\AppData\Local\Temp\cczsYW6b.s 			page 40


 847 01fc 9C643244 		.word	1144153244
 848 0200 00808E44 		.word	1150189568
 849 0204 9E3F3444 		.word	1144274846
 850 0208 00C08F44 		.word	1150271488
 851 020c FE243644 		.word	1144399102
 852 0210 00009144 		.word	1150353408
 853 0214 DD143844 		.word	1144526045
 854 0218 00409244 		.word	1150435328
 855 021c 6D0F3A44 		.word	1144655725
 856 0220 00809344 		.word	1150517248
 857 0224 EE143C44 		.word	1144788206
 858 0228 00C09444 		.word	1150599168
 859 022c 81253E44 		.word	1144923521
 860 0230 00009644 		.word	1150681088
 861 0234 68414044 		.word	1145061736
 862 0238 00409744 		.word	1150763008
 863 023c F6684244 		.word	1145202934
 864 0240 00809844 		.word	1150844928
 865 0244 4A9C4444 		.word	1145347146
 866 0248 00C09944 		.word	1150926848
 867 024c A6DB4644 		.word	1145494438
 868 0250 00009B44 		.word	1151008768
 869 0254 6D274944 		.word	1145644909
 870 0258 00409C44 		.word	1151090688
 871 025c DF7F4B44 		.word	1145798623
 872 0260 00809D44 		.word	1151172608
 873 0264 2FE54D44 		.word	1145955631
 874 0268 00C09E44 		.word	1151254528
 875 026c CF575044 		.word	1146116047
 876 0270 0000A044 		.word	1151336448
 877 0274 10D85244 		.word	1146279952
 878 0278 0040A144 		.word	1151418368
 879 027c 35665544 		.word	1146447413
 880 0280 0080A244 		.word	1151500288
 881 0284 B0025844 		.word	1146618544
 882 0288 00C0A344 		.word	1151582208
 883 028c F4AD5A44 		.word	1146793460
 884 0290 0000A544 		.word	1151664128
 885 0294 52685D44 		.word	1146972242
 886 0298 0040A644 		.word	1151746048
 887 029c 4E326044 		.word	1147155022
 888 02a0 0080A744 		.word	1151827968
 889 02a4 6A0C6344 		.word	1147341930
 890 02a8 00C0A844 		.word	1151909888
 891 02ac 0AF76544 		.word	1147533066
 892 02b0 0000AA44 		.word	1151991808
 893 02b4 E1F26844 		.word	1147728609
 894 02b8 0040AB44 		.word	1152073728
 895 02bc 62006C44 		.word	1147928674
 896 02c0 0080AC44 		.word	1152155648
 897 02c4 42206F44 		.word	1148133442
 898 02c8 00C0AD44 		.word	1152237568
 899 02cc 23537244 		.word	1148343075
 900 02d0 0000AF44 		.word	1152319488
 901 02d4 BA997544 		.word	1148557754
 902 02d8 0040B044 		.word	1152401408
 903 02dc CDF47844 		.word	1148777677
ARM GAS  C:\Users\Prashant\AppData\Local\Temp\cczsYW6b.s 			page 41


 904 02e0 0080B144 		.word	1152483328
 905 02e4 1F657C44 		.word	1149003039
 906 02e8 00C0B244 		.word	1152565248
 907 02ec 29EC7F44 		.word	1149234217
 908 02f0 0000B444 		.word	1152647168
 909 02f4 CDC48144 		.word	1149355213
 910 02f8 0040B544 		.word	1152729088
 911 02fc 00A08344 		.word	1149476864
 912 0300 0080B644 		.word	1152811008
 913 0304 AE878544 		.word	1149601710
 914 0308 00C0B744 		.word	1152892928
 915 030c CD7C8744 		.word	1149729997
 916 0310 0000B944 		.word	1152974848
 917 0314 00808944 		.word	1149861888
 918 0318 0040BA44 		.word	1153056768
 919 031c EC918B44 		.word	1149997548
 920 0320 0080BB44 		.word	1153138688
 921 0324 85B38D44 		.word	1150137221
 922 0328 00C0BC44 		.word	1153220608
 923 032c C3E58F44 		.word	1150281155
 924 0330 0000BE44 		.word	1153302528
 925 0334 EC299244 		.word	1150429676
 926 0338 0040BF44 		.word	1153384448
 927 033c A4809444 		.word	1150582948
 928 0340 0080C044 		.word	1153466368
 929 0344 85EB9644 		.word	1150741381
 930 0348 00C0C144 		.word	1153548288
 931 034c 296C9944 		.word	1150905385
 932 0350 0000C344 		.word	1153630208
 933 0354 29049C44 		.word	1151075369
 934 0358 0040C444 		.word	1153712128
 935 035c C3B59E44 		.word	1151251907
 936 0360 0080C544 		.word	1153794048
 937 0364 3383A144 		.word	1151435571
 938 0368 00C0C644 		.word	1153875968
 939 036c B86EA444 		.word	1151626936
 940 0370 0000C844 		.word	1153957888
 941 0374 297CA744 		.word	1151826985
 942 0378 0040C944 		.word	1154039808
 943 037c 5CAFAA44 		.word	1152036700
 944 0380 0080CA44 		.word	1154121728
 945 0384 CD0CAE44 		.word	1152257229
 946 0388 00C0CB44 		.word	1154203648
 947 038c 3D9AB144 		.word	1152490045
 948 0390 0000CD44 		.word	1154285568
 949 0394 AE5FB544 		.word	1152737198
 950 0398 0040CE44 		.word	1154367488
 951 039c B866B944 		.word	1153001144
 952 03a0 0080CF44 		.word	1154449408
 953 03a4 29BCBD44 		.word	1153285161
 954 03a8 00C0D044 		.word	1154531328
 955 03ac 8F72C244 		.word	1153593999
 956 03b0 0000D244 		.word	1154613248
 957 03b4 71A5C744 		.word	1153934705
 958 03b8 0040D344 		.word	1154695168
 959 03bc 0080CD44 		.word	1154318336
 960 03c0 0080D444 		.word	1154777088
ARM GAS  C:\Users\Prashant\AppData\Local\Temp\cczsYW6b.s 			page 42


 961 03c4 0050D444 		.word	1154764800
 962 03c8 00C0D544 		.word	1154859008
 963 03cc 5CBFDC44 		.word	1155317596
 964 03d0 0000D744 		.word	1154940928
 965 03d4 8513E944 		.word	1156125573
 966 03d8 00A0D744 		.word	1154981888
 967 03dc 0000FA44 		.word	1157234688
 968 03e0 0060D644 		.word	1154899968
 969 03e4 00540645 		.word	1158042624
 970 03e8 0020D544 		.word	1154818048
 971 03ec 00200A45 		.word	1158291456
 972 03f0 00E0D344 		.word	1154736128
 973 03f4 14FE0C45 		.word	1158479380
 974 03f8 00A0D244 		.word	1154654208
 975 03fc 0A5F0F45 		.word	1158635274
 976 0400 0060D144 		.word	1154572288
 977 0404 B86E1145 		.word	1158770360
 978 0408 0020D044 		.word	1154490368
 979 040c AE431345 		.word	1158890414
 980 0410 00E0CE44 		.word	1154408448
 981 0414 85EB1445 		.word	1158998917
 982 0418 00A0CD44 		.word	1154326528
 983 041c 0A6F1645 		.word	1159098122
 984 0420 0060CC44 		.word	1154244608
 985 0424 52D41745 		.word	1159189586
 986 0428 0020CB44 		.word	1154162688
 987 042c 00201945 		.word	1159274496
 988 0430 00E0C944 		.word	1154080768
 989 0434 48551A45 		.word	1159353672
 990 0438 00A0C844 		.word	1153998848
 991 043c 0A771B45 		.word	1159427850
 992 0440 0060C744 		.word	1153916928
 993 0444 5C871C45 		.word	1159497564
 994 0448 0020C644 		.word	1153835008
 995 044c AE871D45 		.word	1159563182
 996 0450 00E0C444 		.word	1153753088
 997 0454 C3791E45 		.word	1159625155
 998 0458 00A0C344 		.word	1153671168
 999 045c 8F5E1F45 		.word	1159683727
 1000 0460 0060C244 		.word	1153589248
 1001 0464 33372045 		.word	1159739187
 1002 0468 0020C144 		.word	1153507328
 1003 046c 7B042145 		.word	1159791739
 1004 0470 00E0BF44 		.word	1153425408
 1005 0474 33C72145 		.word	1159841587
 1006 0478 00A0BE44 		.word	1153343488
 1007 047c 00802245 		.word	1159888896
 1008 0480 0060BD44 		.word	1153261568
 1009 0484 5C2F2345 		.word	1159933788
 1010 0488 0020BC44 		.word	1153179648
 1011 048c ECD52345 		.word	1159976428
 1012 0490 00E0BA44 		.word	1153097728
 1013 0494 00742445 		.word	1160016896
 1014 0498 00A0B944 		.word	1153015808
 1015 049c EC092545 		.word	1160055276
 1016 04a0 0060B844 		.word	1152933888
 1017 04a4 52982545 		.word	1160091730
ARM GAS  C:\Users\Prashant\AppData\Local\Temp\cczsYW6b.s 			page 43


 1018 04a8 0020B744 		.word	1152851968
 1019 04ac 331F2645 		.word	1160126259
 1020 04b0 00E0B544 		.word	1152770048
 1021 04b4 0A9F2645 		.word	1160158986
 1022 04b8 00A0B444 		.word	1152688128
 1023 04bc 00182745 		.word	1160189952
 1024 04c0 0060B344 		.word	1152606208
 1025 04c4 3D8A2745 		.word	1160219197
 1026 04c8 0020B244 		.word	1152524288
 1027 04cc 3DF62745 		.word	1160246845
 1028 04d0 00E0B044 		.word	1152442368
 1029 04d4 D75B2845 		.word	1160272855
 1030 04d8 00A0AF44 		.word	1152360448
 1031 04dc 5CBB2845 		.word	1160297308
 1032 04e0 0060AE44 		.word	1152278528
 1033 04e4 1F152945 		.word	1160320287
 1034 04e8 0020AD44 		.word	1152196608
 1035 04ec F6682945 		.word	1160341750
 1036 04f0 00E0AB44 		.word	1152114688
 1037 04f4 33B72945 		.word	1160361779
 1038 04f8 00A0AA44 		.word	1152032768
 1039 04fc 00002A45 		.word	1160380416
 1040 0500 0060A944 		.word	1151950848
 1041 0504 5C432A45 		.word	1160397660
 1042 0508 0020A844 		.word	1151868928
 1043 050c 48812A45 		.word	1160413512
 1044 0510 00E0A644 		.word	1151787008
 1045 0514 ECB92A45 		.word	1160428012
 1046 0518 00A0A544 		.word	1151705088
 1047 051c 9AED2A45 		.word	1160441242
 1048 0520 0060A444 		.word	1151623168
 1049 0524 001C2B45 		.word	1160453120
 1050 0528 0020A344 		.word	1151541248
 1051 052c 71452B45 		.word	1160463729
 1052 0530 00E0A144 		.word	1151459328
 1053 0534 C3692B45 		.word	1160473027
 1054 0538 00A0A044 		.word	1151377408
 1055 053c 48892B45 		.word	1160481096
 1056 0540 00609F44 		.word	1151295488
 1057 0544 D7A32B45 		.word	1160487895
 1058 0548 00209E44 		.word	1151213568
 1059 054c 9AB92B45 		.word	1160493466
 1060 0550 00E09C44 		.word	1151131648
 1061 0554 66CA2B45 		.word	1160497766
 1062 0558 00A09B44 		.word	1151049728
 1063 055c 66D62B45 		.word	1160500838
 1064 0560 00609A44 		.word	1150967808
 1065 0564 9ADD2B45 		.word	1160502682
 1066 0568 00209944 		.word	1150885888
 1067 056c 00E02B45 		.word	1160503296
 1068 0570 F6D09744 		.word	1150800118
 1069 0574 00802C45 		.word	1160544256
 1070 0578 EC819644 		.word	1150714348
 1071 057c 00202D45 		.word	1160585216
 1072 0580 33339544 		.word	1150628659
 1073 0584 00C02D45 		.word	1160626176
 1074 0588 1FE59344 		.word	1150543135
ARM GAS  C:\Users\Prashant\AppData\Local\Temp\cczsYW6b.s 			page 44


 1075 058c 00602E45 		.word	1160667136
 1076 0590 AE979244 		.word	1150457774
 1077 0594 00002F45 		.word	1160708096
 1078 0598 8F4A9144 		.word	1150372495
 1079 059c 00A02F45 		.word	1160749056
 1080 05a0 B8FE8F44 		.word	1150287544
 1081 05a4 00403045 		.word	1160790016
 1082 05a8 D7B38E44 		.word	1150202839
 1083 05ac 00E03045 		.word	1160830976
 1084 05b0 EC698D44 		.word	1150118380
 1085 05b4 00803145 		.word	1160871936
 1086 05b8 48218C44 		.word	1150034248
 1087 05bc 00203245 		.word	1160912896
 1088 05c0 3DDA8A44 		.word	1149950525
 1089 05c4 00C03245 		.word	1160953856
 1090 05c8 1F958944 		.word	1149867295
 1091 05cc 00603345 		.word	1160994816
 1092 05d0 48518844 		.word	1149784392
 1093 05d4 00003445 		.word	1161035776
 1094 05d8 5C0F8744 		.word	1149701980
 1095 05dc 00A03445 		.word	1161076736
 1096 05e0 AECF8544 		.word	1149620142
 1097 05e4 00403545 		.word	1161117696
 1098 05e8 3D928444 		.word	1149538877
 1099 05ec 00E03545 		.word	1161158656
 1100 05f0 B8568344 		.word	1149458104
 1101 05f4 00803645 		.word	1161199616
 1102 05f8 141E8244 		.word	1149378068
 1103 05fc 00203745 		.word	1161240576
 1104 0600 AEE78044 		.word	1149298606
 1105 0604 00C03745 		.word	1161281536
 1106 0608 52687F44 		.word	1149200466
 1107 060c 00603845 		.word	1161322496
 1108 0610 0A077D44 		.word	1149044490
 1109 0614 00003945 		.word	1161363456
 1110 0618 85AB7A44 		.word	1148889989
 1111 061c 00A03945 		.word	1161404416
 1112 0620 87567844 		.word	1148737159
 1113 0624 00403A45 		.word	1161445376
 1114 0628 DF077644 		.word	1148585951
 1115 062c 00E03A45 		.word	1161486336
 1116 0630 00C07344 		.word	1148436480
 1117 0634 00803B45 		.word	1161527296
 1118 0638 2B7F7144 		.word	1148288811
 1119 063c 00203C45 		.word	1161568256
 1120 0640 91456F44 		.word	1148142993
 1121 0644 00C03C45 		.word	1161609216
 1122 0648 75136D44 		.word	1147999093
 1123 064c 00603D45 		.word	1161650176
 1124 0650 27E96A44 		.word	1147857191
 1125 0654 00003E45 		.word	1161691136
 1126 0658 D9C66844 		.word	1147717337
 1127 065c 00A03E45 		.word	1161732096
 1128 0660 CDAC6644 		.word	1147579597
 1129 0664 00403F45 		.word	1161773056
 1130 0668 449B6444 		.word	1147444036
 1131 066c 00E03F45 		.word	1161814016
ARM GAS  C:\Users\Prashant\AppData\Local\Temp\cczsYW6b.s 			page 45


 1132 0670 6F926244 		.word	1147310703
 1133 0674 00804045 		.word	1161854976
 1134 0678 8F926044 		.word	1147179663
 1135 067c 00204145 		.word	1161895936
 1136 0680 D79B5E44 		.word	1147050967
 1137 0684 00C04145 		.word	1161936896
 1138 0688 77AE5C44 		.word	1146924663
 1139 068c 00604245 		.word	1161977856
 1140 0690 C1CA5A44 		.word	1146800833
 1141 0694 00004345 		.word	1162018816
 1142 0698 E5F05844 		.word	1146679525
 1143 069c 00A04345 		.word	1162059776
 1144 06a0 06215744 		.word	1146560774
 1145 06a4 00404445 		.word	1162100736
 1146 06a8 645B5544 		.word	1146444644
 1147 06ac 00E04445 		.word	1162141696
 1148 06b0 31A05344 		.word	1146331185
 1149 06b4 00804545 		.word	1162182656
 1150 06b8 8DEF5144 		.word	1146220429
 1151 06bc 00204645 		.word	1162223616
 1152 06c0 CB495044 		.word	1146112459
 1153 06c4 00C04645 		.word	1162264576
 1154 06c8 0AAF4E44 		.word	1146007306
 1155 06cc 00604745 		.word	1162305536
 1156 06d0 7D1F4D44 		.word	1145905021
 1157 06d4 00004845 		.word	1162346496
 1158 06d8 339B4B44 		.word	1145805619
 1159 06dc 00A04845 		.word	1162387456
 1160 06e0 7F224A44 		.word	1145709183
 1161 06e4 00404945 		.word	1162428416
 1162 06e8 81B54844 		.word	1145615745
 1163 06ec 00E04945 		.word	1162469376
 1164 06f0 5A544744 		.word	1145525338
 1165 06f4 00804A45 		.word	1162510336
 1166 06f8 2BFF4544 		.word	1145437995
 1167 06fc 00204B45 		.word	1162551296
 1168 0700 35B64444 		.word	1145353781
 1169 0704 00C04B45 		.word	1162592256
 1170 0708 79794344 		.word	1145272697
 1171 070c 00604C45 		.word	1162633216
 1172 0710 37494244 		.word	1145194807
 1173 0714 00004D45 		.word	1162674176
 1174 0718 81254144 		.word	1145120129
 1175 071c 00A04D45 		.word	1162715136
 1176 0720 870E4044 		.word	1145048711
 1177 0724 00404E45 		.word	1162756096
 1178 0728 5A043F44 		.word	1144980570
 1179 072c 00E04E45 		.word	1162797056
 1180 0730 2B073E44 		.word	1144915755
 1181 0734 00804F45 		.word	1162838016
 1182 0738 FA163D44 		.word	1144854266
 1183 073c 00205045 		.word	1162878976
 1184 0740 F8333C44 		.word	1144796152
 1185 0744 00C05045 		.word	1162919936
 1186 0748 355E3B44 		.word	1144741429
 1187 074c 00605145 		.word	1162960896
 1188 0750 C3953A44 		.word	1144690115
ARM GAS  C:\Users\Prashant\AppData\Local\Temp\cczsYW6b.s 			page 46


 1189 0754 00005245 		.word	1163001856
 1190 0758 D1DA3944 		.word	1144642257
 1191 075c 00A05245 		.word	1163042816
 1192 0760 502D3944 		.word	1144597840
 1193 0764 00405345 		.word	1163083776
 1194 0768 818D3844 		.word	1144556929
 1195 076c 00E05345 		.word	1163124736
 1196 0770 44FB3744 		.word	1144519492
 1197 0774 00805445 		.word	1163165696
 1198 0778 C9763744 		.word	1144485577
 1199 077c 00205545 		.word	1163206656
 1200 0780 21003744 		.word	1144455201
 1201 0784 00C05545 		.word	1163247616
 1202 0788 4C973644 		.word	1144428364
 1203 078c 00605645 		.word	1163288576
 1204 0790 5A3C3644 		.word	1144405082
 1205 0794 00005745 		.word	1163329536
 1206 0798 4CEF3544 		.word	1144385356
 1207 079c 00A05745 		.word	1163370496
 1208 07a0 42B03544 		.word	1144369218
 1209 07a4 00405845 		.word	1163411456
 1210 07a8 2B7F3544 		.word	1144356651
 1211 07ac 00E05845 		.word	1163452416
 1212 07b0 195C3544 		.word	1144347673
 1213 07b4 00805945 		.word	1163493376
 1214 07b8 0A473544 		.word	1144342282
 1215 07bc 00205A45 		.word	1163534336
 1216 07c0 00403544 		.word	1144340480
 1217 07c4 00C05A45 		.word	1163575296
 1218 07c8 0A473544 		.word	1144342282
 1219 07cc 00605B45 		.word	1163616256
 1220 07d0 195C3544 		.word	1144347673
 1221 07d4 00005C45 		.word	1163657216
 1222 07d8 2B7F3544 		.word	1144356651
 1223 07dc 00A05C45 		.word	1163698176
 1224 07e0 42B03544 		.word	1144369218
 1225 07e4 00405D45 		.word	1163739136
 1226 07e8 4CEF3544 		.word	1144385356
 1227 07ec 00E05D45 		.word	1163780096
 1228 07f0 5A3C3644 		.word	1144405082
 1229 07f4 00805E45 		.word	1163821056
 1230 07f8 4C973644 		.word	1144428364
 1231 07fc 00205F45 		.word	1163862016
 1232 0800 21003744 		.word	1144455201
 1233 0804 00C05F45 		.word	1163902976
 1234 0808 C9763744 		.word	1144485577
 1235 080c 00606045 		.word	1163943936
 1236 0810 44FB3744 		.word	1144519492
 1237 0814 00006145 		.word	1163984896
 1238 0818 818D3844 		.word	1144556929
 1239 081c 00A06145 		.word	1164025856
 1240 0820 502D3944 		.word	1144597840
 1241 0824 00406245 		.word	1164066816
 1242 0828 D1DA3944 		.word	1144642257
 1243 082c 00E06245 		.word	1164107776
 1244 0830 C3953A44 		.word	1144690115
 1245 0834 00806345 		.word	1164148736
ARM GAS  C:\Users\Prashant\AppData\Local\Temp\cczsYW6b.s 			page 47


 1246 0838 355E3B44 		.word	1144741429
 1247 083c 00206445 		.word	1164189696
 1248 0840 F8333C44 		.word	1144796152
 1249 0844 00C06445 		.word	1164230656
 1250 0848 FA163D44 		.word	1144854266
 1251 084c 00606545 		.word	1164271616
 1252 0850 2B073E44 		.word	1144915755
 1253 0854 00006645 		.word	1164312576
 1254 0858 5A043F44 		.word	1144980570
 1255 085c 00A06645 		.word	1164353536
 1256 0860 870E4044 		.word	1145048711
 1257 0864 00406745 		.word	1164394496
 1258 0868 81254144 		.word	1145120129
 1259 086c 00E06745 		.word	1164435456
 1260 0870 37494244 		.word	1145194807
 1261 0874 00806845 		.word	1164476416
 1262 0878 79794344 		.word	1145272697
 1263 087c 00206945 		.word	1164517376
 1264 0880 35B64444 		.word	1145353781
 1265 0884 00C06945 		.word	1164558336
 1266 0888 2BFF4544 		.word	1145437995
 1267 088c 00606A45 		.word	1164599296
 1268 0890 5A544744 		.word	1145525338
 1269 0894 00006B45 		.word	1164640256
 1270 0898 81B54844 		.word	1145615745
 1271 089c 00A06B45 		.word	1164681216
 1272 08a0 7F224A44 		.word	1145709183
 1273 08a4 00406C45 		.word	1164722176
 1274 08a8 339B4B44 		.word	1145805619
 1275 08ac 00E06C45 		.word	1164763136
 1276 08b0 7D1F4D44 		.word	1145905021
 1277 08b4 00806D45 		.word	1164804096
 1278 08b8 0AAF4E44 		.word	1146007306
 1279 08bc 00206E45 		.word	1164845056
 1280 08c0 CB495044 		.word	1146112459
 1281 08c4 00C06E45 		.word	1164886016
 1282 08c8 8DEF5144 		.word	1146220429
 1283 08cc 00606F45 		.word	1164926976
 1284 08d0 31A05344 		.word	1146331185
 1285 08d4 00007045 		.word	1164967936
 1286 08d8 645B5544 		.word	1146444644
 1287 08dc 00A07045 		.word	1165008896
 1288 08e0 06215744 		.word	1146560774
 1289 08e4 00407145 		.word	1165049856
 1290 08e8 E5F05844 		.word	1146679525
 1291 08ec 00E07145 		.word	1165090816
 1292 08f0 C1CA5A44 		.word	1146800833
 1293 08f4 00807245 		.word	1165131776
 1294 08f8 77AE5C44 		.word	1146924663
 1295 08fc 00207345 		.word	1165172736
 1296 0900 D79B5E44 		.word	1147050967
 1297 0904 00C07345 		.word	1165213696
 1298 0908 8F926044 		.word	1147179663
 1299 090c 00607445 		.word	1165254656
 1300 0910 6F926244 		.word	1147310703
 1301 0914 00007545 		.word	1165295616
 1302 0918 449B6444 		.word	1147444036
ARM GAS  C:\Users\Prashant\AppData\Local\Temp\cczsYW6b.s 			page 48


 1303 091c 00A07545 		.word	1165336576
 1304 0920 CDAC6644 		.word	1147579597
 1305 0924 00407645 		.word	1165377536
 1306 0928 D9C66844 		.word	1147717337
 1307 092c 00E07645 		.word	1165418496
 1308 0930 27E96A44 		.word	1147857191
 1309 0934 00807745 		.word	1165459456
 1310 0938 75136D44 		.word	1147999093
 1311 093c 00207845 		.word	1165500416
 1312 0940 91456F44 		.word	1148142993
 1313 0944 00C07845 		.word	1165541376
 1314 0948 2B7F7144 		.word	1148288811
 1315 094c 00607945 		.word	1165582336
 1316 0950 00C07344 		.word	1148436480
 1317 0954 00007A45 		.word	1165623296
 1318 0958 DF077644 		.word	1148585951
 1319 095c 00A07A45 		.word	1165664256
 1320 0960 87567844 		.word	1148737159
 1321 0964 00407B45 		.word	1165705216
 1322 0968 85AB7A44 		.word	1148889989
 1323 096c 00E07B45 		.word	1165746176
 1324 0970 0A077D44 		.word	1149044490
 1325 0974 00807C45 		.word	1165787136
 1326 0978 52687F44 		.word	1149200466
 1327 097c 00207D45 		.word	1165828096
 1328 0980 AEE78044 		.word	1149298606
 1329 0984 00C07D45 		.word	1165869056
 1330 0988 141E8244 		.word	1149378068
 1331 098c 00607E45 		.word	1165910016
 1332 0990 B8568344 		.word	1149458104
 1333 0994 00007F45 		.word	1165950976
 1334 0998 3D928444 		.word	1149538877
 1335 099c 00A07F45 		.word	1165991936
 1336 09a0 AECF8544 		.word	1149620142
 1337 09a4 00208045 		.word	1166024704
 1338 09a8 5C0F8744 		.word	1149701980
 1339 09ac 00708045 		.word	1166045184
 1340 09b0 48518844 		.word	1149784392
 1341 09b4 00C08045 		.word	1166065664
 1342 09b8 1F958944 		.word	1149867295
 1343 09bc 00108145 		.word	1166086144
 1344 09c0 3DDA8A44 		.word	1149950525
 1345 09c4 00608145 		.word	1166106624
 1346 09c8 48218C44 		.word	1150034248
 1347 09cc 00B08145 		.word	1166127104
 1348 09d0 EC698D44 		.word	1150118380
 1349 09d4 00008245 		.word	1166147584
 1350 09d8 D7B38E44 		.word	1150202839
 1351 09dc 00508245 		.word	1166168064
 1352 09e0 B8FE8F44 		.word	1150287544
 1353 09e4 00A08245 		.word	1166188544
 1354 09e8 8F4A9144 		.word	1150372495
 1355 09ec 00F08245 		.word	1166209024
 1356 09f0 AE979244 		.word	1150457774
 1357 09f4 00408345 		.word	1166229504
 1358 09f8 1FE59344 		.word	1150543135
 1359 09fc 00908345 		.word	1166249984
ARM GAS  C:\Users\Prashant\AppData\Local\Temp\cczsYW6b.s 			page 49


 1360 0a00 33339544 		.word	1150628659
 1361 0a04 00E08345 		.word	1166270464
 1362 0a08 EC819644 		.word	1150714348
 1363 0a0c 00308445 		.word	1166290944
 1364 0a10 F6D09744 		.word	1150800118
 1365 0a14 00808445 		.word	1166311424
 1366 0a18 00209944 		.word	1150885888
 1367 0a1c 00D08445 		.word	1166331904
 1368 0a20 0A6F9A44 		.word	1150971658
 1369 0a24 00208545 		.word	1166352384
 1370 0a28 14BE9B44 		.word	1151057428
 1371 0a2c 00708545 		.word	1166372864
 1372 0a30 CD0C9D44 		.word	1151143117
 1373 0a34 00C08545 		.word	1166393344
 1374 0a38 E15A9E44 		.word	1151228641
 1375 0a3c 00108645 		.word	1166413824
 1376 0a40 52A89F44 		.word	1151314002
 1377 0a44 00608645 		.word	1166434304
 1378 0a48 71F5A044 		.word	1151399281
 1379 0a4c 00B08645 		.word	1166454784
 1380 0a50 4841A244 		.word	1151484232
 1381 0a54 00008745 		.word	1166475264
 1382 0a58 298CA344 		.word	1151568937
 1383 0a5c 00508745 		.word	1166495744
 1384 0a60 14D6A444 		.word	1151653396
 1385 0a64 00A08745 		.word	1166516224
 1386 0a68 B81EA644 		.word	1151737528
 1387 0a6c 00F08745 		.word	1166536704
 1388 0a70 C365A744 		.word	1151821251
 1389 0a74 00408845 		.word	1166557184
 1390 0a78 E1AAA844 		.word	1151904481
 1391 0a7c 00908845 		.word	1166577664
 1392 0a80 B8EEA944 		.word	1151987384
 1393 0a84 00E08845 		.word	1166598144
 1394 0a88 A430AB44 		.word	1152069796
 1395 0a8c 00308945 		.word	1166618624
 1396 0a90 5270AC44 		.word	1152151634
 1397 0a94 00808945 		.word	1166639104
 1398 0a98 C3ADAD44 		.word	1152232899
 1399 0a9c 00D08945 		.word	1166659584
 1400 0aa0 48E9AE44 		.word	1152313672
 1401 0aa4 00208A45 		.word	1166680064
 1402 0aa8 EC21B044 		.word	1152393708
 1403 0aac 00708A45 		.word	1166700544
 1404 0ab0 5258B144 		.word	1152473170
 1405 0ab4 00C08A45 		.word	1166721024
 1406 0ab8 D78BB244 		.word	1152551895
 1407 0abc 00108B45 		.word	1166741504
 1408 0ac0 7BBCB344 		.word	1152629883
 1409 0ac4 00608B45 		.word	1166761984
 1410 0ac8 3DEAB444 		.word	1152707133
 1411 0acc 00B08B45 		.word	1166782464
 1412 0ad0 CD14B644 		.word	1152783565
 1413 0ad4 00008C45 		.word	1166802944
 1414 0ad8 293CB744 		.word	1152859177
 1415 0adc 00508C45 		.word	1166823424
 1416 0ae0 0060B844 		.word	1152933888
ARM GAS  C:\Users\Prashant\AppData\Local\Temp\cczsYW6b.s 			page 50


 1417 0ae4 00A08C45 		.word	1166843904
 1418 0ae8 5280B944 		.word	1153007698
 1419 0aec 00F08C45 		.word	1166864384
 1420 0af0 1F9DBA44 		.word	1153080607
 1421 0af4 00408D45 		.word	1166884864
 1422 0af8 66B6BB44 		.word	1153152614
 1423 0afc 00908D45 		.word	1166905344
 1424 0b00 85CBBC44 		.word	1153223557
 1425 0b04 00E08D45 		.word	1166925824
 1426 0b08 7BDCBD44 		.word	1153293435
 1427 0b0c 00308E45 		.word	1166946304
 1428 0b10 9AE9BE44 		.word	1153362330
 1429 0b14 00808E45 		.word	1166966784
 1430 0b18 3DF2BF44 		.word	1153430077
 1431 0b1c 00D08E45 		.word	1166987264
 1432 0b20 B8F6C044 		.word	1153496760
 1433 0b24 00208F45 		.word	1167007744
 1434 0b28 B8F6C144 		.word	1153562296
 1435 0b2c 00708F45 		.word	1167028224
 1436 0b30 3DF2C244 		.word	1153626685
 1437 0b34 00C08F45 		.word	1167048704
 1438 0b38 A4E8C344 		.word	1153689764
 1439 0b3c 00109045 		.word	1167069184
 1440 0b40 8FDAC444 		.word	1153751695
 1441 0b44 00609045 		.word	1167089664
 1442 0b48 AEC7C544 		.word	1153812398
 1443 0b4c 00B09045 		.word	1167110144
 1444 0b50 5CAFC644 		.word	1153871708
 1445 0b54 00009145 		.word	1167130624
 1446 0b58 3D92C744 		.word	1153929789
 1447 0b5c 00509145 		.word	1167151104
 1448 0b60 0070C844 		.word	1153986560
 1449 0b64 00A09145 		.word	1167171584
 1450 0b68 5248C944 		.word	1154041938
 1451 0b6c 00F09145 		.word	1167192064
 1452 0b70 331BCA44 		.word	1154095923
 1453 0b74 00409245 		.word	1167212544
 1454 0b78 A4E8CA44 		.word	1154148516
 1455 0b7c 00909245 		.word	1167233024
 1456 0b80 52B0CB44 		.word	1154199634
 1457 0b84 00E09245 		.word	1167253504
 1458 0b88 3D72CC44 		.word	1154249277
 1459 0b8c 00309345 		.word	1167273984
 1460 0b90 B82ECD44 		.word	1154297528
 1461 0b94 00809345 		.word	1167294464
 1462 0b98 1FE5CD44 		.word	1154344223
 1463 0b9c 00D09345 		.word	1167314944
 1464 0ba0 C395CE44 		.word	1154389443
 1465 0ba4 00209445 		.word	1167335424
 1466 0ba8 5240CF44 		.word	1154433106
 1467 0bac 00709445 		.word	1167355904
 1468 0bb0 CDE4CF44 		.word	1154475213
 1469 0bb4 00C09445 		.word	1167376384
 1470 0bb8 3383D044 		.word	1154515763
 1471 0bbc 00109545 		.word	1167396864
 1472 0bc0 851BD144 		.word	1154554757
 1473 0bc4 00609545 		.word	1167417344
ARM GAS  C:\Users\Prashant\AppData\Local\Temp\cczsYW6b.s 			page 51


 1474 0bc8 1FADD144 		.word	1154592031
 1475 0bcc 00B09545 		.word	1167437824
 1476 0bd0 A438D244 		.word	1154627748
 1477 0bd4 00009645 		.word	1167458304
 1478 0bd8 C3BDD244 		.word	1154661827
 1479 0bdc 00509645 		.word	1167478784
 1480 0be0 7B3CD344 		.word	1154694267
 1481 0be4 00A09645 		.word	1167499264
 1482 0be8 7BB4D344 		.word	1154724987
 1483 0bec 00F09645 		.word	1167519744
 1484 0bf0 1426D444 		.word	1154754068
 1485 0bf4 00409745 		.word	1167540224
 1486 0bf8 F690D444 		.word	1154781430
 1487 0bfc 00909745 		.word	1167560704
 1488 0c00 1FF5D444 		.word	1154807071
 1489 0c04 00E09745 		.word	1167581184
 1490 0c08 8F52D544 		.word	1154830991
 1491 0c0c 00309845 		.word	1167601664
 1492 0c10 48A9D544 		.word	1154853192
 1493 0c14 00809845 		.word	1167622144
 1494 0c18 48F9D544 		.word	1154873672
 1495 0c1c 00D09845 		.word	1167642624
 1496 0c20 3D42D644 		.word	1154892349
 1497 0c24 00209945 		.word	1167663104
 1498 0c28 7B84D644 		.word	1154909307
 1499 0c2c 00709945 		.word	1167683584
 1500 0c30 00C0D644 		.word	1154924544
 1501 0c34 00C09945 		.word	1167704064
 1502 0c38 7BF4D644 		.word	1154937979
 1503 0c3c 00109A45 		.word	1167724544
 1504 0c40 EC21D744 		.word	1154949612
 1505 0c44 00609A45 		.word	1167745024
 1506 0c48 5248D744 		.word	1154959442
 1507 0c4c 00B09A45 		.word	1167765504
 1508 0c50 0068D744 		.word	1154967552
 1509 0c54 00009B45 		.word	1167785984
 1510 0c58 5280D744 		.word	1154973778
 1511 0c5c 00509B45 		.word	1167806464
 1512 0c60 EC91D744 		.word	1154978284
 1513 0c64 00A09B45 		.word	1167826944
 1514 0c68 7B9CD744 		.word	1154980987
 1515 0c6c 00F09B45 		.word	1167847424
 1516 0c70 00A0D744 		.word	1154981888
 1517 0c74 00409C45 		.word	1167867904
 1518 0c78 7B9CD744 		.word	1154980987
 1519 0c7c 00909C45 		.word	1167888384
 1520 0c80 EC91D744 		.word	1154978284
 1521 0c84 00E09C45 		.word	1167908864
 1522 0c88 5280D744 		.word	1154973778
 1523 0c8c 00309D45 		.word	1167929344
 1524 0c90 0068D744 		.word	1154967552
 1525 0c94 00809D45 		.word	1167949824
 1526 0c98 5248D744 		.word	1154959442
 1527 0c9c 00D09D45 		.word	1167970304
 1528 0ca0 EC21D744 		.word	1154949612
 1529 0ca4 00209E45 		.word	1167990784
 1530 0ca8 7BF4D644 		.word	1154937979
ARM GAS  C:\Users\Prashant\AppData\Local\Temp\cczsYW6b.s 			page 52


 1531 0cac 00709E45 		.word	1168011264
 1532 0cb0 00C0D644 		.word	1154924544
 1533 0cb4 00C09E45 		.word	1168031744
 1534 0cb8 7B84D644 		.word	1154909307
 1535 0cbc 00109F45 		.word	1168052224
 1536 0cc0 3D42D644 		.word	1154892349
 1537 0cc4 00609F45 		.word	1168072704
 1538 0cc8 48F9D544 		.word	1154873672
 1539 0ccc 00B09F45 		.word	1168093184
 1540 0cd0 48A9D544 		.word	1154853192
 1541 0cd4 0000A045 		.word	1168113664
 1542 0cd8 8F52D544 		.word	1154830991
 1543 0cdc 0050A045 		.word	1168134144
 1544 0ce0 1FF5D444 		.word	1154807071
 1545 0ce4 00A0A045 		.word	1168154624
 1546 0ce8 F690D444 		.word	1154781430
 1547 0cec 00F0A045 		.word	1168175104
 1548 0cf0 1426D444 		.word	1154754068
 1549 0cf4 0040A145 		.word	1168195584
 1550 0cf8 7BB4D344 		.word	1154724987
 1551 0cfc 0090A145 		.word	1168216064
 1552 0d00 7B3CD344 		.word	1154694267
 1553 0d04 00E0A145 		.word	1168236544
 1554 0d08 C3BDD244 		.word	1154661827
 1555 0d0c 0030A245 		.word	1168257024
 1556 0d10 A438D244 		.word	1154627748
 1557 0d14 0080A245 		.word	1168277504
 1558 0d18 1FADD144 		.word	1154592031
 1559 0d1c 00D0A245 		.word	1168297984
 1560 0d20 851BD144 		.word	1154554757
 1561 0d24 0020A345 		.word	1168318464
 1562 0d28 3383D044 		.word	1154515763
 1563 0d2c 0070A345 		.word	1168338944
 1564 0d30 CDE4CF44 		.word	1154475213
 1565 0d34 00C0A345 		.word	1168359424
 1566 0d38 5240CF44 		.word	1154433106
 1567 0d3c 0010A445 		.word	1168379904
 1568 0d40 C395CE44 		.word	1154389443
 1569 0d44 0060A445 		.word	1168400384
 1570 0d48 1FE5CD44 		.word	1154344223
 1571 0d4c 00B0A445 		.word	1168420864
 1572 0d50 B82ECD44 		.word	1154297528
 1573 0d54 0000A545 		.word	1168441344
 1574 0d58 3D72CC44 		.word	1154249277
 1575 0d5c 0050A545 		.word	1168461824
 1576 0d60 52B0CB44 		.word	1154199634
 1577 0d64 00A0A545 		.word	1168482304
 1578 0d68 A4E8CA44 		.word	1154148516
 1579 0d6c 00F0A545 		.word	1168502784
 1580 0d70 331BCA44 		.word	1154095923
 1581 0d74 0040A645 		.word	1168523264
 1582 0d78 5248C944 		.word	1154041938
 1583 0d7c 0090A645 		.word	1168543744
 1584 0d80 0070C844 		.word	1153986560
 1585 0d84 00E0A645 		.word	1168564224
 1586 0d88 3D92C744 		.word	1153929789
 1587 0d8c 0030A745 		.word	1168584704
ARM GAS  C:\Users\Prashant\AppData\Local\Temp\cczsYW6b.s 			page 53


 1588 0d90 5CAFC644 		.word	1153871708
 1589 0d94 0080A745 		.word	1168605184
 1590 0d98 AEC7C544 		.word	1153812398
 1591 0d9c 00D0A745 		.word	1168625664
 1592 0da0 8FDAC444 		.word	1153751695
 1593 0da4 0020A845 		.word	1168646144
 1594 0da8 A4E8C344 		.word	1153689764
 1595 0dac 0070A845 		.word	1168666624
 1596 0db0 3DF2C244 		.word	1153626685
 1597 0db4 00C0A845 		.word	1168687104
 1598 0db8 B8F6C144 		.word	1153562296
 1599 0dbc 0010A945 		.word	1168707584
 1600 0dc0 B8F6C044 		.word	1153496760
 1601 0dc4 0060A945 		.word	1168728064
 1602 0dc8 3DF2BF44 		.word	1153430077
 1603 0dcc 00B0A945 		.word	1168748544
 1604 0dd0 9AE9BE44 		.word	1153362330
 1605 0dd4 0000AA45 		.word	1168769024
 1606 0dd8 7BDCBD44 		.word	1153293435
 1607 0ddc 0050AA45 		.word	1168789504
 1608 0de0 85CBBC44 		.word	1153223557
 1609 0de4 00A0AA45 		.word	1168809984
 1610 0de8 66B6BB44 		.word	1153152614
 1611 0dec 00F0AA45 		.word	1168830464
 1612 0df0 1F9DBA44 		.word	1153080607
 1613 0df4 0040AB45 		.word	1168850944
 1614 0df8 5280B944 		.word	1153007698
 1615 0dfc 0090AB45 		.word	1168871424
 1616 0e00 0060B844 		.word	1152933888
 1617 0e04 00E0AB45 		.word	1168891904
 1618 0e08 293CB744 		.word	1152859177
 1619 0e0c 0030AC45 		.word	1168912384
 1620 0e10 CD14B644 		.word	1152783565
 1621 0e14 0080AC45 		.word	1168932864
 1622 0e18 3DEAB444 		.word	1152707133
 1623 0e1c 00D0AC45 		.word	1168953344
 1624 0e20 7BBCB344 		.word	1152629883
 1625 0e24 0020AD45 		.word	1168973824
 1626 0e28 D78BB244 		.word	1152551895
 1627 0e2c 0070AD45 		.word	1168994304
 1628 0e30 5258B144 		.word	1152473170
 1629 0e34 00C0AD45 		.word	1169014784
 1630 0e38 EC21B044 		.word	1152393708
 1631 0e3c 0010AE45 		.word	1169035264
 1632 0e40 48E9AE44 		.word	1152313672
 1633 0e44 0060AE45 		.word	1169055744
 1634 0e48 C3ADAD44 		.word	1152232899
 1635 0e4c 00B0AE45 		.word	1169076224
 1636 0e50 5270AC44 		.word	1152151634
 1637 0e54 0000AF45 		.word	1169096704
 1638 0e58 A430AB44 		.word	1152069796
 1639 0e5c 0050AF45 		.word	1169117184
 1640 0e60 B8EEA944 		.word	1151987384
 1641 0e64 00A0AF45 		.word	1169137664
 1642 0e68 E1AAA844 		.word	1151904481
 1643 0e6c 00F0AF45 		.word	1169158144
 1644 0e70 C365A744 		.word	1151821251
ARM GAS  C:\Users\Prashant\AppData\Local\Temp\cczsYW6b.s 			page 54


 1645 0e74 0040B045 		.word	1169178624
 1646 0e78 B81EA644 		.word	1151737528
 1647 0e7c 0090B045 		.word	1169199104
 1648 0e80 14D6A444 		.word	1151653396
 1649 0e84 00E0B045 		.word	1169219584
 1650 0e88 298CA344 		.word	1151568937
 1651 0e8c 0030B145 		.word	1169240064
 1652 0e90 4841A244 		.word	1151484232
 1653 0e94 0080B145 		.word	1169260544
 1654 0e98 71F5A044 		.word	1151399281
 1655 0e9c 00D0B145 		.word	1169281024
 1656 0ea0 52A89F44 		.word	1151314002
 1657 0ea4 0020B245 		.word	1169301504
 1658 0ea8 E15A9E44 		.word	1151228641
 1659 0eac 0070B245 		.word	1169321984
 1660 0eb0 CD0C9D44 		.word	1151143117
 1661 0eb4 00C0B245 		.word	1169342464
 1662 0eb8 14BE9B44 		.word	1151057428
 1663 0ebc 0010B345 		.word	1169362944
 1664 0ec0 0A6F9A44 		.word	1150971658
 1665 0ec4 0060B345 		.word	1169383424
 1666 0ec8 00209944 		.word	1150885888
 1667 0ecc 00B0B345 		.word	1169403904
 1668 0ed0 00209944 		.word	1150885888
 1669 0ed4 0000B445 		.word	1169424384
 1670 0ed8 00209944 		.word	1150885888
 1671 0edc 0050B445 		.word	1169444864
 1672 0ee0 00209944 		.word	1150885888
 1673 0ee4 00A0B445 		.word	1169465344
 1674 0ee8 00209944 		.word	1150885888
 1675 0eec 00F0B445 		.word	1169485824
 1676 0ef0 00209944 		.word	1150885888
 1677 0ef4 0040B545 		.word	1169506304
 1678 0ef8 00209944 		.word	1150885888
 1679 0efc 0090B545 		.word	1169526784
 1680 0f00 00209944 		.word	1150885888
 1681 0f04 00E0B545 		.word	1169547264
 1682 0f08 00209944 		.word	1150885888
 1683 0f0c 0030B645 		.word	1169567744
 1684 0f10 00209944 		.word	1150885888
 1685 0f14 0080B645 		.word	1169588224
 1686 0f18 00209944 		.word	1150885888
 1687 0f1c 00D0B645 		.word	1169608704
 1688 0f20 00209944 		.word	1150885888
 1689 0f24 0020B745 		.word	1169629184
 1690 0f28 00209944 		.word	1150885888
 1691 0f2c 0070B745 		.word	1169649664
 1692 0f30 00209944 		.word	1150885888
 1693 0f34 00C0B745 		.word	1169670144
 1694 0f38 00209944 		.word	1150885888
 1695 0f3c 0010B845 		.word	1169690624
 1696 0f40 00209944 		.word	1150885888
 1697 0f44 0060B845 		.word	1169711104
 1698 0f48 00209944 		.word	1150885888
 1699 0f4c 00B0B845 		.word	1169731584
 1700 0f50 00209944 		.word	1150885888
 1701 0f54 0000B945 		.word	1169752064
ARM GAS  C:\Users\Prashant\AppData\Local\Temp\cczsYW6b.s 			page 55


 1702 0f58 00209944 		.word	1150885888
 1703 0f5c 0050B945 		.word	1169772544
 1704 0f60 00209944 		.word	1150885888
 1705 0f64 00A0B945 		.word	1169793024
 1706 0f68 00209944 		.word	1150885888
 1707 0f6c 00F0B945 		.word	1169813504
 1708 0f70 00209944 		.word	1150885888
 1709 0f74 0040BA45 		.word	1169833984
 1710 0f78 00209944 		.word	1150885888
 1711 0f7c 0090BA45 		.word	1169854464
 1712 0f80 00209944 		.word	1150885888
 1713 0f84 00E0BA45 		.word	1169874944
 1714 0f88 00209944 		.word	1150885888
 1715 0f8c 0030BB45 		.word	1169895424
 1716 0f90 00209944 		.word	1150885888
 1717 0f94 0080BB45 		.word	1169915904
 1718 0f98 00209944 		.word	1150885888
 1719 0f9c 00D0BB45 		.word	1169936384
 1720 0fa0 00209944 		.word	1150885888
 1721 0fa4 0020BC45 		.word	1169956864
 1722 0fa8 00209944 		.word	1150885888
 1723 0fac 0070BC45 		.word	1169977344
 1724 0fb0 00209944 		.word	1150885888
 1725 0fb4 00C0BC45 		.word	1169997824
 1726 0fb8 00209944 		.word	1150885888
 1727 0fbc 0010BD45 		.word	1170018304
 1728 0fc0 00209944 		.word	1150885888
 1729 0fc4 0060BD45 		.word	1170038784
 1730 0fc8 00209944 		.word	1150885888
 1731 0fcc 00B0BD45 		.word	1170059264
 1732 0fd0 00209944 		.word	1150885888
 1733 0fd4 0000BE45 		.word	1170079744
 1734 0fd8 00209944 		.word	1150885888
 1735 0fdc 0050BE45 		.word	1170100224
 1736 0fe0 00209944 		.word	1150885888
 1737 0fe4 00A0BE45 		.word	1170120704
 1738 0fe8 00209944 		.word	1150885888
 1739 0fec 00F0BE45 		.word	1170141184
 1740 0ff0 00209944 		.word	1150885888
 1741 0ff4 0040BF45 		.word	1170161664
 1742 0ff8 00209944 		.word	1150885888
 1743 0ffc 0090BF45 		.word	1170182144
 1744 1000 00209944 		.word	1150885888
 1745 1004 00E0BF45 		.word	1170202624
 1746 1008 00209944 		.word	1150885888
 1747 100c 0030C045 		.word	1170223104
 1748 1010 00209944 		.word	1150885888
 1749 1014 0080C045 		.word	1170243584
 1750 1018 00209944 		.word	1150885888
 1751 101c 00D0C045 		.word	1170264064
 1752 1020 00209944 		.word	1150885888
 1753 1024 0020C145 		.word	1170284544
 1754 1028 00209944 		.word	1150885888
 1755 102c 0070C145 		.word	1170305024
 1756 1030 00209944 		.word	1150885888
 1757 1034 00C0C145 		.word	1170325504
 1758 1038 00209944 		.word	1150885888
ARM GAS  C:\Users\Prashant\AppData\Local\Temp\cczsYW6b.s 			page 56


 1759 103c 0010C245 		.word	1170345984
 1760 1040 00209944 		.word	1150885888
 1761 1044 0060C245 		.word	1170366464
 1762 1048 00209944 		.word	1150885888
 1763 104c 00B0C245 		.word	1170386944
 1764 1050 00209944 		.word	1150885888
 1765 1054 0000C345 		.word	1170407424
 1766 1058 00209944 		.word	1150885888
 1767 105c 0050C345 		.word	1170427904
 1768 1060 00209944 		.word	1150885888
 1769 1064 00A0C345 		.word	1170448384
 1770 1068 00209944 		.word	1150885888
 1771 106c 00F0C345 		.word	1170468864
 1772 1070 00209944 		.word	1150885888
 1773 1074 0040C445 		.word	1170489344
 1774 1078 00209944 		.word	1150885888
 1775 107c 0090C445 		.word	1170509824
 1776 1080 00209944 		.word	1150885888
 1777 1084 00E0C445 		.word	1170530304
 1778 1088 00209944 		.word	1150885888
 1779 108c 0030C545 		.word	1170550784
 1780 1090 00209944 		.word	1150885888
 1781 1094 0080C545 		.word	1170571264
 1782 1098 00209944 		.word	1150885888
 1783 109c 00D0C545 		.word	1170591744
 1784 10a0 00209944 		.word	1150885888
 1785 10a4 0020C645 		.word	1170612224
 1786 10a8 00209944 		.word	1150885888
 1787 10ac 0070C645 		.word	1170632704
 1788 10b0 00209944 		.word	1150885888
 1789 10b4 00C0C645 		.word	1170653184
 1790 10b8 00209944 		.word	1150885888
 1791 10bc 0010C745 		.word	1170673664
 1792 10c0 00209944 		.word	1150885888
 1793 10c4 0060C745 		.word	1170694144
 1794 10c8 00209944 		.word	1150885888
 1795 10cc 00B0C745 		.word	1170714624
 1796 10d0 00209944 		.word	1150885888
 1797 10d4 0000C845 		.word	1170735104
 1798 10d8 00209944 		.word	1150885888
 1799 10dc 0050C845 		.word	1170755584
 1800 10e0 00209944 		.word	1150885888
 1801 10e4 00A0C845 		.word	1170776064
 1802 10e8 00209944 		.word	1150885888
 1803 10ec 00F0C845 		.word	1170796544
 1804 10f0 00209944 		.word	1150885888
 1805 10f4 0040C945 		.word	1170817024
 1806 10f8 00209944 		.word	1150885888
 1807 10fc 0090C945 		.word	1170837504
 1808 1100 00209944 		.word	1150885888
 1809 1104 00E0C945 		.word	1170857984
 1810 1108 00209944 		.word	1150885888
 1811 110c 0030CA45 		.word	1170878464
 1812 1110 00209944 		.word	1150885888
 1813 1114 0080CA45 		.word	1170898944
 1814 1118 00209944 		.word	1150885888
 1815 111c 00D0CA45 		.word	1170919424
ARM GAS  C:\Users\Prashant\AppData\Local\Temp\cczsYW6b.s 			page 57


 1816 1120 00209944 		.word	1150885888
 1817 1124 0020CB45 		.word	1170939904
 1818 1128 00209944 		.word	1150885888
 1819 112c 0070CB45 		.word	1170960384
 1820 1130 00209944 		.word	1150885888
 1821 1134 00C0CB45 		.word	1170980864
 1822 1138 00209944 		.word	1150885888
 1823 113c 0010CC45 		.word	1171001344
 1824 1140 00209944 		.word	1150885888
 1825 1144 0060CC45 		.word	1171021824
 1826 1148 00209944 		.word	1150885888
 1827 114c 00B0CC45 		.word	1171042304
 1828 1150 00209944 		.word	1150885888
 1829 1154 0000CD45 		.word	1171062784
 1830 1158 00209944 		.word	1150885888
 1831 115c 0050CD45 		.word	1171083264
 1832 1160 00209944 		.word	1150885888
 1833 1164 00A0CD45 		.word	1171103744
 1834 1168 00209944 		.word	1150885888
 1835 116c 00F0CD45 		.word	1171124224
 1836 1170 00209944 		.word	1150885888
 1837 1174 0040CE45 		.word	1171144704
 1838 1178 00209944 		.word	1150885888
 1839 117c 0090CE45 		.word	1171165184
 1840 1180 00209944 		.word	1150885888
 1841 1184 00E0CE45 		.word	1171185664
 1842 1188 00209944 		.word	1150885888
 1843 118c 0030CF45 		.word	1171206144
 1844 1190 00209944 		.word	1150885888
 1845 1194 0080CF45 		.word	1171226624
 1846 1198 00209944 		.word	1150885888
 1847 119c 00D0CF45 		.word	1171247104
 1848 11a0 00209944 		.word	1150885888
 1849 11a4 0020D045 		.word	1171267584
 1850 11a8 00209944 		.word	1150885888
 1851 11ac 0070D045 		.word	1171288064
 1852 11b0 00209944 		.word	1150885888
 1853 11b4 00C0D045 		.word	1171308544
 1854 11b8 00209944 		.word	1150885888
 1855 11bc 0010D145 		.word	1171329024
 1856 11c0 00209944 		.word	1150885888
 1857 11c4 0060D145 		.word	1171349504
 1858 11c8 00209944 		.word	1150885888
 1859 11cc 00B0D145 		.word	1171369984
 1860 11d0 00209944 		.word	1150885888
 1861 11d4 0000D245 		.word	1171390464
 1862 11d8 00209944 		.word	1150885888
 1863 11dc 0050D245 		.word	1171410944
 1864 11e0 00209944 		.word	1150885888
 1865 11e4 00A0D245 		.word	1171431424
 1866 11e8 00209944 		.word	1150885888
 1867 11ec 00F0D245 		.word	1171451904
 1868 11f0 00209944 		.word	1150885888
 1869 11f4 0040D345 		.word	1171472384
 1870 11f8 00209944 		.word	1150885888
 1871 11fc 0090D345 		.word	1171492864
 1872 1200 00209944 		.word	1150885888
ARM GAS  C:\Users\Prashant\AppData\Local\Temp\cczsYW6b.s 			page 58


 1873 1204 00E0D345 		.word	1171513344
 1874 1208 00209944 		.word	1150885888
 1875 120c 0030D445 		.word	1171533824
 1876 1210 00209944 		.word	1150885888
 1877 1214 0080D445 		.word	1171554304
 1878 1218 00209944 		.word	1150885888
 1879 121c 00D0D445 		.word	1171574784
 1880 1220 00209944 		.word	1150885888
 1881 1224 0020D545 		.word	1171595264
 1882 1228 00209944 		.word	1150885888
 1883 122c 0070D545 		.word	1171615744
 1884 1230 00209944 		.word	1150885888
 1885 1234 00C0D545 		.word	1171636224
 1886 1238 00209944 		.word	1150885888
 1887 123c 0010D645 		.word	1171656704
 1888 1240 00209944 		.word	1150885888
 1889 1244 0060D645 		.word	1171677184
 1890 1248 00209944 		.word	1150885888
 1891 124c 00B0D645 		.word	1171697664
 1892 1250 00209944 		.word	1150885888
 1893 1254 0000D745 		.word	1171718144
 1894 1258 00209944 		.word	1150885888
 1895 125c 0050D745 		.word	1171738624
 1896 1260 00209944 		.word	1150885888
 1897 1264 00A0D745 		.word	1171759104
 1898 1268 00209944 		.word	1150885888
 1899 126c 00F0D745 		.word	1171779584
 1900 1270 00209944 		.word	1150885888
 1901 1274 0040D845 		.word	1171800064
 1902 1278 00209944 		.word	1150885888
 1903 127c 0090D845 		.word	1171820544
 1904 1280 00209944 		.word	1150885888
 1905 1284 00E0D845 		.word	1171841024
 1906 1288 00209944 		.word	1150885888
 1907 128c 0030D945 		.word	1171861504
 1908 1290 00209944 		.word	1150885888
 1909 1294 0080D945 		.word	1171881984
 1910 1298 00209944 		.word	1150885888
 1911 129c 00D0D945 		.word	1171902464
 1912 12a0 00209944 		.word	1150885888
 1913 12a4 0020DA45 		.word	1171922944
 1914 12a8 00209944 		.word	1150885888
 1915 12ac 0070DA45 		.word	1171943424
 1916 12b0 00209944 		.word	1150885888
 1917 12b4 00C0DA45 		.word	1171963904
 1918 12b8 00209944 		.word	1150885888
 1919 12bc 0010DB45 		.word	1171984384
 1920 12c0 00209944 		.word	1150885888
 1921 12c4 0060DB45 		.word	1172004864
 1922 12c8 00209944 		.word	1150885888
 1923 12cc 00B0DB45 		.word	1172025344
 1924 12d0 00209944 		.word	1150885888
 1925 12d4 0000DC45 		.word	1172045824
 1926 12d8 00209944 		.word	1150885888
 1927 12dc 0050DC45 		.word	1172066304
 1928 12e0 00209944 		.word	1150885888
 1929 12e4 00A0DC45 		.word	1172086784
ARM GAS  C:\Users\Prashant\AppData\Local\Temp\cczsYW6b.s 			page 59


 1930 12e8 00209944 		.word	1150885888
 1931 12ec 00F0DC45 		.word	1172107264
 1932 12f0 00209944 		.word	1150885888
 1933 12f4 0040DD45 		.word	1172127744
 1934 12f8 00209944 		.word	1150885888
 1935 12fc 0090DD45 		.word	1172148224
 1936 1300 00209944 		.word	1150885888
 1937 1304 00E0DD45 		.word	1172168704
 1938 1308 00209944 		.word	1150885888
 1939 130c 0030DE45 		.word	1172189184
 1940 1310 00209944 		.word	1150885888
 1941 1314 0080DE45 		.word	1172209664
 1942 1318 00209944 		.word	1150885888
 1943 131c 00D0DE45 		.word	1172230144
 1944 1320 00209944 		.word	1150885888
 1945 1324 0020DF45 		.word	1172250624
 1946 1328 00209944 		.word	1150885888
 1947 132c 0070DF45 		.word	1172271104
 1948 1330 00209944 		.word	1150885888
 1949 1334 00C0DF45 		.word	1172291584
 1950 1338 00209944 		.word	1150885888
 1951 133c 0010E045 		.word	1172312064
 1952 1340 00209944 		.word	1150885888
 1953 1344 0060E045 		.word	1172332544
 1954 1348 00209944 		.word	1150885888
 1955 134c 00B0E045 		.word	1172353024
 1956 1350 00209944 		.word	1150885888
 1957 1354 0000E145 		.word	1172373504
 1958 1358 00209944 		.word	1150885888
 1959 135c 0050E145 		.word	1172393984
 1960 1360 00209944 		.word	1150885888
 1961 1364 00A0E145 		.word	1172414464
 1962 1368 00209944 		.word	1150885888
 1963 136c 00F0E145 		.word	1172434944
 1964 1370 00209944 		.word	1150885888
 1965 1374 0040E245 		.word	1172455424
 1966 1378 00209944 		.word	1150885888
 1967 137c 0090E245 		.word	1172475904
 1968 1380 00209944 		.word	1150885888
 1969 1384 00E0E245 		.word	1172496384
 1970 1388 00209944 		.word	1150885888
 1971 138c 0030E345 		.word	1172516864
 1972 1390 00209944 		.word	1150885888
 1973 1394 0080E345 		.word	1172537344
 1974 1398 00209944 		.word	1150885888
 1975 139c 00D0E345 		.word	1172557824
 1976 13a0 00209944 		.word	1150885888
 1977 13a4 0020E445 		.word	1172578304
 1978 13a8 00209944 		.word	1150885888
 1979 13ac 0070E445 		.word	1172598784
 1980 13b0 00209944 		.word	1150885888
 1981 13b4 00C0E445 		.word	1172619264
 1982 13b8 00209944 		.word	1150885888
 1983 13bc 0010E545 		.word	1172639744
 1984 13c0 00209944 		.word	1150885888
 1985 13c4 0060E545 		.word	1172660224
 1986 13c8 00209944 		.word	1150885888
ARM GAS  C:\Users\Prashant\AppData\Local\Temp\cczsYW6b.s 			page 60


 1987 13cc 00B0E545 		.word	1172680704
 1988 13d0 00209944 		.word	1150885888
 1989 13d4 0000E645 		.word	1172701184
 1990 13d8 00209944 		.word	1150885888
 1991 13dc 0050E645 		.word	1172721664
 1992 13e0 00209944 		.word	1150885888
 1993 13e4 00A0E645 		.word	1172742144
 1994 13e8 00209944 		.word	1150885888
 1995 13ec 00F0E645 		.word	1172762624
 1996 13f0 00209944 		.word	1150885888
 1997 13f4 0040E745 		.word	1172783104
 1998 13f8 00209944 		.word	1150885888
 1999 13fc 0090E745 		.word	1172803584
 2000 1400 00209944 		.word	1150885888
 2001 1404 00E0E745 		.word	1172824064
 2002 1408 00209944 		.word	1150885888
 2003 140c 0030E845 		.word	1172844544
 2004 1410 00209944 		.word	1150885888
 2005 1414 0080E845 		.word	1172865024
 2006 1418 00209944 		.word	1150885888
 2007 141c 00D0E845 		.word	1172885504
 2008 1420 00209944 		.word	1150885888
 2009 1424 0020E945 		.word	1172905984
 2010 1428 00209944 		.word	1150885888
 2011 142c 0070E945 		.word	1172926464
 2012 1430 00209944 		.word	1150885888
 2013 1434 00C0E945 		.word	1172946944
 2014 1438 00209944 		.word	1150885888
 2015 143c 0010EA45 		.word	1172967424
 2016 1440 00209944 		.word	1150885888
 2017 1444 0060EA45 		.word	1172987904
 2018 1448 00209944 		.word	1150885888
 2019 144c 00B0EA45 		.word	1173008384
 2020 1450 00209944 		.word	1150885888
 2021 1454 0000EB45 		.word	1173028864
 2022 1458 00209944 		.word	1150885888
 2023 145c 0050EB45 		.word	1173049344
 2024 1460 00209944 		.word	1150885888
 2025 1464 00A0EB45 		.word	1173069824
 2026 1468 00209944 		.word	1150885888
 2027 146c 00F0EB45 		.word	1173090304
 2028 1470 00209944 		.word	1150885888
 2029 1474 0040EC45 		.word	1173110784
 2030 1478 00209944 		.word	1150885888
 2031 147c 0090EC45 		.word	1173131264
 2032 1480 00209944 		.word	1150885888
 2033 1484 00E0EC45 		.word	1173151744
 2034 1488 00209944 		.word	1150885888
 2035 148c 0030ED45 		.word	1173172224
 2036 1490 00209944 		.word	1150885888
 2037 1494 0080ED45 		.word	1173192704
 2038 1498 00209944 		.word	1150885888
 2039 149c 00D0ED45 		.word	1173213184
 2040 14a0 00209944 		.word	1150885888
 2041 14a4 0020EE45 		.word	1173233664
 2042 14a8 00209944 		.word	1150885888
 2043 14ac 0070EE45 		.word	1173254144
ARM GAS  C:\Users\Prashant\AppData\Local\Temp\cczsYW6b.s 			page 61


 2044 14b0 00209944 		.word	1150885888
 2045 14b4 00C0EE45 		.word	1173274624
 2046 14b8 00209944 		.word	1150885888
 2047 14bc 0010EF45 		.word	1173295104
 2048 14c0 00209944 		.word	1150885888
 2049 14c4 0060EF45 		.word	1173315584
 2050 14c8 00209944 		.word	1150885888
 2051 14cc 00B0EF45 		.word	1173336064
 2052 14d0 00209944 		.word	1150885888
 2053 14d4 0000F045 		.word	1173356544
 2054 14d8 00209944 		.word	1150885888
 2055 14dc 0050F045 		.word	1173377024
 2056 14e0 00209944 		.word	1150885888
 2057 14e4 00A0F045 		.word	1173397504
 2058 14e8 00209944 		.word	1150885888
 2059 14ec 00F0F045 		.word	1173417984
 2060 14f0 00209944 		.word	1150885888
 2061 14f4 0040F145 		.word	1173438464
 2062 14f8 00209944 		.word	1150885888
 2063 14fc 0090F145 		.word	1173458944
 2064 1500 00209944 		.word	1150885888
 2065 1504 00E0F145 		.word	1173479424
 2066 1508 00209944 		.word	1150885888
 2067 150c 0030F245 		.word	1173499904
 2068 1510 00209944 		.word	1150885888
 2069 1514 0080F245 		.word	1173520384
 2070 1518 00209944 		.word	1150885888
 2071 151c 00D0F245 		.word	1173540864
 2072 1520 00209944 		.word	1150885888
 2073 1524 0020F345 		.word	1173561344
 2074 1528 00209944 		.word	1150885888
 2075 152c 0070F345 		.word	1173581824
 2076 1530 00209944 		.word	1150885888
 2077 1534 00C0F345 		.word	1173602304
 2078 1538 00209944 		.word	1150885888
 2079 153c 0010F445 		.word	1173622784
 2080 1540 00209944 		.word	1150885888
 2081 1544 0060F445 		.word	1173643264
 2082 1548 00209944 		.word	1150885888
 2083 154c 00B0F445 		.word	1173663744
 2084 1550 00209944 		.word	1150885888
 2085 1554 0000F545 		.word	1173684224
 2086 1558 00209944 		.word	1150885888
 2087 155c 0050F545 		.word	1173704704
 2088 1560 00209944 		.word	1150885888
 2089 1564 00A0F545 		.word	1173725184
 2090 1568 00209944 		.word	1150885888
 2091 156c 00F0F545 		.word	1173745664
 2092 1570 00209944 		.word	1150885888
 2093 1574 0040F645 		.word	1173766144
 2094 1578 00209944 		.word	1150885888
 2095 157c 0090F645 		.word	1173786624
 2096 1580 00209944 		.word	1150885888
 2097 1584 00E0F645 		.word	1173807104
 2098 1588 00209944 		.word	1150885888
 2099 158c 0030F745 		.word	1173827584
 2100 1590 00209944 		.word	1150885888
ARM GAS  C:\Users\Prashant\AppData\Local\Temp\cczsYW6b.s 			page 62


 2101 1594 0080F745 		.word	1173848064
 2102 1598 00209944 		.word	1150885888
 2103 159c 00D0F745 		.word	1173868544
 2104 15a0 00209944 		.word	1150885888
 2105 15a4 0020F845 		.word	1173889024
 2106 15a8 00209944 		.word	1150885888
 2107 15ac 0070F845 		.word	1173909504
 2108 15b0 00209944 		.word	1150885888
 2109 15b4 00C0F845 		.word	1173929984
 2110 15b8 00209944 		.word	1150885888
 2111 15bc 0010F945 		.word	1173950464
 2112 15c0 00209944 		.word	1150885888
 2113 15c4 0060F945 		.word	1173970944
 2114 15c8 00209944 		.word	1150885888
 2115 15cc 00B0F945 		.word	1173991424
 2116 15d0 00209944 		.word	1150885888
 2117 15d4 0000FA45 		.word	1174011904
 2118 15d8 00609A44 		.word	1150967808
 2119 15dc 8F68FE45 		.word	1174300815
 2120 15e0 00A09B44 		.word	1151049728
 2121 15e4 001C0046 		.word	1174412288
 2122 15e8 00E09C44 		.word	1151131648
 2123 15ec 66CC0046 		.word	1174457446
 2124 15f0 00209E44 		.word	1151213568
 2125 15f4 00600146 		.word	1174495232
 2126 15f8 00609F44 		.word	1151295488
 2127 15fc 00E10146 		.word	1174528256
 2128 1600 00A0A044 		.word	1151377408
 2129 1604 AE540246 		.word	1174557870
 2130 1608 00E0A144 		.word	1151459328
 2131 160c 3DBE0246 		.word	1174584893
 2132 1610 0020A344 		.word	1151541248
 2133 1614 AE1F0346 		.word	1174609838
 2134 1618 0060A444 		.word	1151623168
 2135 161c 717A0346 		.word	1174633073
 2136 1620 00A0A544 		.word	1151705088
 2137 1624 8FCF0346 		.word	1174654863
 2138 1628 00E0A644 		.word	1151787008
 2139 162c D71F0446 		.word	1174675415
 2140 1630 0020A844 		.word	1151868928
 2141 1634 E16B0446 		.word	1174694881
 2142 1638 0060A944 		.word	1151950848
 2143 163c 33B40446 		.word	1174713395
 2144 1640 00A0AA44 		.word	1152032768
 2145 1644 29F90446 		.word	1174731049
 2146 1648 00E0AB44 		.word	1152114688
 2147 164c 1F3B0546 		.word	1174747935
 2148 1650 0020AD44 		.word	1152196608
 2149 1654 5C7A0546 		.word	1174764124
 2150 1658 0060AE44 		.word	1152278528
 2151 165c 0AB70546 		.word	1174779658
 2152 1660 00A0AF44 		.word	1152360448
 2153 1664 71F10546 		.word	1174794609
 2154 1668 00E0B044 		.word	1152442368
 2155 166c B8290646 		.word	1174809016
 2156 1670 0020B244 		.word	1152524288
 2157 1674 00600646 		.word	1174822912
ARM GAS  C:\Users\Prashant\AppData\Local\Temp\cczsYW6b.s 			page 63


 2158 1678 0060B344 		.word	1152606208
 2159 167c 71940646 		.word	1174836337
 2160 1680 00A0B444 		.word	1152688128
 2161 1684 1FC70646 		.word	1174849311
 2162 1688 00E0B544 		.word	1152770048
 2163 168c 29F80646 		.word	1174861865
 2164 1690 0020B744 		.word	1152851968
 2165 1694 AE270746 		.word	1174874030
 2166 1698 0060B844 		.word	1152933888
 2167 169c C3550746 		.word	1174885827
 2168 16a0 00A0B944 		.word	1153015808
 2169 16a4 71820746 		.word	1174897265
 2170 16a8 00E0BA44 		.word	1153097728
 2171 16ac CDAD0746 		.word	1174908365
 2172 16b0 0020BC44 		.word	1153179648
 2173 16b4 E1D70746 		.word	1174919137
 2174 16b8 0060BD44 		.word	1153261568
 2175 16bc CD000846 		.word	1174929613
 2176 16c0 00A0BE44 		.word	1153343488
 2177 16c4 8F280846 		.word	1174939791
 2178 16c8 00E0BF44 		.word	1153425408
 2179 16cc 3D4F0846 		.word	1174949693
 2180 16d0 0020C144 		.word	1153507328
 2181 16d4 D7740846 		.word	1174959319
 2182 16d8 0060C244 		.word	1153589248
 2183 16dc 71990846 		.word	1174968689
 2184 16e0 00A0C344 		.word	1153671168
 2185 16e4 14BD0846 		.word	1174977812
 2186 16e8 00E0C444 		.word	1153753088
 2187 16ec B8DF0846 		.word	1174986680
 2188 16f0 0020C644 		.word	1153835008
 2189 16f4 85010946 		.word	1174995333
 2190 16f8 0060C744 		.word	1153916928
 2191 16fc 5C220946 		.word	1175003740
 2192 1700 00A0C844 		.word	1153998848
 2193 1704 66420946 		.word	1175011942
 2194 1708 00E0C944 		.word	1154080768
 2195 170c 9A610946 		.word	1175019930
 2196 1710 0020CB44 		.word	1154162688
 2197 1714 00800946 		.word	1175027712
 2198 1718 0060CC44 		.word	1154244608
 2199 171c 9A9D0946 		.word	1175035290
 2200 1720 00A0CD44 		.word	1154326528
 2201 1724 7BBA0946 		.word	1175042683
 2202 1728 00E0CE44 		.word	1154408448
 2203 172c 8FD60946 		.word	1175049871
 2204 1730 0020D044 		.word	1154490368
 2205 1734 F6F10946 		.word	1175056886
 2206 1738 0060D144 		.word	1154572288
 2207 173c AE0C0A46 		.word	1175063726
 2208 1740 00A0D244 		.word	1154654208
 2209 1744 AE260A46 		.word	1175070382
 2210 1748 00E0D344 		.word	1154736128
 2211 174c 00400A46 		.word	1175076864
 2212 1750 0020D544 		.word	1154818048
 2213 1754 AE580A46 		.word	1175083182
 2214 1758 0060D644 		.word	1154899968
ARM GAS  C:\Users\Prashant\AppData\Local\Temp\cczsYW6b.s 			page 64


 2215 175c AE700A46 		.word	1175089326
 2216 1760 00A0D744 		.word	1154981888
 2217 1764 1F880A46 		.word	1175095327
 2218 1768 00E0D844 		.word	1155063808
 2219 176c E19E0A46 		.word	1175101153
 2220 1770 0020DA44 		.word	1155145728
 2221 1774 14B50A46 		.word	1175106836
 2222 1778 0060DB44 		.word	1155227648
 2223 177c AECA0A46 		.word	1175112366
 2224 1780 00A0DC44 		.word	1155309568
 2225 1784 AEDF0A46 		.word	1175117742
 2226 1788 00E0DD44 		.word	1155391488
 2227 178c 1FF40A46 		.word	1175122975
 2228 1790 0020DF44 		.word	1155473408
 2229 1794 00080B46 		.word	1175128064
 2230 1798 0060E044 		.word	1155555328
 2231 179c 521B0B46 		.word	1175133010
 2232 17a0 00A0E144 		.word	1155637248
 2233 17a4 142E0B46 		.word	1175137812
 2234 17a8 00E0E244 		.word	1155719168
 2235 17ac 5C400B46 		.word	1175142492
 2236 17b0 0020E444 		.word	1155801088
 2237 17b4 14520B46 		.word	1175147028
 2238 17b8 0060E544 		.word	1155883008
 2239 17bc 3D630B46 		.word	1175151421
 2240 17c0 00A0E644 		.word	1155964928
 2241 17c4 F6730B46 		.word	1175155702
 2242 17c8 00E0E744 		.word	1156046848
 2243 17cc 1F840B46 		.word	1175159839
 2244 17d0 0020E944 		.word	1156128768
 2245 17d4 CD930B46 		.word	1175163853
 2246 17d8 0060EA44 		.word	1156210688
 2247 17dc 00A30B46 		.word	1175167744
 2248 17e0 00A0EB44 		.word	1156292608
 2249 17e4 B8B10B46 		.word	1175171512
 2250 17e8 00E0EC44 		.word	1156374528
 2251 17ec ECBF0B46 		.word	1175175148
 2252 17f0 0020EE44 		.word	1156456448
 2253 17f4 AECD0B46 		.word	1175178670
 2254 17f8 0060EF44 		.word	1156538368
 2255 17fc F6DA0B46 		.word	1175182070
 2256 1800 00A0F044 		.word	1156620288
 2257 1804 C3E70B46 		.word	1175185347
 2258 1808 00E0F144 		.word	1156702208
 2259 180c 1FF40B46 		.word	1175188511
 2260 1810 0020F344 		.word	1156784128
 2261 1814 00000C46 		.word	1175191552
 2262 1818 0060F444 		.word	1156866048
 2263 181c 710B0C46 		.word	1175194481
 2264 1820 00A0F544 		.word	1156947968
 2265 1824 71160C46 		.word	1175197297
 2266 1828 00E0F644 		.word	1157029888
 2267 182c 00210C46 		.word	1175200000
 2268 1830 0020F844 		.word	1157111808
 2269 1834 142B0C46 		.word	1175202580
 2270 1838 0060F944 		.word	1157193728
 2271 183c C3340C46 		.word	1175205059
ARM GAS  C:\Users\Prashant\AppData\Local\Temp\cczsYW6b.s 			page 65


 2272 1840 00A0FA44 		.word	1157275648
 2273 1844 003E0C46 		.word	1175207424
 2274 1848 00E0FB44 		.word	1157357568
 2275 184c CD460C46 		.word	1175209677
 2276 1850 0020FD44 		.word	1157439488
 2277 1854 334F0C46 		.word	1175211827
 2278 1858 0060FE44 		.word	1157521408
 2279 185c 1F570C46 		.word	1175213855
 2280 1860 00A0FF44 		.word	1157603328
 2281 1864 AE5E0C46 		.word	1175215790
 2282 1868 00700045 		.word	1157656576
 2283 186c C3650C46 		.word	1175217603
 2284 1870 00100145 		.word	1157697536
 2285 1874 7B6C0C46 		.word	1175219323
 2286 1878 00B00145 		.word	1157738496
 2287 187c C3720C46 		.word	1175220931
 2288 1880 00500245 		.word	1157779456
 2289 1884 9A780C46 		.word	1175222426
 2290 1888 00F00245 		.word	1157820416
 2291 188c 0A7E0C46 		.word	1175223818
 2292 1890 00900345 		.word	1157861376
 2293 1894 14830C46 		.word	1175225108
 2294 1898 00300445 		.word	1157902336
 2295 189c B8870C46 		.word	1175226296
 2296 18a0 00D00445 		.word	1157943296
 2297 18a4 F68B0C46 		.word	1175227382
 2298 18a8 00700545 		.word	1157984256
 2299 18ac C38F0C46 		.word	1175228355
 2300 18b0 00100645 		.word	1158025216
 2301 18b4 29930C46 		.word	1175229225
 2302 18b8 00B00645 		.word	1158066176
 2303 18bc 33960C46 		.word	1175230003
 2304 18c0 00500745 		.word	1158107136
 2305 18c4 CD980C46 		.word	1175230669
 2306 18c8 00F00745 		.word	1158148096
 2307 18cc 009B0C46 		.word	1175231232
 2308 18d0 00900845 		.word	1158189056
 2309 18d4 CD9C0C46 		.word	1175231693
 2310 18d8 00300945 		.word	1158230016
 2311 18dc 339E0C46 		.word	1175232051
 2312 18e0 00D00945 		.word	1158270976
 2313 18e4 339F0C46 		.word	1175232307
 2314 18e8 00700A45 		.word	1158311936
 2315 18ec CD9F0C46 		.word	1175232461
 2316 18f0 00100B45 		.word	1158352896
 2317 18f4 00A00C46 		.word	1175232512
 2318 18f8 00B00B45 		.word	1158393856
 2319 18fc 00A00C46 		.word	1175232512
 2320 1900 00500C45 		.word	1158434816
 2321 1904 00A00C46 		.word	1175232512
 2322 1908 00F00C45 		.word	1158475776
 2323 190c 00A00C46 		.word	1175232512
 2324 1910 00900D45 		.word	1158516736
 2325 1914 00A00C46 		.word	1175232512
 2326 1918 00300E45 		.word	1158557696
 2327 191c 00A00C46 		.word	1175232512
 2328 1920 00D00E45 		.word	1158598656
ARM GAS  C:\Users\Prashant\AppData\Local\Temp\cczsYW6b.s 			page 66


 2329 1924 00A00C46 		.word	1175232512
 2330 1928 00700F45 		.word	1158639616
 2331 192c 00A00C46 		.word	1175232512
 2332 1930 00101045 		.word	1158680576
 2333 1934 00A00C46 		.word	1175232512
 2334 1938 00B01045 		.word	1158721536
 2335 193c 00A00C46 		.word	1175232512
 2336 1940 00501145 		.word	1158762496
 2337 1944 00A00C46 		.word	1175232512
 2338 1948 00F01145 		.word	1158803456
 2339 194c 00A00C46 		.word	1175232512
 2340 1950 00901245 		.word	1158844416
 2341 1954 00A00C46 		.word	1175232512
 2342 1958 00301345 		.word	1158885376
 2343 195c 00A00C46 		.word	1175232512
 2344 1960 00D01345 		.word	1158926336
 2345 1964 00A00C46 		.word	1175232512
 2346 1968 00701445 		.word	1158967296
 2347 196c 00A00C46 		.word	1175232512
 2348 1970 00101545 		.word	1159008256
 2349 1974 00A00C46 		.word	1175232512
 2350 1978 00B01545 		.word	1159049216
 2351 197c 00A00C46 		.word	1175232512
 2352 1980 00501645 		.word	1159090176
 2353 1984 00A00C46 		.word	1175232512
 2354 1988 00F01645 		.word	1159131136
 2355 198c 00A00C46 		.word	1175232512
 2356 1990 00901745 		.word	1159172096
 2357 1994 00A00C46 		.word	1175232512
 2358 1998 00301845 		.word	1159213056
 2359 199c 00A00C46 		.word	1175232512
 2360 19a0 00D01845 		.word	1159254016
 2361 19a4 00A00C46 		.word	1175232512
 2362 19a8 00701945 		.word	1159294976
 2363 19ac 00A00C46 		.word	1175232512
 2364 19b0 00101A45 		.word	1159335936
 2365 19b4 00A00C46 		.word	1175232512
 2366 19b8 00B01A45 		.word	1159376896
 2367 19bc 00A00C46 		.word	1175232512
 2368 19c0 00501B45 		.word	1159417856
 2369 19c4 00A00C46 		.word	1175232512
 2370 19c8 00F01B45 		.word	1159458816
 2371 19cc 00A00C46 		.word	1175232512
 2372 19d0 00901C45 		.word	1159499776
 2373 19d4 00A00C46 		.word	1175232512
 2374 19d8 00301D45 		.word	1159540736
 2375 19dc 00A00C46 		.word	1175232512
 2376 19e0 00D01D45 		.word	1159581696
 2377 19e4 00A00C46 		.word	1175232512
 2378 19e8 00701E45 		.word	1159622656
 2379 19ec 00A00C46 		.word	1175232512
 2380 19f0 00101F45 		.word	1159663616
 2381 19f4 00A00C46 		.word	1175232512
 2382 19f8 00B01F45 		.word	1159704576
 2383 19fc 00A00C46 		.word	1175232512
 2384 1a00 00502045 		.word	1159745536
 2385 1a04 00A00C46 		.word	1175232512
ARM GAS  C:\Users\Prashant\AppData\Local\Temp\cczsYW6b.s 			page 67


 2386 1a08 00F02045 		.word	1159786496
 2387 1a0c 00A00C46 		.word	1175232512
 2388 1a10 00902145 		.word	1159827456
 2389 1a14 00A00C46 		.word	1175232512
 2390 1a18 00302245 		.word	1159868416
 2391 1a1c 00A00C46 		.word	1175232512
 2392 1a20 00D02245 		.word	1159909376
 2393 1a24 00A00C46 		.word	1175232512
 2394 1a28 00702345 		.word	1159950336
 2395 1a2c 00A00C46 		.word	1175232512
 2396 1a30 00102445 		.word	1159991296
 2397 1a34 00A00C46 		.word	1175232512
 2398 1a38 00B02445 		.word	1160032256
 2399 1a3c 00A00C46 		.word	1175232512
 2400 1a40 00502545 		.word	1160073216
 2401 1a44 00A00C46 		.word	1175232512
 2402 1a48 00F02545 		.word	1160114176
 2403 1a4c 00A00C46 		.word	1175232512
 2404 1a50 00902645 		.word	1160155136
 2405 1a54 00A00C46 		.word	1175232512
 2406 1a58 00302745 		.word	1160196096
 2407 1a5c 00A00C46 		.word	1175232512
 2408 1a60 00D02745 		.word	1160237056
 2409 1a64 00A00C46 		.word	1175232512
 2410 1a68 00702845 		.word	1160278016
 2411 1a6c 00A00C46 		.word	1175232512
 2412 1a70 00102945 		.word	1160318976
 2413 1a74 00A00C46 		.word	1175232512
 2414 1a78 00B02945 		.word	1160359936
 2415 1a7c 00A00C46 		.word	1175232512
 2416 1a80 00502A45 		.word	1160400896
 2417 1a84 00A00C46 		.word	1175232512
 2418 1a88 00F02A45 		.word	1160441856
 2419 1a8c 00A00C46 		.word	1175232512
 2420 1a90 00902B45 		.word	1160482816
 2421 1a94 00A00C46 		.word	1175232512
 2422 1a98 00302C45 		.word	1160523776
 2423 1a9c 00A00C46 		.word	1175232512
 2424 1aa0 00D02C45 		.word	1160564736
 2425 1aa4 00A00C46 		.word	1175232512
 2426 1aa8 00702D45 		.word	1160605696
 2427 1aac 00A00C46 		.word	1175232512
 2428 1ab0 00102E45 		.word	1160646656
 2429 1ab4 00A00C46 		.word	1175232512
 2430 1ab8 00B02E45 		.word	1160687616
 2431 1abc 00A00C46 		.word	1175232512
 2432 1ac0 00502F45 		.word	1160728576
 2433 1ac4 00A00C46 		.word	1175232512
 2434 1ac8 00F02F45 		.word	1160769536
 2435 1acc 00A00C46 		.word	1175232512
 2436 1ad0 00903045 		.word	1160810496
 2437 1ad4 00A00C46 		.word	1175232512
 2438 1ad8 00303145 		.word	1160851456
 2439 1adc 00A00C46 		.word	1175232512
 2440 1ae0 00D03145 		.word	1160892416
 2441 1ae4 00A00C46 		.word	1175232512
 2442 1ae8 00703245 		.word	1160933376
ARM GAS  C:\Users\Prashant\AppData\Local\Temp\cczsYW6b.s 			page 68


 2443 1aec 00A00C46 		.word	1175232512
 2444 1af0 00103345 		.word	1160974336
 2445 1af4 00A00C46 		.word	1175232512
 2446 1af8 00B03345 		.word	1161015296
 2447 1afc 00A00C46 		.word	1175232512
 2448 1b00 00503445 		.word	1161056256
 2449 1b04 00A00C46 		.word	1175232512
 2450 1b08 00F03445 		.word	1161097216
 2451 1b0c 00A00C46 		.word	1175232512
 2452 1b10 00903545 		.word	1161138176
 2453 1b14 00A00C46 		.word	1175232512
 2454 1b18 00303645 		.word	1161179136
 2455 1b1c 00A00C46 		.word	1175232512
 2456 1b20 00D03645 		.word	1161220096
 2457 1b24 00A00C46 		.word	1175232512
 2458 1b28 00703745 		.word	1161261056
 2459 1b2c 00A00C46 		.word	1175232512
 2460 1b30 00103845 		.word	1161302016
 2461 1b34 00A00C46 		.word	1175232512
 2462 1b38 00B03845 		.word	1161342976
 2463 1b3c 00A00C46 		.word	1175232512
 2464 1b40 00503945 		.word	1161383936
 2465 1b44 00A00C46 		.word	1175232512
 2466 1b48 00F03945 		.word	1161424896
 2467 1b4c 00A00C46 		.word	1175232512
 2468 1b50 00903A45 		.word	1161465856
 2469 1b54 00A00C46 		.word	1175232512
 2470 1b58 00303B45 		.word	1161506816
 2471 1b5c 00A00C46 		.word	1175232512
 2472 1b60 00D03B45 		.word	1161547776
 2473 1b64 00A00C46 		.word	1175232512
 2474 1b68 00703C45 		.word	1161588736
 2475 1b6c 00A00C46 		.word	1175232512
 2476 1b70 00103D45 		.word	1161629696
 2477 1b74 00A00C46 		.word	1175232512
 2478 1b78 00B03D45 		.word	1161670656
 2479 1b7c 00A00C46 		.word	1175232512
 2480 1b80 00503E45 		.word	1161711616
 2481 1b84 00A00C46 		.word	1175232512
 2482 1b88 00F03E45 		.word	1161752576
 2483 1b8c 00A00C46 		.word	1175232512
 2484 1b90 00903F45 		.word	1161793536
 2485 1b94 00A00C46 		.word	1175232512
 2486 1b98 00304045 		.word	1161834496
 2487 1b9c 00A00C46 		.word	1175232512
 2488 1ba0 00D04045 		.word	1161875456
 2489 1ba4 00A00C46 		.word	1175232512
 2490 1ba8 00704145 		.word	1161916416
 2491 1bac 00A00C46 		.word	1175232512
 2492 1bb0 00104245 		.word	1161957376
 2493 1bb4 00A00C46 		.word	1175232512
 2494 1bb8 00B04245 		.word	1161998336
 2495 1bbc 00A00C46 		.word	1175232512
 2496 1bc0 00504345 		.word	1162039296
 2497 1bc4 00A00C46 		.word	1175232512
 2498 1bc8 00F04345 		.word	1162080256
 2499 1bcc 00A00C46 		.word	1175232512
ARM GAS  C:\Users\Prashant\AppData\Local\Temp\cczsYW6b.s 			page 69


 2500 1bd0 00904445 		.word	1162121216
 2501 1bd4 00A00C46 		.word	1175232512
 2502 1bd8 00304545 		.word	1162162176
 2503 1bdc 00A00C46 		.word	1175232512
 2504 1be0 00D04545 		.word	1162203136
 2505 1be4 00A00C46 		.word	1175232512
 2506 1be8 00704645 		.word	1162244096
 2507 1bec 00A00C46 		.word	1175232512
 2508 1bf0 00104745 		.word	1162285056
 2509 1bf4 00A00C46 		.word	1175232512
 2510 1bf8 00B04745 		.word	1162326016
 2511 1bfc 00A00C46 		.word	1175232512
 2512 1c00 00504845 		.word	1162366976
 2513 1c04 00A00C46 		.word	1175232512
 2514 1c08 00F04845 		.word	1162407936
 2515 1c0c 00A00C46 		.word	1175232512
 2516 1c10 00904945 		.word	1162448896
 2517 1c14 00A00C46 		.word	1175232512
 2518 1c18 00304A45 		.word	1162489856
 2519 1c1c 00A00C46 		.word	1175232512
 2520 1c20 00D04A45 		.word	1162530816
 2521 1c24 00A00C46 		.word	1175232512
 2522 1c28 00704B45 		.word	1162571776
 2523 1c2c 00A00C46 		.word	1175232512
 2524 1c30 00104C45 		.word	1162612736
 2525 1c34 00A00C46 		.word	1175232512
 2526 1c38 00B04C45 		.word	1162653696
 2527 1c3c 00A00C46 		.word	1175232512
 2528 1c40 00504D45 		.word	1162694656
 2529 1c44 00A00C46 		.word	1175232512
 2530 1c48 00F04D45 		.word	1162735616
 2531 1c4c 00A00C46 		.word	1175232512
 2532 1c50 00904E45 		.word	1162776576
 2533 1c54 00A00C46 		.word	1175232512
 2534 1c58 00304F45 		.word	1162817536
 2535 1c5c 00A00C46 		.word	1175232512
 2536 1c60 00D04F45 		.word	1162858496
 2537 1c64 00A00C46 		.word	1175232512
 2538 1c68 00705045 		.word	1162899456
 2539 1c6c 00A00C46 		.word	1175232512
 2540 1c70 00105145 		.word	1162940416
 2541 1c74 00A00C46 		.word	1175232512
 2542 1c78 00B05145 		.word	1162981376
 2543 1c7c 00A00C46 		.word	1175232512
 2544 1c80 00505245 		.word	1163022336
 2545 1c84 00A00C46 		.word	1175232512
 2546 1c88 00F05245 		.word	1163063296
 2547 1c8c 00A00C46 		.word	1175232512
 2548 1c90 00905345 		.word	1163104256
 2549 1c94 00A00C46 		.word	1175232512
 2550 1c98 00305445 		.word	1163145216
 2551 1c9c 00A00C46 		.word	1175232512
 2552 1ca0 00D05445 		.word	1163186176
 2553 1ca4 00A00C46 		.word	1175232512
 2554 1ca8 00705545 		.word	1163227136
 2555 1cac 00A00C46 		.word	1175232512
 2556 1cb0 00105645 		.word	1163268096
ARM GAS  C:\Users\Prashant\AppData\Local\Temp\cczsYW6b.s 			page 70


 2557 1cb4 00A00C46 		.word	1175232512
 2558 1cb8 00B05645 		.word	1163309056
 2559 1cbc 00A00C46 		.word	1175232512
 2560 1cc0 00505745 		.word	1163350016
 2561 1cc4 00A00C46 		.word	1175232512
 2562 1cc8 00F05745 		.word	1163390976
 2563 1ccc 00A00C46 		.word	1175232512
 2564 1cd0 00905845 		.word	1163431936
 2565 1cd4 00A00C46 		.word	1175232512
 2566 1cd8 00305945 		.word	1163472896
 2567 1cdc 00A00C46 		.word	1175232512
 2568 1ce0 00D05945 		.word	1163513856
 2569 1ce4 00A00C46 		.word	1175232512
 2570 1ce8 00705A45 		.word	1163554816
 2571 1cec 00A00C46 		.word	1175232512
 2572 1cf0 00105B45 		.word	1163595776
 2573 1cf4 00A00C46 		.word	1175232512
 2574 1cf8 00B05B45 		.word	1163636736
 2575 1cfc 00A00C46 		.word	1175232512
 2576 1d00 00505C45 		.word	1163677696
 2577 1d04 00A00C46 		.word	1175232512
 2578 1d08 00F05C45 		.word	1163718656
 2579 1d0c 00A00C46 		.word	1175232512
 2580 1d10 00905D45 		.word	1163759616
 2581 1d14 00A00C46 		.word	1175232512
 2582 1d18 00305E45 		.word	1163800576
 2583 1d1c 00A00C46 		.word	1175232512
 2584 1d20 00D05E45 		.word	1163841536
 2585 1d24 00A00C46 		.word	1175232512
 2586 1d28 00705F45 		.word	1163882496
 2587 1d2c 00A00C46 		.word	1175232512
 2588 1d30 00106045 		.word	1163923456
 2589 1d34 00A00C46 		.word	1175232512
 2590 1d38 00B06045 		.word	1163964416
 2591 1d3c 00A00C46 		.word	1175232512
 2592 1d40 00506145 		.word	1164005376
 2593 1d44 00A00C46 		.word	1175232512
 2594 1d48 00F06145 		.word	1164046336
 2595 1d4c 00A00C46 		.word	1175232512
 2596 1d50 00906245 		.word	1164087296
 2597 1d54 00A00C46 		.word	1175232512
 2598 1d58 00306345 		.word	1164128256
 2599 1d5c 00A00C46 		.word	1175232512
 2600 1d60 00D06345 		.word	1164169216
 2601 1d64 00A00C46 		.word	1175232512
 2602 1d68 00706445 		.word	1164210176
 2603 1d6c 00A00C46 		.word	1175232512
 2604 1d70 00106545 		.word	1164251136
 2605 1d74 00A00C46 		.word	1175232512
 2606 1d78 00B06545 		.word	1164292096
 2607 1d7c 00A00C46 		.word	1175232512
 2608 1d80 00506645 		.word	1164333056
 2609 1d84 00A00C46 		.word	1175232512
 2610 1d88 00F06645 		.word	1164374016
 2611 1d8c 00A00C46 		.word	1175232512
 2612 1d90 00906745 		.word	1164414976
 2613 1d94 00A00C46 		.word	1175232512
ARM GAS  C:\Users\Prashant\AppData\Local\Temp\cczsYW6b.s 			page 71


 2614 1d98 00306845 		.word	1164455936
 2615 1d9c 00A00C46 		.word	1175232512
 2616 1da0 00D06845 		.word	1164496896
 2617 1da4 00A00C46 		.word	1175232512
 2618 1da8 00706945 		.word	1164537856
 2619 1dac 00A00C46 		.word	1175232512
 2620 1db0 00106A45 		.word	1164578816
 2621 1db4 00A00C46 		.word	1175232512
 2622 1db8 00B06A45 		.word	1164619776
 2623 1dbc 00A00C46 		.word	1175232512
 2624 1dc0 00506B45 		.word	1164660736
 2625 1dc4 00A00C46 		.word	1175232512
 2626 1dc8 00F06B45 		.word	1164701696
 2627 1dcc 00A00C46 		.word	1175232512
 2628 1dd0 00906C45 		.word	1164742656
 2629 1dd4 00A00C46 		.word	1175232512
 2630 1dd8 00306D45 		.word	1164783616
 2631 1ddc 00A00C46 		.word	1175232512
 2632 1de0 00D06D45 		.word	1164824576
 2633 1de4 00A00C46 		.word	1175232512
 2634 1de8 00706E45 		.word	1164865536
 2635 1dec 00A00C46 		.word	1175232512
 2636 1df0 00106F45 		.word	1164906496
 2637 1df4 00A00C46 		.word	1175232512
 2638 1df8 00B06F45 		.word	1164947456
 2639 1dfc 00A00C46 		.word	1175232512
 2640 1e00 00507045 		.word	1164988416
 2641 1e04 00A00C46 		.word	1175232512
 2642 1e08 00F07045 		.word	1165029376
 2643 1e0c 00A00C46 		.word	1175232512
 2644 1e10 00907145 		.word	1165070336
 2645 1e14 00A00C46 		.word	1175232512
 2646 1e18 00307245 		.word	1165111296
 2647 1e1c 00A00C46 		.word	1175232512
 2648 1e20 00D07245 		.word	1165152256
 2649 1e24 00A00C46 		.word	1175232512
 2650 1e28 00707345 		.word	1165193216
 2651 1e2c 00A00C46 		.word	1175232512
 2652 1e30 00107445 		.word	1165234176
 2653 1e34 00A00C46 		.word	1175232512
 2654 1e38 00B07445 		.word	1165275136
 2655 1e3c 00A00C46 		.word	1175232512
 2656 1e40 00507545 		.word	1165316096
 2657 1e44 00A00C46 		.word	1175232512
 2658 1e48 00F07545 		.word	1165357056
 2659 1e4c 00A00C46 		.word	1175232512
 2660 1e50 00907645 		.word	1165398016
 2661 1e54 00A00C46 		.word	1175232512
 2662 1e58 00307745 		.word	1165438976
 2663 1e5c 00A00C46 		.word	1175232512
 2664 1e60 00D07745 		.word	1165479936
 2665 1e64 00A00C46 		.word	1175232512
 2666 1e68 00707845 		.word	1165520896
 2667 1e6c 00A00C46 		.word	1175232512
 2668 1e70 00107945 		.word	1165561856
 2669 1e74 00A00C46 		.word	1175232512
 2670 1e78 00B07945 		.word	1165602816
ARM GAS  C:\Users\Prashant\AppData\Local\Temp\cczsYW6b.s 			page 72


 2671 1e7c 00A00C46 		.word	1175232512
 2672 1e80 00507A45 		.word	1165643776
 2673 1e84 00A00C46 		.word	1175232512
 2674 1e88 00F07A45 		.word	1165684736
 2675 1e8c 00A00C46 		.word	1175232512
 2676 1e90 00907B45 		.word	1165725696
 2677 1e94 00A00C46 		.word	1175232512
 2678 1e98 00307C45 		.word	1165766656
 2679 1e9c 00A00C46 		.word	1175232512
 2680 1ea0 00D07C45 		.word	1165807616
 2681 1ea4 00A00C46 		.word	1175232512
 2682 1ea8 00707D45 		.word	1165848576
 2683 1eac 00A00C46 		.word	1175232512
 2684 1eb0 00107E45 		.word	1165889536
 2685 1eb4 00A00C46 		.word	1175232512
 2686 1eb8 00B07E45 		.word	1165930496
 2687 1ebc 00A00C46 		.word	1175232512
 2688 1ec0 00507F45 		.word	1165971456
 2689 1ec4 00A00C46 		.word	1175232512
 2690 1ec8 00F07F45 		.word	1166012416
 2691 1ecc 00A00C46 		.word	1175232512
 2692 1ed0 00488045 		.word	1166034944
 2693 1ed4 00A00C46 		.word	1175232512
 2694 1ed8 00988045 		.word	1166055424
 2695 1edc 00A00C46 		.word	1175232512
 2696 1ee0 00E88045 		.word	1166075904
 2697 1ee4 00A00C46 		.word	1175232512
 2698 1ee8 00388145 		.word	1166096384
 2699 1eec 00A00C46 		.word	1175232512
 2700 1ef0 00888145 		.word	1166116864
 2701 1ef4 00A00C46 		.word	1175232512
 2702 1ef8 00D88145 		.word	1166137344
 2703 1efc 00A00C46 		.word	1175232512
 2704 1f00 00288245 		.word	1166157824
 2705 1f04 00A00C46 		.word	1175232512
 2706 1f08 00788245 		.word	1166178304
 2707 1f0c 00A00C46 		.word	1175232512
 2708 1f10 00C88245 		.word	1166198784
 2709 1f14 00A00C46 		.word	1175232512
 2710 1f18 00188345 		.word	1166219264
 2711 1f1c 00A00C46 		.word	1175232512
 2712 1f20 00688345 		.word	1166239744
 2713 1f24 00A00C46 		.word	1175232512
 2714 1f28 00B88345 		.word	1166260224
 2715 1f2c 00A00C46 		.word	1175232512
 2716 1f30 00088445 		.word	1166280704
 2717 1f34 00A00C46 		.word	1175232512
 2718 1f38 00588445 		.word	1166301184
 2719 1f3c 00A00C46 		.word	1175232512
 2720 1f40 00A88445 		.word	1166321664
 2721 1f44 00A00C46 		.word	1175232512
 2722 1f48 00F88445 		.word	1166342144
 2723 1f4c 00A00C46 		.word	1175232512
 2724 1f50 00488545 		.word	1166362624
 2725 1f54 00A00C46 		.word	1175232512
 2726 1f58 00988545 		.word	1166383104
 2727 1f5c 00A00C46 		.word	1175232512
ARM GAS  C:\Users\Prashant\AppData\Local\Temp\cczsYW6b.s 			page 73


 2728 1f60 00E88545 		.word	1166403584
 2729 1f64 00A00C46 		.word	1175232512
 2730 1f68 00388645 		.word	1166424064
 2731 1f6c 00A00C46 		.word	1175232512
 2732 1f70 00888645 		.word	1166444544
 2733 1f74 00A00C46 		.word	1175232512
 2734 1f78 00D88645 		.word	1166465024
 2735 1f7c 00A00C46 		.word	1175232512
 2736 1f80 00288745 		.word	1166485504
 2737 1f84 00A00C46 		.word	1175232512
 2738 1f88 00788745 		.word	1166505984
 2739 1f8c 00A00C46 		.word	1175232512
 2740 1f90 00C88745 		.word	1166526464
 2741 1f94 00A00C46 		.word	1175232512
 2742 1f98 00188845 		.word	1166546944
 2743 1f9c 00A00C46 		.word	1175232512
 2744 1fa0 00688845 		.word	1166567424
 2745 1fa4 00A00C46 		.word	1175232512
 2746 1fa8 00B88845 		.word	1166587904
 2747 1fac 00A00C46 		.word	1175232512
 2748 1fb0 00088945 		.word	1166608384
 2749 1fb4 00A00C46 		.word	1175232512
 2750 1fb8 00588945 		.word	1166628864
 2751 1fbc 00A00C46 		.word	1175232512
 2752 1fc0 00A88945 		.word	1166649344
 2753 1fc4 00A00C46 		.word	1175232512
 2754 1fc8 00F88945 		.word	1166669824
 2755 1fcc 00A00C46 		.word	1175232512
 2756 1fd0 00488A45 		.word	1166690304
 2757 1fd4 00A00C46 		.word	1175232512
 2758 1fd8 00988A45 		.word	1166710784
 2759 1fdc 00A00C46 		.word	1175232512
 2760 1fe0 00E88A45 		.word	1166731264
 2761 1fe4 00A00C46 		.word	1175232512
 2762 1fe8 00388B45 		.word	1166751744
 2763 1fec 00A00C46 		.word	1175232512
 2764 1ff0 00888B45 		.word	1166772224
 2765 1ff4 00A00C46 		.word	1175232512
 2766 1ff8 00D88B45 		.word	1166792704
 2767 1ffc 00A00C46 		.word	1175232512
 2768 2000 00288C45 		.word	1166813184
 2769 2004 00A00C46 		.word	1175232512
 2770 2008 00788C45 		.word	1166833664
 2771 200c 00A00C46 		.word	1175232512
 2772 2010 00C88C45 		.word	1166854144
 2773 2014 00A00C46 		.word	1175232512
 2774 2018 00188D45 		.word	1166874624
 2775 201c 00A00C46 		.word	1175232512
 2776 2020 00688D45 		.word	1166895104
 2777 2024 00A00C46 		.word	1175232512
 2778 2028 00B88D45 		.word	1166915584
 2779 202c 00A00C46 		.word	1175232512
 2780 2030 00088E45 		.word	1166936064
 2781 2034 00A00C46 		.word	1175232512
 2782 2038 00588E45 		.word	1166956544
 2783 203c 00A00C46 		.word	1175232512
 2784 2040 00A88E45 		.word	1166977024
ARM GAS  C:\Users\Prashant\AppData\Local\Temp\cczsYW6b.s 			page 74


 2785 2044 00A00C46 		.word	1175232512
 2786 2048 00F88E45 		.word	1166997504
 2787 204c 00A00C46 		.word	1175232512
 2788 2050 00488F45 		.word	1167017984
 2789 2054 00A00C46 		.word	1175232512
 2790 2058 00988F45 		.word	1167038464
 2791 205c 00A00C46 		.word	1175232512
 2792 2060 00E88F45 		.word	1167058944
 2793 2064 00A00C46 		.word	1175232512
 2794 2068 00389045 		.word	1167079424
 2795 206c 00A00C46 		.word	1175232512
 2796 2070 00889045 		.word	1167099904
 2797 2074 00A00C46 		.word	1175232512
 2798 2078 00D89045 		.word	1167120384
 2799 207c 00A00C46 		.word	1175232512
 2800 2080 00289145 		.word	1167140864
 2801 2084 00A00C46 		.word	1175232512
 2802 2088 00789145 		.word	1167161344
 2803 208c 00A00C46 		.word	1175232512
 2804 2090 00C89145 		.word	1167181824
 2805 2094 00A00C46 		.word	1175232512
 2806 2098 00189245 		.word	1167202304
 2807 209c 00A00C46 		.word	1175232512
 2808 20a0 00689245 		.word	1167222784
 2809 20a4 00A00C46 		.word	1175232512
 2810 20a8 00B89245 		.word	1167243264
 2811 20ac 00A00C46 		.word	1175232512
 2812 20b0 00089345 		.word	1167263744
 2813 20b4 00A00C46 		.word	1175232512
 2814 20b8 00589345 		.word	1167284224
 2815 20bc 00A00C46 		.word	1175232512
 2816 20c0 00A89345 		.word	1167304704
 2817 20c4 00A00C46 		.word	1175232512
 2818 20c8 00F89345 		.word	1167325184
 2819 20cc 00A00C46 		.word	1175232512
 2820 20d0 00489445 		.word	1167345664
 2821 20d4 00A00C46 		.word	1175232512
 2822 20d8 00989445 		.word	1167366144
 2823 20dc 00A00C46 		.word	1175232512
 2824 20e0 00E89445 		.word	1167386624
 2825 20e4 00A00C46 		.word	1175232512
 2826 20e8 00389545 		.word	1167407104
 2827 20ec 00A00C46 		.word	1175232512
 2828 20f0 00889545 		.word	1167427584
 2829 20f4 00A00C46 		.word	1175232512
 2830 20f8 00D89545 		.word	1167448064
 2831 20fc 00A00C46 		.word	1175232512
 2832 2100 00289645 		.word	1167468544
 2833 2104 00A00C46 		.word	1175232512
 2834 2108 00789645 		.word	1167489024
 2835 210c 00A00C46 		.word	1175232512
 2836 2110 00C89645 		.word	1167509504
 2837 2114 00A00C46 		.word	1175232512
 2838 2118 00189745 		.word	1167529984
 2839 211c 00A00C46 		.word	1175232512
 2840 2120 00689745 		.word	1167550464
 2841 2124 00A00C46 		.word	1175232512
ARM GAS  C:\Users\Prashant\AppData\Local\Temp\cczsYW6b.s 			page 75


 2842 2128 00B89745 		.word	1167570944
 2843 212c 00A00C46 		.word	1175232512
 2844 2130 00089845 		.word	1167591424
 2845 2134 00A00C46 		.word	1175232512
 2846 2138 00589845 		.word	1167611904
 2847 213c 00A00C46 		.word	1175232512
 2848 2140 00A89845 		.word	1167632384
 2849 2144 00A00C46 		.word	1175232512
 2850 2148 00F89845 		.word	1167652864
 2851 214c 00A00C46 		.word	1175232512
 2852 2150 00489945 		.word	1167673344
 2853 2154 00A00C46 		.word	1175232512
 2854 2158 00989945 		.word	1167693824
 2855 215c 00A00C46 		.word	1175232512
 2856 2160 00E89945 		.word	1167714304
 2857 2164 00A00C46 		.word	1175232512
 2858 2168 00389A45 		.word	1167734784
 2859 216c 00A00C46 		.word	1175232512
 2860 2170 00889A45 		.word	1167755264
 2861 2174 00A00C46 		.word	1175232512
 2862 2178 00D89A45 		.word	1167775744
 2863 217c 00A00C46 		.word	1175232512
 2864 2180 00289B45 		.word	1167796224
 2865 2184 00A00C46 		.word	1175232512
 2866 2188 00789B45 		.word	1167816704
 2867 218c 00A00C46 		.word	1175232512
 2868 2190 00C89B45 		.word	1167837184
 2869 2194 00A00C46 		.word	1175232512
 2870 2198 00189C45 		.word	1167857664
 2871 219c 00A00C46 		.word	1175232512
 2872 21a0 00689C45 		.word	1167878144
 2873 21a4 00A00C46 		.word	1175232512
 2874 21a8 00B89C45 		.word	1167898624
 2875 21ac 00A00C46 		.word	1175232512
 2876 21b0 00089D45 		.word	1167919104
 2877 21b4 00A00C46 		.word	1175232512
 2878 21b8 00589D45 		.word	1167939584
 2879 21bc 00A00C46 		.word	1175232512
 2880 21c0 00A89D45 		.word	1167960064
 2881 21c4 00A00C46 		.word	1175232512
 2882 21c8 00F89D45 		.word	1167980544
 2883 21cc 00A00C46 		.word	1175232512
 2884 21d0 00489E45 		.word	1168001024
 2885 21d4 00A00C46 		.word	1175232512
 2886 21d8 00989E45 		.word	1168021504
 2887 21dc 00A00C46 		.word	1175232512
 2888 21e0 00E89E45 		.word	1168041984
 2889 21e4 00A00C46 		.word	1175232512
 2890 21e8 00389F45 		.word	1168062464
 2891 21ec 00A00C46 		.word	1175232512
 2892 21f0 00889F45 		.word	1168082944
 2893 21f4 00A00C46 		.word	1175232512
 2894 21f8 00D89F45 		.word	1168103424
 2895 21fc 00A00C46 		.word	1175232512
 2896 2200 0028A045 		.word	1168123904
 2897 2204 00A00C46 		.word	1175232512
 2898 2208 0078A045 		.word	1168144384
ARM GAS  C:\Users\Prashant\AppData\Local\Temp\cczsYW6b.s 			page 76


 2899 220c 00A00C46 		.word	1175232512
 2900 2210 00C8A045 		.word	1168164864
 2901 2214 00A00C46 		.word	1175232512
 2902 2218 0018A145 		.word	1168185344
 2903 221c 00A00C46 		.word	1175232512
 2904 2220 0068A145 		.word	1168205824
 2905 2224 00A00C46 		.word	1175232512
 2906 2228 00B8A145 		.word	1168226304
 2907 222c 00A00C46 		.word	1175232512
 2908 2230 0008A245 		.word	1168246784
 2909 2234 00A00C46 		.word	1175232512
 2910 2238 0058A245 		.word	1168267264
 2911 223c 00A00C46 		.word	1175232512
 2912 2240 00A8A245 		.word	1168287744
 2913 2244 00A00C46 		.word	1175232512
 2914 2248 00F8A245 		.word	1168308224
 2915 224c 00A00C46 		.word	1175232512
 2916 2250 0048A345 		.word	1168328704
 2917 2254 00A00C46 		.word	1175232512
 2918 2258 0098A345 		.word	1168349184
 2919 225c 00A00C46 		.word	1175232512
 2920 2260 00E8A345 		.word	1168369664
 2921 2264 00A00C46 		.word	1175232512
 2922 2268 0038A445 		.word	1168390144
 2923 226c 00A00C46 		.word	1175232512
 2924 2270 0088A445 		.word	1168410624
 2925 2274 00A00C46 		.word	1175232512
 2926 2278 00D8A445 		.word	1168431104
 2927 227c 00A00C46 		.word	1175232512
 2928 2280 0028A545 		.word	1168451584
 2929 2284 00A00C46 		.word	1175232512
 2930 2288 0078A545 		.word	1168472064
 2931 228c 00A00C46 		.word	1175232512
 2932 2290 00C8A545 		.word	1168492544
 2933 2294 00A00C46 		.word	1175232512
 2934 2298 0018A645 		.word	1168513024
 2935 229c 00A00C46 		.word	1175232512
 2936 22a0 0068A645 		.word	1168533504
 2937 22a4 00A00C46 		.word	1175232512
 2938 22a8 00B8A645 		.word	1168553984
 2939 22ac 00A00C46 		.word	1175232512
 2940 22b0 0008A745 		.word	1168574464
 2941 22b4 00A00C46 		.word	1175232512
 2942 22b8 0058A745 		.word	1168594944
 2943 22bc 00A00C46 		.word	1175232512
 2944 22c0 00A8A745 		.word	1168615424
 2945 22c4 00A00C46 		.word	1175232512
 2946 22c8 00F8A745 		.word	1168635904
 2947 22cc 00A00C46 		.word	1175232512
 2948 22d0 0048A845 		.word	1168656384
 2949 22d4 00A00C46 		.word	1175232512
 2950 22d8 0098A845 		.word	1168676864
 2951 22dc 00A00C46 		.word	1175232512
 2952 22e0 00E8A845 		.word	1168697344
 2953 22e4 00A00C46 		.word	1175232512
 2954 22e8 0038A945 		.word	1168717824
 2955 22ec 00A00C46 		.word	1175232512
ARM GAS  C:\Users\Prashant\AppData\Local\Temp\cczsYW6b.s 			page 77


 2956 22f0 0088A945 		.word	1168738304
 2957 22f4 00A00C46 		.word	1175232512
 2958 22f8 00D8A945 		.word	1168758784
 2959 22fc 00A00C46 		.word	1175232512
 2960 2300 0028AA45 		.word	1168779264
 2961 2304 00A00C46 		.word	1175232512
 2962 2308 0078AA45 		.word	1168799744
 2963 230c 00A00C46 		.word	1175232512
 2964 2310 00C8AA45 		.word	1168820224
 2965 2314 00A00C46 		.word	1175232512
 2966 2318 0018AB45 		.word	1168840704
 2967 231c 00A00C46 		.word	1175232512
 2968 2320 0068AB45 		.word	1168861184
 2969 2324 00A00C46 		.word	1175232512
 2970 2328 00B8AB45 		.word	1168881664
 2971 232c 00A00C46 		.word	1175232512
 2972 2330 00000000 		.space	32
 2972      00000000 
 2972      00000000 
 2972      00000000 
 2972      00000000 
 2973              		.text
 2974              	.Letext0:
 2975              		.file 7 "c:\\program files (x86)\\gnu tools arm embedded\\7 2017-q4-major\\arm-none-eabi\\include\
 2976              		.file 8 "c:\\program files (x86)\\gnu tools arm embedded\\7 2017-q4-major\\arm-none-eabi\\include\
 2977              		.file 9 "c:\\program files (x86)\\gnu tools arm embedded\\7 2017-q4-major\\arm-none-eabi\\include\
 2978              		.file 10 "c:\\program files (x86)\\gnu tools arm embedded\\7 2017-q4-major\\arm-none-eabi\\include
 2979              		.file 11 "c:\\program files (x86)\\gnu tools arm embedded\\7 2017-q4-major\\arm-none-eabi\\include
 2980              		.file 12 "c:\\program files (x86)\\gnu tools arm embedded\\7 2017-q4-major\\lib\\gcc\\arm-none-eab
 2981              		.file 13 "c:\\program files (x86)\\gnu tools arm embedded\\7 2017-q4-major\\arm-none-eabi\\include
 2982              		.file 14 "c:\\program files (x86)\\gnu tools arm embedded\\7 2017-q4-major\\arm-none-eabi\\include
 2983              		.file 15 "c:\\program files (x86)\\gnu tools arm embedded\\7 2017-q4-major\\arm-none-eabi\\include
 2984              		.file 16 "c:\\program files (x86)\\gnu tools arm embedded\\7 2017-q4-major\\arm-none-eabi\\include
 2985              		.file 17 "c:\\program files (x86)\\gnu tools arm embedded\\7 2017-q4-major\\arm-none-eabi\\include
 2986              		.file 18 "C:/Users/Prashant/STM32Cube/Repository/STM32Cube_FW_F4_V1.21.0/Drivers/CMSIS/Include/cor
 2987              		.file 19 "C:/Users/Prashant/STM32Cube/Repository/STM32Cube_FW_F4_V1.21.0/Drivers/CMSIS/Device/ST/S
 2988              		.file 20 "C:/Users/Prashant/STM32Cube/Repository/STM32Cube_FW_F4_V1.21.0/Drivers/CMSIS/Device/ST/S
 2989              		.file 21 "C:/Users/Prashant/STM32Cube/Repository/STM32Cube_FW_F4_V1.21.0/Drivers/STM32F4xx_HAL_Dri
 2990              		.file 22 "C:/Users/Prashant/STM32Cube/Repository/STM32Cube_FW_F4_V1.21.0/Drivers/STM32F4xx_HAL_Dri
 2991              		.file 23 "C:/Users/Prashant/STM32Cube/Repository/STM32Cube_FW_F4_V1.21.0/Drivers/STM32F4xx_HAL_Dri
 2992              		.file 24 "C:/Users/Prashant/STM32Cube/Repository/STM32Cube_FW_F4_V1.21.0/Drivers/STM32F4xx_HAL_Dri
 2993              		.file 25 "C:/Users/Prashant/STM32Cube/Repository/STM32Cube_FW_F4_V1.21.0/Drivers/STM32F4xx_HAL_Dri
 2994              		.file 26 "Core/Inc/periphs/i2c.h"
 2995              		.file 27 "Core/Inc/periphs/tim.h"
 2996              		.file 28 "Core/Inc/devs/mpu6050.h"
 2997              		.file 29 "Core/Inc/utils/vec3.h"
 2998              		.file 30 "Core/Inc/devs/a4988.h"
 2999              		.file 31 "Core/Inc/devs/hmc5883.h"
 3000              		.file 32 "Core/Inc/periphs/usart.h"
 3001              		.file 33 "Core/Inc\\devs/wheeler.h"
 3002              		.file 34 "Core/Inc/robot/devs_config.h"
 3003              		.file 35 "Core/Inc/robot/robo_states.h"
 3004              		.file 36 "<built-in>"
ARM GAS  C:\Users\Prashant\AppData\Local\Temp\cczsYW6b.s 			page 78

