ARM GAS  C:\Users\Prashant\AppData\Local\Temp\cc0NRjQj.s 			page 1


   1              		.cpu cortex-m4
   2              		.eabi_attribute 27, 1
   3              		.eabi_attribute 28, 1
   4              		.eabi_attribute 20, 1
   5              		.eabi_attribute 21, 1
   6              		.eabi_attribute 23, 3
   7              		.eabi_attribute 24, 1
   8              		.eabi_attribute 25, 1
   9              		.eabi_attribute 26, 1
  10              		.eabi_attribute 30, 1
  11              		.eabi_attribute 34, 1
  12              		.eabi_attribute 18, 4
  13              		.file	"robo_actions.cpp"
  14              		.text
  15              	.Ltext0:
  16              		.cfi_sections	.debug_frame
  17              		.section	.text._ZN4Vec3IfED2Ev,"axG",%progbits,_ZN4Vec3IfED5Ev,comdat
  18              		.align	1
  19              		.weak	_ZN4Vec3IfED2Ev
  20              		.syntax unified
  21              		.thumb
  22              		.thumb_func
  23              		.fpu fpv4-sp-d16
  25              	_ZN4Vec3IfED2Ev:
  26              	.LFB511:
  27              		.file 1 "Core/Inc\\utils/vec3.h"
   1:Core/Inc\utils/vec3.h **** /*
   2:Core/Inc\utils/vec3.h ****  * vec3.h
   3:Core/Inc\utils/vec3.h ****  * 
   4:Core/Inc\utils/vec3.h ****  * Created : 11/9/2018
   5:Core/Inc\utils/vec3.h ****  *  Author : n-is
   6:Core/Inc\utils/vec3.h ****  *   email : 073bex422.nischal@pcampus.edu.np
   7:Core/Inc\utils/vec3.h ****  */
   8:Core/Inc\utils/vec3.h **** 
   9:Core/Inc\utils/vec3.h **** #ifndef _VEC3_H_
  10:Core/Inc\utils/vec3.h **** #define _VEC3_H_
  11:Core/Inc\utils/vec3.h **** 
  12:Core/Inc\utils/vec3.h **** #include "stm32f4xx_hal.h"
  13:Core/Inc\utils/vec3.h **** 
  14:Core/Inc\utils/vec3.h **** template <typename T>
  15:Core/Inc\utils/vec3.h **** void swap_Element(T &first, T &second)
  16:Core/Inc\utils/vec3.h **** {
  17:Core/Inc\utils/vec3.h ****         T temp = first;
  18:Core/Inc\utils/vec3.h ****         first = second;
  19:Core/Inc\utils/vec3.h ****         second = temp;
  20:Core/Inc\utils/vec3.h **** }
  21:Core/Inc\utils/vec3.h **** 
  22:Core/Inc\utils/vec3.h **** template <class T>
  23:Core/Inc\utils/vec3.h **** class Vec3
  24:Core/Inc\utils/vec3.h **** {
  25:Core/Inc\utils/vec3.h **** public:
  26:Core/Inc\utils/vec3.h ****         Vec3() { set_Values(0,0,0); }
  27:Core/Inc\utils/vec3.h ****         Vec3(T x, T y, T z) { set_Values(x,y,z); }
  28:Core/Inc\utils/vec3.h ****         Vec3(Vec3 &&) = default;
  29:Core/Inc\utils/vec3.h ****         Vec3 &operator=(Vec3 &&) = default;
  30:Core/Inc\utils/vec3.h ****         ~Vec3();
  31:Core/Inc\utils/vec3.h **** 
ARM GAS  C:\Users\Prashant\AppData\Local\Temp\cc0NRjQj.s 			page 2


  32:Core/Inc\utils/vec3.h ****         void set_Values(T x, T y, T z);
  33:Core/Inc\utils/vec3.h ****         T getX() const;
  34:Core/Inc\utils/vec3.h ****         T getY() const;
  35:Core/Inc\utils/vec3.h ****         T getZ() const;
  36:Core/Inc\utils/vec3.h ****         void setX(T x) { x_ = x; }
  37:Core/Inc\utils/vec3.h ****         void setY(T y) { y_ = y; }
  38:Core/Inc\utils/vec3.h ****         void setZ(T z) { z_ = z; }
  39:Core/Inc\utils/vec3.h **** 
  40:Core/Inc\utils/vec3.h ****         template <typename T1, typename T2>
  41:Core/Inc\utils/vec3.h ****         void divide(const Vec3<T1> &v, T2 num) {
  42:Core/Inc\utils/vec3.h ****                 x_ = v.getX() / num;
  43:Core/Inc\utils/vec3.h ****                 y_ = v.getY() / num;
  44:Core/Inc\utils/vec3.h ****                 z_ = v.getZ() / num;
  45:Core/Inc\utils/vec3.h ****         }
  46:Core/Inc\utils/vec3.h **** 
  47:Core/Inc\utils/vec3.h ****         Vec3 mult_EW(float num) {
  48:Core/Inc\utils/vec3.h ****                 Vec3 temp(*this);
  49:Core/Inc\utils/vec3.h ****                 temp.x_ *= num;
  50:Core/Inc\utils/vec3.h ****                 temp.y_ *= num;
  51:Core/Inc\utils/vec3.h ****                 temp.z_ *= num;
  52:Core/Inc\utils/vec3.h **** 
  53:Core/Inc\utils/vec3.h ****                 return temp;
  54:Core/Inc\utils/vec3.h ****         }
  55:Core/Inc\utils/vec3.h **** 
  56:Core/Inc\utils/vec3.h ****         Vec3 add_EW(float num) {
  57:Core/Inc\utils/vec3.h ****                 Vec3 temp(*this);
  58:Core/Inc\utils/vec3.h ****                 temp.x_ += num;
  59:Core/Inc\utils/vec3.h ****                 temp.y_ += num;
  60:Core/Inc\utils/vec3.h ****                 temp.z_ += num;
  61:Core/Inc\utils/vec3.h **** 
  62:Core/Inc\utils/vec3.h ****                 return temp;
  63:Core/Inc\utils/vec3.h ****         }
  64:Core/Inc\utils/vec3.h **** 
  65:Core/Inc\utils/vec3.h ****         Vec3 sub_EW(float num) {
  66:Core/Inc\utils/vec3.h ****                 Vec3 temp(*this);
  67:Core/Inc\utils/vec3.h ****                 temp.x_ -= num;
  68:Core/Inc\utils/vec3.h ****                 temp.y_ -= num;
  69:Core/Inc\utils/vec3.h ****                 temp.z_ -= num;
  70:Core/Inc\utils/vec3.h **** 
  71:Core/Inc\utils/vec3.h ****                 return temp;
  72:Core/Inc\utils/vec3.h ****         }
  73:Core/Inc\utils/vec3.h **** 
  74:Core/Inc\utils/vec3.h ****         template <typename T1>
  75:Core/Inc\utils/vec3.h ****         Vec3 div_EW(Vec3<T1> v) {
  76:Core/Inc\utils/vec3.h ****                 Vec3 temp(*this);
  77:Core/Inc\utils/vec3.h ****                 temp.x_ /= (float)v.x_;
  78:Core/Inc\utils/vec3.h ****                 temp.y_ /= (float)v.y_;
  79:Core/Inc\utils/vec3.h ****                 temp.z_ /= (float)v.z_;
  80:Core/Inc\utils/vec3.h **** 
  81:Core/Inc\utils/vec3.h ****                 return temp;
  82:Core/Inc\utils/vec3.h ****         }
  83:Core/Inc\utils/vec3.h **** 
  84:Core/Inc\utils/vec3.h ****         template <typename T1>
  85:Core/Inc\utils/vec3.h ****         Vec3 mult_EW(Vec3<T1> v) {
  86:Core/Inc\utils/vec3.h ****                 Vec3 temp(v);
  87:Core/Inc\utils/vec3.h ****                 temp.x_ *= x_;
  88:Core/Inc\utils/vec3.h ****                 temp.y_ *= y_;
ARM GAS  C:\Users\Prashant\AppData\Local\Temp\cc0NRjQj.s 			page 3


  89:Core/Inc\utils/vec3.h ****                 temp.z_ *= z_;
  90:Core/Inc\utils/vec3.h **** 
  91:Core/Inc\utils/vec3.h ****                 return temp;
  92:Core/Inc\utils/vec3.h ****         }
  93:Core/Inc\utils/vec3.h **** 
  94:Core/Inc\utils/vec3.h ****         friend void swap(Vec3 &first, Vec3 &second) {
  95:Core/Inc\utils/vec3.h ****                 swap_Element(first.x_, second.x_);
  96:Core/Inc\utils/vec3.h ****                 swap_Element(first.y_, second.y_);
  97:Core/Inc\utils/vec3.h ****                 swap_Element(first.z_, second.z_);
  98:Core/Inc\utils/vec3.h ****         }
  99:Core/Inc\utils/vec3.h ****         
 100:Core/Inc\utils/vec3.h ****         Vec3(const Vec3 &v) {
 101:Core/Inc\utils/vec3.h ****                 x_ = v.x_;
 102:Core/Inc\utils/vec3.h ****                 y_ = v.y_;
 103:Core/Inc\utils/vec3.h ****                 z_ = v.z_;
 104:Core/Inc\utils/vec3.h ****         }
 105:Core/Inc\utils/vec3.h ****         
 106:Core/Inc\utils/vec3.h ****         Vec3 &operator=(const Vec3 &v) {
 107:Core/Inc\utils/vec3.h ****                 Vec3 temp(v);
 108:Core/Inc\utils/vec3.h ****                 swap(*this, temp);
 109:Core/Inc\utils/vec3.h **** 
 110:Core/Inc\utils/vec3.h ****                 return *this;
 111:Core/Inc\utils/vec3.h ****         }
 112:Core/Inc\utils/vec3.h **** 
 113:Core/Inc\utils/vec3.h ****         Vec3 &operator+=(const Vec3 &rhs) {
 114:Core/Inc\utils/vec3.h ****                 x_ += rhs.x_;
 115:Core/Inc\utils/vec3.h ****                 y_ += rhs.y_;
 116:Core/Inc\utils/vec3.h ****                 z_ += rhs.z_;
 117:Core/Inc\utils/vec3.h **** 
 118:Core/Inc\utils/vec3.h ****                 return *this;
 119:Core/Inc\utils/vec3.h ****         }
 120:Core/Inc\utils/vec3.h ****         
 121:Core/Inc\utils/vec3.h ****         Vec3 &operator-=(const Vec3 &rhs) {
 122:Core/Inc\utils/vec3.h ****                 x_ -= rhs.x_;
 123:Core/Inc\utils/vec3.h ****                 y_ -= rhs.y_;
 124:Core/Inc\utils/vec3.h ****                 z_ -= rhs.z_;
 125:Core/Inc\utils/vec3.h **** 
 126:Core/Inc\utils/vec3.h ****                 return *this;
 127:Core/Inc\utils/vec3.h ****         }
 128:Core/Inc\utils/vec3.h **** 
 129:Core/Inc\utils/vec3.h ****         friend Vec3 operator+(Vec3 lhs, const Vec3 &rhs) {
 130:Core/Inc\utils/vec3.h ****                 lhs += rhs;
 131:Core/Inc\utils/vec3.h ****                 return lhs;
 132:Core/Inc\utils/vec3.h ****         }
 133:Core/Inc\utils/vec3.h **** 
 134:Core/Inc\utils/vec3.h ****         friend Vec3 operator-(Vec3 lhs, const Vec3 &rhs) {
 135:Core/Inc\utils/vec3.h ****                 lhs -= rhs;
 136:Core/Inc\utils/vec3.h ****                 return lhs;
 137:Core/Inc\utils/vec3.h ****         }
 138:Core/Inc\utils/vec3.h **** 
 139:Core/Inc\utils/vec3.h ****         void print() const {
 140:Core/Inc\utils/vec3.h ****                 printf("%ld, %ld, %ld", (int32_t)x_, (int32_t)y_, (int32_t)z_);
 141:Core/Inc\utils/vec3.h ****         }
 142:Core/Inc\utils/vec3.h **** 
 143:Core/Inc\utils/vec3.h **** private:
 144:Core/Inc\utils/vec3.h ****         T x_,y_,z_;
 145:Core/Inc\utils/vec3.h **** };
ARM GAS  C:\Users\Prashant\AppData\Local\Temp\cc0NRjQj.s 			page 4


 146:Core/Inc\utils/vec3.h **** 
 147:Core/Inc\utils/vec3.h **** template <class T>
 148:Core/Inc\utils/vec3.h **** Vec3<T>::~Vec3()
  28              		.loc 1 148 0
  29              		.cfi_startproc
  30              		@ args = 0, pretend = 0, frame = 0
  31              		@ frame_needed = 0, uses_anonymous_args = 0
  32              		@ link register save eliminated.
  33              	.LVL0:
 149:Core/Inc\utils/vec3.h **** {
 150:Core/Inc\utils/vec3.h **** }
  34              		.loc 1 150 0
  35 0000 7047     		bx	lr
  36              		.cfi_endproc
  37              	.LFE511:
  39              		.weak	_ZN4Vec3IfED1Ev
  40              		.thumb_set _ZN4Vec3IfED1Ev,_ZN4Vec3IfED2Ev
  41              		.section	.text._ZN4Vec3IfE10set_ValuesEfff,"axG",%progbits,_ZN4Vec3IfE10set_ValuesEfff,comdat
  42              		.align	1
  43              		.weak	_ZN4Vec3IfE10set_ValuesEfff
  44              		.syntax unified
  45              		.thumb
  46              		.thumb_func
  47              		.fpu fpv4-sp-d16
  49              	_ZN4Vec3IfE10set_ValuesEfff:
  50              	.LFB513:
 151:Core/Inc\utils/vec3.h **** 
 152:Core/Inc\utils/vec3.h **** template <class T>
 153:Core/Inc\utils/vec3.h **** void Vec3<T>::set_Values(T x, T y, T z)
  51              		.loc 1 153 0
  52              		.cfi_startproc
  53              		@ args = 0, pretend = 0, frame = 0
  54              		@ frame_needed = 0, uses_anonymous_args = 0
  55              		@ link register save eliminated.
  56              	.LVL1:
 154:Core/Inc\utils/vec3.h **** {
 155:Core/Inc\utils/vec3.h ****         x_ = x;
  57              		.loc 1 155 0
  58 0000 80ED000A 		vstr.32	s0, [r0]
 156:Core/Inc\utils/vec3.h ****         y_ = y;
  59              		.loc 1 156 0
  60 0004 C0ED010A 		vstr.32	s1, [r0, #4]
 157:Core/Inc\utils/vec3.h ****         z_ = z;
  61              		.loc 1 157 0
  62 0008 80ED021A 		vstr.32	s2, [r0, #8]
 158:Core/Inc\utils/vec3.h **** }
  63              		.loc 1 158 0
  64 000c 7047     		bx	lr
  65              		.cfi_endproc
  66              	.LFE513:
  68              		.section	.text._Z10read_StateR4Vec3IfES1_m,"ax",%progbits
  69              		.align	1
  70              		.global	_Z10read_StateR4Vec3IfES1_m
  71              		.syntax unified
  72              		.thumb
  73              		.thumb_func
  74              		.fpu fpv4-sp-d16
ARM GAS  C:\Users\Prashant\AppData\Local\Temp\cc0NRjQj.s 			page 5


  76              	_Z10read_StateR4Vec3IfES1_m:
  77              	.LFB504:
  78              		.file 2 "Core/Src/robot/robo_actions.cpp"
   1:Core/Src/robot/robo_actions.cpp **** /*
   2:Core/Src/robot/robo_actions.cpp ****  * robo_actions.cpp
   3:Core/Src/robot/robo_actions.cpp ****  * 
   4:Core/Src/robot/robo_actions.cpp ****  * Created : 11/26/2018
   5:Core/Src/robot/robo_actions.cpp ****  *  Author : n-is
   6:Core/Src/robot/robo_actions.cpp ****  *   email : 073bex422.nischal@pcampus.edu.np
   7:Core/Src/robot/robo_actions.cpp ****  */
   8:Core/Src/robot/robo_actions.cpp **** 
   9:Core/Src/robot/robo_actions.cpp **** #include "robot/robo_init.h"
  10:Core/Src/robot/robo_actions.cpp **** #include "utils/smoothie.h"
  11:Core/Src/robot/robo_actions.cpp **** 
  12:Core/Src/robot/robo_actions.cpp **** 
  13:Core/Src/robot/robo_actions.cpp **** uint32_t gLast_Lidar_Data = 0;
  14:Core/Src/robot/robo_actions.cpp **** 
  15:Core/Src/robot/robo_actions.cpp **** 
  16:Core/Src/robot/robo_actions.cpp **** void read_State(Vec3<float> &euler_angles, Vec3<float> &position, uint32_t dt_millis)
  17:Core/Src/robot/robo_actions.cpp **** {
  79              		.loc 2 17 0
  80              		.cfi_startproc
  81              		@ args = 0, pretend = 0, frame = 40
  82              		@ frame_needed = 0, uses_anonymous_args = 0
  83              	.LVL2:
  84 0000 00B5     		push	{lr}
  85              	.LCFI0:
  86              		.cfi_def_cfa_offset 4
  87              		.cfi_offset 14, -4
  88 0002 2DED028B 		vpush.64	{d8}
  89              	.LCFI1:
  90              		.cfi_def_cfa_offset 12
  91              		.cfi_offset 80, -12
  92              		.cfi_offset 81, -8
  93 0006 8BB0     		sub	sp, sp, #44
  94              	.LCFI2:
  95              		.cfi_def_cfa_offset 56
  96              	.LVL3:
  97              	.LBB11:
  98              	.LBB12:
  99              	.LBB13:
  26:Core/Inc\utils/vec3.h ****         Vec3(T x, T y, T z) { set_Values(x,y,z); }
 100              		.loc 1 26 0
 101 0008 9FED108A 		vldr.32	s16, .L5
 102 000c B0EE481A 		vmov.f32	s2, s16
 103 0010 F0EE480A 		vmov.f32	s1, s16
 104 0014 B0EE480A 		vmov.f32	s0, s16
 105 0018 07A8     		add	r0, sp, #28
 106              	.LVL4:
 107 001a FFF7FEFF 		bl	_ZN4Vec3IfE10set_ValuesEfff
 108              	.LVL5:
 109              	.LBE13:
 110              	.LBE12:
 111              	.LBE11:
 112              	.LBB14:
 113              	.LBB15:
 114              	.LBB16:
ARM GAS  C:\Users\Prashant\AppData\Local\Temp\cc0NRjQj.s 			page 6


 115 001e B0EE481A 		vmov.f32	s2, s16
 116 0022 F0EE480A 		vmov.f32	s1, s16
 117 0026 B0EE480A 		vmov.f32	s0, s16
 118 002a 04A8     		add	r0, sp, #16
 119              	.LVL6:
 120 002c FFF7FEFF 		bl	_ZN4Vec3IfE10set_ValuesEfff
 121              	.LVL7:
 122              	.LBE16:
 123              	.LBE15:
 124              	.LBE14:
 125              	.LBB17:
 126              	.LBB18:
 127              	.LBB19:
 128 0030 B0EE481A 		vmov.f32	s2, s16
 129 0034 F0EE480A 		vmov.f32	s1, s16
 130 0038 B0EE480A 		vmov.f32	s0, s16
 131 003c 01A8     		add	r0, sp, #4
 132              	.LVL8:
 133 003e FFF7FEFF 		bl	_ZN4Vec3IfE10set_ValuesEfff
 134              	.LVL9:
 135              	.LBE19:
 136              	.LBE18:
 137              	.LBE17:
  18:Core/Src/robot/robo_actions.cpp ****         Vec3<float> accel;
  19:Core/Src/robot/robo_actions.cpp ****         Vec3<float> gyro;
  20:Core/Src/robot/robo_actions.cpp ****         Vec3<float> mag;
  21:Core/Src/robot/robo_actions.cpp ****         
  22:Core/Src/robot/robo_actions.cpp ****         // Vec3<float> lidar;
  23:Core/Src/robot/robo_actions.cpp ****         // Vec3<float> enc;
  24:Core/Src/robot/robo_actions.cpp **** 
  25:Core/Src/robot/robo_actions.cpp ****         // Read Data from all sensors at once
  26:Core/Src/robot/robo_actions.cpp **** 
  27:Core/Src/robot/robo_actions.cpp ****         // uint32_t dist = 0;
  28:Core/Src/robot/robo_actions.cpp ****         // if (!LIDAR_IsEmpty()) {
  29:Core/Src/robot/robo_actions.cpp ****         //         dist = LIDAR_Read();
  30:Core/Src/robot/robo_actions.cpp ****         //         // printf("%ld\n", dist);
  31:Core/Src/robot/robo_actions.cpp ****         // }
  32:Core/Src/robot/robo_actions.cpp ****         // // Lidar is 220 mm behind robot boundary so we will consider any
  33:Core/Src/robot/robo_actions.cpp ****         // // data less than 150 mm to be error;
  34:Core/Src/robot/robo_actions.cpp ****         // if (dist > 150) {
  35:Core/Src/robot/robo_actions.cpp ****         //         gLast_Lidar_Data = dist;
  36:Core/Src/robot/robo_actions.cpp ****         // }
  37:Core/Src/robot/robo_actions.cpp ****         // lidar.setX((float)gLast_Lidar_Data);
  38:Core/Src/robot/robo_actions.cpp **** 
  39:Core/Src/robot/robo_actions.cpp ****         // // int32_t count = Enc_get_DeltaCount(&gXEncoder);
  40:Core/Src/robot/robo_actions.cpp ****         // // We will not filter encoder data
  41:Core/Src/robot/robo_actions.cpp ****         // // enc.setX((float)count);
  42:Core/Src/robot/robo_actions.cpp ****         // // printf("%ld\n", count);
  43:Core/Src/robot/robo_actions.cpp ****         
  44:Core/Src/robot/robo_actions.cpp ****         // gFirst_Pass.set_Algorithm(&gAccelAlpha35);
  45:Core/Src/robot/robo_actions.cpp ****         // accel = gFirst_Pass.smooth(Body_IMU.norm_a_axis);
  46:Core/Src/robot/robo_actions.cpp ****         // gFirst_Pass.set_Algorithm(&gGyroAlpha35);
  47:Core/Src/robot/robo_actions.cpp ****         // gyro = gFirst_Pass.smooth(Body_IMU.norm_g_axis - gOmega_Bias);
  48:Core/Src/robot/robo_actions.cpp ****         // gFirst_Pass.set_Algorithm(&gMagAlpha35);
  49:Core/Src/robot/robo_actions.cpp ****         // mag = gFirst_Pass.smooth(Body_HMC.raw_axis);
  50:Core/Src/robot/robo_actions.cpp ****         
  51:Core/Src/robot/robo_actions.cpp ****         // gFirst_Pass.set_Algorithm(&gLidarAlpha35);
ARM GAS  C:\Users\Prashant\AppData\Local\Temp\cc0NRjQj.s 			page 7


  52:Core/Src/robot/robo_actions.cpp ****         // lidar = gFirst_Pass.smooth(lidar);
  53:Core/Src/robot/robo_actions.cpp **** 
  54:Core/Src/robot/robo_actions.cpp ****         // euler_angles = calc_Orientation(accel, gyro, mag, dt_millis);
  55:Core/Src/robot/robo_actions.cpp ****         // position = calc_Position(lidar, enc, dt_millis).mult_EW(0.1);
  56:Core/Src/robot/robo_actions.cpp **** }
 138              		.loc 2 56 0
 139 0042 0BB0     		add	sp, sp, #44
 140              	.LCFI3:
 141              		.cfi_def_cfa_offset 12
 142              		@ sp needed
 143 0044 BDEC028B 		vldm	sp!, {d8}
 144              	.LCFI4:
 145              		.cfi_restore 80
 146              		.cfi_restore 81
 147              		.cfi_def_cfa_offset 4
 148 0048 5DF804FB 		ldr	pc, [sp], #4
 149              	.L6:
 150              		.align	2
 151              	.L5:
 152 004c 00000000 		.word	0
 153              		.cfi_endproc
 154              	.LFE504:
 156              		.global	gLast_Lidar_Data
 157              		.section	.bss.gLast_Lidar_Data,"aw",%nobits
 158              		.align	2
 161              	gLast_Lidar_Data:
 162 0000 00000000 		.space	4
 163              		.text
 164              	.Letext0:
 165              		.file 3 "c:\\program files (x86)\\gnu tools arm embedded\\7 2017-q4-major\\arm-none-eabi\\include\
 166              		.file 4 "c:\\program files (x86)\\gnu tools arm embedded\\7 2017-q4-major\\arm-none-eabi\\include\
 167              		.file 5 "C:/Users/Prashant/STM32Cube/Repository/STM32Cube_FW_F4_V1.21.0/Drivers/CMSIS/Include/core
 168              		.file 6 "C:/Users/Prashant/STM32Cube/Repository/STM32Cube_FW_F4_V1.21.0/Drivers/CMSIS/Device/ST/ST
 169              		.file 7 "C:/Users/Prashant/STM32Cube/Repository/STM32Cube_FW_F4_V1.21.0/Drivers/CMSIS/Device/ST/ST
 170              		.file 8 "c:\\program files (x86)\\gnu tools arm embedded\\7 2017-q4-major\\arm-none-eabi\\include\
 171              		.file 9 "c:\\program files (x86)\\gnu tools arm embedded\\7 2017-q4-major\\arm-none-eabi\\include\
 172              		.file 10 "c:\\program files (x86)\\gnu tools arm embedded\\7 2017-q4-major\\lib\\gcc\\arm-none-eab
 173              		.file 11 "c:\\program files (x86)\\gnu tools arm embedded\\7 2017-q4-major\\arm-none-eabi\\include
 174              		.file 12 "C:/Users/Prashant/STM32Cube/Repository/STM32Cube_FW_F4_V1.21.0/Drivers/STM32F4xx_HAL_Dri
 175              		.file 13 "C:/Users/Prashant/STM32Cube/Repository/STM32Cube_FW_F4_V1.21.0/Drivers/STM32F4xx_HAL_Dri
 176              		.file 14 "C:/Users/Prashant/STM32Cube/Repository/STM32Cube_FW_F4_V1.21.0/Drivers/STM32F4xx_HAL_Dri
 177              		.file 15 "C:/Users/Prashant/STM32Cube/Repository/STM32Cube_FW_F4_V1.21.0/Drivers/STM32F4xx_HAL_Dri
 178              		.file 16 "C:/Users/Prashant/STM32Cube/Repository/STM32Cube_FW_F4_V1.21.0/Drivers/STM32F4xx_HAL_Dri
 179              		.file 17 "Core/Inc\\periphs/i2c.h"
 180              		.file 18 "Core/Inc/devs/mpu6050.h"
 181              		.file 19 "c:\\program files (x86)\\gnu tools arm embedded\\7 2017-q4-major\\arm-none-eabi\\include
 182              		.file 20 "c:\\program files (x86)\\gnu tools arm embedded\\7 2017-q4-major\\arm-none-eabi\\include
 183              		.file 21 "c:\\program files (x86)\\gnu tools arm embedded\\7 2017-q4-major\\arm-none-eabi\\include
 184              		.file 22 "c:\\program files (x86)\\gnu tools arm embedded\\7 2017-q4-major\\arm-none-eabi\\include
 185              		.file 23 "c:\\program files (x86)\\gnu tools arm embedded\\7 2017-q4-major\\arm-none-eabi\\include
 186              		.file 24 "Core/Inc/utils/mat.h"
 187              		.file 25 "Core/Inc/utils/kalman.h"
 188              		.file 26 "Core/Inc/utils/filter.h"
 189              		.file 27 "Core/Inc/utils/filter_algorithm.h"
 190              		.file 28 "Core/Inc/periphs/tim.h"
 191              		.file 29 "Core/Inc/devs/a4988.h"
 192              		.file 30 "Core/Inc/devs/hmc5883.h"
ARM GAS  C:\Users\Prashant\AppData\Local\Temp\cc0NRjQj.s 			page 8


 193              		.file 31 "Core/Inc/devs/encoder.h"
 194              		.file 32 "Core/Inc/periphs/usart.h"
 195              		.file 33 "Core/Inc\\devs/wheeler.h"
 196              		.file 34 "Core/Inc/robot/devs_config.h"
 197              		.file 35 "Core/Inc/robot/robo_init.h"
 198              		.file 36 "<built-in>"
ARM GAS  C:\Users\Prashant\AppData\Local\Temp\cc0NRjQj.s 			page 9

