ARM GAS  C:\Users\Prashant\AppData\Local\Temp\cc68LIAu.s 			page 1


   1              		.cpu cortex-m4
   2              		.eabi_attribute 27, 1
   3              		.eabi_attribute 28, 1
   4              		.eabi_attribute 20, 1
   5              		.eabi_attribute 21, 1
   6              		.eabi_attribute 23, 3
   7              		.eabi_attribute 24, 1
   8              		.eabi_attribute 25, 1
   9              		.eabi_attribute 26, 1
  10              		.eabi_attribute 30, 1
  11              		.eabi_attribute 34, 1
  12              		.eabi_attribute 18, 4
  13              		.file	"robot.cpp"
  14              		.text
  15              	.Ltext0:
  16              		.cfi_sections	.debug_frame
  17              		.section	.text._ZN7ForestAD2Ev,"axG",%progbits,_ZN7ForestAD5Ev,comdat
  18              		.align	1
  19              		.weak	_ZN7ForestAD2Ev
  20              		.syntax unified
  21              		.thumb
  22              		.thumb_func
  23              		.fpu fpv4-sp-d16
  25              	_ZN7ForestAD2Ev:
  26              	.LFB395:
  27              		.file 1 "Core/Inc/robot/robo_states.h"
   1:Core/Inc/robot/robo_states.h **** #ifndef _ROBO_STATES_H_
   2:Core/Inc/robot/robo_states.h **** #define _ROBO_STATES_H_
   3:Core/Inc/robot/robo_states.h **** 
   4:Core/Inc/robot/robo_states.h **** #include "devs/sensor.h"
   5:Core/Inc/robot/robo_states.h **** #include "devs/position_sensor.h"
   6:Core/Inc/robot/robo_states.h **** #include "utils/vec3.h"
   7:Core/Inc/robot/robo_states.h **** #include <math.h>
   8:Core/Inc/robot/robo_states.h **** 
   9:Core/Inc/robot/robo_states.h **** #define DEFAULT_ROBOT_VELOCITY          (800)
  10:Core/Inc/robot/robo_states.h **** 
  11:Core/Inc/robot/robo_states.h **** // Forward Declarations Of Robot and Points on GameField
  12:Core/Inc/robot/robo_states.h **** class Robot;
  13:Core/Inc/robot/robo_states.h **** 
  14:Core/Inc/robot/robo_states.h **** class Encoder;
  15:Core/Inc/robot/robo_states.h **** class Lidar;
  16:Core/Inc/robot/robo_states.h **** 
  17:Core/Inc/robot/robo_states.h **** extern Encoder gXEncoder;
  18:Core/Inc/robot/robo_states.h **** extern Encoder gYEncoder;
  19:Core/Inc/robot/robo_states.h **** extern Lidar gXLidar;
  20:Core/Inc/robot/robo_states.h **** 
  21:Core/Inc/robot/robo_states.h **** class Robo_States
  22:Core/Inc/robot/robo_states.h **** {
  23:Core/Inc/robot/robo_states.h **** public:
  24:Core/Inc/robot/robo_states.h ****         Robo_States() { }
  25:Core/Inc/robot/robo_states.h ****         Robo_States(Robo_States &&) = default;
  26:Core/Inc/robot/robo_states.h **** 
  27:Core/Inc/robot/robo_states.h ****         Robo_States(const Robo_States &) = default;
  28:Core/Inc/robot/robo_states.h ****         Robo_States &operator=(Robo_States &&) = default;
  29:Core/Inc/robot/robo_states.h ****         Robo_States &operator=(const Robo_States &) = default;
  30:Core/Inc/robot/robo_states.h ****         virtual ~Robo_States() { }
  31:Core/Inc/robot/robo_states.h **** 
ARM GAS  C:\Users\Prashant\AppData\Local\Temp\cc68LIAu.s 			page 2


  32:Core/Inc/robot/robo_states.h ****         virtual void setNextState(Robot *rob) = 0;
  33:Core/Inc/robot/robo_states.h ****         virtual float calc_RoboVelocity() = 0;
  34:Core/Inc/robot/robo_states.h ****         virtual float calc_AngleOfAttack(Vec3<float> pos) = 0;
  35:Core/Inc/robot/robo_states.h ****         virtual bool nextStateReached(Vec3<float> pos) = 0;
  36:Core/Inc/robot/robo_states.h **** 
  37:Core/Inc/robot/robo_states.h ****         virtual float getX() = 0;
  38:Core/Inc/robot/robo_states.h ****         virtual float getY() = 0;
  39:Core/Inc/robot/robo_states.h ****         virtual void set_Sensors(Robot *rob) = 0;
  40:Core/Inc/robot/robo_states.h ****         
  41:Core/Inc/robot/robo_states.h ****         float tolerance_;       // Probable Space radius in mm
  42:Core/Inc/robot/robo_states.h **** protected:
  43:Core/Inc/robot/robo_states.h ****         float angle_of_attack_;
  44:Core/Inc/robot/robo_states.h ****         float x1_, y1_;
  45:Core/Inc/robot/robo_states.h ****         float v_;
  46:Core/Inc/robot/robo_states.h ****         Robo_States *next_state_;
  47:Core/Inc/robot/robo_states.h **** 
  48:Core/Inc/robot/robo_states.h **** };
  49:Core/Inc/robot/robo_states.h **** 
  50:Core/Inc/robot/robo_states.h **** class ForestA : public Robo_States
  51:Core/Inc/robot/robo_states.h **** {
  52:Core/Inc/robot/robo_states.h **** public:
  53:Core/Inc/robot/robo_states.h ****         ForestA();
  54:Core/Inc/robot/robo_states.h ****         ForestA(ForestA &&) = default;
  55:Core/Inc/robot/robo_states.h ****         ForestA(const ForestA &) = default;
  56:Core/Inc/robot/robo_states.h ****         ForestA &operator=(ForestA &&) = default;
  57:Core/Inc/robot/robo_states.h ****         ForestA &operator=(const ForestA &) = default;
  58:Core/Inc/robot/robo_states.h ****         ~ForestA() { }
  28              		.loc 1 58 0
  29              		.cfi_startproc
  30              		@ args = 0, pretend = 0, frame = 0
  31              		@ frame_needed = 0, uses_anonymous_args = 0
  32              		@ link register save eliminated.
  33              	.LVL0:
  34              		.loc 1 58 0
  35 0000 7047     		bx	lr
  36              		.cfi_endproc
  37              	.LFE395:
  39              		.weak	_ZN7ForestAD1Ev
  40              		.thumb_set _ZN7ForestAD1Ev,_ZN7ForestAD2Ev
  41              		.section	.text._ZN7ForestBD2Ev,"axG",%progbits,_ZN7ForestBD5Ev,comdat
  42              		.align	1
  43              		.weak	_ZN7ForestBD2Ev
  44              		.syntax unified
  45              		.thumb
  46              		.thumb_func
  47              		.fpu fpv4-sp-d16
  49              	_ZN7ForestBD2Ev:
  50              	.LFB404:
  59:Core/Inc/robot/robo_states.h ****         
  60:Core/Inc/robot/robo_states.h ****         void setNextState(Robot *rob);
  61:Core/Inc/robot/robo_states.h ****         void set_Sensors(Robot *rob);
  62:Core/Inc/robot/robo_states.h ****         
  63:Core/Inc/robot/robo_states.h ****         // float calc_RoboVelocity() {
  64:Core/Inc/robot/robo_states.h ****         //         return dist_kp_ * DEFAULT_ROBOT_VELOCITY;
  65:Core/Inc/robot/robo_states.h ****         // }
  66:Core/Inc/robot/robo_states.h ****         float calc_RoboVelocity() {
  67:Core/Inc/robot/robo_states.h ****                 if (dist_kp_ < 0.8) {
ARM GAS  C:\Users\Prashant\AppData\Local\Temp\cc68LIAu.s 			page 3


  68:Core/Inc/robot/robo_states.h ****                         dist_kp_ += 0.01;
  69:Core/Inc/robot/robo_states.h ****                 }
  70:Core/Inc/robot/robo_states.h ****                 else {
  71:Core/Inc/robot/robo_states.h ****                         dist_kp_ = 1;
  72:Core/Inc/robot/robo_states.h ****                 }
  73:Core/Inc/robot/robo_states.h ****                 return DEFAULT_ROBOT_VELOCITY * dist_kp_;
  74:Core/Inc/robot/robo_states.h ****         }
  75:Core/Inc/robot/robo_states.h ****         float calc_AngleOfAttack(Vec3<float> pos) {
  76:Core/Inc/robot/robo_states.h ****                 float dx = next_state_->getX() - pos.getX();
  77:Core/Inc/robot/robo_states.h ****                 float dy = next_state_->getY() - pos.getY();
  78:Core/Inc/robot/robo_states.h ****                 return atan2f(dx, dy);
  79:Core/Inc/robot/robo_states.h ****         }
  80:Core/Inc/robot/robo_states.h ****         bool nextStateReached(Vec3<float> pos) {
  81:Core/Inc/robot/robo_states.h ****                 float tol_sq = next_state_->tolerance_ * next_state_->tolerance_;
  82:Core/Inc/robot/robo_states.h ****                 float dx = next_state_->getX() - pos.getX();
  83:Core/Inc/robot/robo_states.h ****                 float dy = next_state_->getY() - pos.getY();
  84:Core/Inc/robot/robo_states.h ****                 // printf("dx = %d, dy = %d\n", (int16_t)(dx), (int16_t)(dy));
  85:Core/Inc/robot/robo_states.h ****                 return ((dx*dx + dy*dy) < tol_sq);
  86:Core/Inc/robot/robo_states.h ****         }
  87:Core/Inc/robot/robo_states.h **** 
  88:Core/Inc/robot/robo_states.h ****         float getX() { return x1_; }
  89:Core/Inc/robot/robo_states.h ****         float getY() { return y1_; }
  90:Core/Inc/robot/robo_states.h **** 
  91:Core/Inc/robot/robo_states.h **** private:
  92:Core/Inc/robot/robo_states.h ****         float dist_kp_;
  93:Core/Inc/robot/robo_states.h **** };
  94:Core/Inc/robot/robo_states.h **** 
  95:Core/Inc/robot/robo_states.h **** class ForestB : public Robo_States
  96:Core/Inc/robot/robo_states.h **** {
  97:Core/Inc/robot/robo_states.h **** public:
  98:Core/Inc/robot/robo_states.h ****         ForestB();
  99:Core/Inc/robot/robo_states.h ****         ForestB(ForestB &&) = default;
 100:Core/Inc/robot/robo_states.h ****         ForestB(const ForestB &) = default;
 101:Core/Inc/robot/robo_states.h ****         ForestB &operator=(ForestB &&) = default;
 102:Core/Inc/robot/robo_states.h ****         ForestB &operator=(const ForestB &) = default;
 103:Core/Inc/robot/robo_states.h ****         ~ForestB() { }
  51              		.loc 1 103 0
  52              		.cfi_startproc
  53              		@ args = 0, pretend = 0, frame = 0
  54              		@ frame_needed = 0, uses_anonymous_args = 0
  55              		@ link register save eliminated.
  56              	.LVL1:
  57              		.loc 1 103 0
  58 0000 7047     		bx	lr
  59              		.cfi_endproc
  60              	.LFE404:
  62              		.weak	_ZN7ForestBD1Ev
  63              		.thumb_set _ZN7ForestBD1Ev,_ZN7ForestBD2Ev
  64              		.section	.text._ZN7ForestCD2Ev,"axG",%progbits,_ZN7ForestCD5Ev,comdat
  65              		.align	1
  66              		.weak	_ZN7ForestCD2Ev
  67              		.syntax unified
  68              		.thumb
  69              		.thumb_func
  70              		.fpu fpv4-sp-d16
  72              	_ZN7ForestCD2Ev:
  73              	.LFB413:
ARM GAS  C:\Users\Prashant\AppData\Local\Temp\cc68LIAu.s 			page 4


 104:Core/Inc/robot/robo_states.h ****         
 105:Core/Inc/robot/robo_states.h ****         void setNextState(Robot *rob);
 106:Core/Inc/robot/robo_states.h ****         void set_Sensors(Robot *rob);
 107:Core/Inc/robot/robo_states.h ****         
 108:Core/Inc/robot/robo_states.h ****         float calc_RoboVelocity() {
 109:Core/Inc/robot/robo_states.h ****                 return DEFAULT_ROBOT_VELOCITY;
 110:Core/Inc/robot/robo_states.h ****         }
 111:Core/Inc/robot/robo_states.h ****         float calc_AngleOfAttack(Vec3<float> pos) {
 112:Core/Inc/robot/robo_states.h ****                 float dx = next_state_->getX() - pos.getX();
 113:Core/Inc/robot/robo_states.h ****                 float dy = next_state_->getY() - pos.getY();
 114:Core/Inc/robot/robo_states.h ****                 return atan2f(dx, dy);
 115:Core/Inc/robot/robo_states.h ****         }
 116:Core/Inc/robot/robo_states.h ****         bool nextStateReached(Vec3<float> pos) {
 117:Core/Inc/robot/robo_states.h ****                 float tol_sq = next_state_->tolerance_ * next_state_->tolerance_;
 118:Core/Inc/robot/robo_states.h ****                 float dx = next_state_->getX() - pos.getX();
 119:Core/Inc/robot/robo_states.h ****                 float dy = next_state_->getY() - pos.getY();
 120:Core/Inc/robot/robo_states.h ****                 // printf("dx = %d, dy = %d\n", (int16_t)(dx), (int16_t)(dy));
 121:Core/Inc/robot/robo_states.h ****                 return ((dx*dx + dy*dy) < tol_sq);
 122:Core/Inc/robot/robo_states.h ****         }
 123:Core/Inc/robot/robo_states.h **** 
 124:Core/Inc/robot/robo_states.h ****         float getX() { return x1_; }
 125:Core/Inc/robot/robo_states.h ****         float getY() { return y1_; }
 126:Core/Inc/robot/robo_states.h **** private:
 127:Core/Inc/robot/robo_states.h ****         
 128:Core/Inc/robot/robo_states.h **** };
 129:Core/Inc/robot/robo_states.h **** 
 130:Core/Inc/robot/robo_states.h **** class ForestC : public Robo_States
 131:Core/Inc/robot/robo_states.h **** {
 132:Core/Inc/robot/robo_states.h **** public:
 133:Core/Inc/robot/robo_states.h ****         ForestC();
 134:Core/Inc/robot/robo_states.h ****         ForestC(ForestC &&) = default;
 135:Core/Inc/robot/robo_states.h ****         ForestC(const ForestC &) = default;
 136:Core/Inc/robot/robo_states.h ****         ForestC &operator=(ForestC &&) = default;
 137:Core/Inc/robot/robo_states.h ****         ForestC &operator=(const ForestC &) = default;
 138:Core/Inc/robot/robo_states.h ****         ~ForestC() { }
  74              		.loc 1 138 0
  75              		.cfi_startproc
  76              		@ args = 0, pretend = 0, frame = 0
  77              		@ frame_needed = 0, uses_anonymous_args = 0
  78              		@ link register save eliminated.
  79              	.LVL2:
  80              		.loc 1 138 0
  81 0000 7047     		bx	lr
  82              		.cfi_endproc
  83              	.LFE413:
  85              		.weak	_ZN7ForestCD1Ev
  86              		.thumb_set _ZN7ForestCD1Ev,_ZN7ForestCD2Ev
  87              		.section	.text._ZN7ForestDD2Ev,"axG",%progbits,_ZN7ForestDD5Ev,comdat
  88              		.align	1
  89              		.weak	_ZN7ForestDD2Ev
  90              		.syntax unified
  91              		.thumb
  92              		.thumb_func
  93              		.fpu fpv4-sp-d16
  95              	_ZN7ForestDD2Ev:
  96              	.LFB422:
 139:Core/Inc/robot/robo_states.h ****         
ARM GAS  C:\Users\Prashant\AppData\Local\Temp\cc68LIAu.s 			page 5


 140:Core/Inc/robot/robo_states.h ****         void setNextState(Robot *rob);
 141:Core/Inc/robot/robo_states.h ****         void set_Sensors(Robot *rob);
 142:Core/Inc/robot/robo_states.h ****         
 143:Core/Inc/robot/robo_states.h ****         float calc_RoboVelocity() {
 144:Core/Inc/robot/robo_states.h ****                 return DEFAULT_ROBOT_VELOCITY;
 145:Core/Inc/robot/robo_states.h ****         }
 146:Core/Inc/robot/robo_states.h ****         float calc_AngleOfAttack(Vec3<float> pos) {
 147:Core/Inc/robot/robo_states.h ****                 float dx = next_state_->getX() - pos.getX();
 148:Core/Inc/robot/robo_states.h ****                 float dy = next_state_->getY() - pos.getY();
 149:Core/Inc/robot/robo_states.h ****                 return atan2f(dx, dy);
 150:Core/Inc/robot/robo_states.h ****         }
 151:Core/Inc/robot/robo_states.h ****         bool nextStateReached(Vec3<float> pos) {
 152:Core/Inc/robot/robo_states.h ****                 float tol_sq = next_state_->tolerance_ * next_state_->tolerance_;
 153:Core/Inc/robot/robo_states.h ****                 float dx = next_state_->getX() - pos.getX();
 154:Core/Inc/robot/robo_states.h ****                 float dy = next_state_->getY() - pos.getY();
 155:Core/Inc/robot/robo_states.h ****                 // printf("dx = %d, dy = %d\n", (int16_t)(dx), (int16_t)(dy));
 156:Core/Inc/robot/robo_states.h ****                 return ((dx*dx + dy*dy) < tol_sq);
 157:Core/Inc/robot/robo_states.h ****         }
 158:Core/Inc/robot/robo_states.h **** 
 159:Core/Inc/robot/robo_states.h ****         float getX() { return x1_; }
 160:Core/Inc/robot/robo_states.h ****         float getY() { return y1_; }
 161:Core/Inc/robot/robo_states.h **** private:
 162:Core/Inc/robot/robo_states.h ****         
 163:Core/Inc/robot/robo_states.h **** };
 164:Core/Inc/robot/robo_states.h **** 
 165:Core/Inc/robot/robo_states.h **** class ForestD : public Robo_States
 166:Core/Inc/robot/robo_states.h **** {
 167:Core/Inc/robot/robo_states.h **** public:
 168:Core/Inc/robot/robo_states.h ****         ForestD();
 169:Core/Inc/robot/robo_states.h ****         ForestD(ForestD &&) = default;
 170:Core/Inc/robot/robo_states.h ****         ForestD(const ForestD &) = default;
 171:Core/Inc/robot/robo_states.h ****         ForestD &operator=(ForestD &&) = default;
 172:Core/Inc/robot/robo_states.h ****         ForestD &operator=(const ForestD &) = default;
 173:Core/Inc/robot/robo_states.h ****         ~ForestD() { }
  97              		.loc 1 173 0
  98              		.cfi_startproc
  99              		@ args = 0, pretend = 0, frame = 0
 100              		@ frame_needed = 0, uses_anonymous_args = 0
 101              		@ link register save eliminated.
 102              	.LVL3:
 103              		.loc 1 173 0
 104 0000 7047     		bx	lr
 105              		.cfi_endproc
 106              	.LFE422:
 108              		.weak	_ZN7ForestDD1Ev
 109              		.thumb_set _ZN7ForestDD1Ev,_ZN7ForestDD2Ev
 110              		.section	.text._ZN7ForestED2Ev,"axG",%progbits,_ZN7ForestED5Ev,comdat
 111              		.align	1
 112              		.weak	_ZN7ForestED2Ev
 113              		.syntax unified
 114              		.thumb
 115              		.thumb_func
 116              		.fpu fpv4-sp-d16
 118              	_ZN7ForestED2Ev:
 119              	.LFB431:
 174:Core/Inc/robot/robo_states.h ****         
 175:Core/Inc/robot/robo_states.h ****         void setNextState(Robot *rob);
ARM GAS  C:\Users\Prashant\AppData\Local\Temp\cc68LIAu.s 			page 6


 176:Core/Inc/robot/robo_states.h ****         void set_Sensors(Robot *rob);
 177:Core/Inc/robot/robo_states.h ****         
 178:Core/Inc/robot/robo_states.h ****         float calc_RoboVelocity() {
 179:Core/Inc/robot/robo_states.h ****                 return DEFAULT_ROBOT_VELOCITY;
 180:Core/Inc/robot/robo_states.h ****         }
 181:Core/Inc/robot/robo_states.h ****         float calc_AngleOfAttack(Vec3<float> pos) {
 182:Core/Inc/robot/robo_states.h ****                 float dx = next_state_->getX() - pos.getX();
 183:Core/Inc/robot/robo_states.h ****                 float dy = next_state_->getY() - pos.getY();
 184:Core/Inc/robot/robo_states.h ****                 return atan2f(dx, dy);
 185:Core/Inc/robot/robo_states.h ****         }
 186:Core/Inc/robot/robo_states.h ****         bool nextStateReached(Vec3<float> pos) {
 187:Core/Inc/robot/robo_states.h ****                 float tol_sq = next_state_->tolerance_ * next_state_->tolerance_;
 188:Core/Inc/robot/robo_states.h ****                 float dx = next_state_->getX() - pos.getX();
 189:Core/Inc/robot/robo_states.h ****                 float dy = next_state_->getY() - pos.getY();
 190:Core/Inc/robot/robo_states.h ****                 // printf("dx = %d, dy = %d\n", (int16_t)(dx), (int16_t)(dy));
 191:Core/Inc/robot/robo_states.h ****                 return ((dx*dx + dy*dy) < tol_sq);
 192:Core/Inc/robot/robo_states.h ****         }
 193:Core/Inc/robot/robo_states.h **** 
 194:Core/Inc/robot/robo_states.h ****         float getX() { return x1_; }
 195:Core/Inc/robot/robo_states.h ****         float getY() { return y1_; }
 196:Core/Inc/robot/robo_states.h **** 
 197:Core/Inc/robot/robo_states.h **** private:
 198:Core/Inc/robot/robo_states.h ****         
 199:Core/Inc/robot/robo_states.h **** };
 200:Core/Inc/robot/robo_states.h **** 
 201:Core/Inc/robot/robo_states.h **** class ForestE : public Robo_States
 202:Core/Inc/robot/robo_states.h **** {
 203:Core/Inc/robot/robo_states.h **** public:
 204:Core/Inc/robot/robo_states.h ****         ForestE();
 205:Core/Inc/robot/robo_states.h ****         ForestE(ForestE &&) = default;
 206:Core/Inc/robot/robo_states.h ****         ForestE(const ForestE &) = default;
 207:Core/Inc/robot/robo_states.h ****         ForestE &operator=(ForestE &&) = default;
 208:Core/Inc/robot/robo_states.h ****         ForestE &operator=(const ForestE &) = default;
 209:Core/Inc/robot/robo_states.h ****         ~ForestE() { }
 120              		.loc 1 209 0
 121              		.cfi_startproc
 122              		@ args = 0, pretend = 0, frame = 0
 123              		@ frame_needed = 0, uses_anonymous_args = 0
 124              		@ link register save eliminated.
 125              	.LVL4:
 126              		.loc 1 209 0
 127 0000 7047     		bx	lr
 128              		.cfi_endproc
 129              	.LFE431:
 131              		.weak	_ZN7ForestED1Ev
 132              		.thumb_set _ZN7ForestED1Ev,_ZN7ForestED2Ev
 133              		.section	.text._ZN7ForestFD2Ev,"axG",%progbits,_ZN7ForestFD5Ev,comdat
 134              		.align	1
 135              		.weak	_ZN7ForestFD2Ev
 136              		.syntax unified
 137              		.thumb
 138              		.thumb_func
 139              		.fpu fpv4-sp-d16
 141              	_ZN7ForestFD2Ev:
 142              	.LFB440:
 210:Core/Inc/robot/robo_states.h ****         
 211:Core/Inc/robot/robo_states.h ****         void setNextState(Robot *rob);
ARM GAS  C:\Users\Prashant\AppData\Local\Temp\cc68LIAu.s 			page 7


 212:Core/Inc/robot/robo_states.h ****         void set_Sensors(Robot *rob);
 213:Core/Inc/robot/robo_states.h ****         
 214:Core/Inc/robot/robo_states.h ****         float calc_RoboVelocity() {
 215:Core/Inc/robot/robo_states.h ****                 return DEFAULT_ROBOT_VELOCITY;
 216:Core/Inc/robot/robo_states.h ****         }
 217:Core/Inc/robot/robo_states.h ****         float calc_AngleOfAttack(Vec3<float> pos) {
 218:Core/Inc/robot/robo_states.h ****                 float dx = next_state_->getX() - pos.getX();
 219:Core/Inc/robot/robo_states.h ****                 float dy = next_state_->getY() - pos.getY();
 220:Core/Inc/robot/robo_states.h ****                 return atan2f(dx, dy);
 221:Core/Inc/robot/robo_states.h ****         }
 222:Core/Inc/robot/robo_states.h ****         bool nextStateReached(Vec3<float> pos) {
 223:Core/Inc/robot/robo_states.h ****                 float tol_sq = next_state_->tolerance_ * next_state_->tolerance_;
 224:Core/Inc/robot/robo_states.h ****                 float dx = next_state_->getX() - pos.getX();
 225:Core/Inc/robot/robo_states.h ****                 float dy = next_state_->getY() - pos.getY();
 226:Core/Inc/robot/robo_states.h ****                 // printf("dx = %d, dy = %d\n", (int16_t)(dx), (int16_t)(dy));
 227:Core/Inc/robot/robo_states.h ****                 return ((dx*dx + dy*dy) < tol_sq);
 228:Core/Inc/robot/robo_states.h ****         }
 229:Core/Inc/robot/robo_states.h **** 
 230:Core/Inc/robot/robo_states.h ****         float getX() { return x1_; }
 231:Core/Inc/robot/robo_states.h ****         float getY() { return y1_; }
 232:Core/Inc/robot/robo_states.h **** 
 233:Core/Inc/robot/robo_states.h **** private:
 234:Core/Inc/robot/robo_states.h ****         float dist_kp_;
 235:Core/Inc/robot/robo_states.h **** };
 236:Core/Inc/robot/robo_states.h **** 
 237:Core/Inc/robot/robo_states.h **** class ForestF : public Robo_States
 238:Core/Inc/robot/robo_states.h **** {
 239:Core/Inc/robot/robo_states.h **** public:
 240:Core/Inc/robot/robo_states.h ****         ForestF();
 241:Core/Inc/robot/robo_states.h ****         ForestF(ForestF &&) = default;
 242:Core/Inc/robot/robo_states.h ****         ForestF(const ForestF &) = default;
 243:Core/Inc/robot/robo_states.h ****         ForestF &operator=(ForestF &&) = default;
 244:Core/Inc/robot/robo_states.h ****         ForestF &operator=(const ForestF &) = default;
 245:Core/Inc/robot/robo_states.h ****         ~ForestF() { }
 143              		.loc 1 245 0
 144              		.cfi_startproc
 145              		@ args = 0, pretend = 0, frame = 0
 146              		@ frame_needed = 0, uses_anonymous_args = 0
 147              		@ link register save eliminated.
 148              	.LVL5:
 149              		.loc 1 245 0
 150 0000 7047     		bx	lr
 151              		.cfi_endproc
 152              	.LFE440:
 154              		.weak	_ZN7ForestFD1Ev
 155              		.thumb_set _ZN7ForestFD1Ev,_ZN7ForestFD2Ev
 156              		.section	.text._ZN7ForestGD2Ev,"axG",%progbits,_ZN7ForestGD5Ev,comdat
 157              		.align	1
 158              		.weak	_ZN7ForestGD2Ev
 159              		.syntax unified
 160              		.thumb
 161              		.thumb_func
 162              		.fpu fpv4-sp-d16
 164              	_ZN7ForestGD2Ev:
 165              	.LFB449:
 246:Core/Inc/robot/robo_states.h ****         
 247:Core/Inc/robot/robo_states.h ****         void setNextState(Robot *rob);
ARM GAS  C:\Users\Prashant\AppData\Local\Temp\cc68LIAu.s 			page 8


 248:Core/Inc/robot/robo_states.h ****         void set_Sensors(Robot *rob);
 249:Core/Inc/robot/robo_states.h ****         
 250:Core/Inc/robot/robo_states.h ****         float calc_RoboVelocity() {
 251:Core/Inc/robot/robo_states.h ****                 return DEFAULT_ROBOT_VELOCITY;
 252:Core/Inc/robot/robo_states.h ****         }
 253:Core/Inc/robot/robo_states.h ****         float calc_AngleOfAttack(Vec3<float> pos) {
 254:Core/Inc/robot/robo_states.h ****                 float dx = next_state_->getX() - pos.getX();
 255:Core/Inc/robot/robo_states.h ****                 float dy = next_state_->getY() - pos.getY();
 256:Core/Inc/robot/robo_states.h ****                 return atan2f(dx, dy);
 257:Core/Inc/robot/robo_states.h ****         }
 258:Core/Inc/robot/robo_states.h ****         bool nextStateReached(Vec3<float> pos) {
 259:Core/Inc/robot/robo_states.h ****                 float tol_sq = next_state_->tolerance_ * next_state_->tolerance_;
 260:Core/Inc/robot/robo_states.h ****                 float dx = next_state_->getX() - pos.getX();
 261:Core/Inc/robot/robo_states.h ****                 float dy = next_state_->getY() - pos.getY();
 262:Core/Inc/robot/robo_states.h ****                 // printf("dx = %d, dy = %d\n", (int16_t)(dx), (int16_t)(dy));
 263:Core/Inc/robot/robo_states.h ****                 return ((dx*dx + dy*dy) < tol_sq);
 264:Core/Inc/robot/robo_states.h ****         }
 265:Core/Inc/robot/robo_states.h ****         
 266:Core/Inc/robot/robo_states.h ****         // float calc_RoboVelocity() {
 267:Core/Inc/robot/robo_states.h ****         //         return 0;
 268:Core/Inc/robot/robo_states.h ****         // }
 269:Core/Inc/robot/robo_states.h **** 
 270:Core/Inc/robot/robo_states.h ****         // float calc_AngleOfAttack(Vec3<float> pos) {
 271:Core/Inc/robot/robo_states.h ****         //         float dx = next_state_->getX() - pos.getX();
 272:Core/Inc/robot/robo_states.h ****         //         float dy = next_state_->getY() - pos.getY();
 273:Core/Inc/robot/robo_states.h ****         //         return atan2f(dx, dy);
 274:Core/Inc/robot/robo_states.h ****         // }
 275:Core/Inc/robot/robo_states.h ****         // bool nextStateReached(Vec3<float> pos) {
 276:Core/Inc/robot/robo_states.h ****         //         return false;
 277:Core/Inc/robot/robo_states.h ****         // }
 278:Core/Inc/robot/robo_states.h **** 
 279:Core/Inc/robot/robo_states.h ****         float getX() { return x1_; }
 280:Core/Inc/robot/robo_states.h ****         float getY() { return y1_; }
 281:Core/Inc/robot/robo_states.h **** 
 282:Core/Inc/robot/robo_states.h **** private:
 283:Core/Inc/robot/robo_states.h ****         
 284:Core/Inc/robot/robo_states.h **** };
 285:Core/Inc/robot/robo_states.h **** 
 286:Core/Inc/robot/robo_states.h **** class ForestG : public Robo_States
 287:Core/Inc/robot/robo_states.h **** {
 288:Core/Inc/robot/robo_states.h **** public:
 289:Core/Inc/robot/robo_states.h ****         ForestG();
 290:Core/Inc/robot/robo_states.h ****         ForestG(ForestG &&) = default;
 291:Core/Inc/robot/robo_states.h ****         ForestG(const ForestG &) = default;
 292:Core/Inc/robot/robo_states.h ****         ForestG &operator=(ForestG &&) = default;
 293:Core/Inc/robot/robo_states.h ****         ForestG &operator=(const ForestG &) = default;
 294:Core/Inc/robot/robo_states.h ****         ~ForestG() { }
 166              		.loc 1 294 0
 167              		.cfi_startproc
 168              		@ args = 0, pretend = 0, frame = 0
 169              		@ frame_needed = 0, uses_anonymous_args = 0
 170              		@ link register save eliminated.
 171              	.LVL6:
 172              		.loc 1 294 0
 173 0000 7047     		bx	lr
 174              		.cfi_endproc
 175              	.LFE449:
ARM GAS  C:\Users\Prashant\AppData\Local\Temp\cc68LIAu.s 			page 9


 177              		.weak	_ZN7ForestGD1Ev
 178              		.thumb_set _ZN7ForestGD1Ev,_ZN7ForestGD2Ev
 179              		.section	.text._ZN7ForestHD2Ev,"axG",%progbits,_ZN7ForestHD5Ev,comdat
 180              		.align	1
 181              		.weak	_ZN7ForestHD2Ev
 182              		.syntax unified
 183              		.thumb
 184              		.thumb_func
 185              		.fpu fpv4-sp-d16
 187              	_ZN7ForestHD2Ev:
 188              	.LFB458:
 295:Core/Inc/robot/robo_states.h ****         
 296:Core/Inc/robot/robo_states.h ****         void setNextState(Robot *rob);
 297:Core/Inc/robot/robo_states.h ****         void set_Sensors(Robot *rob);
 298:Core/Inc/robot/robo_states.h ****         
 299:Core/Inc/robot/robo_states.h ****         float calc_RoboVelocity() {
 300:Core/Inc/robot/robo_states.h ****                 return DEFAULT_ROBOT_VELOCITY;
 301:Core/Inc/robot/robo_states.h ****         }
 302:Core/Inc/robot/robo_states.h ****         float calc_AngleOfAttack(Vec3<float> pos) {
 303:Core/Inc/robot/robo_states.h ****                 float dx = next_state_->getX() - pos.getX();
 304:Core/Inc/robot/robo_states.h ****                 float dy = next_state_->getY() - pos.getY();
 305:Core/Inc/robot/robo_states.h ****                 return atan2f(dx, dy);
 306:Core/Inc/robot/robo_states.h ****         }
 307:Core/Inc/robot/robo_states.h ****         bool nextStateReached(Vec3<float> pos) {
 308:Core/Inc/robot/robo_states.h ****                 float tol_sq = next_state_->tolerance_ * next_state_->tolerance_;
 309:Core/Inc/robot/robo_states.h ****                 float dx = next_state_->getX() - pos.getX();
 310:Core/Inc/robot/robo_states.h ****                 float dy = next_state_->getY() - pos.getY();
 311:Core/Inc/robot/robo_states.h ****                 // printf("dx = %d, dy = %d\n", (int16_t)(dx), (int16_t)(dy));
 312:Core/Inc/robot/robo_states.h ****                 return ((dx*dx + dy*dy) < tol_sq);
 313:Core/Inc/robot/robo_states.h ****         }
 314:Core/Inc/robot/robo_states.h **** 
 315:Core/Inc/robot/robo_states.h ****         float getX() { return x1_; }
 316:Core/Inc/robot/robo_states.h ****         float getY() { return y1_; }
 317:Core/Inc/robot/robo_states.h **** 
 318:Core/Inc/robot/robo_states.h **** private:
 319:Core/Inc/robot/robo_states.h ****         
 320:Core/Inc/robot/robo_states.h **** };
 321:Core/Inc/robot/robo_states.h **** 
 322:Core/Inc/robot/robo_states.h **** class ForestH : public Robo_States
 323:Core/Inc/robot/robo_states.h **** {
 324:Core/Inc/robot/robo_states.h **** public:
 325:Core/Inc/robot/robo_states.h ****         ForestH();
 326:Core/Inc/robot/robo_states.h ****         ForestH(ForestH &&) = default;
 327:Core/Inc/robot/robo_states.h ****         ForestH(const ForestH &) = default;
 328:Core/Inc/robot/robo_states.h ****         ForestH &operator=(ForestH &&) = default;
 329:Core/Inc/robot/robo_states.h ****         ForestH &operator=(const ForestH &) = default;
 330:Core/Inc/robot/robo_states.h ****         ~ForestH() { }
 189              		.loc 1 330 0
 190              		.cfi_startproc
 191              		@ args = 0, pretend = 0, frame = 0
 192              		@ frame_needed = 0, uses_anonymous_args = 0
 193              		@ link register save eliminated.
 194              	.LVL7:
 195              		.loc 1 330 0
 196 0000 7047     		bx	lr
 197              		.cfi_endproc
 198              	.LFE458:
ARM GAS  C:\Users\Prashant\AppData\Local\Temp\cc68LIAu.s 			page 10


 200              		.weak	_ZN7ForestHD1Ev
 201              		.thumb_set _ZN7ForestHD1Ev,_ZN7ForestHD2Ev
 202              		.section	.text._ZN7ForestID2Ev,"axG",%progbits,_ZN7ForestID5Ev,comdat
 203              		.align	1
 204              		.weak	_ZN7ForestID2Ev
 205              		.syntax unified
 206              		.thumb
 207              		.thumb_func
 208              		.fpu fpv4-sp-d16
 210              	_ZN7ForestID2Ev:
 211              	.LFB467:
 331:Core/Inc/robot/robo_states.h ****         
 332:Core/Inc/robot/robo_states.h ****         void setNextState(Robot *rob);
 333:Core/Inc/robot/robo_states.h ****         void set_Sensors(Robot *rob);
 334:Core/Inc/robot/robo_states.h ****         
 335:Core/Inc/robot/robo_states.h ****         float calc_RoboVelocity() {
 336:Core/Inc/robot/robo_states.h ****                 return DEFAULT_ROBOT_VELOCITY;
 337:Core/Inc/robot/robo_states.h ****         }
 338:Core/Inc/robot/robo_states.h ****         float calc_AngleOfAttack(Vec3<float> pos) {
 339:Core/Inc/robot/robo_states.h ****                 float dx = next_state_->getX() - pos.getX();
 340:Core/Inc/robot/robo_states.h ****                 float dy = next_state_->getY() - pos.getY();
 341:Core/Inc/robot/robo_states.h ****                 return atan2f(dx, dy);
 342:Core/Inc/robot/robo_states.h ****         }
 343:Core/Inc/robot/robo_states.h ****         bool nextStateReached(Vec3<float> pos) {
 344:Core/Inc/robot/robo_states.h ****                 float tol_sq = next_state_->tolerance_ * next_state_->tolerance_;
 345:Core/Inc/robot/robo_states.h ****                 float dx = next_state_->getX() - pos.getX();
 346:Core/Inc/robot/robo_states.h ****                 float dy = next_state_->getY() - pos.getY();
 347:Core/Inc/robot/robo_states.h ****                 // printf("dx = %d, dy = %d\n", (int16_t)(dx), (int16_t)(dy));
 348:Core/Inc/robot/robo_states.h ****                 return ((dx*dx + dy*dy) < tol_sq);
 349:Core/Inc/robot/robo_states.h ****         }
 350:Core/Inc/robot/robo_states.h **** 
 351:Core/Inc/robot/robo_states.h ****         float getX() { return x1_; }
 352:Core/Inc/robot/robo_states.h ****         float getY() { return y1_; }
 353:Core/Inc/robot/robo_states.h **** 
 354:Core/Inc/robot/robo_states.h **** private:
 355:Core/Inc/robot/robo_states.h ****         
 356:Core/Inc/robot/robo_states.h **** };
 357:Core/Inc/robot/robo_states.h **** 
 358:Core/Inc/robot/robo_states.h **** class ForestI : public Robo_States
 359:Core/Inc/robot/robo_states.h **** {
 360:Core/Inc/robot/robo_states.h **** public:
 361:Core/Inc/robot/robo_states.h ****         ForestI();
 362:Core/Inc/robot/robo_states.h ****         ForestI(ForestI &&) = default;
 363:Core/Inc/robot/robo_states.h ****         ForestI(const ForestI &) = default;
 364:Core/Inc/robot/robo_states.h ****         ForestI &operator=(ForestI &&) = default;
 365:Core/Inc/robot/robo_states.h ****         ForestI &operator=(const ForestI &) = default;
 366:Core/Inc/robot/robo_states.h ****         ~ForestI() { }
 212              		.loc 1 366 0
 213              		.cfi_startproc
 214              		@ args = 0, pretend = 0, frame = 0
 215              		@ frame_needed = 0, uses_anonymous_args = 0
 216              		@ link register save eliminated.
 217              	.LVL8:
 218              		.loc 1 366 0
 219 0000 7047     		bx	lr
 220              		.cfi_endproc
 221              	.LFE467:
ARM GAS  C:\Users\Prashant\AppData\Local\Temp\cc68LIAu.s 			page 11


 223              		.weak	_ZN7ForestID1Ev
 224              		.thumb_set _ZN7ForestID1Ev,_ZN7ForestID2Ev
 225              		.section	.text._ZN7ForestJD2Ev,"axG",%progbits,_ZN7ForestJD5Ev,comdat
 226              		.align	1
 227              		.weak	_ZN7ForestJD2Ev
 228              		.syntax unified
 229              		.thumb
 230              		.thumb_func
 231              		.fpu fpv4-sp-d16
 233              	_ZN7ForestJD2Ev:
 234              	.LFB476:
 367:Core/Inc/robot/robo_states.h ****         
 368:Core/Inc/robot/robo_states.h ****         void setNextState(Robot *rob);
 369:Core/Inc/robot/robo_states.h ****         void set_Sensors(Robot *rob);
 370:Core/Inc/robot/robo_states.h ****         
 371:Core/Inc/robot/robo_states.h ****         float calc_RoboVelocity() {
 372:Core/Inc/robot/robo_states.h ****                 return 0;
 373:Core/Inc/robot/robo_states.h ****         }
 374:Core/Inc/robot/robo_states.h **** 
 375:Core/Inc/robot/robo_states.h ****         float calc_AngleOfAttack(Vec3<float> pos) {
 376:Core/Inc/robot/robo_states.h ****                 float dx = next_state_->getX() - pos.getX();
 377:Core/Inc/robot/robo_states.h ****                 float dy = next_state_->getY() - pos.getY();
 378:Core/Inc/robot/robo_states.h ****                 return atan2f(dx, dy);
 379:Core/Inc/robot/robo_states.h ****         }
 380:Core/Inc/robot/robo_states.h ****         bool nextStateReached(Vec3<float> pos) {
 381:Core/Inc/robot/robo_states.h ****                 return false;
 382:Core/Inc/robot/robo_states.h ****         }
 383:Core/Inc/robot/robo_states.h ****         
 384:Core/Inc/robot/robo_states.h ****         // float calc_RoboVelocity() {
 385:Core/Inc/robot/robo_states.h ****         //         return DEFAULT_ROBOT_VELOCITY * 1.5;
 386:Core/Inc/robot/robo_states.h ****         // }
 387:Core/Inc/robot/robo_states.h ****         // float calc_RoboVelocity() {
 388:Core/Inc/robot/robo_states.h ****         //         // if (dist_kp_ > 0.8) {
 389:Core/Inc/robot/robo_states.h ****         //         //         dist_kp_ -= 0.001;
 390:Core/Inc/robot/robo_states.h ****         //         // }
 391:Core/Inc/robot/robo_states.h ****         //         // else if (dist_kp_ > 0.6) {
 392:Core/Inc/robot/robo_states.h ****         //         //         dist_kp_ -= 0.001;
 393:Core/Inc/robot/robo_states.h ****         //         // }
 394:Core/Inc/robot/robo_states.h ****         //         // else if (dist_kp_ > 0.4) {
 395:Core/Inc/robot/robo_states.h ****         //         //         dist_kp_ -= 0.001;
 396:Core/Inc/robot/robo_states.h ****         //         // }
 397:Core/Inc/robot/robo_states.h ****         //         // // else if (dist_kp_ > 0.2) {
 398:Core/Inc/robot/robo_states.h ****         //         // //         dist_kp_ -= 0.05;
 399:Core/Inc/robot/robo_states.h ****         //         // // }
 400:Core/Inc/robot/robo_states.h ****         //         // else {
 401:Core/Inc/robot/robo_states.h ****         //         //         dist_kp_ = 0.4;
 402:Core/Inc/robot/robo_states.h ****         //         // }
 403:Core/Inc/robot/robo_states.h ****         //         return DEFAULT_ROBOT_VELOCITY;
 404:Core/Inc/robot/robo_states.h ****         // }
 405:Core/Inc/robot/robo_states.h ****         // float calc_AngleOfAttack(Vec3<float> pos) {
 406:Core/Inc/robot/robo_states.h ****         //         float dx = next_state_->getX() - pos.getX();
 407:Core/Inc/robot/robo_states.h ****         //         float dy = next_state_->getY() - pos.getY();
 408:Core/Inc/robot/robo_states.h ****         //         return atan2f(dx, dy);
 409:Core/Inc/robot/robo_states.h ****         // }
 410:Core/Inc/robot/robo_states.h ****         // bool nextStateReached(Vec3<float> pos) {
 411:Core/Inc/robot/robo_states.h ****         //         float tol_sq = next_state_->tolerance_ * next_state_->tolerance_;
 412:Core/Inc/robot/robo_states.h ****         //         float dx = next_state_->getX() - pos.getX();
ARM GAS  C:\Users\Prashant\AppData\Local\Temp\cc68LIAu.s 			page 12


 413:Core/Inc/robot/robo_states.h ****         //         float dy = next_state_->getY() - pos.getY();
 414:Core/Inc/robot/robo_states.h ****         //         // printf("dx = %d, dy = %d\n", (int16_t)(dx), (int16_t)(dy));
 415:Core/Inc/robot/robo_states.h ****         //         return ((dx*dx + dy*dy) < tol_sq);
 416:Core/Inc/robot/robo_states.h ****         // }
 417:Core/Inc/robot/robo_states.h **** 
 418:Core/Inc/robot/robo_states.h ****         float getX() { return x1_; }
 419:Core/Inc/robot/robo_states.h ****         float getY() { return y1_; }
 420:Core/Inc/robot/robo_states.h **** 
 421:Core/Inc/robot/robo_states.h **** private:
 422:Core/Inc/robot/robo_states.h ****         float dist_kp_;
 423:Core/Inc/robot/robo_states.h **** };
 424:Core/Inc/robot/robo_states.h **** 
 425:Core/Inc/robot/robo_states.h **** class ForestJ : public Robo_States
 426:Core/Inc/robot/robo_states.h **** {
 427:Core/Inc/robot/robo_states.h **** public:
 428:Core/Inc/robot/robo_states.h ****         ForestJ();
 429:Core/Inc/robot/robo_states.h ****         ForestJ(ForestJ &&) = default;
 430:Core/Inc/robot/robo_states.h ****         ForestJ(const ForestJ &) = default;
 431:Core/Inc/robot/robo_states.h ****         ForestJ &operator=(ForestJ &&) = default;
 432:Core/Inc/robot/robo_states.h ****         ForestJ &operator=(const ForestJ &) = default;
 433:Core/Inc/robot/robo_states.h ****         ~ForestJ() { }
 235              		.loc 1 433 0
 236              		.cfi_startproc
 237              		@ args = 0, pretend = 0, frame = 0
 238              		@ frame_needed = 0, uses_anonymous_args = 0
 239              		@ link register save eliminated.
 240              	.LVL9:
 241              		.loc 1 433 0
 242 0000 7047     		bx	lr
 243              		.cfi_endproc
 244              	.LFE476:
 246              		.weak	_ZN7ForestJD1Ev
 247              		.thumb_set _ZN7ForestJD1Ev,_ZN7ForestJD2Ev
 248              		.section	.text._ZN9StopRobotD2Ev,"axG",%progbits,_ZN9StopRobotD5Ev,comdat
 249              		.align	1
 250              		.weak	_ZN9StopRobotD2Ev
 251              		.syntax unified
 252              		.thumb
 253              		.thumb_func
 254              		.fpu fpv4-sp-d16
 256              	_ZN9StopRobotD2Ev:
 257              	.LFB485:
 434:Core/Inc/robot/robo_states.h ****         
 435:Core/Inc/robot/robo_states.h ****         void setNextState(Robot *rob);
 436:Core/Inc/robot/robo_states.h ****         void set_Sensors(Robot *rob);
 437:Core/Inc/robot/robo_states.h ****         
 438:Core/Inc/robot/robo_states.h **** 
 439:Core/Inc/robot/robo_states.h ****         float calc_RoboVelocity() {
 440:Core/Inc/robot/robo_states.h ****                 return 0;
 441:Core/Inc/robot/robo_states.h ****         }
 442:Core/Inc/robot/robo_states.h **** 
 443:Core/Inc/robot/robo_states.h ****         float calc_AngleOfAttack(Vec3<float> pos) {
 444:Core/Inc/robot/robo_states.h ****                 float dx = next_state_->getX() - pos.getX();
 445:Core/Inc/robot/robo_states.h ****                 float dy = next_state_->getY() - pos.getY();
 446:Core/Inc/robot/robo_states.h ****                 return atan2f(dx, dy);
 447:Core/Inc/robot/robo_states.h ****         }
 448:Core/Inc/robot/robo_states.h ****         bool nextStateReached(Vec3<float> pos) {
ARM GAS  C:\Users\Prashant\AppData\Local\Temp\cc68LIAu.s 			page 13


 449:Core/Inc/robot/robo_states.h ****                 // float tol_sq = next_state_->tolerance_ * next_state_->tolerance_;
 450:Core/Inc/robot/robo_states.h ****                 // float dx = next_state_->getX() - pos.getX();
 451:Core/Inc/robot/robo_states.h ****                 // float dy = next_state_->getY() - pos.getY();
 452:Core/Inc/robot/robo_states.h ****                 // // printf("dx = %d, dy = %d\n", (int16_t)(dx), (int16_t)(dy));
 453:Core/Inc/robot/robo_states.h ****                 // return ((dx*dx + dy*dy) < tol_sq);
 454:Core/Inc/robot/robo_states.h ****                 return false;
 455:Core/Inc/robot/robo_states.h ****         }
 456:Core/Inc/robot/robo_states.h **** 
 457:Core/Inc/robot/robo_states.h ****         float getX() { return x1_; }
 458:Core/Inc/robot/robo_states.h ****         float getY() { return y1_; }
 459:Core/Inc/robot/robo_states.h **** 
 460:Core/Inc/robot/robo_states.h **** private:
 461:Core/Inc/robot/robo_states.h ****         
 462:Core/Inc/robot/robo_states.h **** };
 463:Core/Inc/robot/robo_states.h **** 
 464:Core/Inc/robot/robo_states.h **** class StopRobot : public Robo_States
 465:Core/Inc/robot/robo_states.h **** {
 466:Core/Inc/robot/robo_states.h **** public:
 467:Core/Inc/robot/robo_states.h ****         StopRobot();
 468:Core/Inc/robot/robo_states.h ****         StopRobot(StopRobot &&) = default;
 469:Core/Inc/robot/robo_states.h ****         StopRobot(const StopRobot &) = default;
 470:Core/Inc/robot/robo_states.h ****         StopRobot &operator=(StopRobot &&) = default;
 471:Core/Inc/robot/robo_states.h ****         StopRobot &operator=(const StopRobot &) = default;
 472:Core/Inc/robot/robo_states.h ****         ~StopRobot() { }
 258              		.loc 1 472 0
 259              		.cfi_startproc
 260              		@ args = 0, pretend = 0, frame = 0
 261              		@ frame_needed = 0, uses_anonymous_args = 0
 262              		@ link register save eliminated.
 263              	.LVL10:
 264              		.loc 1 472 0
 265 0000 7047     		bx	lr
 266              		.cfi_endproc
 267              	.LFE485:
 269              		.weak	_ZN9StopRobotD1Ev
 270              		.thumb_set _ZN9StopRobotD1Ev,_ZN9StopRobotD2Ev
 271              		.section	.text._ZN10Exp_SmoothD2Ev,"axG",%progbits,_ZN10Exp_SmoothD5Ev,comdat
 272              		.align	1
 273              		.weak	_ZN10Exp_SmoothD2Ev
 274              		.syntax unified
 275              		.thumb
 276              		.thumb_func
 277              		.fpu fpv4-sp-d16
 279              	_ZN10Exp_SmoothD2Ev:
 280              	.LFB530:
 281              		.file 2 "Core/Inc/utils/smoothing_algorithm.h"
   1:Core/Inc/utils/smoothing_algorithm.h **** 
   2:Core/Inc/utils/smoothing_algorithm.h **** #ifndef _SMOOTHING_ALGORITHM_H_
   3:Core/Inc/utils/smoothing_algorithm.h **** #define _SMOOTHING_ALGORITHM_H_
   4:Core/Inc/utils/smoothing_algorithm.h **** 
   5:Core/Inc/utils/smoothing_algorithm.h **** #include "vec3.h"
   6:Core/Inc/utils/smoothing_algorithm.h **** 
   7:Core/Inc/utils/smoothing_algorithm.h **** class Smoothing_Algorithm
   8:Core/Inc/utils/smoothing_algorithm.h **** {
   9:Core/Inc/utils/smoothing_algorithm.h **** public:
  10:Core/Inc/utils/smoothing_algorithm.h ****         virtual float smooth(const float &input) = 0;
  11:Core/Inc/utils/smoothing_algorithm.h ****         virtual ~Smoothing_Algorithm() { }
ARM GAS  C:\Users\Prashant\AppData\Local\Temp\cc68LIAu.s 			page 14


  12:Core/Inc/utils/smoothing_algorithm.h **** };
  13:Core/Inc/utils/smoothing_algorithm.h **** 
  14:Core/Inc/utils/smoothing_algorithm.h **** class Exp_Smooth : public Smoothing_Algorithm
  15:Core/Inc/utils/smoothing_algorithm.h **** {
  16:Core/Inc/utils/smoothing_algorithm.h **** public:
  17:Core/Inc/utils/smoothing_algorithm.h ****         Exp_Smooth();
  18:Core/Inc/utils/smoothing_algorithm.h ****         Exp_Smooth(float alpha);
  19:Core/Inc/utils/smoothing_algorithm.h ****         Exp_Smooth(Exp_Smooth &&) = default;
  20:Core/Inc/utils/smoothing_algorithm.h ****         Exp_Smooth(const Exp_Smooth &) = default;
  21:Core/Inc/utils/smoothing_algorithm.h ****         Exp_Smooth &operator=(Exp_Smooth &&) = default;
  22:Core/Inc/utils/smoothing_algorithm.h ****         Exp_Smooth &operator=(const Exp_Smooth &) = default;
  23:Core/Inc/utils/smoothing_algorithm.h ****         ~Exp_Smooth() { }
 282              		.loc 2 23 0
 283              		.cfi_startproc
 284              		@ args = 0, pretend = 0, frame = 0
 285              		@ frame_needed = 0, uses_anonymous_args = 0
 286              		@ link register save eliminated.
 287              	.LVL11:
 288              		.loc 2 23 0
 289 0000 7047     		bx	lr
 290              		.cfi_endproc
 291              	.LFE530:
 293              		.weak	_ZN10Exp_SmoothD1Ev
 294              		.thumb_set _ZN10Exp_SmoothD1Ev,_ZN10Exp_SmoothD2Ev
 295              		.section	.text._Z41__static_initialization_and_destruction_0ii,"ax",%progbits
 296              		.align	1
 297              		.syntax unified
 298              		.thumb
 299              		.thumb_func
 300              		.fpu fpv4-sp-d16
 302              	_Z41__static_initialization_and_destruction_0ii:
 303              	.LFB641:
 304              		.file 3 "Core/Src/robot/robot.cpp"
   1:Core/Src/robot/robot.cpp **** #include "robot/robot.h"
   2:Core/Src/robot/robot.cpp **** #include "robot/devs_config.h"
   3:Core/Src/robot/robot.cpp **** #include "utils/smoothie.h"
   4:Core/Src/robot/robot.cpp **** #include "devs/wheeler.h"
   5:Core/Src/robot/robot.cpp **** #include "robot/robo_init.h"
   6:Core/Src/robot/robot.cpp **** 
   7:Core/Src/robot/robot.cpp **** extern Vec3<float> gOmega_Bias;
   8:Core/Src/robot/robot.cpp **** 
   9:Core/Src/robot/robot.cpp **** ForestA gPointA;
  10:Core/Src/robot/robot.cpp **** ForestB gPointB;
  11:Core/Src/robot/robot.cpp **** ForestC gPointC;
  12:Core/Src/robot/robot.cpp **** ForestD gPointD;
  13:Core/Src/robot/robot.cpp **** ForestE gPointE;
  14:Core/Src/robot/robot.cpp **** ForestF gPointF;
  15:Core/Src/robot/robot.cpp **** ForestG gPointG;
  16:Core/Src/robot/robot.cpp **** ForestH gPointH;
  17:Core/Src/robot/robot.cpp **** ForestI gPointI;
  18:Core/Src/robot/robot.cpp **** ForestJ gPointJ;
  19:Core/Src/robot/robot.cpp **** StopRobot gStop;
  20:Core/Src/robot/robot.cpp **** 
  21:Core/Src/robot/robot.cpp **** static Exp_Smooth gXAccelAlpha35(0.35);
  22:Core/Src/robot/robot.cpp **** static Exp_Smooth gZAccelAlpha35(0.35);
  23:Core/Src/robot/robot.cpp **** static Exp_Smooth gYAccelAlpha35(0.35);
  24:Core/Src/robot/robot.cpp **** 
ARM GAS  C:\Users\Prashant\AppData\Local\Temp\cc68LIAu.s 			page 15


  25:Core/Src/robot/robot.cpp **** static Exp_Smooth gXGyroAlpha35(0.35);
  26:Core/Src/robot/robot.cpp **** static Exp_Smooth gYGyroAlpha35(0.35);
  27:Core/Src/robot/robot.cpp **** static Exp_Smooth gZGyroAlpha35(0.35);
  28:Core/Src/robot/robot.cpp **** 
  29:Core/Src/robot/robot.cpp **** static Exp_Smooth gXMagAlpha35(0.35);
  30:Core/Src/robot/robot.cpp **** static Exp_Smooth gYMagAlpha35(0.35);
  31:Core/Src/robot/robot.cpp **** static Exp_Smooth gZMagAlpha35(0.35);
  32:Core/Src/robot/robot.cpp **** 
  33:Core/Src/robot/robot.cpp **** 
  34:Core/Src/robot/robot.cpp **** static Vec3<float> read_Orientation(uint32_t dt_millis);
  35:Core/Src/robot/robot.cpp **** 
  36:Core/Src/robot/robot.cpp **** bool gIsFirstTimeStamp = true;
  37:Core/Src/robot/robot.cpp **** uint32_t gPrintTime;
  38:Core/Src/robot/robot.cpp **** 
  39:Core/Src/robot/robot.cpp **** void Robot::move(Vec3<float> pos, uint32_t dt_millis) {
  40:Core/Src/robot/robot.cpp ****         // calculate current heading
  41:Core/Src/robot/robot.cpp ****         Vec3<float> ori = read_Orientation(dt_millis);
  42:Core/Src/robot/robot.cpp ****         float heading = ori.getZ();
  43:Core/Src/robot/robot.cpp **** 
  44:Core/Src/robot/robot.cpp ****         if (is_first_reading_) {
  45:Core/Src/robot/robot.cpp ****                 is_first_reading_ = false;
  46:Core/Src/robot/robot.cpp ****                 first_heading_ = heading;
  47:Core/Src/robot/robot.cpp ****                 // velocity_ = state_->calc_RoboVelocity();
  48:Core/Src/robot/robot.cpp ****                 // angle_of_attack_ = state_->calc_AngleOfAttack(pos);
  49:Core/Src/robot/robot.cpp ****         }
  50:Core/Src/robot/robot.cpp ****         else {
  51:Core/Src/robot/robot.cpp ****                 // printf("Velocity : %ld  ", (int32_t)(velocity_));
  52:Core/Src/robot/robot.cpp ****                 // printf("Angle Of Attack : %ld  ", (int32_t)(angle_of_attack_ * 57.3));
  53:Core/Src/robot/robot.cpp ****                 if (gIsFirstTimeStamp) {
  54:Core/Src/robot/robot.cpp ****                         gPrintTime = HAL_GetTick();
  55:Core/Src/robot/robot.cpp ****                         gIsFirstTimeStamp = false;
  56:Core/Src/robot/robot.cpp ****                 }
  57:Core/Src/robot/robot.cpp ****                 if (HAL_GetTick() - gPrintTime < 15000) {
  58:Core/Src/robot/robot.cpp ****                         printf("%ld, ", (HAL_GetTick()));
  59:Core/Src/robot/robot.cpp ****                         pos.print();
  60:Core/Src/robot/robot.cpp ****                         printf(", ");
  61:Core/Src/robot/robot.cpp ****                         printf("%d, ", (int16_t)(heading - first_heading_));
  62:Core/Src/robot/robot.cpp ****                         printf("%d, %d\n", (int16_t)(velocity_), (int16_t)(angle_of_attack_));
  63:Core/Src/robot/robot.cpp ****                 } 
  64:Core/Src/robot/robot.cpp **** 
  65:Core/Src/robot/robot.cpp ****                 angle_of_attack_ = state_->calc_AngleOfAttack(pos);
  66:Core/Src/robot/robot.cpp ****                 velocity_ = state_->calc_RoboVelocity();
  67:Core/Src/robot/robot.cpp ****                 calc_WheelsOmegas(omegas_, velocity_, angle_of_attack_, (first_heading_ - heading)/
  68:Core/Src/robot/robot.cpp ****                 send_WheelerPack(omegas_);
  69:Core/Src/robot/robot.cpp **** 
  70:Core/Src/robot/robot.cpp ****         }
  71:Core/Src/robot/robot.cpp **** }
  72:Core/Src/robot/robot.cpp **** 
  73:Core/Src/robot/robot.cpp **** void Robot::run(uint32_t dt_millis) {
  74:Core/Src/robot/robot.cpp ****         Vec3<float> pos = pos_->read_Position(dt_millis);
  75:Core/Src/robot/robot.cpp ****         if (state_->nextStateReached(pos)) {
  76:Core/Src/robot/robot.cpp ****                 state_->setNextState(this);
  77:Core/Src/robot/robot.cpp ****         }
  78:Core/Src/robot/robot.cpp **** 
  79:Core/Src/robot/robot.cpp ****         move(pos, dt_millis);
  80:Core/Src/robot/robot.cpp **** }
  81:Core/Src/robot/robot.cpp **** 
ARM GAS  C:\Users\Prashant\AppData\Local\Temp\cc68LIAu.s 			page 16


  82:Core/Src/robot/robot.cpp **** 
  83:Core/Src/robot/robot.cpp **** // ! This function requires major refactoring
  84:Core/Src/robot/robot.cpp **** static Vec3<float> read_Orientation(uint32_t dt_millis)
  85:Core/Src/robot/robot.cpp **** {
  86:Core/Src/robot/robot.cpp ****         MPU6050_Read_NormAxes(&Body_IMU);
  87:Core/Src/robot/robot.cpp ****         HMC5883_Read(&Body_HMC);
  88:Core/Src/robot/robot.cpp **** 
  89:Core/Src/robot/robot.cpp ****         Vec3<float> accel = Body_IMU.norm_a_axis;
  90:Core/Src/robot/robot.cpp ****         Vec3<float> gyro = Body_IMU.norm_g_axis - gOmega_Bias;
  91:Core/Src/robot/robot.cpp ****         Vec3<float> mag = Body_HMC.raw_axis;
  92:Core/Src/robot/robot.cpp **** 
  93:Core/Src/robot/robot.cpp ****         // We will consider the rotation in order: psi-theta-phi
  94:Core/Src/robot/robot.cpp ****         float ax = gXAccelAlpha35.smooth(accel.getX());
  95:Core/Src/robot/robot.cpp ****         float ay = gYAccelAlpha35.smooth(accel.getY());
  96:Core/Src/robot/robot.cpp ****         float az = gZAccelAlpha35.smooth(accel.getZ());
  97:Core/Src/robot/robot.cpp ****         
  98:Core/Src/robot/robot.cpp ****         float gx = gXGyroAlpha35.smooth(gyro.getX());
  99:Core/Src/robot/robot.cpp ****         float gy = gYGyroAlpha35.smooth(gyro.getY());
 100:Core/Src/robot/robot.cpp ****         float gz = gZGyroAlpha35.smooth(gyro.getZ());
 101:Core/Src/robot/robot.cpp **** 
 102:Core/Src/robot/robot.cpp ****         float bx = gXMagAlpha35.smooth(mag.getX());
 103:Core/Src/robot/robot.cpp ****         float by = gYMagAlpha35.smooth(mag.getY());
 104:Core/Src/robot/robot.cpp ****         float bz = gZMagAlpha35.smooth(mag.getZ());
 105:Core/Src/robot/robot.cpp ****         
 106:Core/Src/robot/robot.cpp ****         float roll = atan2f(ay, az) * 57.3;
 107:Core/Src/robot/robot.cpp **** 
 108:Core/Src/robot/robot.cpp ****         Second_Pass.set_Algorithm(&gRoll_Filter);
 109:Core/Src/robot/robot.cpp ****         roll = Second_Pass.filter(roll, gx, dt_millis);
 110:Core/Src/robot/robot.cpp **** 
 111:Core/Src/robot/robot.cpp ****         float sin_roll = sin(roll / 57.3);
 112:Core/Src/robot/robot.cpp ****         float cos_roll = cos(roll / 57.3);
 113:Core/Src/robot/robot.cpp ****         // Roll Compensated Pitch
 114:Core/Src/robot/robot.cpp ****         float pitch = atan2f((-ax), ay*sin_roll + az*cos_roll) * 57.3;
 115:Core/Src/robot/robot.cpp **** 
 116:Core/Src/robot/robot.cpp ****         Second_Pass.set_Algorithm(&gPitch_Filter);
 117:Core/Src/robot/robot.cpp ****         pitch = Second_Pass.filter(pitch, gy, dt_millis);
 118:Core/Src/robot/robot.cpp **** 
 119:Core/Src/robot/robot.cpp ****         float sin_pitch = sin(pitch / 57.3);
 120:Core/Src/robot/robot.cpp ****         float cos_pitch = cos(pitch / 57.3);
 121:Core/Src/robot/robot.cpp ****         // Tilt Compensated Yaw
 122:Core/Src/robot/robot.cpp ****         float yaw = atan2f((bz*sin_roll - by*cos_roll), (bx*cos_pitch + by*sin_roll*sin_pitch + bz*
 123:Core/Src/robot/robot.cpp **** 
 124:Core/Src/robot/robot.cpp ****         Second_Pass.set_Algorithm(&gYaw_Filter);
 125:Core/Src/robot/robot.cpp ****         yaw = Second_Pass.filter(yaw, gz, dt_millis);
 126:Core/Src/robot/robot.cpp **** 
 127:Core/Src/robot/robot.cpp ****         Vec3<float> angles(roll, pitch, yaw);
 128:Core/Src/robot/robot.cpp **** 
 129:Core/Src/robot/robot.cpp ****         return angles;
 130:Core/Src/robot/robot.cpp **** }
 305              		.loc 3 130 0
 306              		.cfi_startproc
 307              		@ args = 0, pretend = 0, frame = 0
 308              		@ frame_needed = 0, uses_anonymous_args = 0
 309              	.LVL12:
 310 0000 0128     		cmp	r0, #1
 311 0002 00D0     		beq	.L19
 312              	.L16:
ARM GAS  C:\Users\Prashant\AppData\Local\Temp\cc68LIAu.s 			page 17


 313 0004 7047     		bx	lr
 314              	.L19:
 315              		.loc 3 130 0 is_stmt 0 discriminator 1
 316 0006 4FF6FF73 		movw	r3, #65535
 317 000a 9942     		cmp	r1, r3
 318 000c FAD1     		bne	.L16
 319              		.loc 3 130 0
 320 000e 70B5     		push	{r4, r5, r6, lr}
 321              	.LCFI0:
 322              		.cfi_def_cfa_offset 16
 323              		.cfi_offset 4, -16
 324              		.cfi_offset 5, -12
 325              		.cfi_offset 6, -8
 326              		.cfi_offset 14, -4
 327 0010 2DED028B 		vpush.64	{d8}
 328              	.LCFI1:
 329              		.cfi_def_cfa_offset 24
 330              		.cfi_offset 80, -24
 331              		.cfi_offset 81, -20
   9:Core/Src/robot/robot.cpp **** ForestB gPointB;
 332              		.loc 3 9 0 is_stmt 1
 333 0014 664D     		ldr	r5, .L20
 334 0016 2846     		mov	r0, r5
 335              	.LVL13:
 336 0018 FFF7FEFF 		bl	_ZN7ForestAC1Ev
 337              	.LVL14:
 338 001c 654C     		ldr	r4, .L20+4
 339 001e 2246     		mov	r2, r4
 340 0020 6549     		ldr	r1, .L20+8
 341 0022 2846     		mov	r0, r5
 342 0024 FFF7FEFF 		bl	__aeabi_atexit
 343              	.LVL15:
  10:Core/Src/robot/robot.cpp **** ForestC gPointC;
 344              		.loc 3 10 0
 345 0028 644D     		ldr	r5, .L20+12
 346 002a 2846     		mov	r0, r5
 347 002c FFF7FEFF 		bl	_ZN7ForestBC1Ev
 348              	.LVL16:
 349 0030 2246     		mov	r2, r4
 350 0032 6349     		ldr	r1, .L20+16
 351 0034 2846     		mov	r0, r5
 352 0036 FFF7FEFF 		bl	__aeabi_atexit
 353              	.LVL17:
  11:Core/Src/robot/robot.cpp **** ForestD gPointD;
 354              		.loc 3 11 0
 355 003a 624D     		ldr	r5, .L20+20
 356 003c 2846     		mov	r0, r5
 357 003e FFF7FEFF 		bl	_ZN7ForestCC1Ev
 358              	.LVL18:
 359 0042 2246     		mov	r2, r4
 360 0044 6049     		ldr	r1, .L20+24
 361 0046 2846     		mov	r0, r5
 362 0048 FFF7FEFF 		bl	__aeabi_atexit
 363              	.LVL19:
  12:Core/Src/robot/robot.cpp **** ForestE gPointE;
 364              		.loc 3 12 0
 365 004c 5F4D     		ldr	r5, .L20+28
ARM GAS  C:\Users\Prashant\AppData\Local\Temp\cc68LIAu.s 			page 18


 366 004e 2846     		mov	r0, r5
 367 0050 FFF7FEFF 		bl	_ZN7ForestDC1Ev
 368              	.LVL20:
 369 0054 2246     		mov	r2, r4
 370 0056 5E49     		ldr	r1, .L20+32
 371 0058 2846     		mov	r0, r5
 372 005a FFF7FEFF 		bl	__aeabi_atexit
 373              	.LVL21:
  13:Core/Src/robot/robot.cpp **** ForestF gPointF;
 374              		.loc 3 13 0
 375 005e 5D4D     		ldr	r5, .L20+36
 376 0060 2846     		mov	r0, r5
 377 0062 FFF7FEFF 		bl	_ZN7ForestEC1Ev
 378              	.LVL22:
 379 0066 2246     		mov	r2, r4
 380 0068 5B49     		ldr	r1, .L20+40
 381 006a 2846     		mov	r0, r5
 382 006c FFF7FEFF 		bl	__aeabi_atexit
 383              	.LVL23:
  14:Core/Src/robot/robot.cpp **** ForestG gPointG;
 384              		.loc 3 14 0
 385 0070 5A4D     		ldr	r5, .L20+44
 386 0072 2846     		mov	r0, r5
 387 0074 FFF7FEFF 		bl	_ZN7ForestFC1Ev
 388              	.LVL24:
 389 0078 2246     		mov	r2, r4
 390 007a 5949     		ldr	r1, .L20+48
 391 007c 2846     		mov	r0, r5
 392 007e FFF7FEFF 		bl	__aeabi_atexit
 393              	.LVL25:
  15:Core/Src/robot/robot.cpp **** ForestH gPointH;
 394              		.loc 3 15 0
 395 0082 584D     		ldr	r5, .L20+52
 396 0084 2846     		mov	r0, r5
 397 0086 FFF7FEFF 		bl	_ZN7ForestGC1Ev
 398              	.LVL26:
 399 008a 2246     		mov	r2, r4
 400 008c 5649     		ldr	r1, .L20+56
 401 008e 2846     		mov	r0, r5
 402 0090 FFF7FEFF 		bl	__aeabi_atexit
 403              	.LVL27:
  16:Core/Src/robot/robot.cpp **** ForestI gPointI;
 404              		.loc 3 16 0
 405 0094 554D     		ldr	r5, .L20+60
 406 0096 2846     		mov	r0, r5
 407 0098 FFF7FEFF 		bl	_ZN7ForestHC1Ev
 408              	.LVL28:
 409 009c 2246     		mov	r2, r4
 410 009e 5449     		ldr	r1, .L20+64
 411 00a0 2846     		mov	r0, r5
 412 00a2 FFF7FEFF 		bl	__aeabi_atexit
 413              	.LVL29:
  17:Core/Src/robot/robot.cpp **** ForestJ gPointJ;
 414              		.loc 3 17 0
 415 00a6 534D     		ldr	r5, .L20+68
 416 00a8 2846     		mov	r0, r5
 417 00aa FFF7FEFF 		bl	_ZN7ForestIC1Ev
ARM GAS  C:\Users\Prashant\AppData\Local\Temp\cc68LIAu.s 			page 19


 418              	.LVL30:
 419 00ae 2246     		mov	r2, r4
 420 00b0 5149     		ldr	r1, .L20+72
 421 00b2 2846     		mov	r0, r5
 422 00b4 FFF7FEFF 		bl	__aeabi_atexit
 423              	.LVL31:
  18:Core/Src/robot/robot.cpp **** StopRobot gStop;
 424              		.loc 3 18 0
 425 00b8 504D     		ldr	r5, .L20+76
 426 00ba 2846     		mov	r0, r5
 427 00bc FFF7FEFF 		bl	_ZN7ForestJC1Ev
 428              	.LVL32:
 429 00c0 2246     		mov	r2, r4
 430 00c2 4F49     		ldr	r1, .L20+80
 431 00c4 2846     		mov	r0, r5
 432 00c6 FFF7FEFF 		bl	__aeabi_atexit
 433              	.LVL33:
  19:Core/Src/robot/robot.cpp **** 
 434              		.loc 3 19 0
 435 00ca 4E4D     		ldr	r5, .L20+84
 436 00cc 2846     		mov	r0, r5
 437 00ce FFF7FEFF 		bl	_ZN9StopRobotC1Ev
 438              	.LVL34:
 439 00d2 2246     		mov	r2, r4
 440 00d4 4C49     		ldr	r1, .L20+88
 441 00d6 2846     		mov	r0, r5
 442 00d8 FFF7FEFF 		bl	__aeabi_atexit
 443              	.LVL35:
  21:Core/Src/robot/robot.cpp **** static Exp_Smooth gZAccelAlpha35(0.35);
 444              		.loc 3 21 0
 445 00dc 9FED4B8A 		vldr.32	s16, .L20+92
 446 00e0 4B4E     		ldr	r6, .L20+96
 447 00e2 B0EE480A 		vmov.f32	s0, s16
 448 00e6 3046     		mov	r0, r6
 449 00e8 FFF7FEFF 		bl	_ZN10Exp_SmoothC1Ef
 450              	.LVL36:
 451 00ec 494D     		ldr	r5, .L20+100
 452 00ee 2246     		mov	r2, r4
 453 00f0 2946     		mov	r1, r5
 454 00f2 3046     		mov	r0, r6
 455 00f4 FFF7FEFF 		bl	__aeabi_atexit
 456              	.LVL37:
  22:Core/Src/robot/robot.cpp **** static Exp_Smooth gYAccelAlpha35(0.35);
 457              		.loc 3 22 0
 458 00f8 474E     		ldr	r6, .L20+104
 459 00fa B0EE480A 		vmov.f32	s0, s16
 460 00fe 3046     		mov	r0, r6
 461 0100 FFF7FEFF 		bl	_ZN10Exp_SmoothC1Ef
 462              	.LVL38:
 463 0104 2246     		mov	r2, r4
 464 0106 2946     		mov	r1, r5
 465 0108 3046     		mov	r0, r6
 466 010a FFF7FEFF 		bl	__aeabi_atexit
 467              	.LVL39:
  23:Core/Src/robot/robot.cpp **** 
 468              		.loc 3 23 0
 469 010e 434E     		ldr	r6, .L20+108
ARM GAS  C:\Users\Prashant\AppData\Local\Temp\cc68LIAu.s 			page 20


 470 0110 B0EE480A 		vmov.f32	s0, s16
 471 0114 3046     		mov	r0, r6
 472 0116 FFF7FEFF 		bl	_ZN10Exp_SmoothC1Ef
 473              	.LVL40:
 474 011a 2246     		mov	r2, r4
 475 011c 2946     		mov	r1, r5
 476 011e 3046     		mov	r0, r6
 477 0120 FFF7FEFF 		bl	__aeabi_atexit
 478              	.LVL41:
  25:Core/Src/robot/robot.cpp **** static Exp_Smooth gYGyroAlpha35(0.35);
 479              		.loc 3 25 0
 480 0124 3E4E     		ldr	r6, .L20+112
 481 0126 B0EE480A 		vmov.f32	s0, s16
 482 012a 3046     		mov	r0, r6
 483 012c FFF7FEFF 		bl	_ZN10Exp_SmoothC1Ef
 484              	.LVL42:
 485 0130 2246     		mov	r2, r4
 486 0132 2946     		mov	r1, r5
 487 0134 3046     		mov	r0, r6
 488 0136 FFF7FEFF 		bl	__aeabi_atexit
 489              	.LVL43:
  26:Core/Src/robot/robot.cpp **** static Exp_Smooth gZGyroAlpha35(0.35);
 490              		.loc 3 26 0
 491 013a 3A4E     		ldr	r6, .L20+116
 492 013c B0EE480A 		vmov.f32	s0, s16
 493 0140 3046     		mov	r0, r6
 494 0142 FFF7FEFF 		bl	_ZN10Exp_SmoothC1Ef
 495              	.LVL44:
 496 0146 2246     		mov	r2, r4
 497 0148 2946     		mov	r1, r5
 498 014a 3046     		mov	r0, r6
 499 014c FFF7FEFF 		bl	__aeabi_atexit
 500              	.LVL45:
  27:Core/Src/robot/robot.cpp **** 
 501              		.loc 3 27 0
 502 0150 354E     		ldr	r6, .L20+120
 503 0152 B0EE480A 		vmov.f32	s0, s16
 504 0156 3046     		mov	r0, r6
 505 0158 FFF7FEFF 		bl	_ZN10Exp_SmoothC1Ef
 506              	.LVL46:
 507 015c 2246     		mov	r2, r4
 508 015e 2946     		mov	r1, r5
 509 0160 3046     		mov	r0, r6
 510 0162 FFF7FEFF 		bl	__aeabi_atexit
 511              	.LVL47:
  29:Core/Src/robot/robot.cpp **** static Exp_Smooth gYMagAlpha35(0.35);
 512              		.loc 3 29 0
 513 0166 314E     		ldr	r6, .L20+124
 514 0168 B0EE480A 		vmov.f32	s0, s16
 515 016c 3046     		mov	r0, r6
 516 016e FFF7FEFF 		bl	_ZN10Exp_SmoothC1Ef
 517              	.LVL48:
 518 0172 2246     		mov	r2, r4
 519 0174 2946     		mov	r1, r5
 520 0176 3046     		mov	r0, r6
 521 0178 FFF7FEFF 		bl	__aeabi_atexit
 522              	.LVL49:
ARM GAS  C:\Users\Prashant\AppData\Local\Temp\cc68LIAu.s 			page 21


  30:Core/Src/robot/robot.cpp **** static Exp_Smooth gZMagAlpha35(0.35);
 523              		.loc 3 30 0
 524 017c 2C4E     		ldr	r6, .L20+128
 525 017e B0EE480A 		vmov.f32	s0, s16
 526 0182 3046     		mov	r0, r6
 527 0184 FFF7FEFF 		bl	_ZN10Exp_SmoothC1Ef
 528              	.LVL50:
 529 0188 2246     		mov	r2, r4
 530 018a 2946     		mov	r1, r5
 531 018c 3046     		mov	r0, r6
 532 018e FFF7FEFF 		bl	__aeabi_atexit
 533              	.LVL51:
  31:Core/Src/robot/robot.cpp **** 
 534              		.loc 3 31 0
 535 0192 284E     		ldr	r6, .L20+132
 536 0194 B0EE480A 		vmov.f32	s0, s16
 537 0198 3046     		mov	r0, r6
 538 019a FFF7FEFF 		bl	_ZN10Exp_SmoothC1Ef
 539              	.LVL52:
 540 019e 2246     		mov	r2, r4
 541 01a0 2946     		mov	r1, r5
 542 01a2 3046     		mov	r0, r6
 543 01a4 FFF7FEFF 		bl	__aeabi_atexit
 544              	.LVL53:
 545              		.loc 3 130 0
 546 01a8 BDEC028B 		vldm	sp!, {d8}
 547              	.LCFI2:
 548              		.cfi_restore 80
 549              		.cfi_restore 81
 550              		.cfi_def_cfa_offset 16
 551 01ac 70BD     		pop	{r4, r5, r6, pc}
 552              	.L21:
 553 01ae 00BF     		.align	2
 554              	.L20:
 555 01b0 00000000 		.word	.LANCHOR0
 556 01b4 00000000 		.word	__dso_handle
 557 01b8 00000000 		.word	_ZN7ForestAD1Ev
 558 01bc 00000000 		.word	.LANCHOR1
 559 01c0 00000000 		.word	_ZN7ForestBD1Ev
 560 01c4 00000000 		.word	.LANCHOR2
 561 01c8 00000000 		.word	_ZN7ForestCD1Ev
 562 01cc 00000000 		.word	.LANCHOR3
 563 01d0 00000000 		.word	_ZN7ForestDD1Ev
 564 01d4 00000000 		.word	.LANCHOR4
 565 01d8 00000000 		.word	_ZN7ForestED1Ev
 566 01dc 00000000 		.word	.LANCHOR5
 567 01e0 00000000 		.word	_ZN7ForestFD1Ev
 568 01e4 00000000 		.word	.LANCHOR6
 569 01e8 00000000 		.word	_ZN7ForestGD1Ev
 570 01ec 00000000 		.word	.LANCHOR7
 571 01f0 00000000 		.word	_ZN7ForestHD1Ev
 572 01f4 00000000 		.word	.LANCHOR8
 573 01f8 00000000 		.word	_ZN7ForestID1Ev
 574 01fc 00000000 		.word	.LANCHOR9
 575 0200 00000000 		.word	_ZN7ForestJD1Ev
 576 0204 00000000 		.word	.LANCHOR10
 577 0208 00000000 		.word	_ZN9StopRobotD1Ev
ARM GAS  C:\Users\Prashant\AppData\Local\Temp\cc68LIAu.s 			page 22


 578 020c 3333B33E 		.word	1051931443
 579 0210 00000000 		.word	.LANCHOR11
 580 0214 00000000 		.word	_ZN10Exp_SmoothD1Ev
 581 0218 00000000 		.word	.LANCHOR12
 582 021c 00000000 		.word	.LANCHOR13
 583 0220 00000000 		.word	.LANCHOR14
 584 0224 00000000 		.word	.LANCHOR15
 585 0228 00000000 		.word	.LANCHOR16
 586 022c 00000000 		.word	.LANCHOR17
 587 0230 00000000 		.word	.LANCHOR18
 588 0234 00000000 		.word	.LANCHOR19
 589              		.cfi_endproc
 590              	.LFE641:
 592              		.section	.text._ZN7ForestAD0Ev,"axG",%progbits,_ZN7ForestAD5Ev,comdat
 593              		.align	1
 594              		.weak	_ZN7ForestAD0Ev
 595              		.syntax unified
 596              		.thumb
 597              		.thumb_func
 598              		.fpu fpv4-sp-d16
 600              	_ZN7ForestAD0Ev:
 601              	.LFB397:
  58:Core/Inc/robot/robo_states.h ****         
 602              		.loc 1 58 0
 603              		.cfi_startproc
 604              		@ args = 0, pretend = 0, frame = 0
 605              		@ frame_needed = 0, uses_anonymous_args = 0
 606              	.LVL54:
 607 0000 10B5     		push	{r4, lr}
 608              	.LCFI3:
 609              		.cfi_def_cfa_offset 8
 610              		.cfi_offset 4, -8
 611              		.cfi_offset 14, -4
 612 0002 0446     		mov	r4, r0
  58:Core/Inc/robot/robo_states.h ****         
 613              		.loc 1 58 0
 614 0004 2021     		movs	r1, #32
 615 0006 FFF7FEFF 		bl	_ZdlPvj
 616              	.LVL55:
 617 000a 2046     		mov	r0, r4
 618 000c 10BD     		pop	{r4, pc}
 619              		.cfi_endproc
 620              	.LFE397:
 622              		.section	.text._ZN7ForestBD0Ev,"axG",%progbits,_ZN7ForestBD5Ev,comdat
 623              		.align	1
 624              		.weak	_ZN7ForestBD0Ev
 625              		.syntax unified
 626              		.thumb
 627              		.thumb_func
 628              		.fpu fpv4-sp-d16
 630              	_ZN7ForestBD0Ev:
 631              	.LFB406:
 103:Core/Inc/robot/robo_states.h ****         
 632              		.loc 1 103 0
 633              		.cfi_startproc
 634              		@ args = 0, pretend = 0, frame = 0
 635              		@ frame_needed = 0, uses_anonymous_args = 0
ARM GAS  C:\Users\Prashant\AppData\Local\Temp\cc68LIAu.s 			page 23


 636              	.LVL56:
 637 0000 10B5     		push	{r4, lr}
 638              	.LCFI4:
 639              		.cfi_def_cfa_offset 8
 640              		.cfi_offset 4, -8
 641              		.cfi_offset 14, -4
 642 0002 0446     		mov	r4, r0
 103:Core/Inc/robot/robo_states.h ****         
 643              		.loc 1 103 0
 644 0004 1C21     		movs	r1, #28
 645 0006 FFF7FEFF 		bl	_ZdlPvj
 646              	.LVL57:
 647 000a 2046     		mov	r0, r4
 648 000c 10BD     		pop	{r4, pc}
 649              		.cfi_endproc
 650              	.LFE406:
 652              		.section	.text._ZN7ForestCD0Ev,"axG",%progbits,_ZN7ForestCD5Ev,comdat
 653              		.align	1
 654              		.weak	_ZN7ForestCD0Ev
 655              		.syntax unified
 656              		.thumb
 657              		.thumb_func
 658              		.fpu fpv4-sp-d16
 660              	_ZN7ForestCD0Ev:
 661              	.LFB415:
 138:Core/Inc/robot/robo_states.h ****         
 662              		.loc 1 138 0
 663              		.cfi_startproc
 664              		@ args = 0, pretend = 0, frame = 0
 665              		@ frame_needed = 0, uses_anonymous_args = 0
 666              	.LVL58:
 667 0000 10B5     		push	{r4, lr}
 668              	.LCFI5:
 669              		.cfi_def_cfa_offset 8
 670              		.cfi_offset 4, -8
 671              		.cfi_offset 14, -4
 672 0002 0446     		mov	r4, r0
 138:Core/Inc/robot/robo_states.h ****         
 673              		.loc 1 138 0
 674 0004 1C21     		movs	r1, #28
 675 0006 FFF7FEFF 		bl	_ZdlPvj
 676              	.LVL59:
 677 000a 2046     		mov	r0, r4
 678 000c 10BD     		pop	{r4, pc}
 679              		.cfi_endproc
 680              	.LFE415:
 682              		.section	.text._ZN7ForestDD0Ev,"axG",%progbits,_ZN7ForestDD5Ev,comdat
 683              		.align	1
 684              		.weak	_ZN7ForestDD0Ev
 685              		.syntax unified
 686              		.thumb
 687              		.thumb_func
 688              		.fpu fpv4-sp-d16
 690              	_ZN7ForestDD0Ev:
 691              	.LFB424:
 173:Core/Inc/robot/robo_states.h ****         
 692              		.loc 1 173 0
ARM GAS  C:\Users\Prashant\AppData\Local\Temp\cc68LIAu.s 			page 24


 693              		.cfi_startproc
 694              		@ args = 0, pretend = 0, frame = 0
 695              		@ frame_needed = 0, uses_anonymous_args = 0
 696              	.LVL60:
 697 0000 10B5     		push	{r4, lr}
 698              	.LCFI6:
 699              		.cfi_def_cfa_offset 8
 700              		.cfi_offset 4, -8
 701              		.cfi_offset 14, -4
 702 0002 0446     		mov	r4, r0
 173:Core/Inc/robot/robo_states.h ****         
 703              		.loc 1 173 0
 704 0004 1C21     		movs	r1, #28
 705 0006 FFF7FEFF 		bl	_ZdlPvj
 706              	.LVL61:
 707 000a 2046     		mov	r0, r4
 708 000c 10BD     		pop	{r4, pc}
 709              		.cfi_endproc
 710              	.LFE424:
 712              		.section	.text._ZN7ForestED0Ev,"axG",%progbits,_ZN7ForestED5Ev,comdat
 713              		.align	1
 714              		.weak	_ZN7ForestED0Ev
 715              		.syntax unified
 716              		.thumb
 717              		.thumb_func
 718              		.fpu fpv4-sp-d16
 720              	_ZN7ForestED0Ev:
 721              	.LFB433:
 209:Core/Inc/robot/robo_states.h ****         
 722              		.loc 1 209 0
 723              		.cfi_startproc
 724              		@ args = 0, pretend = 0, frame = 0
 725              		@ frame_needed = 0, uses_anonymous_args = 0
 726              	.LVL62:
 727 0000 10B5     		push	{r4, lr}
 728              	.LCFI7:
 729              		.cfi_def_cfa_offset 8
 730              		.cfi_offset 4, -8
 731              		.cfi_offset 14, -4
 732 0002 0446     		mov	r4, r0
 209:Core/Inc/robot/robo_states.h ****         
 733              		.loc 1 209 0
 734 0004 2021     		movs	r1, #32
 735 0006 FFF7FEFF 		bl	_ZdlPvj
 736              	.LVL63:
 737 000a 2046     		mov	r0, r4
 738 000c 10BD     		pop	{r4, pc}
 739              		.cfi_endproc
 740              	.LFE433:
 742              		.section	.text._ZN7ForestFD0Ev,"axG",%progbits,_ZN7ForestFD5Ev,comdat
 743              		.align	1
 744              		.weak	_ZN7ForestFD0Ev
 745              		.syntax unified
 746              		.thumb
 747              		.thumb_func
 748              		.fpu fpv4-sp-d16
 750              	_ZN7ForestFD0Ev:
ARM GAS  C:\Users\Prashant\AppData\Local\Temp\cc68LIAu.s 			page 25


 751              	.LFB442:
 245:Core/Inc/robot/robo_states.h ****         
 752              		.loc 1 245 0
 753              		.cfi_startproc
 754              		@ args = 0, pretend = 0, frame = 0
 755              		@ frame_needed = 0, uses_anonymous_args = 0
 756              	.LVL64:
 757 0000 10B5     		push	{r4, lr}
 758              	.LCFI8:
 759              		.cfi_def_cfa_offset 8
 760              		.cfi_offset 4, -8
 761              		.cfi_offset 14, -4
 762 0002 0446     		mov	r4, r0
 245:Core/Inc/robot/robo_states.h ****         
 763              		.loc 1 245 0
 764 0004 1C21     		movs	r1, #28
 765 0006 FFF7FEFF 		bl	_ZdlPvj
 766              	.LVL65:
 767 000a 2046     		mov	r0, r4
 768 000c 10BD     		pop	{r4, pc}
 769              		.cfi_endproc
 770              	.LFE442:
 772              		.section	.text._ZN7ForestGD0Ev,"axG",%progbits,_ZN7ForestGD5Ev,comdat
 773              		.align	1
 774              		.weak	_ZN7ForestGD0Ev
 775              		.syntax unified
 776              		.thumb
 777              		.thumb_func
 778              		.fpu fpv4-sp-d16
 780              	_ZN7ForestGD0Ev:
 781              	.LFB451:
 294:Core/Inc/robot/robo_states.h ****         
 782              		.loc 1 294 0
 783              		.cfi_startproc
 784              		@ args = 0, pretend = 0, frame = 0
 785              		@ frame_needed = 0, uses_anonymous_args = 0
 786              	.LVL66:
 787 0000 10B5     		push	{r4, lr}
 788              	.LCFI9:
 789              		.cfi_def_cfa_offset 8
 790              		.cfi_offset 4, -8
 791              		.cfi_offset 14, -4
 792 0002 0446     		mov	r4, r0
 294:Core/Inc/robot/robo_states.h ****         
 793              		.loc 1 294 0
 794 0004 1C21     		movs	r1, #28
 795 0006 FFF7FEFF 		bl	_ZdlPvj
 796              	.LVL67:
 797 000a 2046     		mov	r0, r4
 798 000c 10BD     		pop	{r4, pc}
 799              		.cfi_endproc
 800              	.LFE451:
 802              		.section	.text._ZN7ForestHD0Ev,"axG",%progbits,_ZN7ForestHD5Ev,comdat
 803              		.align	1
 804              		.weak	_ZN7ForestHD0Ev
 805              		.syntax unified
 806              		.thumb
ARM GAS  C:\Users\Prashant\AppData\Local\Temp\cc68LIAu.s 			page 26


 807              		.thumb_func
 808              		.fpu fpv4-sp-d16
 810              	_ZN7ForestHD0Ev:
 811              	.LFB460:
 330:Core/Inc/robot/robo_states.h ****         
 812              		.loc 1 330 0
 813              		.cfi_startproc
 814              		@ args = 0, pretend = 0, frame = 0
 815              		@ frame_needed = 0, uses_anonymous_args = 0
 816              	.LVL68:
 817 0000 10B5     		push	{r4, lr}
 818              	.LCFI10:
 819              		.cfi_def_cfa_offset 8
 820              		.cfi_offset 4, -8
 821              		.cfi_offset 14, -4
 822 0002 0446     		mov	r4, r0
 330:Core/Inc/robot/robo_states.h ****         
 823              		.loc 1 330 0
 824 0004 1C21     		movs	r1, #28
 825 0006 FFF7FEFF 		bl	_ZdlPvj
 826              	.LVL69:
 827 000a 2046     		mov	r0, r4
 828 000c 10BD     		pop	{r4, pc}
 829              		.cfi_endproc
 830              	.LFE460:
 832              		.section	.text._ZN7ForestID0Ev,"axG",%progbits,_ZN7ForestID5Ev,comdat
 833              		.align	1
 834              		.weak	_ZN7ForestID0Ev
 835              		.syntax unified
 836              		.thumb
 837              		.thumb_func
 838              		.fpu fpv4-sp-d16
 840              	_ZN7ForestID0Ev:
 841              	.LFB469:
 366:Core/Inc/robot/robo_states.h ****         
 842              		.loc 1 366 0
 843              		.cfi_startproc
 844              		@ args = 0, pretend = 0, frame = 0
 845              		@ frame_needed = 0, uses_anonymous_args = 0
 846              	.LVL70:
 847 0000 10B5     		push	{r4, lr}
 848              	.LCFI11:
 849              		.cfi_def_cfa_offset 8
 850              		.cfi_offset 4, -8
 851              		.cfi_offset 14, -4
 852 0002 0446     		mov	r4, r0
 366:Core/Inc/robot/robo_states.h ****         
 853              		.loc 1 366 0
 854 0004 2021     		movs	r1, #32
 855 0006 FFF7FEFF 		bl	_ZdlPvj
 856              	.LVL71:
 857 000a 2046     		mov	r0, r4
 858 000c 10BD     		pop	{r4, pc}
 859              		.cfi_endproc
 860              	.LFE469:
 862              		.section	.text._ZN7ForestJD0Ev,"axG",%progbits,_ZN7ForestJD5Ev,comdat
 863              		.align	1
ARM GAS  C:\Users\Prashant\AppData\Local\Temp\cc68LIAu.s 			page 27


 864              		.weak	_ZN7ForestJD0Ev
 865              		.syntax unified
 866              		.thumb
 867              		.thumb_func
 868              		.fpu fpv4-sp-d16
 870              	_ZN7ForestJD0Ev:
 871              	.LFB478:
 433:Core/Inc/robot/robo_states.h ****         
 872              		.loc 1 433 0
 873              		.cfi_startproc
 874              		@ args = 0, pretend = 0, frame = 0
 875              		@ frame_needed = 0, uses_anonymous_args = 0
 876              	.LVL72:
 877 0000 10B5     		push	{r4, lr}
 878              	.LCFI12:
 879              		.cfi_def_cfa_offset 8
 880              		.cfi_offset 4, -8
 881              		.cfi_offset 14, -4
 882 0002 0446     		mov	r4, r0
 433:Core/Inc/robot/robo_states.h ****         
 883              		.loc 1 433 0
 884 0004 1C21     		movs	r1, #28
 885 0006 FFF7FEFF 		bl	_ZdlPvj
 886              	.LVL73:
 887 000a 2046     		mov	r0, r4
 888 000c 10BD     		pop	{r4, pc}
 889              		.cfi_endproc
 890              	.LFE478:
 892              		.section	.text._ZN9StopRobotD0Ev,"axG",%progbits,_ZN9StopRobotD5Ev,comdat
 893              		.align	1
 894              		.weak	_ZN9StopRobotD0Ev
 895              		.syntax unified
 896              		.thumb
 897              		.thumb_func
 898              		.fpu fpv4-sp-d16
 900              	_ZN9StopRobotD0Ev:
 901              	.LFB487:
 902              		.loc 1 472 0
 903              		.cfi_startproc
 904              		@ args = 0, pretend = 0, frame = 0
 905              		@ frame_needed = 0, uses_anonymous_args = 0
 906              	.LVL74:
 907 0000 10B5     		push	{r4, lr}
 908              	.LCFI13:
 909              		.cfi_def_cfa_offset 8
 910              		.cfi_offset 4, -8
 911              		.cfi_offset 14, -4
 912 0002 0446     		mov	r4, r0
 913              		.loc 1 472 0
 914 0004 2021     		movs	r1, #32
 915 0006 FFF7FEFF 		bl	_ZdlPvj
 916              	.LVL75:
 917 000a 2046     		mov	r0, r4
 918 000c 10BD     		pop	{r4, pc}
 919              		.cfi_endproc
 920              	.LFE487:
 922              		.section	.text._ZN10Exp_SmoothD0Ev,"axG",%progbits,_ZN10Exp_SmoothD5Ev,comdat
ARM GAS  C:\Users\Prashant\AppData\Local\Temp\cc68LIAu.s 			page 28


 923              		.align	1
 924              		.weak	_ZN10Exp_SmoothD0Ev
 925              		.syntax unified
 926              		.thumb
 927              		.thumb_func
 928              		.fpu fpv4-sp-d16
 930              	_ZN10Exp_SmoothD0Ev:
 931              	.LFB532:
 932              		.loc 2 23 0
 933              		.cfi_startproc
 934              		@ args = 0, pretend = 0, frame = 0
 935              		@ frame_needed = 0, uses_anonymous_args = 0
 936              	.LVL76:
 937 0000 10B5     		push	{r4, lr}
 938              	.LCFI14:
 939              		.cfi_def_cfa_offset 8
 940              		.cfi_offset 4, -8
 941              		.cfi_offset 14, -4
 942 0002 0446     		mov	r4, r0
 943              		.loc 2 23 0
 944 0004 1021     		movs	r1, #16
 945 0006 FFF7FEFF 		bl	_ZdlPvj
 946              	.LVL77:
 947 000a 2046     		mov	r0, r4
 948 000c 10BD     		pop	{r4, pc}
 949              		.cfi_endproc
 950              	.LFE532:
 952              		.section	.text._ZNK4Vec3IfE4getXEv,"axG",%progbits,_ZNK4Vec3IfE4getXEv,comdat
 953              		.align	1
 954              		.weak	_ZNK4Vec3IfE4getXEv
 955              		.syntax unified
 956              		.thumb
 957              		.thumb_func
 958              		.fpu fpv4-sp-d16
 960              	_ZNK4Vec3IfE4getXEv:
 961              	.LFB623:
 962              		.file 4 "Core/Inc/utils/vec3.h"
   1:Core/Inc/utils/vec3.h **** /*
   2:Core/Inc/utils/vec3.h ****  * vec3.h
   3:Core/Inc/utils/vec3.h ****  * 
   4:Core/Inc/utils/vec3.h ****  * Created : 11/9/2018
   5:Core/Inc/utils/vec3.h ****  *  Author : n-is
   6:Core/Inc/utils/vec3.h ****  *   email : 073bex422.nischal@pcampus.edu.np
   7:Core/Inc/utils/vec3.h ****  */
   8:Core/Inc/utils/vec3.h **** 
   9:Core/Inc/utils/vec3.h **** #ifndef _VEC3_H_
  10:Core/Inc/utils/vec3.h **** #define _VEC3_H_
  11:Core/Inc/utils/vec3.h **** 
  12:Core/Inc/utils/vec3.h **** #include "stm32f4xx_hal.h"
  13:Core/Inc/utils/vec3.h **** 
  14:Core/Inc/utils/vec3.h **** template <typename T>
  15:Core/Inc/utils/vec3.h **** void swap_Element(T &first, T &second)
  16:Core/Inc/utils/vec3.h **** {
  17:Core/Inc/utils/vec3.h ****         T temp = first;
  18:Core/Inc/utils/vec3.h ****         first = second;
  19:Core/Inc/utils/vec3.h ****         second = temp;
  20:Core/Inc/utils/vec3.h **** }
ARM GAS  C:\Users\Prashant\AppData\Local\Temp\cc68LIAu.s 			page 29


  21:Core/Inc/utils/vec3.h **** 
  22:Core/Inc/utils/vec3.h **** template <class T>
  23:Core/Inc/utils/vec3.h **** class Vec3
  24:Core/Inc/utils/vec3.h **** {
  25:Core/Inc/utils/vec3.h **** public:
  26:Core/Inc/utils/vec3.h ****         Vec3() { set_Values(0,0,0); }
  27:Core/Inc/utils/vec3.h ****         Vec3(T x, T y, T z) { set_Values(x,y,z); }
  28:Core/Inc/utils/vec3.h ****         Vec3(Vec3 &&) = default;
  29:Core/Inc/utils/vec3.h ****         Vec3 &operator=(Vec3 &&) = default;
  30:Core/Inc/utils/vec3.h ****         ~Vec3();
  31:Core/Inc/utils/vec3.h **** 
  32:Core/Inc/utils/vec3.h ****         void set_Values(T x, T y, T z);
  33:Core/Inc/utils/vec3.h ****         T getX() const;
  34:Core/Inc/utils/vec3.h ****         T getY() const;
  35:Core/Inc/utils/vec3.h ****         T getZ() const;
  36:Core/Inc/utils/vec3.h ****         void setX(T x) { x_ = x; }
  37:Core/Inc/utils/vec3.h ****         void setY(T y) { y_ = y; }
  38:Core/Inc/utils/vec3.h ****         void setZ(T z) { z_ = z; }
  39:Core/Inc/utils/vec3.h **** 
  40:Core/Inc/utils/vec3.h ****         template <typename T1, typename T2>
  41:Core/Inc/utils/vec3.h ****         void divide(const Vec3<T1> &v, T2 num) {
  42:Core/Inc/utils/vec3.h ****                 x_ = v.getX() / num;
  43:Core/Inc/utils/vec3.h ****                 y_ = v.getY() / num;
  44:Core/Inc/utils/vec3.h ****                 z_ = v.getZ() / num;
  45:Core/Inc/utils/vec3.h ****         }
  46:Core/Inc/utils/vec3.h **** 
  47:Core/Inc/utils/vec3.h ****         Vec3 mult_EW(float num) {
  48:Core/Inc/utils/vec3.h ****                 Vec3 temp(*this);
  49:Core/Inc/utils/vec3.h ****                 temp.x_ *= num;
  50:Core/Inc/utils/vec3.h ****                 temp.y_ *= num;
  51:Core/Inc/utils/vec3.h ****                 temp.z_ *= num;
  52:Core/Inc/utils/vec3.h **** 
  53:Core/Inc/utils/vec3.h ****                 return temp;
  54:Core/Inc/utils/vec3.h ****         }
  55:Core/Inc/utils/vec3.h **** 
  56:Core/Inc/utils/vec3.h ****         Vec3 add_EW(float num) {
  57:Core/Inc/utils/vec3.h ****                 Vec3 temp(*this);
  58:Core/Inc/utils/vec3.h ****                 temp.x_ += num;
  59:Core/Inc/utils/vec3.h ****                 temp.y_ += num;
  60:Core/Inc/utils/vec3.h ****                 temp.z_ += num;
  61:Core/Inc/utils/vec3.h **** 
  62:Core/Inc/utils/vec3.h ****                 return temp;
  63:Core/Inc/utils/vec3.h ****         }
  64:Core/Inc/utils/vec3.h **** 
  65:Core/Inc/utils/vec3.h ****         Vec3 sub_EW(float num) {
  66:Core/Inc/utils/vec3.h ****                 Vec3 temp(*this);
  67:Core/Inc/utils/vec3.h ****                 temp.x_ -= num;
  68:Core/Inc/utils/vec3.h ****                 temp.y_ -= num;
  69:Core/Inc/utils/vec3.h ****                 temp.z_ -= num;
  70:Core/Inc/utils/vec3.h **** 
  71:Core/Inc/utils/vec3.h ****                 return temp;
  72:Core/Inc/utils/vec3.h ****         }
  73:Core/Inc/utils/vec3.h **** 
  74:Core/Inc/utils/vec3.h ****         template <typename T1>
  75:Core/Inc/utils/vec3.h ****         Vec3 div_EW(Vec3<T1> v) {
  76:Core/Inc/utils/vec3.h ****                 Vec3 temp(*this);
  77:Core/Inc/utils/vec3.h ****                 temp.x_ /= (float)v.x_;
ARM GAS  C:\Users\Prashant\AppData\Local\Temp\cc68LIAu.s 			page 30


  78:Core/Inc/utils/vec3.h ****                 temp.y_ /= (float)v.y_;
  79:Core/Inc/utils/vec3.h ****                 temp.z_ /= (float)v.z_;
  80:Core/Inc/utils/vec3.h **** 
  81:Core/Inc/utils/vec3.h ****                 return temp;
  82:Core/Inc/utils/vec3.h ****         }
  83:Core/Inc/utils/vec3.h **** 
  84:Core/Inc/utils/vec3.h ****         template <typename T1>
  85:Core/Inc/utils/vec3.h ****         Vec3 mult_EW(Vec3<T1> v) {
  86:Core/Inc/utils/vec3.h ****                 Vec3 temp(v);
  87:Core/Inc/utils/vec3.h ****                 temp.x_ *= x_;
  88:Core/Inc/utils/vec3.h ****                 temp.y_ *= y_;
  89:Core/Inc/utils/vec3.h ****                 temp.z_ *= z_;
  90:Core/Inc/utils/vec3.h **** 
  91:Core/Inc/utils/vec3.h ****                 return temp;
  92:Core/Inc/utils/vec3.h ****         }
  93:Core/Inc/utils/vec3.h **** 
  94:Core/Inc/utils/vec3.h ****         friend void swap(Vec3 &first, Vec3 &second) {
  95:Core/Inc/utils/vec3.h ****                 swap_Element(first.x_, second.x_);
  96:Core/Inc/utils/vec3.h ****                 swap_Element(first.y_, second.y_);
  97:Core/Inc/utils/vec3.h ****                 swap_Element(first.z_, second.z_);
  98:Core/Inc/utils/vec3.h ****         }
  99:Core/Inc/utils/vec3.h ****         
 100:Core/Inc/utils/vec3.h ****         Vec3(const Vec3 &v) {
 101:Core/Inc/utils/vec3.h ****                 x_ = v.x_;
 102:Core/Inc/utils/vec3.h ****                 y_ = v.y_;
 103:Core/Inc/utils/vec3.h ****                 z_ = v.z_;
 104:Core/Inc/utils/vec3.h ****         }
 105:Core/Inc/utils/vec3.h ****         
 106:Core/Inc/utils/vec3.h ****         Vec3 &operator=(const Vec3 &v) {
 107:Core/Inc/utils/vec3.h ****                 Vec3 temp(v);
 108:Core/Inc/utils/vec3.h ****                 swap(*this, temp);
 109:Core/Inc/utils/vec3.h **** 
 110:Core/Inc/utils/vec3.h ****                 return *this;
 111:Core/Inc/utils/vec3.h ****         }
 112:Core/Inc/utils/vec3.h **** 
 113:Core/Inc/utils/vec3.h ****         Vec3 &operator+=(const Vec3 &rhs) {
 114:Core/Inc/utils/vec3.h ****                 x_ += rhs.x_;
 115:Core/Inc/utils/vec3.h ****                 y_ += rhs.y_;
 116:Core/Inc/utils/vec3.h ****                 z_ += rhs.z_;
 117:Core/Inc/utils/vec3.h **** 
 118:Core/Inc/utils/vec3.h ****                 return *this;
 119:Core/Inc/utils/vec3.h ****         }
 120:Core/Inc/utils/vec3.h ****         
 121:Core/Inc/utils/vec3.h ****         Vec3 &operator-=(const Vec3 &rhs) {
 122:Core/Inc/utils/vec3.h ****                 x_ -= rhs.x_;
 123:Core/Inc/utils/vec3.h ****                 y_ -= rhs.y_;
 124:Core/Inc/utils/vec3.h ****                 z_ -= rhs.z_;
 125:Core/Inc/utils/vec3.h **** 
 126:Core/Inc/utils/vec3.h ****                 return *this;
 127:Core/Inc/utils/vec3.h ****         }
 128:Core/Inc/utils/vec3.h **** 
 129:Core/Inc/utils/vec3.h ****         friend Vec3 operator+(Vec3 lhs, const Vec3 &rhs) {
 130:Core/Inc/utils/vec3.h ****                 lhs += rhs;
 131:Core/Inc/utils/vec3.h ****                 return lhs;
 132:Core/Inc/utils/vec3.h ****         }
 133:Core/Inc/utils/vec3.h **** 
 134:Core/Inc/utils/vec3.h ****         friend Vec3 operator-(Vec3 lhs, const Vec3 &rhs) {
ARM GAS  C:\Users\Prashant\AppData\Local\Temp\cc68LIAu.s 			page 31


 135:Core/Inc/utils/vec3.h ****                 lhs -= rhs;
 136:Core/Inc/utils/vec3.h ****                 return lhs;
 137:Core/Inc/utils/vec3.h ****         }
 138:Core/Inc/utils/vec3.h **** 
 139:Core/Inc/utils/vec3.h ****         void print() const {
 140:Core/Inc/utils/vec3.h ****                 printf("%ld, %ld, %ld", (int32_t)x_, (int32_t)y_, (int32_t)z_);
 141:Core/Inc/utils/vec3.h ****         }
 142:Core/Inc/utils/vec3.h **** 
 143:Core/Inc/utils/vec3.h **** private:
 144:Core/Inc/utils/vec3.h ****         T x_,y_,z_;
 145:Core/Inc/utils/vec3.h **** };
 146:Core/Inc/utils/vec3.h **** 
 147:Core/Inc/utils/vec3.h **** template <class T>
 148:Core/Inc/utils/vec3.h **** Vec3<T>::~Vec3()
 149:Core/Inc/utils/vec3.h **** {
 150:Core/Inc/utils/vec3.h **** }
 151:Core/Inc/utils/vec3.h **** 
 152:Core/Inc/utils/vec3.h **** template <class T>
 153:Core/Inc/utils/vec3.h **** void Vec3<T>::set_Values(T x, T y, T z)
 154:Core/Inc/utils/vec3.h **** {
 155:Core/Inc/utils/vec3.h ****         x_ = x;
 156:Core/Inc/utils/vec3.h ****         y_ = y;
 157:Core/Inc/utils/vec3.h ****         z_ = z;
 158:Core/Inc/utils/vec3.h **** }
 159:Core/Inc/utils/vec3.h **** 
 160:Core/Inc/utils/vec3.h **** template <class T>
 161:Core/Inc/utils/vec3.h **** T Vec3<T>::getX() const { return x_;}
 963              		.loc 4 161 0
 964              		.cfi_startproc
 965              		@ args = 0, pretend = 0, frame = 0
 966              		@ frame_needed = 0, uses_anonymous_args = 0
 967              		@ link register save eliminated.
 968              	.LVL78:
 969              		.loc 4 161 0
 970 0000 90ED000A 		vldr.32	s0, [r0]
 971 0004 7047     		bx	lr
 972              		.cfi_endproc
 973              	.LFE623:
 975              		.section	.text._ZNK4Vec3IfE4getYEv,"axG",%progbits,_ZNK4Vec3IfE4getYEv,comdat
 976              		.align	1
 977              		.weak	_ZNK4Vec3IfE4getYEv
 978              		.syntax unified
 979              		.thumb
 980              		.thumb_func
 981              		.fpu fpv4-sp-d16
 983              	_ZNK4Vec3IfE4getYEv:
 984              	.LFB624:
 162:Core/Inc/utils/vec3.h **** 
 163:Core/Inc/utils/vec3.h **** template <class T>
 164:Core/Inc/utils/vec3.h **** T Vec3<T>::getY() const { return y_;}
 985              		.loc 4 164 0
 986              		.cfi_startproc
 987              		@ args = 0, pretend = 0, frame = 0
 988              		@ frame_needed = 0, uses_anonymous_args = 0
 989              		@ link register save eliminated.
 990              	.LVL79:
 991              		.loc 4 164 0
ARM GAS  C:\Users\Prashant\AppData\Local\Temp\cc68LIAu.s 			page 32


 992 0000 90ED010A 		vldr.32	s0, [r0, #4]
 993 0004 7047     		bx	lr
 994              		.cfi_endproc
 995              	.LFE624:
 997              		.section	.text._ZN4Vec3IfED2Ev,"axG",%progbits,_ZN4Vec3IfED5Ev,comdat
 998              		.align	1
 999              		.weak	_ZN4Vec3IfED2Ev
 1000              		.syntax unified
 1001              		.thumb
 1002              		.thumb_func
 1003              		.fpu fpv4-sp-d16
 1005              	_ZN4Vec3IfED2Ev:
 1006              	.LFB628:
 148:Core/Inc/utils/vec3.h **** {
 1007              		.loc 4 148 0
 1008              		.cfi_startproc
 1009              		@ args = 0, pretend = 0, frame = 0
 1010              		@ frame_needed = 0, uses_anonymous_args = 0
 1011              		@ link register save eliminated.
 1012              	.LVL80:
 150:Core/Inc/utils/vec3.h **** 
 1013              		.loc 4 150 0
 1014 0000 7047     		bx	lr
 1015              		.cfi_endproc
 1016              	.LFE628:
 1018              		.weak	_ZN4Vec3IfED1Ev
 1019              		.thumb_set _ZN4Vec3IfED1Ev,_ZN4Vec3IfED2Ev
 1020              		.section	.text._ZNK4Vec3IfE4getZEv,"axG",%progbits,_ZNK4Vec3IfE4getZEv,comdat
 1021              		.align	1
 1022              		.weak	_ZNK4Vec3IfE4getZEv
 1023              		.syntax unified
 1024              		.thumb
 1025              		.thumb_func
 1026              		.fpu fpv4-sp-d16
 1028              	_ZNK4Vec3IfE4getZEv:
 1029              	.LFB630:
 165:Core/Inc/utils/vec3.h **** 
 166:Core/Inc/utils/vec3.h **** template <class T>
 167:Core/Inc/utils/vec3.h **** T Vec3<T>::getZ() const { return z_;}
 1030              		.loc 4 167 0
 1031              		.cfi_startproc
 1032              		@ args = 0, pretend = 0, frame = 0
 1033              		@ frame_needed = 0, uses_anonymous_args = 0
 1034              		@ link register save eliminated.
 1035              	.LVL81:
 1036              		.loc 4 167 0
 1037 0000 90ED020A 		vldr.32	s0, [r0, #8]
 1038 0004 7047     		bx	lr
 1039              		.cfi_endproc
 1040              	.LFE630:
 1042              		.section	.text._ZN4Vec3IfE10set_ValuesEfff,"axG",%progbits,_ZN4Vec3IfE10set_ValuesEfff,comdat
 1043              		.align	1
 1044              		.weak	_ZN4Vec3IfE10set_ValuesEfff
 1045              		.syntax unified
 1046              		.thumb
 1047              		.thumb_func
 1048              		.fpu fpv4-sp-d16
ARM GAS  C:\Users\Prashant\AppData\Local\Temp\cc68LIAu.s 			page 33


 1050              	_ZN4Vec3IfE10set_ValuesEfff:
 1051              	.LFB640:
 153:Core/Inc/utils/vec3.h **** {
 1052              		.loc 4 153 0
 1053              		.cfi_startproc
 1054              		@ args = 0, pretend = 0, frame = 0
 1055              		@ frame_needed = 0, uses_anonymous_args = 0
 1056              		@ link register save eliminated.
 1057              	.LVL82:
 155:Core/Inc/utils/vec3.h ****         y_ = y;
 1058              		.loc 4 155 0
 1059 0000 80ED000A 		vstr.32	s0, [r0]
 156:Core/Inc/utils/vec3.h ****         z_ = z;
 1060              		.loc 4 156 0
 1061 0004 C0ED010A 		vstr.32	s1, [r0, #4]
 157:Core/Inc/utils/vec3.h **** }
 1062              		.loc 4 157 0
 1063 0008 80ED021A 		vstr.32	s2, [r0, #8]
 158:Core/Inc/utils/vec3.h **** 
 1064              		.loc 4 158 0
 1065 000c 7047     		bx	lr
 1066              		.cfi_endproc
 1067              	.LFE640:
 1069              		.global	__aeabi_f2d
 1070              		.global	__aeabi_dmul
 1071              		.global	__aeabi_d2f
 1072              		.global	__aeabi_ddiv
 1073              		.section	.text._ZL16read_Orientationm,"ax",%progbits
 1074              		.align	1
 1075              		.syntax unified
 1076              		.thumb
 1077              		.thumb_func
 1078              		.fpu fpv4-sp-d16
 1080              	_ZL16read_Orientationm:
 1081              	.LFB622:
  85:Core/Src/robot/robot.cpp ****         MPU6050_Read_NormAxes(&Body_IMU);
 1082              		.loc 3 85 0
 1083              		.cfi_startproc
 1084              		@ args = 0, pretend = 0, frame = 88
 1085              		@ frame_needed = 0, uses_anonymous_args = 0
 1086              	.LVL83:
 1087 0000 F0B5     		push	{r4, r5, r6, r7, lr}
 1088              	.LCFI15:
 1089              		.cfi_def_cfa_offset 20
 1090              		.cfi_offset 4, -20
 1091              		.cfi_offset 5, -16
 1092              		.cfi_offset 6, -12
 1093              		.cfi_offset 7, -8
 1094              		.cfi_offset 14, -4
 1095 0002 2DED0E8B 		vpush.64	{d8, d9, d10, d11, d12, d13, d14}
 1096              	.LCFI16:
 1097              		.cfi_def_cfa_offset 76
 1098              		.cfi_offset 80, -76
 1099              		.cfi_offset 81, -72
 1100              		.cfi_offset 82, -68
 1101              		.cfi_offset 83, -64
 1102              		.cfi_offset 84, -60
ARM GAS  C:\Users\Prashant\AppData\Local\Temp\cc68LIAu.s 			page 34


 1103              		.cfi_offset 85, -56
 1104              		.cfi_offset 86, -52
 1105              		.cfi_offset 87, -48
 1106              		.cfi_offset 88, -44
 1107              		.cfi_offset 89, -40
 1108              		.cfi_offset 90, -36
 1109              		.cfi_offset 91, -32
 1110              		.cfi_offset 92, -28
 1111              		.cfi_offset 93, -24
 1112 0006 97B0     		sub	sp, sp, #92
 1113              	.LCFI17:
 1114              		.cfi_def_cfa_offset 168
 1115 0008 0746     		mov	r7, r0
 1116 000a 0E46     		mov	r6, r1
  86:Core/Src/robot/robot.cpp ****         HMC5883_Read(&Body_HMC);
 1117              		.loc 3 86 0
 1118 000c AC4C     		ldr	r4, .L53+8
 1119 000e 2046     		mov	r0, r4
 1120              	.LVL84:
 1121 0010 FFF7FEFF 		bl	_Z21MPU6050_Read_NormAxesP7MPU6050
 1122              	.LVL85:
  87:Core/Src/robot/robot.cpp **** 
 1123              		.loc 3 87 0
 1124 0014 AB4D     		ldr	r5, .L53+12
 1125 0016 2846     		mov	r0, r5
 1126 0018 FFF7FEFF 		bl	_Z12HMC5883_ReadP7HMC5883
 1127              	.LVL86:
 1128              	.LBB143:
 1129              	.LBB144:
 1130              	.LBB145:
 101:Core/Inc/utils/vec3.h ****                 y_ = v.y_;
 1131              		.loc 4 101 0
 1132 001c E369     		ldr	r3, [r4, #28]	@ float
 1133 001e 0793     		str	r3, [sp, #28]	@ float
 102:Core/Inc/utils/vec3.h ****                 z_ = v.z_;
 1134              		.loc 4 102 0
 1135 0020 236A     		ldr	r3, [r4, #32]	@ float
 1136 0022 0893     		str	r3, [sp, #32]	@ float
 103:Core/Inc/utils/vec3.h ****         }
 1137              		.loc 4 103 0
 1138 0024 636A     		ldr	r3, [r4, #36]	@ float
 1139 0026 0993     		str	r3, [sp, #36]	@ float
 1140              	.LVL87:
 1141              	.LBE145:
 1142              	.LBE144:
 1143              	.LBE143:
 1144              	.LBB146:
 1145              	.LBB147:
 1146              	.LBB148:
 101:Core/Inc/utils/vec3.h ****                 y_ = v.y_;
 1147              		.loc 4 101 0
 1148 0028 D4ED046A 		vldr.32	s13, [r4, #16]
 102:Core/Inc/utils/vec3.h ****                 z_ = v.z_;
 1149              		.loc 4 102 0
 1150 002c 94ED057A 		vldr.32	s14, [r4, #20]
 103:Core/Inc/utils/vec3.h ****         }
 1151              		.loc 4 103 0
ARM GAS  C:\Users\Prashant\AppData\Local\Temp\cc68LIAu.s 			page 35


 1152 0030 D4ED067A 		vldr.32	s15, [r4, #24]
 1153              	.LVL88:
 1154              	.LBE148:
 1155              	.LBE147:
 1156              	.LBE146:
 1157              	.LBB149:
 1158              	.LBB150:
 1159              	.LBB151:
 1160              	.LBB152:
 122:Core/Inc/utils/vec3.h ****                 y_ -= rhs.y_;
 1161              		.loc 4 122 0
 1162 0034 A44B     		ldr	r3, .L53+16
 1163 0036 93ED006A 		vldr.32	s12, [r3]
 1164 003a 76EEC66A 		vsub.f32	s13, s13, s12
 1165 003e CDED0A6A 		vstr.32	s13, [sp, #40]
 123:Core/Inc/utils/vec3.h ****                 z_ -= rhs.z_;
 1166              		.loc 4 123 0
 1167 0042 D3ED016A 		vldr.32	s13, [r3, #4]
 1168 0046 37EE667A 		vsub.f32	s14, s14, s13
 1169 004a 8DED0B7A 		vstr.32	s14, [sp, #44]
 124:Core/Inc/utils/vec3.h **** 
 1170              		.loc 4 124 0
 1171 004e 93ED027A 		vldr.32	s14, [r3, #8]
 1172 0052 77EEC77A 		vsub.f32	s15, s15, s14
 1173 0056 CDED0C7A 		vstr.32	s15, [sp, #48]
 1174              	.LVL89:
 1175              	.LBE152:
 1176              	.LBE151:
 136:Core/Inc/utils/vec3.h ****         }
 1177              		.loc 4 136 0
 1178 005a 04AC     		add	r4, sp, #16
 1179 005c 0AAB     		add	r3, sp, #40
 1180              	.LVL90:
 1181 005e 93E80700 		ldm	r3, {r0, r1, r2}
 1182 0062 84E80700 		stm	r4, {r0, r1, r2}
 1183              	.LVL91:
 1184              	.LBE150:
 1185              	.LBE149:
 1186              	.LBB153:
 1187              	.LBB154:
 1188              	.LBB155:
 101:Core/Inc/utils/vec3.h ****                 y_ = v.y_;
 1189              		.loc 4 101 0
 1190 0066 6B68     		ldr	r3, [r5, #4]	@ float
 1191 0068 0193     		str	r3, [sp, #4]	@ float
 102:Core/Inc/utils/vec3.h ****                 z_ = v.z_;
 1192              		.loc 4 102 0
 1193 006a AB68     		ldr	r3, [r5, #8]	@ float
 1194 006c 0293     		str	r3, [sp, #8]	@ float
 103:Core/Inc/utils/vec3.h ****         }
 1195              		.loc 4 103 0
 1196 006e EB68     		ldr	r3, [r5, #12]	@ float
 1197 0070 0393     		str	r3, [sp, #12]	@ float
 1198              	.LVL92:
 1199              	.LBE155:
 1200              	.LBE154:
 1201              	.LBE153:
ARM GAS  C:\Users\Prashant\AppData\Local\Temp\cc68LIAu.s 			page 36


  94:Core/Src/robot/robot.cpp ****         float ay = gYAccelAlpha35.smooth(accel.getY());
 1202              		.loc 3 94 0
 1203 0072 07A8     		add	r0, sp, #28
 1204 0074 FFF7FEFF 		bl	_ZNK4Vec3IfE4getXEv
 1205              	.LVL93:
 1206 0078 0DA9     		add	r1, sp, #52
 1207 007a 81ED000A 		vstr.32	s0, [r1]
 1208 007e 9348     		ldr	r0, .L53+20
 1209 0080 FFF7FEFF 		bl	_ZN10Exp_Smooth6smoothERKf
 1210              	.LVL94:
 1211 0084 B0EE40EA 		vmov.f32	s28, s0
 1212              	.LVL95:
  95:Core/Src/robot/robot.cpp ****         float az = gZAccelAlpha35.smooth(accel.getZ());
 1213              		.loc 3 95 0
 1214 0088 07A8     		add	r0, sp, #28
 1215 008a FFF7FEFF 		bl	_ZNK4Vec3IfE4getYEv
 1216              	.LVL96:
 1217 008e 0EA9     		add	r1, sp, #56
 1218 0090 81ED000A 		vstr.32	s0, [r1]
 1219 0094 8E48     		ldr	r0, .L53+24
 1220 0096 FFF7FEFF 		bl	_ZN10Exp_Smooth6smoothERKf
 1221              	.LVL97:
 1222 009a B0EE40CA 		vmov.f32	s24, s0
 1223              	.LVL98:
  96:Core/Src/robot/robot.cpp ****         
 1224              		.loc 3 96 0
 1225 009e 07A8     		add	r0, sp, #28
 1226 00a0 FFF7FEFF 		bl	_ZNK4Vec3IfE4getZEv
 1227              	.LVL99:
 1228 00a4 0FA9     		add	r1, sp, #60
 1229 00a6 81ED000A 		vstr.32	s0, [r1]
 1230 00aa 8A48     		ldr	r0, .L53+28
 1231 00ac FFF7FEFF 		bl	_ZN10Exp_Smooth6smoothERKf
 1232              	.LVL100:
 1233 00b0 F0EE409A 		vmov.f32	s19, s0
 1234              	.LVL101:
  98:Core/Src/robot/robot.cpp ****         float gy = gYGyroAlpha35.smooth(gyro.getY());
 1235              		.loc 3 98 0
 1236 00b4 2046     		mov	r0, r4
 1237 00b6 FFF7FEFF 		bl	_ZNK4Vec3IfE4getXEv
 1238              	.LVL102:
 1239 00ba 10A9     		add	r1, sp, #64
 1240 00bc 81ED000A 		vstr.32	s0, [r1]
 1241 00c0 8548     		ldr	r0, .L53+32
 1242 00c2 FFF7FEFF 		bl	_ZN10Exp_Smooth6smoothERKf
 1243              	.LVL103:
 1244 00c6 B0EE40AA 		vmov.f32	s20, s0
 1245              	.LVL104:
  99:Core/Src/robot/robot.cpp ****         float gz = gZGyroAlpha35.smooth(gyro.getZ());
 1246              		.loc 3 99 0
 1247 00ca 2046     		mov	r0, r4
 1248 00cc FFF7FEFF 		bl	_ZNK4Vec3IfE4getYEv
 1249              	.LVL105:
 1250 00d0 11A9     		add	r1, sp, #68
 1251 00d2 81ED000A 		vstr.32	s0, [r1]
 1252 00d6 8148     		ldr	r0, .L53+36
 1253 00d8 FFF7FEFF 		bl	_ZN10Exp_Smooth6smoothERKf
ARM GAS  C:\Users\Prashant\AppData\Local\Temp\cc68LIAu.s 			page 37


 1254              	.LVL106:
 1255 00dc F0EE40DA 		vmov.f32	s27, s0
 1256              	.LVL107:
 100:Core/Src/robot/robot.cpp **** 
 1257              		.loc 3 100 0
 1258 00e0 2046     		mov	r0, r4
 1259 00e2 FFF7FEFF 		bl	_ZNK4Vec3IfE4getZEv
 1260              	.LVL108:
 1261 00e6 12A9     		add	r1, sp, #72
 1262 00e8 81ED000A 		vstr.32	s0, [r1]
 1263 00ec 7C48     		ldr	r0, .L53+40
 1264 00ee FFF7FEFF 		bl	_ZN10Exp_Smooth6smoothERKf
 1265              	.LVL109:
 1266 00f2 F0EE40BA 		vmov.f32	s23, s0
 1267              	.LVL110:
 102:Core/Src/robot/robot.cpp ****         float by = gYMagAlpha35.smooth(mag.getY());
 1268              		.loc 3 102 0
 1269 00f6 01A8     		add	r0, sp, #4
 1270 00f8 FFF7FEFF 		bl	_ZNK4Vec3IfE4getXEv
 1271              	.LVL111:
 1272 00fc 13A9     		add	r1, sp, #76
 1273 00fe 81ED000A 		vstr.32	s0, [r1]
 1274 0102 7848     		ldr	r0, .L53+44
 1275 0104 FFF7FEFF 		bl	_ZN10Exp_Smooth6smoothERKf
 1276              	.LVL112:
 1277 0108 B0EE409A 		vmov.f32	s18, s0
 1278              	.LVL113:
 103:Core/Src/robot/robot.cpp ****         float bz = gZMagAlpha35.smooth(mag.getZ());
 1279              		.loc 3 103 0
 1280 010c 01A8     		add	r0, sp, #4
 1281 010e FFF7FEFF 		bl	_ZNK4Vec3IfE4getYEv
 1282              	.LVL114:
 1283 0112 14A9     		add	r1, sp, #80
 1284 0114 81ED000A 		vstr.32	s0, [r1]
 1285 0118 7348     		ldr	r0, .L53+48
 1286 011a FFF7FEFF 		bl	_ZN10Exp_Smooth6smoothERKf
 1287              	.LVL115:
 1288 011e F0EE408A 		vmov.f32	s17, s0
 1289              	.LVL116:
 104:Core/Src/robot/robot.cpp ****         
 1290              		.loc 3 104 0
 1291 0122 01A8     		add	r0, sp, #4
 1292 0124 FFF7FEFF 		bl	_ZNK4Vec3IfE4getZEv
 1293              	.LVL117:
 1294 0128 16A9     		add	r1, sp, #88
 1295 012a 21ED010A 		vstmdb.32	r1!, {s0}
 1296 012e 6F48     		ldr	r0, .L53+52
 1297 0130 FFF7FEFF 		bl	_ZN10Exp_Smooth6smoothERKf
 1298              	.LVL118:
 1299 0134 B0EE408A 		vmov.f32	s16, s0
 1300              	.LVL119:
 106:Core/Src/robot/robot.cpp **** 
 1301              		.loc 3 106 0
 1302 0138 F0EE690A 		vmov.f32	s1, s19
 1303 013c B0EE4C0A 		vmov.f32	s0, s24
 1304              	.LVL120:
 1305 0140 FFF7FEFF 		bl	atan2f
ARM GAS  C:\Users\Prashant\AppData\Local\Temp\cc68LIAu.s 			page 38


 1306              	.LVL121:
 1307 0144 10EE100A 		vmov	r0, s0
 1308 0148 FFF7FEFF 		bl	__aeabi_f2d
 1309              	.LVL122:
 1310 014c 5AA3     		adr	r3, .L53
 1311 014e D3E90023 		ldrd	r2, [r3]
 1312 0152 FFF7FEFF 		bl	__aeabi_dmul
 1313              	.LVL123:
 1314 0156 FFF7FEFF 		bl	__aeabi_d2f
 1315              	.LVL124:
 1316              	.LBB156:
 1317              	.LBB157:
 1318              		.file 5 "Core/Inc/utils/filter.h"
   1:Core/Inc/utils/filter.h **** /*
   2:Core/Inc/utils/filter.h ****  * filter.h
   3:Core/Inc/utils/filter.h ****  * 
   4:Core/Inc/utils/filter.h ****  * Created : 11/9/2018
   5:Core/Inc/utils/filter.h ****  *  Author : n-is
   6:Core/Inc/utils/filter.h ****  *   email : 073bex422.nischal@pcampus.edu.np
   7:Core/Inc/utils/filter.h ****  */
   8:Core/Inc/utils/filter.h **** 
   9:Core/Inc/utils/filter.h **** #ifndef _FILTER_H_
  10:Core/Inc/utils/filter.h **** #define _FILTER_H_
  11:Core/Inc/utils/filter.h **** 
  12:Core/Inc/utils/filter.h **** #include "filter_algorithm.h"
  13:Core/Inc/utils/filter.h **** 
  14:Core/Inc/utils/filter.h **** class Filter
  15:Core/Inc/utils/filter.h **** {
  16:Core/Inc/utils/filter.h **** public:
  17:Core/Inc/utils/filter.h ****         Filter() { algo_ = 0; }
  18:Core/Inc/utils/filter.h **** 
  19:Core/Inc/utils/filter.h ****         Filter(Filter_Algorithm *filt_algo) { set_Algorithm(filt_algo); }
  20:Core/Inc/utils/filter.h **** 
  21:Core/Inc/utils/filter.h ****         Filter(Filter &&) = default;
  22:Core/Inc/utils/filter.h ****         Filter(const Filter &) = default;
  23:Core/Inc/utils/filter.h ****         Filter &operator=(Filter &&) = default;
  24:Core/Inc/utils/filter.h ****         Filter &operator=(const Filter &) = default;
  25:Core/Inc/utils/filter.h ****         ~Filter() { }
  26:Core/Inc/utils/filter.h **** 
  27:Core/Inc/utils/filter.h ****         void set_Algorithm(Filter_Algorithm *filt_algo) { algo_ = filt_algo; }
 1319              		.loc 5 27 0
 1320 015a 654C     		ldr	r4, .L53+56
 1321 015c 654B     		ldr	r3, .L53+60
 1322 015e 2360     		str	r3, [r4]
 1323              	.LVL125:
 1324              	.LBE157:
 1325              	.LBE156:
 1326              	.LBB158:
 1327              	.LBB159:
  28:Core/Inc/utils/filter.h ****         float filter(float low_pass, float rate, uint32_t dt_millis) {
  29:Core/Inc/utils/filter.h ****                 return algo_->filter(low_pass, rate, dt_millis);
 1328              		.loc 5 29 0
 1329 0160 1A68     		ldr	r2, [r3]
 1330 0162 1268     		ldr	r2, [r2]
 1331 0164 3146     		mov	r1, r6
 1332 0166 F0EE4A0A 		vmov.f32	s1, s20
 1333 016a 00EE100A 		vmov	s0, r0
ARM GAS  C:\Users\Prashant\AppData\Local\Temp\cc68LIAu.s 			page 39


 1334 016e 1846     		mov	r0, r3
 1335              	.LVL126:
 1336 0170 9047     		blx	r2
 1337              	.LVL127:
 1338 0172 B0EE40BA 		vmov.f32	s22, s0
 1339              	.LVL128:
 1340              	.LBE159:
 1341              	.LBE158:
 111:Core/Src/robot/robot.cpp ****         float cos_roll = cos(roll / 57.3);
 1342              		.loc 3 111 0
 1343 0176 10EE100A 		vmov	r0, s0
 1344 017a FFF7FEFF 		bl	__aeabi_f2d
 1345              	.LVL129:
 1346 017e 4EA3     		adr	r3, .L53
 1347 0180 D3E90023 		ldrd	r2, [r3]
 1348 0184 FFF7FEFF 		bl	__aeabi_ddiv
 1349              	.LVL130:
 1350 0188 41EC1A0B 		vmov	d10, r0, r1
 1351              	.LVL131:
 1352 018c 41EC100B 		vmov	d0, r0, r1
 1353 0190 FFF7FEFF 		bl	sin
 1354              	.LVL132:
 1355 0194 51EC100B 		vmov	r0, r1, d0
 1356 0198 FFF7FEFF 		bl	__aeabi_d2f
 1357              	.LVL133:
 1358 019c 0DEE100A 		vmov	s26, r0
 1359              	.LVL134:
 112:Core/Src/robot/robot.cpp ****         // Roll Compensated Pitch
 1360              		.loc 3 112 0
 1361 01a0 B0EE4A0A 		vmov.f32	s0, s20
 1362 01a4 F0EE6A0A 		vmov.f32	s1, s21
 1363 01a8 FFF7FEFF 		bl	cos
 1364              	.LVL135:
 1365 01ac 51EC100B 		vmov	r0, r1, d0
 1366 01b0 FFF7FEFF 		bl	__aeabi_d2f
 1367              	.LVL136:
 1368 01b4 0CEE900A 		vmov	s25, r0
 1369              	.LVL137:
 114:Core/Src/robot/robot.cpp **** 
 1370              		.loc 3 114 0
 1371 01b8 6CEE0D0A 		vmul.f32	s1, s24, s26
 1372 01bc 69EEAC9A 		vmul.f32	s19, s19, s25
 1373              	.LVL138:
 1374 01c0 70EEA90A 		vadd.f32	s1, s1, s19
 1375 01c4 B1EE4E0A 		vneg.f32	s0, s28
 1376 01c8 FFF7FEFF 		bl	atan2f
 1377              	.LVL139:
 1378 01cc 10EE100A 		vmov	r0, s0
 1379 01d0 FFF7FEFF 		bl	__aeabi_f2d
 1380              	.LVL140:
 1381 01d4 38A3     		adr	r3, .L53
 1382 01d6 D3E90023 		ldrd	r2, [r3]
 1383 01da FFF7FEFF 		bl	__aeabi_dmul
 1384              	.LVL141:
 1385 01de FFF7FEFF 		bl	__aeabi_d2f
 1386              	.LVL142:
 1387              	.LBB160:
ARM GAS  C:\Users\Prashant\AppData\Local\Temp\cc68LIAu.s 			page 40


 1388              	.LBB161:
  27:Core/Inc/utils/filter.h ****         float filter(float low_pass, float rate, uint32_t dt_millis) {
 1389              		.loc 5 27 0
 1390 01e2 454B     		ldr	r3, .L53+64
 1391 01e4 2360     		str	r3, [r4]
 1392              	.LVL143:
 1393              	.LBE161:
 1394              	.LBE160:
 1395              	.LBB162:
 1396              	.LBB163:
 1397              		.loc 5 29 0
 1398 01e6 1A68     		ldr	r2, [r3]
 1399 01e8 1268     		ldr	r2, [r2]
 1400 01ea 3146     		mov	r1, r6
 1401 01ec F0EE6D0A 		vmov.f32	s1, s27
 1402 01f0 00EE100A 		vmov	s0, r0
 1403 01f4 1846     		mov	r0, r3
 1404              	.LVL144:
 1405 01f6 9047     		blx	r2
 1406              	.LVL145:
 1407 01f8 F0EE409A 		vmov.f32	s19, s0
 1408              	.LVL146:
 1409              	.LBE163:
 1410              	.LBE162:
 119:Core/Src/robot/robot.cpp ****         float cos_pitch = cos(pitch / 57.3);
 1411              		.loc 3 119 0
 1412 01fc 10EE100A 		vmov	r0, s0
 1413 0200 FFF7FEFF 		bl	__aeabi_f2d
 1414              	.LVL147:
 1415 0204 2CA3     		adr	r3, .L53
 1416 0206 D3E90023 		ldrd	r2, [r3]
 1417 020a FFF7FEFF 		bl	__aeabi_ddiv
 1418              	.LVL148:
 1419 020e 41EC1A0B 		vmov	d10, r0, r1
 1420 0212 41EC100B 		vmov	d0, r0, r1
 1421 0216 FFF7FEFF 		bl	sin
 1422              	.LVL149:
 1423 021a 51EC100B 		vmov	r0, r1, d0
 1424 021e FFF7FEFF 		bl	__aeabi_d2f
 1425              	.LVL150:
 1426 0222 0CEE100A 		vmov	s24, r0
 1427              	.LVL151:
 120:Core/Src/robot/robot.cpp ****         // Tilt Compensated Yaw
 1428              		.loc 3 120 0
 1429 0226 B0EE4A0A 		vmov.f32	s0, s20
 1430 022a F0EE6A0A 		vmov.f32	s1, s21
 1431 022e FFF7FEFF 		bl	cos
 1432              	.LVL152:
 1433 0232 51EC100B 		vmov	r0, r1, d0
 1434 0236 FFF7FEFF 		bl	__aeabi_d2f
 1435              	.LVL153:
 122:Core/Src/robot/robot.cpp **** 
 1436              		.loc 3 122 0
 1437 023a 28EE0D0A 		vmul.f32	s0, s16, s26
 1438 023e 68EEAC7A 		vmul.f32	s15, s17, s25
 1439 0242 07EE100A 		vmov	s14, r0
 1440 0246 29EE079A 		vmul.f32	s18, s18, s14
ARM GAS  C:\Users\Prashant\AppData\Local\Temp\cc68LIAu.s 			page 41


 1441              	.LVL154:
 1442 024a 68EE8D8A 		vmul.f32	s17, s17, s26
 1443              	.LVL155:
 1444 024e 68EE8C8A 		vmul.f32	s17, s17, s24
 1445 0252 79EE288A 		vadd.f32	s17, s18, s17
 1446 0256 28EE2C8A 		vmul.f32	s16, s16, s25
 1447              	.LVL156:
 1448 025a 28EE0C8A 		vmul.f32	s16, s16, s24
 1449 025e 78EE880A 		vadd.f32	s1, s17, s16
 1450 0262 30EE670A 		vsub.f32	s0, s0, s15
 1451 0266 FFF7FEFF 		bl	atan2f
 1452              	.LVL157:
 1453 026a 10EE100A 		vmov	r0, s0
 1454 026e FFF7FEFF 		bl	__aeabi_f2d
 1455              	.LVL158:
 1456 0272 11A3     		adr	r3, .L53
 1457 0274 D3E90023 		ldrd	r2, [r3]
 1458 0278 FFF7FEFF 		bl	__aeabi_dmul
 1459              	.LVL159:
 1460 027c FFF7FEFF 		bl	__aeabi_d2f
 1461              	.LVL160:
 1462              	.LBB164:
 1463              	.LBB165:
  27:Core/Inc/utils/filter.h ****         float filter(float low_pass, float rate, uint32_t dt_millis) {
 1464              		.loc 5 27 0
 1465 0280 1E4B     		ldr	r3, .L53+68
 1466 0282 2360     		str	r3, [r4]
 1467              	.LVL161:
 1468              	.LBE165:
 1469              	.LBE164:
 1470              	.LBB166:
 1471              	.LBB167:
 1472              		.loc 5 29 0
 1473 0284 1A68     		ldr	r2, [r3]
 1474 0286 1268     		ldr	r2, [r2]
 1475 0288 3146     		mov	r1, r6
 1476 028a F0EE6B0A 		vmov.f32	s1, s23
 1477 028e 00EE100A 		vmov	s0, r0
 1478 0292 1846     		mov	r0, r3
 1479              	.LVL162:
 1480 0294 9047     		blx	r2
 1481              	.LVL163:
 1482              	.LBE167:
 1483              	.LBE166:
 1484              	.LBB168:
 1485              	.LBB169:
  27:Core/Inc/utils/vec3.h ****         Vec3(Vec3 &&) = default;
 1486              		.loc 4 27 0
 1487 0296 B0EE401A 		vmov.f32	s2, s0
 1488 029a F0EE690A 		vmov.f32	s1, s19
 1489 029e B0EE4B0A 		vmov.f32	s0, s22
 1490 02a2 3846     		mov	r0, r7
 1491 02a4 FFF7FEFF 		bl	_ZN4Vec3IfE10set_ValuesEfff
 1492              	.LVL164:
 1493              	.LBE169:
 1494              	.LBE168:
 1495              		.loc 3 130 0
ARM GAS  C:\Users\Prashant\AppData\Local\Temp\cc68LIAu.s 			page 42


 1496 02a8 3846     		mov	r0, r7
 1497 02aa 17B0     		add	sp, sp, #92
 1498              	.LCFI18:
 1499              		.cfi_def_cfa_offset 76
 1500              		@ sp needed
 1501 02ac BDEC0E8B 		vldm	sp!, {d8-d14}
 1502              	.LCFI19:
 1503              		.cfi_restore 92
 1504              		.cfi_restore 93
 1505              		.cfi_restore 90
 1506              		.cfi_restore 91
 1507              		.cfi_restore 88
 1508              		.cfi_restore 89
 1509              		.cfi_restore 86
 1510              		.cfi_restore 87
 1511              		.cfi_restore 84
 1512              		.cfi_restore 85
 1513              		.cfi_restore 82
 1514              		.cfi_restore 83
 1515              		.cfi_restore 80
 1516              		.cfi_restore 81
 1517              		.cfi_def_cfa_offset 20
 1518              	.LVL165:
 1519 02b0 F0BD     		pop	{r4, r5, r6, r7, pc}
 1520              	.LVL166:
 1521              	.L54:
 1522 02b2 00BFAFF3 		.align	3
 1522      0080
 1523              	.L53:
 1524 02b8 66666666 		.word	1717986918
 1525 02bc 66A64C40 		.word	1078765158
 1526 02c0 00000000 		.word	Body_IMU
 1527 02c4 00000000 		.word	Body_HMC
 1528 02c8 00000000 		.word	gOmega_Bias
 1529 02cc 00000000 		.word	.LANCHOR11
 1530 02d0 00000000 		.word	.LANCHOR13
 1531 02d4 00000000 		.word	.LANCHOR12
 1532 02d8 00000000 		.word	.LANCHOR14
 1533 02dc 00000000 		.word	.LANCHOR15
 1534 02e0 00000000 		.word	.LANCHOR16
 1535 02e4 00000000 		.word	.LANCHOR17
 1536 02e8 00000000 		.word	.LANCHOR18
 1537 02ec 00000000 		.word	.LANCHOR19
 1538 02f0 00000000 		.word	Second_Pass
 1539 02f4 00000000 		.word	gRoll_Filter
 1540 02f8 00000000 		.word	gPitch_Filter
 1541 02fc 00000000 		.word	gYaw_Filter
 1542              		.cfi_endproc
 1543              	.LFE622:
 1545              		.section	.text._ZN5Robot4moveE4Vec3IfEm,"ax",%progbits
 1546              		.align	1
 1547              		.global	_ZN5Robot4moveE4Vec3IfEm
 1548              		.syntax unified
 1549              		.thumb
 1550              		.thumb_func
 1551              		.fpu fpv4-sp-d16
 1553              	_ZN5Robot4moveE4Vec3IfEm:
ARM GAS  C:\Users\Prashant\AppData\Local\Temp\cc68LIAu.s 			page 43


 1554              	.LFB620:
  39:Core/Src/robot/robot.cpp ****         // calculate current heading
 1555              		.loc 3 39 0
 1556              		.cfi_startproc
 1557              		@ args = 0, pretend = 0, frame = 24
 1558              		@ frame_needed = 0, uses_anonymous_args = 0
 1559              	.LVL167:
 1560 0000 70B5     		push	{r4, r5, r6, lr}
 1561              	.LCFI20:
 1562              		.cfi_def_cfa_offset 16
 1563              		.cfi_offset 4, -16
 1564              		.cfi_offset 5, -12
 1565              		.cfi_offset 6, -8
 1566              		.cfi_offset 14, -4
 1567 0002 2DED028B 		vpush.64	{d8}
 1568              	.LCFI21:
 1569              		.cfi_def_cfa_offset 24
 1570              		.cfi_offset 80, -24
 1571              		.cfi_offset 81, -20
 1572 0006 86B0     		sub	sp, sp, #24
 1573              	.LCFI22:
 1574              		.cfi_def_cfa_offset 48
 1575 0008 0446     		mov	r4, r0
 1576 000a 0D46     		mov	r5, r1
 1577 000c 1646     		mov	r6, r2
  41:Core/Src/robot/robot.cpp ****         float heading = ori.getZ();
 1578              		.loc 3 41 0
 1579 000e 1146     		mov	r1, r2
 1580              	.LVL168:
 1581 0010 6846     		mov	r0, sp
 1582              	.LVL169:
 1583 0012 FFF7FEFF 		bl	_ZL16read_Orientationm
 1584              	.LVL170:
  42:Core/Src/robot/robot.cpp **** 
 1585              		.loc 3 42 0
 1586 0016 6846     		mov	r0, sp
 1587 0018 FFF7FEFF 		bl	_ZNK4Vec3IfE4getZEv
 1588              	.LVL171:
 1589 001c B0EE408A 		vmov.f32	s16, s0
 1590              	.LVL172:
  44:Core/Src/robot/robot.cpp ****                 is_first_reading_ = false;
 1591              		.loc 3 44 0
 1592 0020 94F82030 		ldrb	r3, [r4, #32]	@ zero_extendqisi2
 1593 0024 002B     		cmp	r3, #0
 1594 0026 43D1     		bne	.L61
  53:Core/Src/robot/robot.cpp ****                         gPrintTime = HAL_GetTick();
 1595              		.loc 3 53 0
 1596 0028 494B     		ldr	r3, .L64+8
 1597 002a 1B78     		ldrb	r3, [r3]	@ zero_extendqisi2
 1598 002c 002B     		cmp	r3, #0
 1599 002e 45D1     		bne	.L62
 1600              	.LVL173:
 1601              	.L58:
  57:Core/Src/robot/robot.cpp ****                         printf("%ld, ", (HAL_GetTick()));
 1602              		.loc 3 57 0
 1603 0030 FFF7FEFF 		bl	HAL_GetTick
 1604              	.LVL174:
ARM GAS  C:\Users\Prashant\AppData\Local\Temp\cc68LIAu.s 			page 44


 1605 0034 474B     		ldr	r3, .L64+12
 1606 0036 1B68     		ldr	r3, [r3]
 1607 0038 C01A     		subs	r0, r0, r3
 1608 003a 43F69723 		movw	r3, #14999
 1609 003e 9842     		cmp	r0, r3
 1610 0040 44D9     		bls	.L63
 1611              	.L59:
  65:Core/Src/robot/robot.cpp ****                 velocity_ = state_->calc_RoboVelocity();
 1612              		.loc 3 65 0
 1613 0042 2068     		ldr	r0, [r4]
 1614 0044 0368     		ldr	r3, [r0]
 1615 0046 1B69     		ldr	r3, [r3, #16]
 1616              	.LVL175:
 1617              	.LBB175:
 1618              	.LBB176:
 1619              	.LBB177:
 101:Core/Inc/utils/vec3.h ****                 y_ = v.y_;
 1620              		.loc 4 101 0
 1621 0048 2A68     		ldr	r2, [r5]	@ float
 1622 004a 0392     		str	r2, [sp, #12]	@ float
 102:Core/Inc/utils/vec3.h ****                 z_ = v.z_;
 1623              		.loc 4 102 0
 1624 004c 6A68     		ldr	r2, [r5, #4]	@ float
 1625 004e 0492     		str	r2, [sp, #16]	@ float
 103:Core/Inc/utils/vec3.h ****         }
 1626              		.loc 4 103 0
 1627 0050 AA68     		ldr	r2, [r5, #8]	@ float
 1628 0052 0592     		str	r2, [sp, #20]	@ float
 1629              	.LVL176:
 1630              	.LBE177:
 1631              	.LBE176:
 1632              	.LBE175:
  65:Core/Src/robot/robot.cpp ****                 velocity_ = state_->calc_RoboVelocity();
 1633              		.loc 3 65 0
 1634 0054 03A9     		add	r1, sp, #12
 1635 0056 9847     		blx	r3
 1636              	.LVL177:
 1637 0058 84ED030A 		vstr.32	s0, [r4, #12]
  66:Core/Src/robot/robot.cpp ****                 calc_WheelsOmegas(omegas_, velocity_, angle_of_attack_, (first_heading_ - heading)/
 1638              		.loc 3 66 0
 1639 005c 2068     		ldr	r0, [r4]
 1640 005e 0368     		ldr	r3, [r0]
 1641 0060 DB68     		ldr	r3, [r3, #12]
 1642 0062 9847     		blx	r3
 1643              	.LVL178:
 1644 0064 F0EE408A 		vmov.f32	s17, s0
 1645 0068 84ED020A 		vstr.32	s0, [r4, #8]
  67:Core/Src/robot/robot.cpp ****                 send_WheelerPack(omegas_);
 1646              		.loc 3 67 0
 1647 006c 04F11005 		add	r5, r4, #16
 1648              	.LVL179:
 1649 0070 D4ED097A 		vldr.32	s15, [r4, #36]
 1650 0074 77EEC87A 		vsub.f32	s15, s15, s16
 1651 0078 17EE900A 		vmov	r0, s15
 1652 007c FFF7FEFF 		bl	__aeabi_f2d
 1653              	.LVL180:
 1654 0080 31A3     		adr	r3, .L64
ARM GAS  C:\Users\Prashant\AppData\Local\Temp\cc68LIAu.s 			page 45


 1655 0082 D3E90023 		ldrd	r2, [r3]
 1656 0086 FFF7FEFF 		bl	__aeabi_ddiv
 1657              	.LVL181:
 1658 008a FFF7FEFF 		bl	__aeabi_d2f
 1659              	.LVL182:
 1660 008e 3146     		mov	r1, r6
 1661 0090 01EE100A 		vmov	s2, r0
 1662 0094 D4ED030A 		vldr.32	s1, [r4, #12]
 1663 0098 B0EE680A 		vmov.f32	s0, s17
 1664 009c 2846     		mov	r0, r5
 1665 009e FFF7FEFF 		bl	_Z17calc_WheelsOmegasPffffm
 1666              	.LVL183:
  68:Core/Src/robot/robot.cpp **** 
 1667              		.loc 3 68 0
 1668 00a2 2846     		mov	r0, r5
 1669 00a4 FFF7FEFF 		bl	_Z16send_WheelerPackPf
 1670              	.LVL184:
 1671              	.L55:
  71:Core/Src/robot/robot.cpp **** 
 1672              		.loc 3 71 0
 1673 00a8 06B0     		add	sp, sp, #24
 1674              	.LCFI23:
 1675              		.cfi_remember_state
 1676              		.cfi_def_cfa_offset 24
 1677              		@ sp needed
 1678 00aa BDEC028B 		vldm	sp!, {d8}
 1679              	.LCFI24:
 1680              		.cfi_restore 80
 1681              		.cfi_restore 81
 1682              		.cfi_def_cfa_offset 16
 1683              	.LVL185:
 1684 00ae 70BD     		pop	{r4, r5, r6, pc}
 1685              	.LVL186:
 1686              	.L61:
 1687              	.LCFI25:
 1688              		.cfi_restore_state
  45:Core/Src/robot/robot.cpp ****                 first_heading_ = heading;
 1689              		.loc 3 45 0
 1690 00b0 0023     		movs	r3, #0
 1691 00b2 84F82030 		strb	r3, [r4, #32]
  46:Core/Src/robot/robot.cpp ****                 // velocity_ = state_->calc_RoboVelocity();
 1692              		.loc 3 46 0
 1693 00b6 84ED090A 		vstr.32	s0, [r4, #36]
 1694 00ba F5E7     		b	.L55
 1695              	.L62:
  54:Core/Src/robot/robot.cpp ****                         gIsFirstTimeStamp = false;
 1696              		.loc 3 54 0
 1697 00bc FFF7FEFF 		bl	HAL_GetTick
 1698              	.LVL187:
 1699 00c0 244B     		ldr	r3, .L64+12
 1700 00c2 1860     		str	r0, [r3]
  55:Core/Src/robot/robot.cpp ****                 }
 1701              		.loc 3 55 0
 1702 00c4 224B     		ldr	r3, .L64+8
 1703 00c6 0022     		movs	r2, #0
 1704 00c8 1A70     		strb	r2, [r3]
 1705 00ca B1E7     		b	.L58
ARM GAS  C:\Users\Prashant\AppData\Local\Temp\cc68LIAu.s 			page 46


 1706              	.L63:
  58:Core/Src/robot/robot.cpp ****                         pos.print();
 1707              		.loc 3 58 0
 1708 00cc FFF7FEFF 		bl	HAL_GetTick
 1709              	.LVL188:
 1710 00d0 0146     		mov	r1, r0
 1711 00d2 2148     		ldr	r0, .L64+16
 1712 00d4 FFF7FEFF 		bl	printf
 1713              	.LVL189:
 1714              	.LBB178:
 1715              	.LBB179:
 140:Core/Inc/utils/vec3.h ****         }
 1716              		.loc 4 140 0
 1717 00d8 D5ED007A 		vldr.32	s15, [r5]
 1718 00dc 95ED017A 		vldr.32	s14, [r5, #4]
 1719 00e0 D5ED026A 		vldr.32	s13, [r5, #8]
 1720 00e4 FDEEE66A 		vcvt.s32.f32	s13, s13
 1721 00e8 16EE903A 		vmov	r3, s13	@ int
 1722 00ec BDEEC77A 		vcvt.s32.f32	s14, s14
 1723 00f0 17EE102A 		vmov	r2, s14	@ int
 1724 00f4 FDEEE77A 		vcvt.s32.f32	s15, s15
 1725 00f8 17EE901A 		vmov	r1, s15	@ int
 1726 00fc 1748     		ldr	r0, .L64+20
 1727 00fe FFF7FEFF 		bl	printf
 1728              	.LVL190:
 1729              	.LBE179:
 1730              	.LBE178:
  60:Core/Src/robot/robot.cpp ****                         printf("%d, ", (int16_t)(heading - first_heading_));
 1731              		.loc 3 60 0
 1732 0102 1748     		ldr	r0, .L64+24
 1733 0104 FFF7FEFF 		bl	printf
 1734              	.LVL191:
  61:Core/Src/robot/robot.cpp ****                         printf("%d, %d\n", (int16_t)(velocity_), (int16_t)(angle_of_attack_));
 1735              		.loc 3 61 0
 1736 0108 D4ED097A 		vldr.32	s15, [r4, #36]
 1737 010c 78EE677A 		vsub.f32	s15, s16, s15
 1738 0110 FDEEE77A 		vcvt.s32.f32	s15, s15
 1739 0114 17EE903A 		vmov	r3, s15	@ int
 1740 0118 19B2     		sxth	r1, r3
 1741 011a 1248     		ldr	r0, .L64+28
 1742 011c FFF7FEFF 		bl	printf
 1743              	.LVL192:
  62:Core/Src/robot/robot.cpp ****                 } 
 1744              		.loc 3 62 0
 1745 0120 D4ED027A 		vldr.32	s15, [r4, #8]
 1746 0124 FDEEE77A 		vcvt.s32.f32	s15, s15
 1747 0128 94ED037A 		vldr.32	s14, [r4, #12]
 1748 012c BDEEC77A 		vcvt.s32.f32	s14, s14
 1749 0130 17EE103A 		vmov	r3, s14	@ int
 1750 0134 1AB2     		sxth	r2, r3
 1751 0136 17EE903A 		vmov	r3, s15	@ int
 1752 013a 19B2     		sxth	r1, r3
 1753 013c 0A48     		ldr	r0, .L64+32
 1754 013e FFF7FEFF 		bl	printf
 1755              	.LVL193:
 1756 0142 7EE7     		b	.L59
 1757              	.L65:
ARM GAS  C:\Users\Prashant\AppData\Local\Temp\cc68LIAu.s 			page 47


 1758 0144 AFF30080 		.align	3
 1759              	.L64:
 1760 0148 66666666 		.word	1717986918
 1761 014c 66A64C40 		.word	1078765158
 1762 0150 00000000 		.word	.LANCHOR20
 1763 0154 00000000 		.word	.LANCHOR21
 1764 0158 00000000 		.word	.LC0
 1765 015c 08000000 		.word	.LC1
 1766 0160 18000000 		.word	.LC2
 1767 0164 1C000000 		.word	.LC3
 1768 0168 24000000 		.word	.LC4
 1769              		.cfi_endproc
 1770              	.LFE620:
 1772              		.section	.text._ZN5Robot3runEm,"ax",%progbits
 1773              		.align	1
 1774              		.global	_ZN5Robot3runEm
 1775              		.syntax unified
 1776              		.thumb
 1777              		.thumb_func
 1778              		.fpu fpv4-sp-d16
 1780              	_ZN5Robot3runEm:
 1781              	.LFB621:
  73:Core/Src/robot/robot.cpp ****         Vec3<float> pos = pos_->read_Position(dt_millis);
 1782              		.loc 3 73 0
 1783              		.cfi_startproc
 1784              		@ args = 0, pretend = 0, frame = 40
 1785              		@ frame_needed = 0, uses_anonymous_args = 0
 1786              	.LVL194:
 1787 0000 30B5     		push	{r4, r5, lr}
 1788              	.LCFI26:
 1789              		.cfi_def_cfa_offset 12
 1790              		.cfi_offset 4, -12
 1791              		.cfi_offset 5, -8
 1792              		.cfi_offset 14, -4
 1793 0002 8BB0     		sub	sp, sp, #44
 1794              	.LCFI27:
 1795              		.cfi_def_cfa_offset 56
 1796 0004 0446     		mov	r4, r0
 1797 0006 0D46     		mov	r5, r1
  74:Core/Src/robot/robot.cpp ****         if (state_->nextStateReached(pos)) {
 1798              		.loc 3 74 0
 1799 0008 0A46     		mov	r2, r1
 1800 000a 4168     		ldr	r1, [r0, #4]
 1801              	.LVL195:
 1802 000c 01A8     		add	r0, sp, #4
 1803              	.LVL196:
 1804 000e FFF7FEFF 		bl	_ZN14PositionSensor13read_PositionEm
 1805              	.LVL197:
  75:Core/Src/robot/robot.cpp ****                 state_->setNextState(this);
 1806              		.loc 3 75 0
 1807 0012 2068     		ldr	r0, [r4]
 1808 0014 0368     		ldr	r3, [r0]
 1809 0016 5B69     		ldr	r3, [r3, #20]
 1810              	.LVL198:
 1811              	.LBB180:
 1812              	.LBB181:
 1813              	.LBB182:
ARM GAS  C:\Users\Prashant\AppData\Local\Temp\cc68LIAu.s 			page 48


 101:Core/Inc/utils/vec3.h ****                 y_ = v.y_;
 1814              		.loc 4 101 0
 1815 0018 019A     		ldr	r2, [sp, #4]	@ float
 1816 001a 0492     		str	r2, [sp, #16]	@ float
 102:Core/Inc/utils/vec3.h ****                 z_ = v.z_;
 1817              		.loc 4 102 0
 1818 001c 029A     		ldr	r2, [sp, #8]	@ float
 1819 001e 0592     		str	r2, [sp, #20]	@ float
 103:Core/Inc/utils/vec3.h ****         }
 1820              		.loc 4 103 0
 1821 0020 039A     		ldr	r2, [sp, #12]	@ float
 1822 0022 0692     		str	r2, [sp, #24]	@ float
 1823              	.LVL199:
 1824              	.LBE182:
 1825              	.LBE181:
 1826              	.LBE180:
  75:Core/Src/robot/robot.cpp ****                 state_->setNextState(this);
 1827              		.loc 3 75 0
 1828 0024 04A9     		add	r1, sp, #16
 1829 0026 9847     		blx	r3
 1830              	.LVL200:
 1831 0028 60B9     		cbnz	r0, .L69
 1832              	.L67:
 1833              	.LVL201:
 1834              	.LBB183:
 1835              	.LBB184:
 1836              	.LBB185:
 101:Core/Inc/utils/vec3.h ****                 y_ = v.y_;
 1837              		.loc 4 101 0
 1838 002a 019B     		ldr	r3, [sp, #4]	@ float
 1839 002c 0793     		str	r3, [sp, #28]	@ float
 102:Core/Inc/utils/vec3.h ****                 z_ = v.z_;
 1840              		.loc 4 102 0
 1841 002e 029B     		ldr	r3, [sp, #8]	@ float
 1842 0030 0893     		str	r3, [sp, #32]	@ float
 103:Core/Inc/utils/vec3.h ****         }
 1843              		.loc 4 103 0
 1844 0032 039B     		ldr	r3, [sp, #12]	@ float
 1845 0034 0993     		str	r3, [sp, #36]	@ float
 1846              	.LVL202:
 1847              	.LBE185:
 1848              	.LBE184:
 1849              	.LBE183:
  79:Core/Src/robot/robot.cpp **** }
 1850              		.loc 3 79 0
 1851 0036 2A46     		mov	r2, r5
 1852 0038 07A9     		add	r1, sp, #28
 1853 003a 2046     		mov	r0, r4
 1854 003c FFF7FEFF 		bl	_ZN5Robot4moveE4Vec3IfEm
 1855              	.LVL203:
  80:Core/Src/robot/robot.cpp **** 
 1856              		.loc 3 80 0
 1857 0040 0BB0     		add	sp, sp, #44
 1858              	.LCFI28:
 1859              		.cfi_remember_state
 1860              		.cfi_def_cfa_offset 12
 1861              		@ sp needed
ARM GAS  C:\Users\Prashant\AppData\Local\Temp\cc68LIAu.s 			page 49


 1862 0042 30BD     		pop	{r4, r5, pc}
 1863              	.LVL204:
 1864              	.L69:
 1865              	.LCFI29:
 1866              		.cfi_restore_state
  76:Core/Src/robot/robot.cpp ****         }
 1867              		.loc 3 76 0
 1868 0044 2068     		ldr	r0, [r4]
 1869 0046 0368     		ldr	r3, [r0]
 1870 0048 9B68     		ldr	r3, [r3, #8]
 1871 004a 2146     		mov	r1, r4
 1872 004c 9847     		blx	r3
 1873              	.LVL205:
 1874 004e ECE7     		b	.L67
 1875              		.cfi_endproc
 1876              	.LFE621:
 1878              		.section	.text._GLOBAL__sub_I_gPointA,"ax",%progbits
 1879              		.align	1
 1880              		.syntax unified
 1881              		.thumb
 1882              		.thumb_func
 1883              		.fpu fpv4-sp-d16
 1885              	_GLOBAL__sub_I_gPointA:
 1886              	.LFB642:
 1887              		.loc 3 130 0
 1888              		.cfi_startproc
 1889              		@ args = 0, pretend = 0, frame = 0
 1890              		@ frame_needed = 0, uses_anonymous_args = 0
 1891 0000 08B5     		push	{r3, lr}
 1892              	.LCFI30:
 1893              		.cfi_def_cfa_offset 8
 1894              		.cfi_offset 3, -8
 1895              		.cfi_offset 14, -4
 1896              		.loc 3 130 0
 1897 0002 4FF6FF71 		movw	r1, #65535
 1898 0006 0120     		movs	r0, #1
 1899 0008 FFF7FEFF 		bl	_Z41__static_initialization_and_destruction_0ii
 1900              	.LVL206:
 1901 000c 08BD     		pop	{r3, pc}
 1902              		.cfi_endproc
 1903              	.LFE642:
 1905              		.section	.init_array,"aw",%init_array
 1906              		.align	2
 1907 0000 00000000 		.word	_GLOBAL__sub_I_gPointA(target1)
 1908              		.global	gPrintTime
 1909              		.global	gIsFirstTimeStamp
 1910              		.global	gStop
 1911              		.global	gPointJ
 1912              		.global	gPointI
 1913              		.global	gPointH
 1914              		.global	gPointG
 1915              		.global	gPointF
 1916              		.global	gPointE
 1917              		.global	gPointD
 1918              		.global	gPointC
 1919              		.global	gPointB
 1920              		.global	gPointA
ARM GAS  C:\Users\Prashant\AppData\Local\Temp\cc68LIAu.s 			page 50


 1921              		.section	.bss._ZL12gXMagAlpha35,"aw",%nobits
 1922              		.align	2
 1923              		.set	.LANCHOR17,. + 0
 1926              	_ZL12gXMagAlpha35:
 1927 0000 00000000 		.space	16
 1927      00000000 
 1927      00000000 
 1927      00000000 
 1928              		.section	.bss._ZL12gYMagAlpha35,"aw",%nobits
 1929              		.align	2
 1930              		.set	.LANCHOR18,. + 0
 1933              	_ZL12gYMagAlpha35:
 1934 0000 00000000 		.space	16
 1934      00000000 
 1934      00000000 
 1934      00000000 
 1935              		.section	.bss._ZL12gZMagAlpha35,"aw",%nobits
 1936              		.align	2
 1937              		.set	.LANCHOR19,. + 0
 1940              	_ZL12gZMagAlpha35:
 1941 0000 00000000 		.space	16
 1941      00000000 
 1941      00000000 
 1941      00000000 
 1942              		.section	.bss._ZL13gXGyroAlpha35,"aw",%nobits
 1943              		.align	2
 1944              		.set	.LANCHOR14,. + 0
 1947              	_ZL13gXGyroAlpha35:
 1948 0000 00000000 		.space	16
 1948      00000000 
 1948      00000000 
 1948      00000000 
 1949              		.section	.bss._ZL13gYGyroAlpha35,"aw",%nobits
 1950              		.align	2
 1951              		.set	.LANCHOR15,. + 0
 1954              	_ZL13gYGyroAlpha35:
 1955 0000 00000000 		.space	16
 1955      00000000 
 1955      00000000 
 1955      00000000 
 1956              		.section	.bss._ZL13gZGyroAlpha35,"aw",%nobits
 1957              		.align	2
 1958              		.set	.LANCHOR16,. + 0
 1961              	_ZL13gZGyroAlpha35:
 1962 0000 00000000 		.space	16
 1962      00000000 
 1962      00000000 
 1962      00000000 
 1963              		.section	.bss._ZL14gXAccelAlpha35,"aw",%nobits
 1964              		.align	2
 1965              		.set	.LANCHOR11,. + 0
 1968              	_ZL14gXAccelAlpha35:
 1969 0000 00000000 		.space	16
 1969      00000000 
 1969      00000000 
 1969      00000000 
 1970              		.section	.bss._ZL14gYAccelAlpha35,"aw",%nobits
ARM GAS  C:\Users\Prashant\AppData\Local\Temp\cc68LIAu.s 			page 51


 1971              		.align	2
 1972              		.set	.LANCHOR13,. + 0
 1975              	_ZL14gYAccelAlpha35:
 1976 0000 00000000 		.space	16
 1976      00000000 
 1976      00000000 
 1976      00000000 
 1977              		.section	.bss._ZL14gZAccelAlpha35,"aw",%nobits
 1978              		.align	2
 1979              		.set	.LANCHOR12,. + 0
 1982              	_ZL14gZAccelAlpha35:
 1983 0000 00000000 		.space	16
 1983      00000000 
 1983      00000000 
 1983      00000000 
 1984              		.section	.bss.gPointA,"aw",%nobits
 1985              		.align	2
 1986              		.set	.LANCHOR0,. + 0
 1989              	gPointA:
 1990 0000 00000000 		.space	32
 1990      00000000 
 1990      00000000 
 1990      00000000 
 1990      00000000 
 1991              		.section	.bss.gPointB,"aw",%nobits
 1992              		.align	2
 1993              		.set	.LANCHOR1,. + 0
 1996              	gPointB:
 1997 0000 00000000 		.space	28
 1997      00000000 
 1997      00000000 
 1997      00000000 
 1997      00000000 
 1998              		.section	.bss.gPointC,"aw",%nobits
 1999              		.align	2
 2000              		.set	.LANCHOR2,. + 0
 2003              	gPointC:
 2004 0000 00000000 		.space	28
 2004      00000000 
 2004      00000000 
 2004      00000000 
 2004      00000000 
 2005              		.section	.bss.gPointD,"aw",%nobits
 2006              		.align	2
 2007              		.set	.LANCHOR3,. + 0
 2010              	gPointD:
 2011 0000 00000000 		.space	28
 2011      00000000 
 2011      00000000 
 2011      00000000 
 2011      00000000 
 2012              		.section	.bss.gPointE,"aw",%nobits
 2013              		.align	2
 2014              		.set	.LANCHOR4,. + 0
 2017              	gPointE:
 2018 0000 00000000 		.space	32
 2018      00000000 
ARM GAS  C:\Users\Prashant\AppData\Local\Temp\cc68LIAu.s 			page 52


 2018      00000000 
 2018      00000000 
 2018      00000000 
 2019              		.section	.bss.gPointF,"aw",%nobits
 2020              		.align	2
 2021              		.set	.LANCHOR5,. + 0
 2024              	gPointF:
 2025 0000 00000000 		.space	28
 2025      00000000 
 2025      00000000 
 2025      00000000 
 2025      00000000 
 2026              		.section	.bss.gPointG,"aw",%nobits
 2027              		.align	2
 2028              		.set	.LANCHOR6,. + 0
 2031              	gPointG:
 2032 0000 00000000 		.space	28
 2032      00000000 
 2032      00000000 
 2032      00000000 
 2032      00000000 
 2033              		.section	.bss.gPointH,"aw",%nobits
 2034              		.align	2
 2035              		.set	.LANCHOR7,. + 0
 2038              	gPointH:
 2039 0000 00000000 		.space	28
 2039      00000000 
 2039      00000000 
 2039      00000000 
 2039      00000000 
 2040              		.section	.bss.gPointI,"aw",%nobits
 2041              		.align	2
 2042              		.set	.LANCHOR8,. + 0
 2045              	gPointI:
 2046 0000 00000000 		.space	32
 2046      00000000 
 2046      00000000 
 2046      00000000 
 2046      00000000 
 2047              		.section	.bss.gPointJ,"aw",%nobits
 2048              		.align	2
 2049              		.set	.LANCHOR9,. + 0
 2052              	gPointJ:
 2053 0000 00000000 		.space	28
 2053      00000000 
 2053      00000000 
 2053      00000000 
 2053      00000000 
 2054              		.section	.bss.gPrintTime,"aw",%nobits
 2055              		.align	2
 2056              		.set	.LANCHOR21,. + 0
 2059              	gPrintTime:
 2060 0000 00000000 		.space	4
 2061              		.section	.bss.gStop,"aw",%nobits
 2062              		.align	2
 2063              		.set	.LANCHOR10,. + 0
 2066              	gStop:
ARM GAS  C:\Users\Prashant\AppData\Local\Temp\cc68LIAu.s 			page 53


 2067 0000 00000000 		.space	32
 2067      00000000 
 2067      00000000 
 2067      00000000 
 2067      00000000 
 2068              		.section	.data.gIsFirstTimeStamp,"aw",%progbits
 2069              		.set	.LANCHOR20,. + 0
 2072              	gIsFirstTimeStamp:
 2073 0000 01       		.byte	1
 2074              		.section	.rodata._ZN5Robot4moveE4Vec3IfEm.str1.4,"aMS",%progbits,1
 2075              		.align	2
 2076              	.LC0:
 2077 0000 256C642C 		.ascii	"%ld, \000"
 2077      2000
 2078 0006 0000     		.space	2
 2079              	.LC1:
 2080 0008 256C642C 		.ascii	"%ld, %ld, %ld\000"
 2080      20256C64 
 2080      2C20256C 
 2080      6400
 2081 0016 0000     		.space	2
 2082              	.LC2:
 2083 0018 2C2000   		.ascii	", \000"
 2084 001b 00       		.space	1
 2085              	.LC3:
 2086 001c 25642C20 		.ascii	"%d, \000"
 2086      00
 2087 0021 000000   		.space	3
 2088              	.LC4:
 2089 0024 25642C20 		.ascii	"%d, %d\012\000"
 2089      25640A00 
 2090              		.text
 2091              	.Letext0:
 2092              		.file 6 "c:\\program files (x86)\\gnu tools arm embedded\\7 2017-q4-major\\arm-none-eabi\\include\
 2093              		.file 7 "c:\\program files (x86)\\gnu tools arm embedded\\7 2017-q4-major\\arm-none-eabi\\include\
 2094              		.file 8 "C:/Users/Prashant/STM32Cube/Repository/STM32Cube_FW_F4_V1.21.0/Drivers/CMSIS/Include/core
 2095              		.file 9 "C:/Users/Prashant/STM32Cube/Repository/STM32Cube_FW_F4_V1.21.0/Drivers/CMSIS/Device/ST/ST
 2096              		.file 10 "C:/Users/Prashant/STM32Cube/Repository/STM32Cube_FW_F4_V1.21.0/Drivers/CMSIS/Device/ST/S
 2097              		.file 11 "C:/Users/Prashant/STM32Cube/Repository/STM32Cube_FW_F4_V1.21.0/Drivers/CMSIS/Device/ST/S
 2098              		.file 12 "c:\\program files (x86)\\gnu tools arm embedded\\7 2017-q4-major\\arm-none-eabi\\include
 2099              		.file 13 "c:\\program files (x86)\\gnu tools arm embedded\\7 2017-q4-major\\arm-none-eabi\\include
 2100              		.file 14 "c:\\program files (x86)\\gnu tools arm embedded\\7 2017-q4-major\\lib\\gcc\\arm-none-eab
 2101              		.file 15 "c:\\program files (x86)\\gnu tools arm embedded\\7 2017-q4-major\\arm-none-eabi\\include
 2102              		.file 16 "C:/Users/Prashant/STM32Cube/Repository/STM32Cube_FW_F4_V1.21.0/Drivers/STM32F4xx_HAL_Dri
 2103              		.file 17 "C:/Users/Prashant/STM32Cube/Repository/STM32Cube_FW_F4_V1.21.0/Drivers/STM32F4xx_HAL_Dri
 2104              		.file 18 "C:/Users/Prashant/STM32Cube/Repository/STM32Cube_FW_F4_V1.21.0/Drivers/STM32F4xx_HAL_Dri
 2105              		.file 19 "C:/Users/Prashant/STM32Cube/Repository/STM32Cube_FW_F4_V1.21.0/Drivers/STM32F4xx_HAL_Dri
 2106              		.file 20 "C:/Users/Prashant/STM32Cube/Repository/STM32Cube_FW_F4_V1.21.0/Drivers/STM32F4xx_HAL_Dri
 2107              		.file 21 "C:/Users/Prashant/STM32Cube/Repository/STM32Cube_FW_F4_V1.21.0/Drivers/STM32F4xx_HAL_Dri
 2108              		.file 22 "Core/Inc/devs/position_sensor.h"
 2109              		.file 23 "Core/Inc/devs/sensor.h"
 2110              		.file 24 "c:\\program files (x86)\\gnu tools arm embedded\\7 2017-q4-major\\arm-none-eabi\\include
 2111              		.file 25 "c:\\program files (x86)\\gnu tools arm embedded\\7 2017-q4-major\\arm-none-eabi\\include
 2112              		.file 26 "c:\\program files (x86)\\gnu tools arm embedded\\7 2017-q4-major\\arm-none-eabi\\include
 2113              		.file 27 "c:\\program files (x86)\\gnu tools arm embedded\\7 2017-q4-major\\arm-none-eabi\\include
 2114              		.file 28 "c:\\program files (x86)\\gnu tools arm embedded\\7 2017-q4-major\\arm-none-eabi\\include
 2115              		.file 29 "c:\\program files (x86)\\gnu tools arm embedded\\7 2017-q4-major\\arm-none-eabi\\include
ARM GAS  C:\Users\Prashant\AppData\Local\Temp\cc68LIAu.s 			page 54


 2116              		.file 30 "Core/Inc/periphs/usart.h"
 2117              		.file 31 "Core/Inc/devs/wheeler.h"
 2118              		.file 32 "Core/Inc/robot/robot.h"
 2119              		.file 33 "Core/Inc/periphs/i2c.h"
 2120              		.file 34 "Core/Inc/periphs/tim.h"
 2121              		.file 35 "Core/Inc/devs/mpu6050.h"
 2122              		.file 36 "Core/Inc/devs/a4988.h"
 2123              		.file 37 "Core/Inc/devs/hmc5883.h"
 2124              		.file 38 "Core/Inc/devs/encoder.h"
 2125              		.file 39 "Core/Inc/robot/devs_config.h"
 2126              		.file 40 "Core/Inc/utils/mat.h"
 2127              		.file 41 "Core/Inc/utils/kalman.h"
 2128              		.file 42 "Core/Inc/utils/filter_algorithm.h"
 2129              		.file 43 "Core/Inc/robot/robo_init.h"
 2130              		.file 44 "c:\\program files (x86)\\gnu tools arm embedded\\7 2017-q4-major\\arm-none-eabi\\include
 2131              		.file 45 "<built-in>"
ARM GAS  C:\Users\Prashant\AppData\Local\Temp\cc68LIAu.s 			page 55

