ARM GAS  C:\Users\Prashant\AppData\Local\Temp\ccWdDaW2.s 			page 1


   1              		.cpu cortex-m4
   2              		.eabi_attribute 27, 1
   3              		.eabi_attribute 28, 1
   4              		.eabi_attribute 20, 1
   5              		.eabi_attribute 21, 1
   6              		.eabi_attribute 23, 3
   7              		.eabi_attribute 24, 1
   8              		.eabi_attribute 25, 1
   9              		.eabi_attribute 26, 1
  10              		.eabi_attribute 30, 1
  11              		.eabi_attribute 34, 1
  12              		.eabi_attribute 18, 4
  13              		.file	"wheeler.cpp"
  14              		.text
  15              	.Ltext0:
  16              		.cfi_sections	.debug_frame
  17              		.section	.text._ZL15calculate_Omegaff,"ax",%progbits
  18              		.align	1
  19              		.syntax unified
  20              		.thumb
  21              		.thumb_func
  22              		.fpu fpv4-sp-d16
  24              	_ZL15calculate_Omegaff:
  25              	.LFB355:
  26              		.file 1 "Core/Src/devs/wheeler.cpp"
   1:Core/Src/devs/wheeler.cpp **** #include "devs/wheeler.h"
   2:Core/Src/devs/wheeler.cpp **** #include <math.h>
   3:Core/Src/devs/wheeler.cpp **** #include "utils/queue.h"
   4:Core/Src/devs/wheeler.cpp **** 
   5:Core/Src/devs/wheeler.cpp **** #define WHEEL_RADIUS            (67.5)
   6:Core/Src/devs/wheeler.cpp **** #define MAX_POSSIBLE_OMEGA      (40)
   7:Core/Src/devs/wheeler.cpp **** #define RAMPING_FACTOR (20)
   8:Core/Src/devs/wheeler.cpp **** const float gSpeed_Multiplier = 1;
   9:Core/Src/devs/wheeler.cpp **** 
  10:Core/Src/devs/wheeler.cpp **** float gWheel_Velocities[4];
  11:Core/Src/devs/wheeler.cpp **** float gWheel_Omegas[4];
  12:Core/Src/devs/wheeler.cpp **** const int gCoupling_Matrix[4][3] = {{ 1,  1, 1},
  13:Core/Src/devs/wheeler.cpp ****                                     { 1, -1, 1},
  14:Core/Src/devs/wheeler.cpp ****                                     {-1, -1, 1},
  15:Core/Src/devs/wheeler.cpp ****                                     {-1,  1, 1}};
  16:Core/Src/devs/wheeler.cpp ****                                     
  17:Core/Src/devs/wheeler.cpp **** 
  18:Core/Src/devs/wheeler.cpp **** #define NUM_WHEELER_BYTES       (8)
  19:Core/Src/devs/wheeler.cpp **** #define THETA_NOT               (1.570796)
  20:Core/Src/devs/wheeler.cpp **** 
  21:Core/Src/devs/wheeler.cpp **** static uint8_t gStart_Byte = 0xA5;
  22:Core/Src/devs/wheeler.cpp **** static bool gWheeler_Start_Byte_Sent = false;
  23:Core/Src/devs/wheeler.cpp **** static bool is_first_ramping = false;
  24:Core/Src/devs/wheeler.cpp **** static Queue<int16_t, 2> gWheeler_Data[NUM_WHEELER_BYTES / 2];
  25:Core/Src/devs/wheeler.cpp **** uint8_t gWheeler_Bytes[NUM_WHEELER_BYTES];
  26:Core/Src/devs/wheeler.cpp **** struct Wheel Wheel_arr[4];
  27:Core/Src/devs/wheeler.cpp **** 
  28:Core/Src/devs/wheeler.cpp **** void wheel_init()
  29:Core/Src/devs/wheeler.cpp **** {
  30:Core/Src/devs/wheeler.cpp ****         for (int i = 0; i < 4; i++)
  31:Core/Src/devs/wheeler.cpp ****         {
  32:Core/Src/devs/wheeler.cpp ****                 Wheel_arr[i].id = i;
ARM GAS  C:\Users\Prashant\AppData\Local\Temp\ccWdDaW2.s 			page 2


  33:Core/Src/devs/wheeler.cpp ****                 Wheel_arr[i].velocity = 0.000000;
  34:Core/Src/devs/wheeler.cpp **** 		Wheel_arr[i].next_velocity = 0.000000;
  35:Core/Src/devs/wheeler.cpp ****         }
  36:Core/Src/devs/wheeler.cpp **** }
  37:Core/Src/devs/wheeler.cpp **** 
  38:Core/Src/devs/wheeler.cpp **** void Wheeler_Init()
  39:Core/Src/devs/wheeler.cpp **** {
  40:Core/Src/devs/wheeler.cpp ****         __HAL_UART_ENABLE_IT(&huart2, UART_IT_TC);
  41:Core/Src/devs/wheeler.cpp **** }
  42:Core/Src/devs/wheeler.cpp **** 
  43:Core/Src/devs/wheeler.cpp **** static float calculate_Omega(float velocity, float radius)
  44:Core/Src/devs/wheeler.cpp **** {
  27              		.loc 1 44 0
  28              		.cfi_startproc
  29              		@ args = 0, pretend = 0, frame = 0
  30              		@ frame_needed = 0, uses_anonymous_args = 0
  31              		@ link register save eliminated.
  32              	.LVL0:
  45:Core/Src/devs/wheeler.cpp ****         return (velocity) / (radius);
  46:Core/Src/devs/wheeler.cpp **** }
  33              		.loc 1 46 0
  34 0000 80EE200A 		vdiv.f32	s0, s0, s1
  35              	.LVL1:
  36 0004 7047     		bx	lr
  37              		.cfi_endproc
  38              	.LFE355:
  40              		.section	.text.__tcf_0,"ax",%progbits
  41              		.align	1
  42              		.syntax unified
  43              		.thumb
  44              		.thumb_func
  45              		.fpu fpv4-sp-d16
  47              	__tcf_0:
  48              	.LFB369:
  24:Core/Src/devs/wheeler.cpp **** uint8_t gWheeler_Bytes[NUM_WHEELER_BYTES];
  49              		.loc 1 24 0
  50              		.cfi_startproc
  51              		@ args = 0, pretend = 0, frame = 0
  52              		@ frame_needed = 0, uses_anonymous_args = 0
  53              		@ link register save eliminated.
  24:Core/Src/devs/wheeler.cpp **** uint8_t gWheeler_Bytes[NUM_WHEELER_BYTES];
  54              		.loc 1 24 0
  55 0000 034B     		ldr	r3, .L5
  56              	.L4:
  24:Core/Src/devs/wheeler.cpp **** uint8_t gWheeler_Bytes[NUM_WHEELER_BYTES];
  57              		.loc 1 24 0 is_stmt 0 discriminator 5
  58 0002 044A     		ldr	r2, .L5+4
  59 0004 9342     		cmp	r3, r2
  60 0006 01D0     		beq	.L2
  24:Core/Src/devs/wheeler.cpp **** uint8_t gWheeler_Bytes[NUM_WHEELER_BYTES];
  61              		.loc 1 24 0 discriminator 4
  62 0008 103B     		subs	r3, r3, #16
  63              	.LVL2:
  64 000a FAE7     		b	.L4
  65              	.LVL3:
  66              	.L2:
  24:Core/Src/devs/wheeler.cpp **** uint8_t gWheeler_Bytes[NUM_WHEELER_BYTES];
ARM GAS  C:\Users\Prashant\AppData\Local\Temp\ccWdDaW2.s 			page 3


  67              		.loc 1 24 0
  68 000c 7047     		bx	lr
  69              	.L6:
  70 000e 00BF     		.align	2
  71              	.L5:
  72 0010 40000000 		.word	.LANCHOR0+64
  73 0014 00000000 		.word	.LANCHOR0
  74              		.cfi_endproc
  75              	.LFE369:
  77              		.section	.text._Z41__static_initialization_and_destruction_0ii,"ax",%progbits
  78              		.align	1
  79              		.syntax unified
  80              		.thumb
  81              		.thumb_func
  82              		.fpu fpv4-sp-d16
  84              	_Z41__static_initialization_and_destruction_0ii:
  85              	.LFB368:
  47:Core/Src/devs/wheeler.cpp **** 
  48:Core/Src/devs/wheeler.cpp **** void calc_WheelsOmegas(float omegas[4], float v, float theta, float phi, uint32_t dt_millis)
  49:Core/Src/devs/wheeler.cpp **** {
  50:Core/Src/devs/wheeler.cpp ****         float vel[4];
  51:Core/Src/devs/wheeler.cpp ****         theta += THETA_NOT;
  52:Core/Src/devs/wheeler.cpp ****         float velocity[3] = {v * cos(theta), v * sin(theta), -3*phi * 1000 / (float)(dt_millis)};
  53:Core/Src/devs/wheeler.cpp **** 
  54:Core/Src/devs/wheeler.cpp ****         for (int i = 0; i < 4; ++i) {
  55:Core/Src/devs/wheeler.cpp ****                 vel[i] = 0;
  56:Core/Src/devs/wheeler.cpp ****                 for (int j = 0; j < 3; ++j) {
  57:Core/Src/devs/wheeler.cpp ****                         vel[i] += velocity[j] * gCoupling_Matrix[i][j];
  58:Core/Src/devs/wheeler.cpp ****                 }
  59:Core/Src/devs/wheeler.cpp ****                 omegas[i] = calculate_Omega(vel[i], WHEEL_RADIUS);
  60:Core/Src/devs/wheeler.cpp ****         }
  61:Core/Src/devs/wheeler.cpp **** 
  62:Core/Src/devs/wheeler.cpp **** }
  63:Core/Src/devs/wheeler.cpp **** 
  64:Core/Src/devs/wheeler.cpp **** // void calculate_robot_velocity(float v, float theta, float phi, uint32_t dt_millis)
  65:Core/Src/devs/wheeler.cpp **** // {
  66:Core/Src/devs/wheeler.cpp ****         // float velocity[3] = {v * cos(theta) * cos(phi), v * sin(theta) * cos(phi), -phi * 1000 /
  67:Core/Src/devs/wheeler.cpp **** 
  68:Core/Src/devs/wheeler.cpp ****         // for (int i = 0; i < 4; ++i) {
  69:Core/Src/devs/wheeler.cpp ****         //         gWheel_Velocities[i] = 0;
  70:Core/Src/devs/wheeler.cpp ****         //         for (int j = 0; j < 3; ++j) {
  71:Core/Src/devs/wheeler.cpp ****         //                 gWheel_Velocities[i] += velocity[j] * gCoupling_Matrix[i][j];
  72:Core/Src/devs/wheeler.cpp ****         //         }
  73:Core/Src/devs/wheeler.cpp ****         //         gWheel_Omegas[i] = calculate_Omega(gWheel_Velocities[i]);
  74:Core/Src/devs/wheeler.cpp ****         // }
  75:Core/Src/devs/wheeler.cpp **** // }
  76:Core/Src/devs/wheeler.cpp **** void calculate_robot_velocity(float omegas_[4], float velocity[3])
  77:Core/Src/devs/wheeler.cpp **** {
  78:Core/Src/devs/wheeler.cpp ****         for (int i = 0; i < 4; i++)
  79:Core/Src/devs/wheeler.cpp ****         {
  80:Core/Src/devs/wheeler.cpp ****                 Wheel_arr[i].next_velocity = 0;
  81:Core/Src/devs/wheeler.cpp ****                 for (int j = 0; j < 3; j++)
  82:Core/Src/devs/wheeler.cpp ****                 {
  83:Core/Src/devs/wheeler.cpp ****                         Wheel_arr[i].next_velocity += velocity[j] * gCoupling_Matrix[i][j];
  84:Core/Src/devs/wheeler.cpp ****                 }
  85:Core/Src/devs/wheeler.cpp **** 			
  86:Core/Src/devs/wheeler.cpp **** 		if(Wheel_arr[i].next_velocity >ROBOT_VELOCITY)
ARM GAS  C:\Users\Prashant\AppData\Local\Temp\ccWdDaW2.s 			page 4


  87:Core/Src/devs/wheeler.cpp **** 		{
  88:Core/Src/devs/wheeler.cpp **** 			for(int j=0;j<4;j++)
  89:Core/Src/devs/wheeler.cpp **** 				Wheel_arr[j].next_velocity = (ROBOT_VELOCITY * Wheel_arr[j].next_velocity)/ Wheel_arr[i].next_v
  90:Core/Src/devs/wheeler.cpp **** 		}
  91:Core/Src/devs/wheeler.cpp **** 		if(Wheel_arr[i].next_velocity < -ROBOT_VELOCITY)
  92:Core/Src/devs/wheeler.cpp **** 		{
  93:Core/Src/devs/wheeler.cpp **** 			for(int j=0;j<4;j++)
  94:Core/Src/devs/wheeler.cpp **** 				Wheel_arr[j].next_velocity = -((ROBOT_VELOCITY * Wheel_arr[j].next_velocity)/ Wheel_arr[i].next
  95:Core/Src/devs/wheeler.cpp **** 		}
  96:Core/Src/devs/wheeler.cpp ****                 if(!is_first_ramping)
  97:Core/Src/devs/wheeler.cpp ****                 {
  98:Core/Src/devs/wheeler.cpp ****                         omegas_[i] = initial_ramp(Wheel_arr[i].id);
  99:Core/Src/devs/wheeler.cpp ****                 }
 100:Core/Src/devs/wheeler.cpp **** 		else
 101:Core/Src/devs/wheeler.cpp ****                 {
 102:Core/Src/devs/wheeler.cpp ****                         omegas_[i] = ramp(Wheel_arr[i].id);
 103:Core/Src/devs/wheeler.cpp ****                 }
 104:Core/Src/devs/wheeler.cpp ****         }
 105:Core/Src/devs/wheeler.cpp **** }
 106:Core/Src/devs/wheeler.cpp **** 
 107:Core/Src/devs/wheeler.cpp **** float initial_ramp(uint8_t wheel_no) 
 108:Core/Src/devs/wheeler.cpp **** {
 109:Core/Src/devs/wheeler.cpp **** 	if(Wheel_arr[wheel_no].velocity != Wheel_arr[wheel_no].next_velocity)
 110:Core/Src/devs/wheeler.cpp **** 	{
 111:Core/Src/devs/wheeler.cpp **** 		if( (Wheel_arr[wheel_no].velocity + (RAMPING_FACTOR/3)) < Wheel_arr[wheel_no].next_velocity)
 112:Core/Src/devs/wheeler.cpp **** 			Wheel_arr[wheel_no].velocity += (RAMPING_FACTOR/3);
 113:Core/Src/devs/wheeler.cpp **** 		else if( (Wheel_arr[wheel_no].velocity - (RAMPING_FACTOR/3)) > Wheel_arr[wheel_no].next_velocity)
 114:Core/Src/devs/wheeler.cpp **** 			Wheel_arr[wheel_no].velocity -= (RAMPING_FACTOR/3);
 115:Core/Src/devs/wheeler.cpp **** 		else
 116:Core/Src/devs/wheeler.cpp **** 		{
 117:Core/Src/devs/wheeler.cpp **** 			Wheel_arr[wheel_no].velocity= Wheel_arr[wheel_no].next_velocity;
 118:Core/Src/devs/wheeler.cpp ****                         is_first_ramping = true;
 119:Core/Src/devs/wheeler.cpp **** 		}        
 120:Core/Src/devs/wheeler.cpp **** 	}	
 121:Core/Src/devs/wheeler.cpp ****         return ((Wheel_arr[wheel_no].velocity*MAX_OMEGA)/MAX_VELOCITY);
 122:Core/Src/devs/wheeler.cpp **** }
 123:Core/Src/devs/wheeler.cpp **** 
 124:Core/Src/devs/wheeler.cpp **** float ramp(uint8_t wheel_no) 
 125:Core/Src/devs/wheeler.cpp **** {
 126:Core/Src/devs/wheeler.cpp **** 	if(Wheel_arr[wheel_no].velocity != Wheel_arr[wheel_no].next_velocity)
 127:Core/Src/devs/wheeler.cpp **** 	{
 128:Core/Src/devs/wheeler.cpp **** 		if( (Wheel_arr[wheel_no].velocity + RAMPING_FACTOR) < Wheel_arr[wheel_no].next_velocity)
 129:Core/Src/devs/wheeler.cpp **** 			Wheel_arr[wheel_no].velocity += RAMPING_FACTOR;
 130:Core/Src/devs/wheeler.cpp **** 		else if( (Wheel_arr[wheel_no].velocity - RAMPING_FACTOR) > Wheel_arr[wheel_no].next_velocity)
 131:Core/Src/devs/wheeler.cpp **** 			Wheel_arr[wheel_no].velocity -= RAMPING_FACTOR;
 132:Core/Src/devs/wheeler.cpp **** 		else
 133:Core/Src/devs/wheeler.cpp **** 		{
 134:Core/Src/devs/wheeler.cpp **** 			Wheel_arr[wheel_no].velocity= Wheel_arr[wheel_no].next_velocity;
 135:Core/Src/devs/wheeler.cpp **** 		}        
 136:Core/Src/devs/wheeler.cpp **** 	}	
 137:Core/Src/devs/wheeler.cpp ****         return ((Wheel_arr[wheel_no].velocity*MAX_OMEGA)/MAX_VELOCITY);
 138:Core/Src/devs/wheeler.cpp **** }
 139:Core/Src/devs/wheeler.cpp **** 
 140:Core/Src/devs/wheeler.cpp **** void send_WheelerPack(float pack[NUM_WHEELER_BYTES / 2])
 141:Core/Src/devs/wheeler.cpp **** {
 142:Core/Src/devs/wheeler.cpp ****         int16_t data;
 143:Core/Src/devs/wheeler.cpp ****         // Data are omegas of four motors
ARM GAS  C:\Users\Prashant\AppData\Local\Temp\ccWdDaW2.s 			page 5


 144:Core/Src/devs/wheeler.cpp ****         for (uint8_t i = 0; i < NUM_WHEELER_BYTES / 2; ++i) {
 145:Core/Src/devs/wheeler.cpp ****                 data = (int16_t)((pack[i] * 32768.0) / (MAX_POSSIBLE_OMEGA));
 146:Core/Src/devs/wheeler.cpp ****                 gWheeler_Data[i].insert(data);
 147:Core/Src/devs/wheeler.cpp ****         }
 148:Core/Src/devs/wheeler.cpp ****         if (!gWheeler_Start_Byte_Sent) {
 149:Core/Src/devs/wheeler.cpp ****                 gWheeler_Start_Byte_Sent = true;
 150:Core/Src/devs/wheeler.cpp ****                 HAL_UART_Transmit_IT(&huart2, &gStart_Byte, 1);
 151:Core/Src/devs/wheeler.cpp ****         }
 152:Core/Src/devs/wheeler.cpp **** }
 153:Core/Src/devs/wheeler.cpp **** 
 154:Core/Src/devs/wheeler.cpp **** void Wheeler_UART2_TxCpltCallback()
 155:Core/Src/devs/wheeler.cpp **** {
 156:Core/Src/devs/wheeler.cpp ****         if (gWheeler_Start_Byte_Sent) {
 157:Core/Src/devs/wheeler.cpp ****                 gWheeler_Start_Byte_Sent = false;
 158:Core/Src/devs/wheeler.cpp ****                 int16_t data;
 159:Core/Src/devs/wheeler.cpp ****                 for (uint8_t i = 0; i < NUM_WHEELER_BYTES / 2; ++i) {
 160:Core/Src/devs/wheeler.cpp ****                         data = gWheeler_Data[i].lookup();
 161:Core/Src/devs/wheeler.cpp ****                         gWheeler_Bytes[2*i + 0] = (uint8_t)(data >> 8);
 162:Core/Src/devs/wheeler.cpp ****                         gWheeler_Bytes[2*i + 1] = (uint8_t)(data);
 163:Core/Src/devs/wheeler.cpp ****                 }
 164:Core/Src/devs/wheeler.cpp ****                 HAL_UART_Transmit_IT(&huart2, gWheeler_Bytes, NUM_WHEELER_BYTES);
 165:Core/Src/devs/wheeler.cpp ****         }
 166:Core/Src/devs/wheeler.cpp ****         else {
 167:Core/Src/devs/wheeler.cpp ****                 // All Wheeler buffers contain equal length of data
 168:Core/Src/devs/wheeler.cpp ****                 if (gWheeler_Data[0].length()) {
 169:Core/Src/devs/wheeler.cpp ****                         gWheeler_Start_Byte_Sent = true;
 170:Core/Src/devs/wheeler.cpp ****                         HAL_UART_Transmit_IT(&huart2, &gStart_Byte, 1);
 171:Core/Src/devs/wheeler.cpp ****                 }
 172:Core/Src/devs/wheeler.cpp ****         }
 173:Core/Src/devs/wheeler.cpp **** }
  86              		.loc 1 173 0 is_stmt 1
  87              		.cfi_startproc
  88              		@ args = 0, pretend = 0, frame = 0
  89              		@ frame_needed = 0, uses_anonymous_args = 0
  90              	.LVL4:
  91 0000 0128     		cmp	r0, #1
  92 0002 00D0     		beq	.L15
  93 0004 7047     		bx	lr
  94              	.L15:
  95              		.loc 1 173 0 is_stmt 0 discriminator 1
  96 0006 08B5     		push	{r3, lr}
  97              	.LCFI0:
  98              		.cfi_def_cfa_offset 8
  99              		.cfi_offset 3, -8
 100              		.cfi_offset 14, -4
 101              		.loc 1 173 0 is_stmt 1 discriminator 1
 102 0008 4FF6FF73 		movw	r3, #65535
 103 000c 9942     		cmp	r1, r3
 104 000e 00D0     		beq	.L16
 105              	.LVL5:
 106              	.L7:
 107              		.loc 1 173 0 is_stmt 0
 108 0010 08BD     		pop	{r3, pc}
 109              	.LVL6:
 110              	.L16:
  24:Core/Src/devs/wheeler.cpp **** uint8_t gWheeler_Bytes[NUM_WHEELER_BYTES];
 111              		.loc 1 24 0 is_stmt 1
ARM GAS  C:\Users\Prashant\AppData\Local\Temp\ccWdDaW2.s 			page 6


 112 0012 0321     		movs	r1, #3
 113              	.LVL7:
 114 0014 074B     		ldr	r3, .L17
 115              	.L10:
  24:Core/Src/devs/wheeler.cpp **** uint8_t gWheeler_Bytes[NUM_WHEELER_BYTES];
 116              		.loc 1 24 0 is_stmt 0 discriminator 4
 117 0016 0029     		cmp	r1, #0
 118 0018 06DB     		blt	.L9
 119              	.LVL8:
 120              	.LBB27:
 121              	.LBB28:
 122              		.file 2 "Core/Inc/utils/queue.h"
   1:Core/Inc/utils/queue.h **** /*
   2:Core/Inc/utils/queue.h ****  * queue.h
   3:Core/Inc/utils/queue.h ****  * 
   4:Core/Inc/utils/queue.h ****  * Created : 11/16/2018
   5:Core/Inc/utils/queue.h ****  *  Author : n-is
   6:Core/Inc/utils/queue.h ****  *   email : 073bex422.nischal@pcampus.edu.np
   7:Core/Inc/utils/queue.h ****  */
   8:Core/Inc/utils/queue.h **** 
   9:Core/Inc/utils/queue.h **** #ifndef _QUEUE_H_
  10:Core/Inc/utils/queue.h **** #define _QUEUE_H_
  11:Core/Inc/utils/queue.h **** 
  12:Core/Inc/utils/queue.h **** #include "stm32f4xx_hal.h"
  13:Core/Inc/utils/queue.h **** 
  14:Core/Inc/utils/queue.h **** template <class T, size_t q_size>
  15:Core/Inc/utils/queue.h **** class Queue
  16:Core/Inc/utils/queue.h **** {
  17:Core/Inc/utils/queue.h **** public:
  18:Core/Inc/utils/queue.h ****         Queue():head_(0), tail_(0), curr_size_(0) { }
 123              		.loc 2 18 0 is_stmt 1
 124 001a 0022     		movs	r2, #0
 125 001c 1A60     		str	r2, [r3]
 126 001e 5A60     		str	r2, [r3, #4]
 127 0020 9A60     		str	r2, [r3, #8]
 128              	.LVL9:
 129              	.LBE28:
 130              	.LBE27:
  24:Core/Src/devs/wheeler.cpp **** uint8_t gWheeler_Bytes[NUM_WHEELER_BYTES];
 131              		.loc 1 24 0
 132 0022 1033     		adds	r3, r3, #16
 133 0024 0139     		subs	r1, r1, #1
 134 0026 F6E7     		b	.L10
 135              	.L9:
  24:Core/Src/devs/wheeler.cpp **** uint8_t gWheeler_Bytes[NUM_WHEELER_BYTES];
 136              		.loc 1 24 0 is_stmt 0 discriminator 2
 137 0028 034A     		ldr	r2, .L17+4
 138 002a 0449     		ldr	r1, .L17+8
 139 002c 0020     		movs	r0, #0
 140              	.LVL10:
 141 002e FFF7FEFF 		bl	__aeabi_atexit
 142              	.LVL11:
 143              		.loc 1 173 0 is_stmt 1 discriminator 2
 144 0032 EDE7     		b	.L7
 145              	.L18:
 146              		.align	2
 147              	.L17:
ARM GAS  C:\Users\Prashant\AppData\Local\Temp\ccWdDaW2.s 			page 7


 148 0034 00000000 		.word	.LANCHOR0
 149 0038 00000000 		.word	__dso_handle
 150 003c 00000000 		.word	__tcf_0
 151              		.cfi_endproc
 152              	.LFE368:
 154              		.section	.text._Z10wheel_initv,"ax",%progbits
 155              		.align	1
 156              		.global	_Z10wheel_initv
 157              		.syntax unified
 158              		.thumb
 159              		.thumb_func
 160              		.fpu fpv4-sp-d16
 162              	_Z10wheel_initv:
 163              	.LFB353:
  29:Core/Src/devs/wheeler.cpp ****         for (int i = 0; i < 4; i++)
 164              		.loc 1 29 0
 165              		.cfi_startproc
 166              		@ args = 0, pretend = 0, frame = 0
 167              		@ frame_needed = 0, uses_anonymous_args = 0
 168              		@ link register save eliminated.
 169              	.LVL12:
 170              	.LBB29:
  30:Core/Src/devs/wheeler.cpp ****         {
 171              		.loc 1 30 0
 172 0000 0023     		movs	r3, #0
 173              	.LVL13:
 174              	.L21:
  30:Core/Src/devs/wheeler.cpp ****         {
 175              		.loc 1 30 0 is_stmt 0 discriminator 3
 176 0002 032B     		cmp	r3, #3
 177 0004 0DDC     		bgt	.L19
  32:Core/Src/devs/wheeler.cpp ****                 Wheel_arr[i].velocity = 0.000000;
 178              		.loc 1 32 0 is_stmt 1 discriminator 2
 179 0006 0748     		ldr	r0, .L22
 180 0008 5A00     		lsls	r2, r3, #1
 181 000a 1A44     		add	r2, r2, r3
 182 000c D100     		lsls	r1, r2, #3
 183 000e 4218     		adds	r2, r0, r1
 184 0010 4354     		strb	r3, [r0, r1]
  33:Core/Src/devs/wheeler.cpp **** 		Wheel_arr[i].next_velocity = 0.000000;
 185              		.loc 1 33 0 discriminator 2
 186 0012 0020     		movs	r0, #0
 187 0014 0021     		movs	r1, #0
 188 0016 C2E90401 		strd	r0, [r2, #16]
  34:Core/Src/devs/wheeler.cpp ****         }
 189              		.loc 1 34 0 discriminator 2
 190 001a C2E90201 		strd	r0, [r2, #8]
  30:Core/Src/devs/wheeler.cpp ****         {
 191              		.loc 1 30 0 discriminator 2
 192 001e 0133     		adds	r3, r3, #1
 193              	.LVL14:
 194 0020 EFE7     		b	.L21
 195              	.L19:
 196              	.LBE29:
  36:Core/Src/devs/wheeler.cpp **** 
 197              		.loc 1 36 0
 198 0022 7047     		bx	lr
ARM GAS  C:\Users\Prashant\AppData\Local\Temp\ccWdDaW2.s 			page 8


 199              	.L23:
 200              		.align	2
 201              	.L22:
 202 0024 00000000 		.word	.LANCHOR1
 203              		.cfi_endproc
 204              	.LFE353:
 206              		.section	.text._Z12Wheeler_Initv,"ax",%progbits
 207              		.align	1
 208              		.global	_Z12Wheeler_Initv
 209              		.syntax unified
 210              		.thumb
 211              		.thumb_func
 212              		.fpu fpv4-sp-d16
 214              	_Z12Wheeler_Initv:
 215              	.LFB354:
  39:Core/Src/devs/wheeler.cpp ****         __HAL_UART_ENABLE_IT(&huart2, UART_IT_TC);
 216              		.loc 1 39 0
 217              		.cfi_startproc
 218              		@ args = 0, pretend = 0, frame = 0
 219              		@ frame_needed = 0, uses_anonymous_args = 0
 220              		@ link register save eliminated.
  40:Core/Src/devs/wheeler.cpp **** }
 221              		.loc 1 40 0
 222 0000 034B     		ldr	r3, .L25
 223 0002 1A68     		ldr	r2, [r3]
 224 0004 D368     		ldr	r3, [r2, #12]
 225 0006 43F04003 		orr	r3, r3, #64
 226 000a D360     		str	r3, [r2, #12]
  41:Core/Src/devs/wheeler.cpp **** 
 227              		.loc 1 41 0
 228 000c 7047     		bx	lr
 229              	.L26:
 230 000e 00BF     		.align	2
 231              	.L25:
 232 0010 00000000 		.word	huart2
 233              		.cfi_endproc
 234              	.LFE354:
 236              		.global	__aeabi_f2d
 237              		.global	__aeabi_dadd
 238              		.global	__aeabi_d2f
 239              		.section	.text._Z17calc_WheelsOmegasPffffm,"ax",%progbits
 240              		.align	1
 241              		.global	_Z17calc_WheelsOmegasPffffm
 242              		.syntax unified
 243              		.thumb
 244              		.thumb_func
 245              		.fpu fpv4-sp-d16
 247              	_Z17calc_WheelsOmegasPffffm:
 248              	.LFB356:
  49:Core/Src/devs/wheeler.cpp ****         float vel[4];
 249              		.loc 1 49 0
 250              		.cfi_startproc
 251              		@ args = 0, pretend = 0, frame = 32
 252              		@ frame_needed = 0, uses_anonymous_args = 0
 253              	.LVL15:
 254 0000 70B5     		push	{r4, r5, r6, lr}
 255              	.LCFI1:
ARM GAS  C:\Users\Prashant\AppData\Local\Temp\ccWdDaW2.s 			page 9


 256              		.cfi_def_cfa_offset 16
 257              		.cfi_offset 4, -16
 258              		.cfi_offset 5, -12
 259              		.cfi_offset 6, -8
 260              		.cfi_offset 14, -4
 261 0002 2DED048B 		vpush.64	{d8, d9}
 262              	.LCFI2:
 263              		.cfi_def_cfa_offset 32
 264              		.cfi_offset 80, -32
 265              		.cfi_offset 81, -28
 266              		.cfi_offset 82, -24
 267              		.cfi_offset 83, -20
 268 0006 88B0     		sub	sp, sp, #32
 269              	.LCFI3:
 270              		.cfi_def_cfa_offset 64
 271 0008 0546     		mov	r5, r0
 272 000a F0EE408A 		vmov.f32	s17, s0
 273 000e B0EE418A 		vmov.f32	s16, s2
 274 0012 09EE101A 		vmov	s18, r1	@ int
  51:Core/Src/devs/wheeler.cpp ****         float velocity[3] = {v * cos(theta), v * sin(theta), -3*phi * 1000 / (float)(dt_millis)};
 275              		.loc 1 51 0
 276 0016 10EE900A 		vmov	r0, s1
 277              	.LVL16:
 278 001a FFF7FEFF 		bl	__aeabi_f2d
 279              	.LVL17:
 280 001e 33A3     		adr	r3, .L33+12
 281 0020 D3E90023 		ldrd	r2, [r3]
 282 0024 FFF7FEFF 		bl	__aeabi_dadd
 283              	.LVL18:
 284 0028 FFF7FEFF 		bl	__aeabi_d2f
 285              	.LVL19:
 286 002c 09EE900A 		vmov	s19, r0
 287              	.LVL20:
 288              	.LBB30:
 289              	.LBB31:
 290              		.file 3 "c:\\program files (x86)\\gnu tools arm embedded\\7 2017-q4-major\\arm-none-eabi\\include\
   1:c:\program files (x86)\gnu tools arm embedded\7 2017-q4-major\arm-none-eabi\include\c++\7.2.1\cmath **** // -*- C++ -*- C forwarding header.
   2:c:\program files (x86)\gnu tools arm embedded\7 2017-q4-major\arm-none-eabi\include\c++\7.2.1\cmath **** 
   3:c:\program files (x86)\gnu tools arm embedded\7 2017-q4-major\arm-none-eabi\include\c++\7.2.1\cmath **** // Copyright (C) 1997-2017 Free Software Foundation, Inc.
   4:c:\program files (x86)\gnu tools arm embedded\7 2017-q4-major\arm-none-eabi\include\c++\7.2.1\cmath **** //
   5:c:\program files (x86)\gnu tools arm embedded\7 2017-q4-major\arm-none-eabi\include\c++\7.2.1\cmath **** // This file is part of the GNU ISO C++ Library.  This library is free
   6:c:\program files (x86)\gnu tools arm embedded\7 2017-q4-major\arm-none-eabi\include\c++\7.2.1\cmath **** // software; you can redistribute it and/or modify it under the
   7:c:\program files (x86)\gnu tools arm embedded\7 2017-q4-major\arm-none-eabi\include\c++\7.2.1\cmath **** // terms of the GNU General Public License as published by the
   8:c:\program files (x86)\gnu tools arm embedded\7 2017-q4-major\arm-none-eabi\include\c++\7.2.1\cmath **** // Free Software Foundation; either version 3, or (at your option)
   9:c:\program files (x86)\gnu tools arm embedded\7 2017-q4-major\arm-none-eabi\include\c++\7.2.1\cmath **** // any later version.
  10:c:\program files (x86)\gnu tools arm embedded\7 2017-q4-major\arm-none-eabi\include\c++\7.2.1\cmath **** 
  11:c:\program files (x86)\gnu tools arm embedded\7 2017-q4-major\arm-none-eabi\include\c++\7.2.1\cmath **** // This library is distributed in the hope that it will be useful,
  12:c:\program files (x86)\gnu tools arm embedded\7 2017-q4-major\arm-none-eabi\include\c++\7.2.1\cmath **** // but WITHOUT ANY WARRANTY; without even the implied warranty of
  13:c:\program files (x86)\gnu tools arm embedded\7 2017-q4-major\arm-none-eabi\include\c++\7.2.1\cmath **** // MERCHANTABILITY or FITNESS FOR A PARTICULAR PURPOSE.  See the
  14:c:\program files (x86)\gnu tools arm embedded\7 2017-q4-major\arm-none-eabi\include\c++\7.2.1\cmath **** // GNU General Public License for more details.
  15:c:\program files (x86)\gnu tools arm embedded\7 2017-q4-major\arm-none-eabi\include\c++\7.2.1\cmath **** 
  16:c:\program files (x86)\gnu tools arm embedded\7 2017-q4-major\arm-none-eabi\include\c++\7.2.1\cmath **** // Under Section 7 of GPL version 3, you are granted additional
  17:c:\program files (x86)\gnu tools arm embedded\7 2017-q4-major\arm-none-eabi\include\c++\7.2.1\cmath **** // permissions described in the GCC Runtime Library Exception, version
  18:c:\program files (x86)\gnu tools arm embedded\7 2017-q4-major\arm-none-eabi\include\c++\7.2.1\cmath **** // 3.1, as published by the Free Software Foundation.
  19:c:\program files (x86)\gnu tools arm embedded\7 2017-q4-major\arm-none-eabi\include\c++\7.2.1\cmath **** 
  20:c:\program files (x86)\gnu tools arm embedded\7 2017-q4-major\arm-none-eabi\include\c++\7.2.1\cmath **** // You should have received a copy of the GNU General Public License and
  21:c:\program files (x86)\gnu tools arm embedded\7 2017-q4-major\arm-none-eabi\include\c++\7.2.1\cmath **** // a copy of the GCC Runtime Library Exception along with this program;
ARM GAS  C:\Users\Prashant\AppData\Local\Temp\ccWdDaW2.s 			page 10


  22:c:\program files (x86)\gnu tools arm embedded\7 2017-q4-major\arm-none-eabi\include\c++\7.2.1\cmath **** // see the files COPYING3 and COPYING.RUNTIME respectively.  If not, see
  23:c:\program files (x86)\gnu tools arm embedded\7 2017-q4-major\arm-none-eabi\include\c++\7.2.1\cmath **** // <http://www.gnu.org/licenses/>.
  24:c:\program files (x86)\gnu tools arm embedded\7 2017-q4-major\arm-none-eabi\include\c++\7.2.1\cmath **** 
  25:c:\program files (x86)\gnu tools arm embedded\7 2017-q4-major\arm-none-eabi\include\c++\7.2.1\cmath **** /** @file include/cmath
  26:c:\program files (x86)\gnu tools arm embedded\7 2017-q4-major\arm-none-eabi\include\c++\7.2.1\cmath ****  *  This is a Standard C++ Library file.  You should @c \#include this file
  27:c:\program files (x86)\gnu tools arm embedded\7 2017-q4-major\arm-none-eabi\include\c++\7.2.1\cmath ****  *  in your programs, rather than any of the @a *.h implementation files.
  28:c:\program files (x86)\gnu tools arm embedded\7 2017-q4-major\arm-none-eabi\include\c++\7.2.1\cmath ****  *
  29:c:\program files (x86)\gnu tools arm embedded\7 2017-q4-major\arm-none-eabi\include\c++\7.2.1\cmath ****  *  This is the C++ version of the Standard C Library header @c math.h,
  30:c:\program files (x86)\gnu tools arm embedded\7 2017-q4-major\arm-none-eabi\include\c++\7.2.1\cmath ****  *  and its contents are (mostly) the same as that header, but are all
  31:c:\program files (x86)\gnu tools arm embedded\7 2017-q4-major\arm-none-eabi\include\c++\7.2.1\cmath ****  *  contained in the namespace @c std (except for names which are defined
  32:c:\program files (x86)\gnu tools arm embedded\7 2017-q4-major\arm-none-eabi\include\c++\7.2.1\cmath ****  *  as macros in C).
  33:c:\program files (x86)\gnu tools arm embedded\7 2017-q4-major\arm-none-eabi\include\c++\7.2.1\cmath ****  */
  34:c:\program files (x86)\gnu tools arm embedded\7 2017-q4-major\arm-none-eabi\include\c++\7.2.1\cmath **** 
  35:c:\program files (x86)\gnu tools arm embedded\7 2017-q4-major\arm-none-eabi\include\c++\7.2.1\cmath **** //
  36:c:\program files (x86)\gnu tools arm embedded\7 2017-q4-major\arm-none-eabi\include\c++\7.2.1\cmath **** // ISO C++ 14882: 26.5  C library
  37:c:\program files (x86)\gnu tools arm embedded\7 2017-q4-major\arm-none-eabi\include\c++\7.2.1\cmath **** //
  38:c:\program files (x86)\gnu tools arm embedded\7 2017-q4-major\arm-none-eabi\include\c++\7.2.1\cmath **** 
  39:c:\program files (x86)\gnu tools arm embedded\7 2017-q4-major\arm-none-eabi\include\c++\7.2.1\cmath **** #pragma GCC system_header
  40:c:\program files (x86)\gnu tools arm embedded\7 2017-q4-major\arm-none-eabi\include\c++\7.2.1\cmath **** 
  41:c:\program files (x86)\gnu tools arm embedded\7 2017-q4-major\arm-none-eabi\include\c++\7.2.1\cmath **** #include <bits/c++config.h>
  42:c:\program files (x86)\gnu tools arm embedded\7 2017-q4-major\arm-none-eabi\include\c++\7.2.1\cmath **** #include <bits/cpp_type_traits.h>
  43:c:\program files (x86)\gnu tools arm embedded\7 2017-q4-major\arm-none-eabi\include\c++\7.2.1\cmath **** #include <ext/type_traits.h>
  44:c:\program files (x86)\gnu tools arm embedded\7 2017-q4-major\arm-none-eabi\include\c++\7.2.1\cmath **** #define _GLIBCXX_INCLUDE_NEXT_C_HEADERS
  45:c:\program files (x86)\gnu tools arm embedded\7 2017-q4-major\arm-none-eabi\include\c++\7.2.1\cmath **** #include_next <math.h>
  46:c:\program files (x86)\gnu tools arm embedded\7 2017-q4-major\arm-none-eabi\include\c++\7.2.1\cmath **** #undef _GLIBCXX_INCLUDE_NEXT_C_HEADERS
  47:c:\program files (x86)\gnu tools arm embedded\7 2017-q4-major\arm-none-eabi\include\c++\7.2.1\cmath **** #include <bits/std_abs.h>
  48:c:\program files (x86)\gnu tools arm embedded\7 2017-q4-major\arm-none-eabi\include\c++\7.2.1\cmath **** 
  49:c:\program files (x86)\gnu tools arm embedded\7 2017-q4-major\arm-none-eabi\include\c++\7.2.1\cmath **** #ifndef _GLIBCXX_CMATH
  50:c:\program files (x86)\gnu tools arm embedded\7 2017-q4-major\arm-none-eabi\include\c++\7.2.1\cmath **** #define _GLIBCXX_CMATH 1
  51:c:\program files (x86)\gnu tools arm embedded\7 2017-q4-major\arm-none-eabi\include\c++\7.2.1\cmath **** 
  52:c:\program files (x86)\gnu tools arm embedded\7 2017-q4-major\arm-none-eabi\include\c++\7.2.1\cmath **** // Get rid of those macros defined in <math.h> in lieu of real functions.
  53:c:\program files (x86)\gnu tools arm embedded\7 2017-q4-major\arm-none-eabi\include\c++\7.2.1\cmath **** #undef div
  54:c:\program files (x86)\gnu tools arm embedded\7 2017-q4-major\arm-none-eabi\include\c++\7.2.1\cmath **** #undef acos
  55:c:\program files (x86)\gnu tools arm embedded\7 2017-q4-major\arm-none-eabi\include\c++\7.2.1\cmath **** #undef asin
  56:c:\program files (x86)\gnu tools arm embedded\7 2017-q4-major\arm-none-eabi\include\c++\7.2.1\cmath **** #undef atan
  57:c:\program files (x86)\gnu tools arm embedded\7 2017-q4-major\arm-none-eabi\include\c++\7.2.1\cmath **** #undef atan2
  58:c:\program files (x86)\gnu tools arm embedded\7 2017-q4-major\arm-none-eabi\include\c++\7.2.1\cmath **** #undef ceil
  59:c:\program files (x86)\gnu tools arm embedded\7 2017-q4-major\arm-none-eabi\include\c++\7.2.1\cmath **** #undef cos
  60:c:\program files (x86)\gnu tools arm embedded\7 2017-q4-major\arm-none-eabi\include\c++\7.2.1\cmath **** #undef cosh
  61:c:\program files (x86)\gnu tools arm embedded\7 2017-q4-major\arm-none-eabi\include\c++\7.2.1\cmath **** #undef exp
  62:c:\program files (x86)\gnu tools arm embedded\7 2017-q4-major\arm-none-eabi\include\c++\7.2.1\cmath **** #undef fabs
  63:c:\program files (x86)\gnu tools arm embedded\7 2017-q4-major\arm-none-eabi\include\c++\7.2.1\cmath **** #undef floor
  64:c:\program files (x86)\gnu tools arm embedded\7 2017-q4-major\arm-none-eabi\include\c++\7.2.1\cmath **** #undef fmod
  65:c:\program files (x86)\gnu tools arm embedded\7 2017-q4-major\arm-none-eabi\include\c++\7.2.1\cmath **** #undef frexp
  66:c:\program files (x86)\gnu tools arm embedded\7 2017-q4-major\arm-none-eabi\include\c++\7.2.1\cmath **** #undef ldexp
  67:c:\program files (x86)\gnu tools arm embedded\7 2017-q4-major\arm-none-eabi\include\c++\7.2.1\cmath **** #undef log
  68:c:\program files (x86)\gnu tools arm embedded\7 2017-q4-major\arm-none-eabi\include\c++\7.2.1\cmath **** #undef log10
  69:c:\program files (x86)\gnu tools arm embedded\7 2017-q4-major\arm-none-eabi\include\c++\7.2.1\cmath **** #undef modf
  70:c:\program files (x86)\gnu tools arm embedded\7 2017-q4-major\arm-none-eabi\include\c++\7.2.1\cmath **** #undef pow
  71:c:\program files (x86)\gnu tools arm embedded\7 2017-q4-major\arm-none-eabi\include\c++\7.2.1\cmath **** #undef sin
  72:c:\program files (x86)\gnu tools arm embedded\7 2017-q4-major\arm-none-eabi\include\c++\7.2.1\cmath **** #undef sinh
  73:c:\program files (x86)\gnu tools arm embedded\7 2017-q4-major\arm-none-eabi\include\c++\7.2.1\cmath **** #undef sqrt
  74:c:\program files (x86)\gnu tools arm embedded\7 2017-q4-major\arm-none-eabi\include\c++\7.2.1\cmath **** #undef tan
  75:c:\program files (x86)\gnu tools arm embedded\7 2017-q4-major\arm-none-eabi\include\c++\7.2.1\cmath **** #undef tanh
  76:c:\program files (x86)\gnu tools arm embedded\7 2017-q4-major\arm-none-eabi\include\c++\7.2.1\cmath **** 
  77:c:\program files (x86)\gnu tools arm embedded\7 2017-q4-major\arm-none-eabi\include\c++\7.2.1\cmath **** extern "C++"
  78:c:\program files (x86)\gnu tools arm embedded\7 2017-q4-major\arm-none-eabi\include\c++\7.2.1\cmath **** {
ARM GAS  C:\Users\Prashant\AppData\Local\Temp\ccWdDaW2.s 			page 11


  79:c:\program files (x86)\gnu tools arm embedded\7 2017-q4-major\arm-none-eabi\include\c++\7.2.1\cmath **** namespace std _GLIBCXX_VISIBILITY(default)
  80:c:\program files (x86)\gnu tools arm embedded\7 2017-q4-major\arm-none-eabi\include\c++\7.2.1\cmath **** {
  81:c:\program files (x86)\gnu tools arm embedded\7 2017-q4-major\arm-none-eabi\include\c++\7.2.1\cmath **** _GLIBCXX_BEGIN_NAMESPACE_VERSION
  82:c:\program files (x86)\gnu tools arm embedded\7 2017-q4-major\arm-none-eabi\include\c++\7.2.1\cmath **** 
  83:c:\program files (x86)\gnu tools arm embedded\7 2017-q4-major\arm-none-eabi\include\c++\7.2.1\cmath ****   using ::acos;
  84:c:\program files (x86)\gnu tools arm embedded\7 2017-q4-major\arm-none-eabi\include\c++\7.2.1\cmath **** 
  85:c:\program files (x86)\gnu tools arm embedded\7 2017-q4-major\arm-none-eabi\include\c++\7.2.1\cmath **** #ifndef __CORRECT_ISO_CPP_MATH_H_PROTO
  86:c:\program files (x86)\gnu tools arm embedded\7 2017-q4-major\arm-none-eabi\include\c++\7.2.1\cmath ****   inline _GLIBCXX_CONSTEXPR float
  87:c:\program files (x86)\gnu tools arm embedded\7 2017-q4-major\arm-none-eabi\include\c++\7.2.1\cmath ****   acos(float __x)
  88:c:\program files (x86)\gnu tools arm embedded\7 2017-q4-major\arm-none-eabi\include\c++\7.2.1\cmath ****   { return __builtin_acosf(__x); }
  89:c:\program files (x86)\gnu tools arm embedded\7 2017-q4-major\arm-none-eabi\include\c++\7.2.1\cmath **** 
  90:c:\program files (x86)\gnu tools arm embedded\7 2017-q4-major\arm-none-eabi\include\c++\7.2.1\cmath ****   inline _GLIBCXX_CONSTEXPR long double
  91:c:\program files (x86)\gnu tools arm embedded\7 2017-q4-major\arm-none-eabi\include\c++\7.2.1\cmath ****   acos(long double __x)
  92:c:\program files (x86)\gnu tools arm embedded\7 2017-q4-major\arm-none-eabi\include\c++\7.2.1\cmath ****   { return __builtin_acosl(__x); }
  93:c:\program files (x86)\gnu tools arm embedded\7 2017-q4-major\arm-none-eabi\include\c++\7.2.1\cmath **** #endif
  94:c:\program files (x86)\gnu tools arm embedded\7 2017-q4-major\arm-none-eabi\include\c++\7.2.1\cmath **** 
  95:c:\program files (x86)\gnu tools arm embedded\7 2017-q4-major\arm-none-eabi\include\c++\7.2.1\cmath ****   template<typename _Tp>
  96:c:\program files (x86)\gnu tools arm embedded\7 2017-q4-major\arm-none-eabi\include\c++\7.2.1\cmath ****     inline _GLIBCXX_CONSTEXPR
  97:c:\program files (x86)\gnu tools arm embedded\7 2017-q4-major\arm-none-eabi\include\c++\7.2.1\cmath ****     typename __gnu_cxx::__enable_if<__is_integer<_Tp>::__value, 
  98:c:\program files (x86)\gnu tools arm embedded\7 2017-q4-major\arm-none-eabi\include\c++\7.2.1\cmath ****                                     double>::__type
  99:c:\program files (x86)\gnu tools arm embedded\7 2017-q4-major\arm-none-eabi\include\c++\7.2.1\cmath ****     acos(_Tp __x)
 100:c:\program files (x86)\gnu tools arm embedded\7 2017-q4-major\arm-none-eabi\include\c++\7.2.1\cmath ****     { return __builtin_acos(__x); }
 101:c:\program files (x86)\gnu tools arm embedded\7 2017-q4-major\arm-none-eabi\include\c++\7.2.1\cmath **** 
 102:c:\program files (x86)\gnu tools arm embedded\7 2017-q4-major\arm-none-eabi\include\c++\7.2.1\cmath ****   using ::asin;
 103:c:\program files (x86)\gnu tools arm embedded\7 2017-q4-major\arm-none-eabi\include\c++\7.2.1\cmath **** 
 104:c:\program files (x86)\gnu tools arm embedded\7 2017-q4-major\arm-none-eabi\include\c++\7.2.1\cmath **** #ifndef __CORRECT_ISO_CPP_MATH_H_PROTO
 105:c:\program files (x86)\gnu tools arm embedded\7 2017-q4-major\arm-none-eabi\include\c++\7.2.1\cmath ****   inline _GLIBCXX_CONSTEXPR float
 106:c:\program files (x86)\gnu tools arm embedded\7 2017-q4-major\arm-none-eabi\include\c++\7.2.1\cmath ****   asin(float __x)
 107:c:\program files (x86)\gnu tools arm embedded\7 2017-q4-major\arm-none-eabi\include\c++\7.2.1\cmath ****   { return __builtin_asinf(__x); }
 108:c:\program files (x86)\gnu tools arm embedded\7 2017-q4-major\arm-none-eabi\include\c++\7.2.1\cmath **** 
 109:c:\program files (x86)\gnu tools arm embedded\7 2017-q4-major\arm-none-eabi\include\c++\7.2.1\cmath ****   inline _GLIBCXX_CONSTEXPR long double
 110:c:\program files (x86)\gnu tools arm embedded\7 2017-q4-major\arm-none-eabi\include\c++\7.2.1\cmath ****   asin(long double __x)
 111:c:\program files (x86)\gnu tools arm embedded\7 2017-q4-major\arm-none-eabi\include\c++\7.2.1\cmath ****   { return __builtin_asinl(__x); }
 112:c:\program files (x86)\gnu tools arm embedded\7 2017-q4-major\arm-none-eabi\include\c++\7.2.1\cmath **** #endif
 113:c:\program files (x86)\gnu tools arm embedded\7 2017-q4-major\arm-none-eabi\include\c++\7.2.1\cmath **** 
 114:c:\program files (x86)\gnu tools arm embedded\7 2017-q4-major\arm-none-eabi\include\c++\7.2.1\cmath ****   template<typename _Tp>
 115:c:\program files (x86)\gnu tools arm embedded\7 2017-q4-major\arm-none-eabi\include\c++\7.2.1\cmath ****     inline _GLIBCXX_CONSTEXPR
 116:c:\program files (x86)\gnu tools arm embedded\7 2017-q4-major\arm-none-eabi\include\c++\7.2.1\cmath ****     typename __gnu_cxx::__enable_if<__is_integer<_Tp>::__value,
 117:c:\program files (x86)\gnu tools arm embedded\7 2017-q4-major\arm-none-eabi\include\c++\7.2.1\cmath ****                                     double>::__type
 118:c:\program files (x86)\gnu tools arm embedded\7 2017-q4-major\arm-none-eabi\include\c++\7.2.1\cmath ****     asin(_Tp __x)
 119:c:\program files (x86)\gnu tools arm embedded\7 2017-q4-major\arm-none-eabi\include\c++\7.2.1\cmath ****     { return __builtin_asin(__x); }
 120:c:\program files (x86)\gnu tools arm embedded\7 2017-q4-major\arm-none-eabi\include\c++\7.2.1\cmath **** 
 121:c:\program files (x86)\gnu tools arm embedded\7 2017-q4-major\arm-none-eabi\include\c++\7.2.1\cmath ****   using ::atan;
 122:c:\program files (x86)\gnu tools arm embedded\7 2017-q4-major\arm-none-eabi\include\c++\7.2.1\cmath **** 
 123:c:\program files (x86)\gnu tools arm embedded\7 2017-q4-major\arm-none-eabi\include\c++\7.2.1\cmath **** #ifndef __CORRECT_ISO_CPP_MATH_H_PROTO
 124:c:\program files (x86)\gnu tools arm embedded\7 2017-q4-major\arm-none-eabi\include\c++\7.2.1\cmath ****   inline _GLIBCXX_CONSTEXPR float
 125:c:\program files (x86)\gnu tools arm embedded\7 2017-q4-major\arm-none-eabi\include\c++\7.2.1\cmath ****   atan(float __x)
 126:c:\program files (x86)\gnu tools arm embedded\7 2017-q4-major\arm-none-eabi\include\c++\7.2.1\cmath ****   { return __builtin_atanf(__x); }
 127:c:\program files (x86)\gnu tools arm embedded\7 2017-q4-major\arm-none-eabi\include\c++\7.2.1\cmath **** 
 128:c:\program files (x86)\gnu tools arm embedded\7 2017-q4-major\arm-none-eabi\include\c++\7.2.1\cmath ****   inline _GLIBCXX_CONSTEXPR long double
 129:c:\program files (x86)\gnu tools arm embedded\7 2017-q4-major\arm-none-eabi\include\c++\7.2.1\cmath ****   atan(long double __x)
 130:c:\program files (x86)\gnu tools arm embedded\7 2017-q4-major\arm-none-eabi\include\c++\7.2.1\cmath ****   { return __builtin_atanl(__x); }
 131:c:\program files (x86)\gnu tools arm embedded\7 2017-q4-major\arm-none-eabi\include\c++\7.2.1\cmath **** #endif
 132:c:\program files (x86)\gnu tools arm embedded\7 2017-q4-major\arm-none-eabi\include\c++\7.2.1\cmath **** 
 133:c:\program files (x86)\gnu tools arm embedded\7 2017-q4-major\arm-none-eabi\include\c++\7.2.1\cmath ****   template<typename _Tp>
 134:c:\program files (x86)\gnu tools arm embedded\7 2017-q4-major\arm-none-eabi\include\c++\7.2.1\cmath ****     inline _GLIBCXX_CONSTEXPR
 135:c:\program files (x86)\gnu tools arm embedded\7 2017-q4-major\arm-none-eabi\include\c++\7.2.1\cmath ****     typename __gnu_cxx::__enable_if<__is_integer<_Tp>::__value,
ARM GAS  C:\Users\Prashant\AppData\Local\Temp\ccWdDaW2.s 			page 12


 136:c:\program files (x86)\gnu tools arm embedded\7 2017-q4-major\arm-none-eabi\include\c++\7.2.1\cmath ****                                     double>::__type
 137:c:\program files (x86)\gnu tools arm embedded\7 2017-q4-major\arm-none-eabi\include\c++\7.2.1\cmath ****     atan(_Tp __x)
 138:c:\program files (x86)\gnu tools arm embedded\7 2017-q4-major\arm-none-eabi\include\c++\7.2.1\cmath ****     { return __builtin_atan(__x); }
 139:c:\program files (x86)\gnu tools arm embedded\7 2017-q4-major\arm-none-eabi\include\c++\7.2.1\cmath **** 
 140:c:\program files (x86)\gnu tools arm embedded\7 2017-q4-major\arm-none-eabi\include\c++\7.2.1\cmath ****   using ::atan2;
 141:c:\program files (x86)\gnu tools arm embedded\7 2017-q4-major\arm-none-eabi\include\c++\7.2.1\cmath **** 
 142:c:\program files (x86)\gnu tools arm embedded\7 2017-q4-major\arm-none-eabi\include\c++\7.2.1\cmath **** #ifndef __CORRECT_ISO_CPP_MATH_H_PROTO
 143:c:\program files (x86)\gnu tools arm embedded\7 2017-q4-major\arm-none-eabi\include\c++\7.2.1\cmath ****   inline _GLIBCXX_CONSTEXPR float
 144:c:\program files (x86)\gnu tools arm embedded\7 2017-q4-major\arm-none-eabi\include\c++\7.2.1\cmath ****   atan2(float __y, float __x)
 145:c:\program files (x86)\gnu tools arm embedded\7 2017-q4-major\arm-none-eabi\include\c++\7.2.1\cmath ****   { return __builtin_atan2f(__y, __x); }
 146:c:\program files (x86)\gnu tools arm embedded\7 2017-q4-major\arm-none-eabi\include\c++\7.2.1\cmath **** 
 147:c:\program files (x86)\gnu tools arm embedded\7 2017-q4-major\arm-none-eabi\include\c++\7.2.1\cmath ****   inline _GLIBCXX_CONSTEXPR long double
 148:c:\program files (x86)\gnu tools arm embedded\7 2017-q4-major\arm-none-eabi\include\c++\7.2.1\cmath ****   atan2(long double __y, long double __x)
 149:c:\program files (x86)\gnu tools arm embedded\7 2017-q4-major\arm-none-eabi\include\c++\7.2.1\cmath ****   { return __builtin_atan2l(__y, __x); }
 150:c:\program files (x86)\gnu tools arm embedded\7 2017-q4-major\arm-none-eabi\include\c++\7.2.1\cmath **** #endif
 151:c:\program files (x86)\gnu tools arm embedded\7 2017-q4-major\arm-none-eabi\include\c++\7.2.1\cmath **** 
 152:c:\program files (x86)\gnu tools arm embedded\7 2017-q4-major\arm-none-eabi\include\c++\7.2.1\cmath ****   template<typename _Tp, typename _Up>
 153:c:\program files (x86)\gnu tools arm embedded\7 2017-q4-major\arm-none-eabi\include\c++\7.2.1\cmath ****     inline _GLIBCXX_CONSTEXPR
 154:c:\program files (x86)\gnu tools arm embedded\7 2017-q4-major\arm-none-eabi\include\c++\7.2.1\cmath ****     typename __gnu_cxx::__promote_2<_Tp, _Up>::__type
 155:c:\program files (x86)\gnu tools arm embedded\7 2017-q4-major\arm-none-eabi\include\c++\7.2.1\cmath ****     atan2(_Tp __y, _Up __x)
 156:c:\program files (x86)\gnu tools arm embedded\7 2017-q4-major\arm-none-eabi\include\c++\7.2.1\cmath ****     {
 157:c:\program files (x86)\gnu tools arm embedded\7 2017-q4-major\arm-none-eabi\include\c++\7.2.1\cmath ****       typedef typename __gnu_cxx::__promote_2<_Tp, _Up>::__type __type;
 158:c:\program files (x86)\gnu tools arm embedded\7 2017-q4-major\arm-none-eabi\include\c++\7.2.1\cmath ****       return atan2(__type(__y), __type(__x));
 159:c:\program files (x86)\gnu tools arm embedded\7 2017-q4-major\arm-none-eabi\include\c++\7.2.1\cmath ****     }
 160:c:\program files (x86)\gnu tools arm embedded\7 2017-q4-major\arm-none-eabi\include\c++\7.2.1\cmath **** 
 161:c:\program files (x86)\gnu tools arm embedded\7 2017-q4-major\arm-none-eabi\include\c++\7.2.1\cmath ****   using ::ceil;
 162:c:\program files (x86)\gnu tools arm embedded\7 2017-q4-major\arm-none-eabi\include\c++\7.2.1\cmath **** 
 163:c:\program files (x86)\gnu tools arm embedded\7 2017-q4-major\arm-none-eabi\include\c++\7.2.1\cmath **** #ifndef __CORRECT_ISO_CPP_MATH_H_PROTO
 164:c:\program files (x86)\gnu tools arm embedded\7 2017-q4-major\arm-none-eabi\include\c++\7.2.1\cmath ****   inline _GLIBCXX_CONSTEXPR float
 165:c:\program files (x86)\gnu tools arm embedded\7 2017-q4-major\arm-none-eabi\include\c++\7.2.1\cmath ****   ceil(float __x)
 166:c:\program files (x86)\gnu tools arm embedded\7 2017-q4-major\arm-none-eabi\include\c++\7.2.1\cmath ****   { return __builtin_ceilf(__x); }
 167:c:\program files (x86)\gnu tools arm embedded\7 2017-q4-major\arm-none-eabi\include\c++\7.2.1\cmath **** 
 168:c:\program files (x86)\gnu tools arm embedded\7 2017-q4-major\arm-none-eabi\include\c++\7.2.1\cmath ****   inline _GLIBCXX_CONSTEXPR long double
 169:c:\program files (x86)\gnu tools arm embedded\7 2017-q4-major\arm-none-eabi\include\c++\7.2.1\cmath ****   ceil(long double __x)
 170:c:\program files (x86)\gnu tools arm embedded\7 2017-q4-major\arm-none-eabi\include\c++\7.2.1\cmath ****   { return __builtin_ceill(__x); }
 171:c:\program files (x86)\gnu tools arm embedded\7 2017-q4-major\arm-none-eabi\include\c++\7.2.1\cmath **** #endif
 172:c:\program files (x86)\gnu tools arm embedded\7 2017-q4-major\arm-none-eabi\include\c++\7.2.1\cmath **** 
 173:c:\program files (x86)\gnu tools arm embedded\7 2017-q4-major\arm-none-eabi\include\c++\7.2.1\cmath ****   template<typename _Tp>
 174:c:\program files (x86)\gnu tools arm embedded\7 2017-q4-major\arm-none-eabi\include\c++\7.2.1\cmath ****     inline _GLIBCXX_CONSTEXPR
 175:c:\program files (x86)\gnu tools arm embedded\7 2017-q4-major\arm-none-eabi\include\c++\7.2.1\cmath ****     typename __gnu_cxx::__enable_if<__is_integer<_Tp>::__value, 
 176:c:\program files (x86)\gnu tools arm embedded\7 2017-q4-major\arm-none-eabi\include\c++\7.2.1\cmath ****                                     double>::__type
 177:c:\program files (x86)\gnu tools arm embedded\7 2017-q4-major\arm-none-eabi\include\c++\7.2.1\cmath ****     ceil(_Tp __x)
 178:c:\program files (x86)\gnu tools arm embedded\7 2017-q4-major\arm-none-eabi\include\c++\7.2.1\cmath ****     { return __builtin_ceil(__x); }
 179:c:\program files (x86)\gnu tools arm embedded\7 2017-q4-major\arm-none-eabi\include\c++\7.2.1\cmath **** 
 180:c:\program files (x86)\gnu tools arm embedded\7 2017-q4-major\arm-none-eabi\include\c++\7.2.1\cmath ****   using ::cos;
 181:c:\program files (x86)\gnu tools arm embedded\7 2017-q4-major\arm-none-eabi\include\c++\7.2.1\cmath **** 
 182:c:\program files (x86)\gnu tools arm embedded\7 2017-q4-major\arm-none-eabi\include\c++\7.2.1\cmath **** #ifndef __CORRECT_ISO_CPP_MATH_H_PROTO
 183:c:\program files (x86)\gnu tools arm embedded\7 2017-q4-major\arm-none-eabi\include\c++\7.2.1\cmath ****   inline _GLIBCXX_CONSTEXPR float
 184:c:\program files (x86)\gnu tools arm embedded\7 2017-q4-major\arm-none-eabi\include\c++\7.2.1\cmath ****   cos(float __x)
 185:c:\program files (x86)\gnu tools arm embedded\7 2017-q4-major\arm-none-eabi\include\c++\7.2.1\cmath ****   { return __builtin_cosf(__x); }
 291              		.loc 3 185 0
 292 0030 00EE100A 		vmov	s0, r0
 293 0034 FFF7FEFF 		bl	cosf
 294              	.LVL21:
 295              	.LBE31:
 296              	.LBE30:
  52:Core/Src/devs/wheeler.cpp **** 
ARM GAS  C:\Users\Prashant\AppData\Local\Temp\ccWdDaW2.s 			page 13


 297              		.loc 1 52 0
 298 0038 28EE800A 		vmul.f32	s0, s17, s0
 299 003c 8DED010A 		vstr.32	s0, [sp, #4]
 300              	.LVL22:
 301              	.LBB32:
 302              	.LBB33:
 186:c:\program files (x86)\gnu tools arm embedded\7 2017-q4-major\arm-none-eabi\include\c++\7.2.1\cmath **** 
 187:c:\program files (x86)\gnu tools arm embedded\7 2017-q4-major\arm-none-eabi\include\c++\7.2.1\cmath ****   inline _GLIBCXX_CONSTEXPR long double
 188:c:\program files (x86)\gnu tools arm embedded\7 2017-q4-major\arm-none-eabi\include\c++\7.2.1\cmath ****   cos(long double __x)
 189:c:\program files (x86)\gnu tools arm embedded\7 2017-q4-major\arm-none-eabi\include\c++\7.2.1\cmath ****   { return __builtin_cosl(__x); }
 190:c:\program files (x86)\gnu tools arm embedded\7 2017-q4-major\arm-none-eabi\include\c++\7.2.1\cmath **** #endif
 191:c:\program files (x86)\gnu tools arm embedded\7 2017-q4-major\arm-none-eabi\include\c++\7.2.1\cmath **** 
 192:c:\program files (x86)\gnu tools arm embedded\7 2017-q4-major\arm-none-eabi\include\c++\7.2.1\cmath ****   template<typename _Tp>
 193:c:\program files (x86)\gnu tools arm embedded\7 2017-q4-major\arm-none-eabi\include\c++\7.2.1\cmath ****     inline _GLIBCXX_CONSTEXPR
 194:c:\program files (x86)\gnu tools arm embedded\7 2017-q4-major\arm-none-eabi\include\c++\7.2.1\cmath ****     typename __gnu_cxx::__enable_if<__is_integer<_Tp>::__value,
 195:c:\program files (x86)\gnu tools arm embedded\7 2017-q4-major\arm-none-eabi\include\c++\7.2.1\cmath ****                                     double>::__type
 196:c:\program files (x86)\gnu tools arm embedded\7 2017-q4-major\arm-none-eabi\include\c++\7.2.1\cmath ****     cos(_Tp __x)
 197:c:\program files (x86)\gnu tools arm embedded\7 2017-q4-major\arm-none-eabi\include\c++\7.2.1\cmath ****     { return __builtin_cos(__x); }
 198:c:\program files (x86)\gnu tools arm embedded\7 2017-q4-major\arm-none-eabi\include\c++\7.2.1\cmath **** 
 199:c:\program files (x86)\gnu tools arm embedded\7 2017-q4-major\arm-none-eabi\include\c++\7.2.1\cmath ****   using ::cosh;
 200:c:\program files (x86)\gnu tools arm embedded\7 2017-q4-major\arm-none-eabi\include\c++\7.2.1\cmath **** 
 201:c:\program files (x86)\gnu tools arm embedded\7 2017-q4-major\arm-none-eabi\include\c++\7.2.1\cmath **** #ifndef __CORRECT_ISO_CPP_MATH_H_PROTO
 202:c:\program files (x86)\gnu tools arm embedded\7 2017-q4-major\arm-none-eabi\include\c++\7.2.1\cmath ****   inline _GLIBCXX_CONSTEXPR float
 203:c:\program files (x86)\gnu tools arm embedded\7 2017-q4-major\arm-none-eabi\include\c++\7.2.1\cmath ****   cosh(float __x)
 204:c:\program files (x86)\gnu tools arm embedded\7 2017-q4-major\arm-none-eabi\include\c++\7.2.1\cmath ****   { return __builtin_coshf(__x); }
 205:c:\program files (x86)\gnu tools arm embedded\7 2017-q4-major\arm-none-eabi\include\c++\7.2.1\cmath **** 
 206:c:\program files (x86)\gnu tools arm embedded\7 2017-q4-major\arm-none-eabi\include\c++\7.2.1\cmath ****   inline _GLIBCXX_CONSTEXPR long double
 207:c:\program files (x86)\gnu tools arm embedded\7 2017-q4-major\arm-none-eabi\include\c++\7.2.1\cmath ****   cosh(long double __x)
 208:c:\program files (x86)\gnu tools arm embedded\7 2017-q4-major\arm-none-eabi\include\c++\7.2.1\cmath ****   { return __builtin_coshl(__x); }
 209:c:\program files (x86)\gnu tools arm embedded\7 2017-q4-major\arm-none-eabi\include\c++\7.2.1\cmath **** #endif
 210:c:\program files (x86)\gnu tools arm embedded\7 2017-q4-major\arm-none-eabi\include\c++\7.2.1\cmath **** 
 211:c:\program files (x86)\gnu tools arm embedded\7 2017-q4-major\arm-none-eabi\include\c++\7.2.1\cmath ****   template<typename _Tp>
 212:c:\program files (x86)\gnu tools arm embedded\7 2017-q4-major\arm-none-eabi\include\c++\7.2.1\cmath ****     inline _GLIBCXX_CONSTEXPR
 213:c:\program files (x86)\gnu tools arm embedded\7 2017-q4-major\arm-none-eabi\include\c++\7.2.1\cmath ****     typename __gnu_cxx::__enable_if<__is_integer<_Tp>::__value,
 214:c:\program files (x86)\gnu tools arm embedded\7 2017-q4-major\arm-none-eabi\include\c++\7.2.1\cmath ****                                     double>::__type
 215:c:\program files (x86)\gnu tools arm embedded\7 2017-q4-major\arm-none-eabi\include\c++\7.2.1\cmath ****     cosh(_Tp __x)
 216:c:\program files (x86)\gnu tools arm embedded\7 2017-q4-major\arm-none-eabi\include\c++\7.2.1\cmath ****     { return __builtin_cosh(__x); }
 217:c:\program files (x86)\gnu tools arm embedded\7 2017-q4-major\arm-none-eabi\include\c++\7.2.1\cmath **** 
 218:c:\program files (x86)\gnu tools arm embedded\7 2017-q4-major\arm-none-eabi\include\c++\7.2.1\cmath ****   using ::exp;
 219:c:\program files (x86)\gnu tools arm embedded\7 2017-q4-major\arm-none-eabi\include\c++\7.2.1\cmath **** 
 220:c:\program files (x86)\gnu tools arm embedded\7 2017-q4-major\arm-none-eabi\include\c++\7.2.1\cmath **** #ifndef __CORRECT_ISO_CPP_MATH_H_PROTO
 221:c:\program files (x86)\gnu tools arm embedded\7 2017-q4-major\arm-none-eabi\include\c++\7.2.1\cmath ****   inline _GLIBCXX_CONSTEXPR float
 222:c:\program files (x86)\gnu tools arm embedded\7 2017-q4-major\arm-none-eabi\include\c++\7.2.1\cmath ****   exp(float __x)
 223:c:\program files (x86)\gnu tools arm embedded\7 2017-q4-major\arm-none-eabi\include\c++\7.2.1\cmath ****   { return __builtin_expf(__x); }
 224:c:\program files (x86)\gnu tools arm embedded\7 2017-q4-major\arm-none-eabi\include\c++\7.2.1\cmath **** 
 225:c:\program files (x86)\gnu tools arm embedded\7 2017-q4-major\arm-none-eabi\include\c++\7.2.1\cmath ****   inline _GLIBCXX_CONSTEXPR long double
 226:c:\program files (x86)\gnu tools arm embedded\7 2017-q4-major\arm-none-eabi\include\c++\7.2.1\cmath ****   exp(long double __x)
 227:c:\program files (x86)\gnu tools arm embedded\7 2017-q4-major\arm-none-eabi\include\c++\7.2.1\cmath ****   { return __builtin_expl(__x); }
 228:c:\program files (x86)\gnu tools arm embedded\7 2017-q4-major\arm-none-eabi\include\c++\7.2.1\cmath **** #endif
 229:c:\program files (x86)\gnu tools arm embedded\7 2017-q4-major\arm-none-eabi\include\c++\7.2.1\cmath **** 
 230:c:\program files (x86)\gnu tools arm embedded\7 2017-q4-major\arm-none-eabi\include\c++\7.2.1\cmath ****   template<typename _Tp>
 231:c:\program files (x86)\gnu tools arm embedded\7 2017-q4-major\arm-none-eabi\include\c++\7.2.1\cmath ****     inline _GLIBCXX_CONSTEXPR
 232:c:\program files (x86)\gnu tools arm embedded\7 2017-q4-major\arm-none-eabi\include\c++\7.2.1\cmath ****     typename __gnu_cxx::__enable_if<__is_integer<_Tp>::__value,
 233:c:\program files (x86)\gnu tools arm embedded\7 2017-q4-major\arm-none-eabi\include\c++\7.2.1\cmath ****                                     double>::__type
 234:c:\program files (x86)\gnu tools arm embedded\7 2017-q4-major\arm-none-eabi\include\c++\7.2.1\cmath ****     exp(_Tp __x)
 235:c:\program files (x86)\gnu tools arm embedded\7 2017-q4-major\arm-none-eabi\include\c++\7.2.1\cmath ****     { return __builtin_exp(__x); }
 236:c:\program files (x86)\gnu tools arm embedded\7 2017-q4-major\arm-none-eabi\include\c++\7.2.1\cmath **** 
ARM GAS  C:\Users\Prashant\AppData\Local\Temp\ccWdDaW2.s 			page 14


 237:c:\program files (x86)\gnu tools arm embedded\7 2017-q4-major\arm-none-eabi\include\c++\7.2.1\cmath ****   using ::fabs;
 238:c:\program files (x86)\gnu tools arm embedded\7 2017-q4-major\arm-none-eabi\include\c++\7.2.1\cmath **** 
 239:c:\program files (x86)\gnu tools arm embedded\7 2017-q4-major\arm-none-eabi\include\c++\7.2.1\cmath **** #ifndef __CORRECT_ISO_CPP_MATH_H_PROTO
 240:c:\program files (x86)\gnu tools arm embedded\7 2017-q4-major\arm-none-eabi\include\c++\7.2.1\cmath ****   inline _GLIBCXX_CONSTEXPR float
 241:c:\program files (x86)\gnu tools arm embedded\7 2017-q4-major\arm-none-eabi\include\c++\7.2.1\cmath ****   fabs(float __x)
 242:c:\program files (x86)\gnu tools arm embedded\7 2017-q4-major\arm-none-eabi\include\c++\7.2.1\cmath ****   { return __builtin_fabsf(__x); }
 243:c:\program files (x86)\gnu tools arm embedded\7 2017-q4-major\arm-none-eabi\include\c++\7.2.1\cmath **** 
 244:c:\program files (x86)\gnu tools arm embedded\7 2017-q4-major\arm-none-eabi\include\c++\7.2.1\cmath ****   inline _GLIBCXX_CONSTEXPR long double
 245:c:\program files (x86)\gnu tools arm embedded\7 2017-q4-major\arm-none-eabi\include\c++\7.2.1\cmath ****   fabs(long double __x)
 246:c:\program files (x86)\gnu tools arm embedded\7 2017-q4-major\arm-none-eabi\include\c++\7.2.1\cmath ****   { return __builtin_fabsl(__x); }
 247:c:\program files (x86)\gnu tools arm embedded\7 2017-q4-major\arm-none-eabi\include\c++\7.2.1\cmath **** #endif
 248:c:\program files (x86)\gnu tools arm embedded\7 2017-q4-major\arm-none-eabi\include\c++\7.2.1\cmath **** 
 249:c:\program files (x86)\gnu tools arm embedded\7 2017-q4-major\arm-none-eabi\include\c++\7.2.1\cmath ****   template<typename _Tp>
 250:c:\program files (x86)\gnu tools arm embedded\7 2017-q4-major\arm-none-eabi\include\c++\7.2.1\cmath ****     inline _GLIBCXX_CONSTEXPR
 251:c:\program files (x86)\gnu tools arm embedded\7 2017-q4-major\arm-none-eabi\include\c++\7.2.1\cmath ****     typename __gnu_cxx::__enable_if<__is_integer<_Tp>::__value,
 252:c:\program files (x86)\gnu tools arm embedded\7 2017-q4-major\arm-none-eabi\include\c++\7.2.1\cmath ****                                     double>::__type
 253:c:\program files (x86)\gnu tools arm embedded\7 2017-q4-major\arm-none-eabi\include\c++\7.2.1\cmath ****     fabs(_Tp __x)
 254:c:\program files (x86)\gnu tools arm embedded\7 2017-q4-major\arm-none-eabi\include\c++\7.2.1\cmath ****     { return __builtin_fabs(__x); }
 255:c:\program files (x86)\gnu tools arm embedded\7 2017-q4-major\arm-none-eabi\include\c++\7.2.1\cmath **** 
 256:c:\program files (x86)\gnu tools arm embedded\7 2017-q4-major\arm-none-eabi\include\c++\7.2.1\cmath ****   using ::floor;
 257:c:\program files (x86)\gnu tools arm embedded\7 2017-q4-major\arm-none-eabi\include\c++\7.2.1\cmath **** 
 258:c:\program files (x86)\gnu tools arm embedded\7 2017-q4-major\arm-none-eabi\include\c++\7.2.1\cmath **** #ifndef __CORRECT_ISO_CPP_MATH_H_PROTO
 259:c:\program files (x86)\gnu tools arm embedded\7 2017-q4-major\arm-none-eabi\include\c++\7.2.1\cmath ****   inline _GLIBCXX_CONSTEXPR float
 260:c:\program files (x86)\gnu tools arm embedded\7 2017-q4-major\arm-none-eabi\include\c++\7.2.1\cmath ****   floor(float __x)
 261:c:\program files (x86)\gnu tools arm embedded\7 2017-q4-major\arm-none-eabi\include\c++\7.2.1\cmath ****   { return __builtin_floorf(__x); }
 262:c:\program files (x86)\gnu tools arm embedded\7 2017-q4-major\arm-none-eabi\include\c++\7.2.1\cmath **** 
 263:c:\program files (x86)\gnu tools arm embedded\7 2017-q4-major\arm-none-eabi\include\c++\7.2.1\cmath ****   inline _GLIBCXX_CONSTEXPR long double
 264:c:\program files (x86)\gnu tools arm embedded\7 2017-q4-major\arm-none-eabi\include\c++\7.2.1\cmath ****   floor(long double __x)
 265:c:\program files (x86)\gnu tools arm embedded\7 2017-q4-major\arm-none-eabi\include\c++\7.2.1\cmath ****   { return __builtin_floorl(__x); }
 266:c:\program files (x86)\gnu tools arm embedded\7 2017-q4-major\arm-none-eabi\include\c++\7.2.1\cmath **** #endif
 267:c:\program files (x86)\gnu tools arm embedded\7 2017-q4-major\arm-none-eabi\include\c++\7.2.1\cmath **** 
 268:c:\program files (x86)\gnu tools arm embedded\7 2017-q4-major\arm-none-eabi\include\c++\7.2.1\cmath ****   template<typename _Tp>
 269:c:\program files (x86)\gnu tools arm embedded\7 2017-q4-major\arm-none-eabi\include\c++\7.2.1\cmath ****     inline _GLIBCXX_CONSTEXPR
 270:c:\program files (x86)\gnu tools arm embedded\7 2017-q4-major\arm-none-eabi\include\c++\7.2.1\cmath ****     typename __gnu_cxx::__enable_if<__is_integer<_Tp>::__value,
 271:c:\program files (x86)\gnu tools arm embedded\7 2017-q4-major\arm-none-eabi\include\c++\7.2.1\cmath ****                                     double>::__type
 272:c:\program files (x86)\gnu tools arm embedded\7 2017-q4-major\arm-none-eabi\include\c++\7.2.1\cmath ****     floor(_Tp __x)
 273:c:\program files (x86)\gnu tools arm embedded\7 2017-q4-major\arm-none-eabi\include\c++\7.2.1\cmath ****     { return __builtin_floor(__x); }
 274:c:\program files (x86)\gnu tools arm embedded\7 2017-q4-major\arm-none-eabi\include\c++\7.2.1\cmath **** 
 275:c:\program files (x86)\gnu tools arm embedded\7 2017-q4-major\arm-none-eabi\include\c++\7.2.1\cmath ****   using ::fmod;
 276:c:\program files (x86)\gnu tools arm embedded\7 2017-q4-major\arm-none-eabi\include\c++\7.2.1\cmath **** 
 277:c:\program files (x86)\gnu tools arm embedded\7 2017-q4-major\arm-none-eabi\include\c++\7.2.1\cmath **** #ifndef __CORRECT_ISO_CPP_MATH_H_PROTO
 278:c:\program files (x86)\gnu tools arm embedded\7 2017-q4-major\arm-none-eabi\include\c++\7.2.1\cmath ****   inline _GLIBCXX_CONSTEXPR float
 279:c:\program files (x86)\gnu tools arm embedded\7 2017-q4-major\arm-none-eabi\include\c++\7.2.1\cmath ****   fmod(float __x, float __y)
 280:c:\program files (x86)\gnu tools arm embedded\7 2017-q4-major\arm-none-eabi\include\c++\7.2.1\cmath ****   { return __builtin_fmodf(__x, __y); }
 281:c:\program files (x86)\gnu tools arm embedded\7 2017-q4-major\arm-none-eabi\include\c++\7.2.1\cmath **** 
 282:c:\program files (x86)\gnu tools arm embedded\7 2017-q4-major\arm-none-eabi\include\c++\7.2.1\cmath ****   inline _GLIBCXX_CONSTEXPR long double
 283:c:\program files (x86)\gnu tools arm embedded\7 2017-q4-major\arm-none-eabi\include\c++\7.2.1\cmath ****   fmod(long double __x, long double __y)
 284:c:\program files (x86)\gnu tools arm embedded\7 2017-q4-major\arm-none-eabi\include\c++\7.2.1\cmath ****   { return __builtin_fmodl(__x, __y); }
 285:c:\program files (x86)\gnu tools arm embedded\7 2017-q4-major\arm-none-eabi\include\c++\7.2.1\cmath **** #endif
 286:c:\program files (x86)\gnu tools arm embedded\7 2017-q4-major\arm-none-eabi\include\c++\7.2.1\cmath **** 
 287:c:\program files (x86)\gnu tools arm embedded\7 2017-q4-major\arm-none-eabi\include\c++\7.2.1\cmath ****   template<typename _Tp, typename _Up>
 288:c:\program files (x86)\gnu tools arm embedded\7 2017-q4-major\arm-none-eabi\include\c++\7.2.1\cmath ****     inline _GLIBCXX_CONSTEXPR
 289:c:\program files (x86)\gnu tools arm embedded\7 2017-q4-major\arm-none-eabi\include\c++\7.2.1\cmath ****     typename __gnu_cxx::__promote_2<_Tp, _Up>::__type
 290:c:\program files (x86)\gnu tools arm embedded\7 2017-q4-major\arm-none-eabi\include\c++\7.2.1\cmath ****     fmod(_Tp __x, _Up __y)
 291:c:\program files (x86)\gnu tools arm embedded\7 2017-q4-major\arm-none-eabi\include\c++\7.2.1\cmath ****     {
 292:c:\program files (x86)\gnu tools arm embedded\7 2017-q4-major\arm-none-eabi\include\c++\7.2.1\cmath ****       typedef typename __gnu_cxx::__promote_2<_Tp, _Up>::__type __type;
 293:c:\program files (x86)\gnu tools arm embedded\7 2017-q4-major\arm-none-eabi\include\c++\7.2.1\cmath ****       return fmod(__type(__x), __type(__y));
ARM GAS  C:\Users\Prashant\AppData\Local\Temp\ccWdDaW2.s 			page 15


 294:c:\program files (x86)\gnu tools arm embedded\7 2017-q4-major\arm-none-eabi\include\c++\7.2.1\cmath ****     }
 295:c:\program files (x86)\gnu tools arm embedded\7 2017-q4-major\arm-none-eabi\include\c++\7.2.1\cmath **** 
 296:c:\program files (x86)\gnu tools arm embedded\7 2017-q4-major\arm-none-eabi\include\c++\7.2.1\cmath ****   using ::frexp;
 297:c:\program files (x86)\gnu tools arm embedded\7 2017-q4-major\arm-none-eabi\include\c++\7.2.1\cmath **** 
 298:c:\program files (x86)\gnu tools arm embedded\7 2017-q4-major\arm-none-eabi\include\c++\7.2.1\cmath **** #ifndef __CORRECT_ISO_CPP_MATH_H_PROTO
 299:c:\program files (x86)\gnu tools arm embedded\7 2017-q4-major\arm-none-eabi\include\c++\7.2.1\cmath ****   inline float
 300:c:\program files (x86)\gnu tools arm embedded\7 2017-q4-major\arm-none-eabi\include\c++\7.2.1\cmath ****   frexp(float __x, int* __exp)
 301:c:\program files (x86)\gnu tools arm embedded\7 2017-q4-major\arm-none-eabi\include\c++\7.2.1\cmath ****   { return __builtin_frexpf(__x, __exp); }
 302:c:\program files (x86)\gnu tools arm embedded\7 2017-q4-major\arm-none-eabi\include\c++\7.2.1\cmath **** 
 303:c:\program files (x86)\gnu tools arm embedded\7 2017-q4-major\arm-none-eabi\include\c++\7.2.1\cmath ****   inline long double
 304:c:\program files (x86)\gnu tools arm embedded\7 2017-q4-major\arm-none-eabi\include\c++\7.2.1\cmath ****   frexp(long double __x, int* __exp)
 305:c:\program files (x86)\gnu tools arm embedded\7 2017-q4-major\arm-none-eabi\include\c++\7.2.1\cmath ****   { return __builtin_frexpl(__x, __exp); }
 306:c:\program files (x86)\gnu tools arm embedded\7 2017-q4-major\arm-none-eabi\include\c++\7.2.1\cmath **** #endif
 307:c:\program files (x86)\gnu tools arm embedded\7 2017-q4-major\arm-none-eabi\include\c++\7.2.1\cmath **** 
 308:c:\program files (x86)\gnu tools arm embedded\7 2017-q4-major\arm-none-eabi\include\c++\7.2.1\cmath ****   template<typename _Tp>
 309:c:\program files (x86)\gnu tools arm embedded\7 2017-q4-major\arm-none-eabi\include\c++\7.2.1\cmath ****     inline _GLIBCXX_CONSTEXPR
 310:c:\program files (x86)\gnu tools arm embedded\7 2017-q4-major\arm-none-eabi\include\c++\7.2.1\cmath ****     typename __gnu_cxx::__enable_if<__is_integer<_Tp>::__value, 
 311:c:\program files (x86)\gnu tools arm embedded\7 2017-q4-major\arm-none-eabi\include\c++\7.2.1\cmath ****                                     double>::__type
 312:c:\program files (x86)\gnu tools arm embedded\7 2017-q4-major\arm-none-eabi\include\c++\7.2.1\cmath ****     frexp(_Tp __x, int* __exp)
 313:c:\program files (x86)\gnu tools arm embedded\7 2017-q4-major\arm-none-eabi\include\c++\7.2.1\cmath ****     { return __builtin_frexp(__x, __exp); }
 314:c:\program files (x86)\gnu tools arm embedded\7 2017-q4-major\arm-none-eabi\include\c++\7.2.1\cmath **** 
 315:c:\program files (x86)\gnu tools arm embedded\7 2017-q4-major\arm-none-eabi\include\c++\7.2.1\cmath ****   using ::ldexp;
 316:c:\program files (x86)\gnu tools arm embedded\7 2017-q4-major\arm-none-eabi\include\c++\7.2.1\cmath **** 
 317:c:\program files (x86)\gnu tools arm embedded\7 2017-q4-major\arm-none-eabi\include\c++\7.2.1\cmath **** #ifndef __CORRECT_ISO_CPP_MATH_H_PROTO
 318:c:\program files (x86)\gnu tools arm embedded\7 2017-q4-major\arm-none-eabi\include\c++\7.2.1\cmath ****   inline _GLIBCXX_CONSTEXPR float
 319:c:\program files (x86)\gnu tools arm embedded\7 2017-q4-major\arm-none-eabi\include\c++\7.2.1\cmath ****   ldexp(float __x, int __exp)
 320:c:\program files (x86)\gnu tools arm embedded\7 2017-q4-major\arm-none-eabi\include\c++\7.2.1\cmath ****   { return __builtin_ldexpf(__x, __exp); }
 321:c:\program files (x86)\gnu tools arm embedded\7 2017-q4-major\arm-none-eabi\include\c++\7.2.1\cmath **** 
 322:c:\program files (x86)\gnu tools arm embedded\7 2017-q4-major\arm-none-eabi\include\c++\7.2.1\cmath ****   inline _GLIBCXX_CONSTEXPR long double
 323:c:\program files (x86)\gnu tools arm embedded\7 2017-q4-major\arm-none-eabi\include\c++\7.2.1\cmath ****   ldexp(long double __x, int __exp)
 324:c:\program files (x86)\gnu tools arm embedded\7 2017-q4-major\arm-none-eabi\include\c++\7.2.1\cmath ****   { return __builtin_ldexpl(__x, __exp); }
 325:c:\program files (x86)\gnu tools arm embedded\7 2017-q4-major\arm-none-eabi\include\c++\7.2.1\cmath **** #endif
 326:c:\program files (x86)\gnu tools arm embedded\7 2017-q4-major\arm-none-eabi\include\c++\7.2.1\cmath **** 
 327:c:\program files (x86)\gnu tools arm embedded\7 2017-q4-major\arm-none-eabi\include\c++\7.2.1\cmath ****   template<typename _Tp>
 328:c:\program files (x86)\gnu tools arm embedded\7 2017-q4-major\arm-none-eabi\include\c++\7.2.1\cmath ****     inline _GLIBCXX_CONSTEXPR
 329:c:\program files (x86)\gnu tools arm embedded\7 2017-q4-major\arm-none-eabi\include\c++\7.2.1\cmath ****     typename __gnu_cxx::__enable_if<__is_integer<_Tp>::__value, 
 330:c:\program files (x86)\gnu tools arm embedded\7 2017-q4-major\arm-none-eabi\include\c++\7.2.1\cmath ****                                     double>::__type
 331:c:\program files (x86)\gnu tools arm embedded\7 2017-q4-major\arm-none-eabi\include\c++\7.2.1\cmath ****     ldexp(_Tp __x, int __exp)
 332:c:\program files (x86)\gnu tools arm embedded\7 2017-q4-major\arm-none-eabi\include\c++\7.2.1\cmath ****     { return __builtin_ldexp(__x, __exp); }
 333:c:\program files (x86)\gnu tools arm embedded\7 2017-q4-major\arm-none-eabi\include\c++\7.2.1\cmath **** 
 334:c:\program files (x86)\gnu tools arm embedded\7 2017-q4-major\arm-none-eabi\include\c++\7.2.1\cmath ****   using ::log;
 335:c:\program files (x86)\gnu tools arm embedded\7 2017-q4-major\arm-none-eabi\include\c++\7.2.1\cmath **** 
 336:c:\program files (x86)\gnu tools arm embedded\7 2017-q4-major\arm-none-eabi\include\c++\7.2.1\cmath **** #ifndef __CORRECT_ISO_CPP_MATH_H_PROTO
 337:c:\program files (x86)\gnu tools arm embedded\7 2017-q4-major\arm-none-eabi\include\c++\7.2.1\cmath ****   inline _GLIBCXX_CONSTEXPR float
 338:c:\program files (x86)\gnu tools arm embedded\7 2017-q4-major\arm-none-eabi\include\c++\7.2.1\cmath ****   log(float __x)
 339:c:\program files (x86)\gnu tools arm embedded\7 2017-q4-major\arm-none-eabi\include\c++\7.2.1\cmath ****   { return __builtin_logf(__x); }
 340:c:\program files (x86)\gnu tools arm embedded\7 2017-q4-major\arm-none-eabi\include\c++\7.2.1\cmath **** 
 341:c:\program files (x86)\gnu tools arm embedded\7 2017-q4-major\arm-none-eabi\include\c++\7.2.1\cmath ****   inline _GLIBCXX_CONSTEXPR long double
 342:c:\program files (x86)\gnu tools arm embedded\7 2017-q4-major\arm-none-eabi\include\c++\7.2.1\cmath ****   log(long double __x)
 343:c:\program files (x86)\gnu tools arm embedded\7 2017-q4-major\arm-none-eabi\include\c++\7.2.1\cmath ****   { return __builtin_logl(__x); }
 344:c:\program files (x86)\gnu tools arm embedded\7 2017-q4-major\arm-none-eabi\include\c++\7.2.1\cmath **** #endif
 345:c:\program files (x86)\gnu tools arm embedded\7 2017-q4-major\arm-none-eabi\include\c++\7.2.1\cmath **** 
 346:c:\program files (x86)\gnu tools arm embedded\7 2017-q4-major\arm-none-eabi\include\c++\7.2.1\cmath ****   template<typename _Tp>
 347:c:\program files (x86)\gnu tools arm embedded\7 2017-q4-major\arm-none-eabi\include\c++\7.2.1\cmath ****     inline _GLIBCXX_CONSTEXPR
 348:c:\program files (x86)\gnu tools arm embedded\7 2017-q4-major\arm-none-eabi\include\c++\7.2.1\cmath ****     typename __gnu_cxx::__enable_if<__is_integer<_Tp>::__value, 
 349:c:\program files (x86)\gnu tools arm embedded\7 2017-q4-major\arm-none-eabi\include\c++\7.2.1\cmath ****                                     double>::__type
 350:c:\program files (x86)\gnu tools arm embedded\7 2017-q4-major\arm-none-eabi\include\c++\7.2.1\cmath ****     log(_Tp __x)
ARM GAS  C:\Users\Prashant\AppData\Local\Temp\ccWdDaW2.s 			page 16


 351:c:\program files (x86)\gnu tools arm embedded\7 2017-q4-major\arm-none-eabi\include\c++\7.2.1\cmath ****     { return __builtin_log(__x); }
 352:c:\program files (x86)\gnu tools arm embedded\7 2017-q4-major\arm-none-eabi\include\c++\7.2.1\cmath **** 
 353:c:\program files (x86)\gnu tools arm embedded\7 2017-q4-major\arm-none-eabi\include\c++\7.2.1\cmath ****   using ::log10;
 354:c:\program files (x86)\gnu tools arm embedded\7 2017-q4-major\arm-none-eabi\include\c++\7.2.1\cmath **** 
 355:c:\program files (x86)\gnu tools arm embedded\7 2017-q4-major\arm-none-eabi\include\c++\7.2.1\cmath **** #ifndef __CORRECT_ISO_CPP_MATH_H_PROTO
 356:c:\program files (x86)\gnu tools arm embedded\7 2017-q4-major\arm-none-eabi\include\c++\7.2.1\cmath ****   inline _GLIBCXX_CONSTEXPR float
 357:c:\program files (x86)\gnu tools arm embedded\7 2017-q4-major\arm-none-eabi\include\c++\7.2.1\cmath ****   log10(float __x)
 358:c:\program files (x86)\gnu tools arm embedded\7 2017-q4-major\arm-none-eabi\include\c++\7.2.1\cmath ****   { return __builtin_log10f(__x); }
 359:c:\program files (x86)\gnu tools arm embedded\7 2017-q4-major\arm-none-eabi\include\c++\7.2.1\cmath **** 
 360:c:\program files (x86)\gnu tools arm embedded\7 2017-q4-major\arm-none-eabi\include\c++\7.2.1\cmath ****   inline _GLIBCXX_CONSTEXPR long double
 361:c:\program files (x86)\gnu tools arm embedded\7 2017-q4-major\arm-none-eabi\include\c++\7.2.1\cmath ****   log10(long double __x)
 362:c:\program files (x86)\gnu tools arm embedded\7 2017-q4-major\arm-none-eabi\include\c++\7.2.1\cmath ****   { return __builtin_log10l(__x); }
 363:c:\program files (x86)\gnu tools arm embedded\7 2017-q4-major\arm-none-eabi\include\c++\7.2.1\cmath **** #endif
 364:c:\program files (x86)\gnu tools arm embedded\7 2017-q4-major\arm-none-eabi\include\c++\7.2.1\cmath **** 
 365:c:\program files (x86)\gnu tools arm embedded\7 2017-q4-major\arm-none-eabi\include\c++\7.2.1\cmath ****   template<typename _Tp>
 366:c:\program files (x86)\gnu tools arm embedded\7 2017-q4-major\arm-none-eabi\include\c++\7.2.1\cmath ****     inline _GLIBCXX_CONSTEXPR
 367:c:\program files (x86)\gnu tools arm embedded\7 2017-q4-major\arm-none-eabi\include\c++\7.2.1\cmath ****     typename __gnu_cxx::__enable_if<__is_integer<_Tp>::__value,
 368:c:\program files (x86)\gnu tools arm embedded\7 2017-q4-major\arm-none-eabi\include\c++\7.2.1\cmath ****                                     double>::__type
 369:c:\program files (x86)\gnu tools arm embedded\7 2017-q4-major\arm-none-eabi\include\c++\7.2.1\cmath ****     log10(_Tp __x)
 370:c:\program files (x86)\gnu tools arm embedded\7 2017-q4-major\arm-none-eabi\include\c++\7.2.1\cmath ****     { return __builtin_log10(__x); }
 371:c:\program files (x86)\gnu tools arm embedded\7 2017-q4-major\arm-none-eabi\include\c++\7.2.1\cmath **** 
 372:c:\program files (x86)\gnu tools arm embedded\7 2017-q4-major\arm-none-eabi\include\c++\7.2.1\cmath ****   using ::modf;
 373:c:\program files (x86)\gnu tools arm embedded\7 2017-q4-major\arm-none-eabi\include\c++\7.2.1\cmath **** 
 374:c:\program files (x86)\gnu tools arm embedded\7 2017-q4-major\arm-none-eabi\include\c++\7.2.1\cmath **** #ifndef __CORRECT_ISO_CPP_MATH_H_PROTO
 375:c:\program files (x86)\gnu tools arm embedded\7 2017-q4-major\arm-none-eabi\include\c++\7.2.1\cmath ****   inline float
 376:c:\program files (x86)\gnu tools arm embedded\7 2017-q4-major\arm-none-eabi\include\c++\7.2.1\cmath ****   modf(float __x, float* __iptr)
 377:c:\program files (x86)\gnu tools arm embedded\7 2017-q4-major\arm-none-eabi\include\c++\7.2.1\cmath ****   { return __builtin_modff(__x, __iptr); }
 378:c:\program files (x86)\gnu tools arm embedded\7 2017-q4-major\arm-none-eabi\include\c++\7.2.1\cmath **** 
 379:c:\program files (x86)\gnu tools arm embedded\7 2017-q4-major\arm-none-eabi\include\c++\7.2.1\cmath ****   inline long double
 380:c:\program files (x86)\gnu tools arm embedded\7 2017-q4-major\arm-none-eabi\include\c++\7.2.1\cmath ****   modf(long double __x, long double* __iptr)
 381:c:\program files (x86)\gnu tools arm embedded\7 2017-q4-major\arm-none-eabi\include\c++\7.2.1\cmath ****   { return __builtin_modfl(__x, __iptr); }
 382:c:\program files (x86)\gnu tools arm embedded\7 2017-q4-major\arm-none-eabi\include\c++\7.2.1\cmath **** #endif
 383:c:\program files (x86)\gnu tools arm embedded\7 2017-q4-major\arm-none-eabi\include\c++\7.2.1\cmath **** 
 384:c:\program files (x86)\gnu tools arm embedded\7 2017-q4-major\arm-none-eabi\include\c++\7.2.1\cmath ****   using ::pow;
 385:c:\program files (x86)\gnu tools arm embedded\7 2017-q4-major\arm-none-eabi\include\c++\7.2.1\cmath **** 
 386:c:\program files (x86)\gnu tools arm embedded\7 2017-q4-major\arm-none-eabi\include\c++\7.2.1\cmath **** #ifndef __CORRECT_ISO_CPP_MATH_H_PROTO
 387:c:\program files (x86)\gnu tools arm embedded\7 2017-q4-major\arm-none-eabi\include\c++\7.2.1\cmath ****   inline _GLIBCXX_CONSTEXPR float
 388:c:\program files (x86)\gnu tools arm embedded\7 2017-q4-major\arm-none-eabi\include\c++\7.2.1\cmath ****   pow(float __x, float __y)
 389:c:\program files (x86)\gnu tools arm embedded\7 2017-q4-major\arm-none-eabi\include\c++\7.2.1\cmath ****   { return __builtin_powf(__x, __y); }
 390:c:\program files (x86)\gnu tools arm embedded\7 2017-q4-major\arm-none-eabi\include\c++\7.2.1\cmath **** 
 391:c:\program files (x86)\gnu tools arm embedded\7 2017-q4-major\arm-none-eabi\include\c++\7.2.1\cmath ****   inline _GLIBCXX_CONSTEXPR long double
 392:c:\program files (x86)\gnu tools arm embedded\7 2017-q4-major\arm-none-eabi\include\c++\7.2.1\cmath ****   pow(long double __x, long double __y)
 393:c:\program files (x86)\gnu tools arm embedded\7 2017-q4-major\arm-none-eabi\include\c++\7.2.1\cmath ****   { return __builtin_powl(__x, __y); }
 394:c:\program files (x86)\gnu tools arm embedded\7 2017-q4-major\arm-none-eabi\include\c++\7.2.1\cmath **** 
 395:c:\program files (x86)\gnu tools arm embedded\7 2017-q4-major\arm-none-eabi\include\c++\7.2.1\cmath **** #if __cplusplus < 201103L
 396:c:\program files (x86)\gnu tools arm embedded\7 2017-q4-major\arm-none-eabi\include\c++\7.2.1\cmath ****   // _GLIBCXX_RESOLVE_LIB_DEFECTS
 397:c:\program files (x86)\gnu tools arm embedded\7 2017-q4-major\arm-none-eabi\include\c++\7.2.1\cmath ****   // DR 550. What should the return type of pow(float,int) be?
 398:c:\program files (x86)\gnu tools arm embedded\7 2017-q4-major\arm-none-eabi\include\c++\7.2.1\cmath ****   inline double
 399:c:\program files (x86)\gnu tools arm embedded\7 2017-q4-major\arm-none-eabi\include\c++\7.2.1\cmath ****   pow(double __x, int __i)
 400:c:\program files (x86)\gnu tools arm embedded\7 2017-q4-major\arm-none-eabi\include\c++\7.2.1\cmath ****   { return __builtin_powi(__x, __i); }
 401:c:\program files (x86)\gnu tools arm embedded\7 2017-q4-major\arm-none-eabi\include\c++\7.2.1\cmath **** 
 402:c:\program files (x86)\gnu tools arm embedded\7 2017-q4-major\arm-none-eabi\include\c++\7.2.1\cmath ****   inline float
 403:c:\program files (x86)\gnu tools arm embedded\7 2017-q4-major\arm-none-eabi\include\c++\7.2.1\cmath ****   pow(float __x, int __n)
 404:c:\program files (x86)\gnu tools arm embedded\7 2017-q4-major\arm-none-eabi\include\c++\7.2.1\cmath ****   { return __builtin_powif(__x, __n); }
 405:c:\program files (x86)\gnu tools arm embedded\7 2017-q4-major\arm-none-eabi\include\c++\7.2.1\cmath **** 
 406:c:\program files (x86)\gnu tools arm embedded\7 2017-q4-major\arm-none-eabi\include\c++\7.2.1\cmath ****   inline long double
 407:c:\program files (x86)\gnu tools arm embedded\7 2017-q4-major\arm-none-eabi\include\c++\7.2.1\cmath ****   pow(long double __x, int __n)
ARM GAS  C:\Users\Prashant\AppData\Local\Temp\ccWdDaW2.s 			page 17


 408:c:\program files (x86)\gnu tools arm embedded\7 2017-q4-major\arm-none-eabi\include\c++\7.2.1\cmath ****   { return __builtin_powil(__x, __n); }
 409:c:\program files (x86)\gnu tools arm embedded\7 2017-q4-major\arm-none-eabi\include\c++\7.2.1\cmath **** #endif
 410:c:\program files (x86)\gnu tools arm embedded\7 2017-q4-major\arm-none-eabi\include\c++\7.2.1\cmath **** #endif
 411:c:\program files (x86)\gnu tools arm embedded\7 2017-q4-major\arm-none-eabi\include\c++\7.2.1\cmath **** 
 412:c:\program files (x86)\gnu tools arm embedded\7 2017-q4-major\arm-none-eabi\include\c++\7.2.1\cmath ****   template<typename _Tp, typename _Up>
 413:c:\program files (x86)\gnu tools arm embedded\7 2017-q4-major\arm-none-eabi\include\c++\7.2.1\cmath ****     inline _GLIBCXX_CONSTEXPR
 414:c:\program files (x86)\gnu tools arm embedded\7 2017-q4-major\arm-none-eabi\include\c++\7.2.1\cmath ****     typename __gnu_cxx::__promote_2<_Tp, _Up>::__type
 415:c:\program files (x86)\gnu tools arm embedded\7 2017-q4-major\arm-none-eabi\include\c++\7.2.1\cmath ****     pow(_Tp __x, _Up __y)
 416:c:\program files (x86)\gnu tools arm embedded\7 2017-q4-major\arm-none-eabi\include\c++\7.2.1\cmath ****     {
 417:c:\program files (x86)\gnu tools arm embedded\7 2017-q4-major\arm-none-eabi\include\c++\7.2.1\cmath ****       typedef typename __gnu_cxx::__promote_2<_Tp, _Up>::__type __type;
 418:c:\program files (x86)\gnu tools arm embedded\7 2017-q4-major\arm-none-eabi\include\c++\7.2.1\cmath ****       return pow(__type(__x), __type(__y));
 419:c:\program files (x86)\gnu tools arm embedded\7 2017-q4-major\arm-none-eabi\include\c++\7.2.1\cmath ****     }
 420:c:\program files (x86)\gnu tools arm embedded\7 2017-q4-major\arm-none-eabi\include\c++\7.2.1\cmath **** 
 421:c:\program files (x86)\gnu tools arm embedded\7 2017-q4-major\arm-none-eabi\include\c++\7.2.1\cmath ****   using ::sin;
 422:c:\program files (x86)\gnu tools arm embedded\7 2017-q4-major\arm-none-eabi\include\c++\7.2.1\cmath **** 
 423:c:\program files (x86)\gnu tools arm embedded\7 2017-q4-major\arm-none-eabi\include\c++\7.2.1\cmath **** #ifndef __CORRECT_ISO_CPP_MATH_H_PROTO
 424:c:\program files (x86)\gnu tools arm embedded\7 2017-q4-major\arm-none-eabi\include\c++\7.2.1\cmath ****   inline _GLIBCXX_CONSTEXPR float
 425:c:\program files (x86)\gnu tools arm embedded\7 2017-q4-major\arm-none-eabi\include\c++\7.2.1\cmath ****   sin(float __x)
 426:c:\program files (x86)\gnu tools arm embedded\7 2017-q4-major\arm-none-eabi\include\c++\7.2.1\cmath ****   { return __builtin_sinf(__x); }
 303              		.loc 3 426 0
 304 0040 B0EE690A 		vmov.f32	s0, s19
 305 0044 FFF7FEFF 		bl	sinf
 306              	.LVL23:
 307              	.LBE33:
 308              	.LBE32:
  52:Core/Src/devs/wheeler.cpp **** 
 309              		.loc 1 52 0
 310 0048 28EE800A 		vmul.f32	s0, s17, s0
 311 004c 8DED020A 		vstr.32	s0, [sp, #8]
 312 0050 F8EE087A 		vmov.f32	s15, #-3.0e+0
 313 0054 28EE278A 		vmul.f32	s16, s16, s15
 314              	.LVL24:
 315 0058 DFED217A 		vldr.32	s15, .L33
 316 005c 28EE278A 		vmul.f32	s16, s16, s15
 317 0060 B8EE499A 		vcvt.f32.u32	s18, s18
 318              	.LVL25:
 319 0064 C8EE097A 		vdiv.f32	s15, s16, s18
 320 0068 CDED037A 		vstr.32	s15, [sp, #12]
 321              	.LVL26:
 322              	.LBB34:
  54:Core/Src/devs/wheeler.cpp ****                 vel[i] = 0;
 323              		.loc 1 54 0
 324 006c 0024     		movs	r4, #0
 325 006e 0CE0     		b	.L31
 326              	.LVL27:
 327              	.L29:
 328              	.LBB35:
  59:Core/Src/devs/wheeler.cpp ****         }
 329              		.loc 1 59 0 discriminator 2
 330 0070 A300     		lsls	r3, r4, #2
 331              	.LVL28:
 332 0072 EE18     		adds	r6, r5, r3
 333 0074 08AA     		add	r2, sp, #32
 334 0076 1344     		add	r3, r3, r2
 335 0078 DFED1A0A 		vldr.32	s1, .L33+4
 336 007c 13ED040A 		vldr.32	s0, [r3, #-16]
 337 0080 FFF7FEFF 		bl	_ZL15calculate_Omegaff
ARM GAS  C:\Users\Prashant\AppData\Local\Temp\ccWdDaW2.s 			page 18


 338              	.LVL29:
 339 0084 86ED000A 		vstr.32	s0, [r6]
 340              	.LBE35:
  54:Core/Src/devs/wheeler.cpp ****                 vel[i] = 0;
 341              		.loc 1 54 0 discriminator 2
 342 0088 0134     		adds	r4, r4, #1
 343              	.LVL30:
 344              	.L31:
  54:Core/Src/devs/wheeler.cpp ****                 vel[i] = 0;
 345              		.loc 1 54 0 is_stmt 0 discriminator 1
 346 008a 032C     		cmp	r4, #3
 347 008c 24DC     		bgt	.L27
 348              	.LBB37:
  55:Core/Src/devs/wheeler.cpp ****                 for (int j = 0; j < 3; ++j) {
 349              		.loc 1 55 0 is_stmt 1
 350 008e 0022     		movs	r2, #0
 351 0090 08AB     		add	r3, sp, #32
 352 0092 03EB8403 		add	r3, r3, r4, lsl #2
 353 0096 43F8102C 		str	r2, [r3, #-16]	@ float
 354              	.LVL31:
 355              	.LBB36:
  56:Core/Src/devs/wheeler.cpp ****                         vel[i] += velocity[j] * gCoupling_Matrix[i][j];
 356              		.loc 1 56 0
 357 009a 0023     		movs	r3, #0
 358              	.LVL32:
 359              	.L30:
  56:Core/Src/devs/wheeler.cpp ****                         vel[i] += velocity[j] * gCoupling_Matrix[i][j];
 360              		.loc 1 56 0 is_stmt 0 discriminator 3
 361 009c 022B     		cmp	r3, #2
 362 009e E7DC     		bgt	.L29
  57:Core/Src/devs/wheeler.cpp ****                 }
 363              		.loc 1 57 0 is_stmt 1 discriminator 2
 364 00a0 08AA     		add	r2, sp, #32
 365 00a2 02EB8302 		add	r2, r2, r3, lsl #2
 366 00a6 12ED077A 		vldr.32	s14, [r2, #-28]
 367 00aa 04EB4402 		add	r2, r4, r4, lsl #1
 368 00ae 1A44     		add	r2, r2, r3
 369 00b0 0D49     		ldr	r1, .L33+8
 370 00b2 51F82220 		ldr	r2, [r1, r2, lsl #2]
 371 00b6 07EE902A 		vmov	s15, r2	@ int
 372 00ba F8EEE77A 		vcvt.f32.s32	s15, s15
 373 00be 67EE877A 		vmul.f32	s15, s15, s14
 374 00c2 08AA     		add	r2, sp, #32
 375 00c4 02EB8402 		add	r2, r2, r4, lsl #2
 376 00c8 12ED047A 		vldr.32	s14, [r2, #-16]
 377 00cc 77EE277A 		vadd.f32	s15, s14, s15
 378 00d0 42ED047A 		vstr.32	s15, [r2, #-16]
  56:Core/Src/devs/wheeler.cpp ****                         vel[i] += velocity[j] * gCoupling_Matrix[i][j];
 379              		.loc 1 56 0 discriminator 2
 380 00d4 0133     		adds	r3, r3, #1
 381              	.LVL33:
 382 00d6 E1E7     		b	.L30
 383              	.LVL34:
 384              	.L27:
 385              	.LBE36:
 386              	.LBE37:
 387              	.LBE34:
ARM GAS  C:\Users\Prashant\AppData\Local\Temp\ccWdDaW2.s 			page 19


  62:Core/Src/devs/wheeler.cpp **** 
 388              		.loc 1 62 0
 389 00d8 08B0     		add	sp, sp, #32
 390              	.LCFI4:
 391              		.cfi_def_cfa_offset 32
 392              		@ sp needed
 393 00da BDEC048B 		vldm	sp!, {d8-d9}
 394              	.LCFI5:
 395              		.cfi_restore 82
 396              		.cfi_restore 83
 397              		.cfi_restore 80
 398              		.cfi_restore 81
 399              		.cfi_def_cfa_offset 16
 400 00de 70BD     		pop	{r4, r5, r6, pc}
 401              	.LVL35:
 402              	.L34:
 403              		.align	3
 404              	.L33:
 405 00e0 00007A44 		.word	1148846080
 406 00e4 00008742 		.word	1116143616
 407 00e8 00000000 		.word	.LANCHOR2
 408 00ec 7A008BFC 		.word	-57999238
 409 00f0 FA21F93F 		.word	1073291770
 410              		.cfi_endproc
 411              	.LFE356:
 413              		.global	__aeabi_dcmpeq
 414              		.global	__aeabi_dcmpgt
 415              		.global	__aeabi_dsub
 416              		.global	__aeabi_dcmplt
 417              		.global	__aeabi_dmul
 418              		.global	__aeabi_ddiv
 419              		.section	.text._Z12initial_ramph,"ax",%progbits
 420              		.align	1
 421              		.global	_Z12initial_ramph
 422              		.syntax unified
 423              		.thumb
 424              		.thumb_func
 425              		.fpu fpv4-sp-d16
 427              	_Z12initial_ramph:
 428              	.LFB358:
 108:Core/Src/devs/wheeler.cpp **** 	if(Wheel_arr[wheel_no].velocity != Wheel_arr[wheel_no].next_velocity)
 429              		.loc 1 108 0
 430              		.cfi_startproc
 431              		@ args = 0, pretend = 0, frame = 0
 432              		@ frame_needed = 0, uses_anonymous_args = 0
 433              	.LVL36:
 434 0000 2DE9D04F 		push	{r4, r6, r7, r8, r9, r10, fp, lr}
 435              	.LCFI6:
 436              		.cfi_def_cfa_offset 32
 437              		.cfi_offset 4, -32
 438              		.cfi_offset 6, -28
 439              		.cfi_offset 7, -24
 440              		.cfi_offset 8, -20
 441              		.cfi_offset 9, -16
 442              		.cfi_offset 10, -12
 443              		.cfi_offset 11, -8
 444              		.cfi_offset 14, -4
ARM GAS  C:\Users\Prashant\AppData\Local\Temp\ccWdDaW2.s 			page 20


 445 0004 0446     		mov	r4, r0
 109:Core/Src/devs/wheeler.cpp **** 	{
 446              		.loc 1 109 0
 447 0006 4200     		lsls	r2, r0, #1
 448 0008 0244     		add	r2, r2, r0
 449 000a D100     		lsls	r1, r2, #3
 450 000c 2C4B     		ldr	r3, .L50
 451 000e 0B44     		add	r3, r3, r1
 452 0010 D3E90489 		ldrd	r8, [r3, #16]
 453 0014 D3E90267 		ldrd	r6, [r3, #8]
 454 0018 3246     		mov	r2, r6
 455 001a 3B46     		mov	r3, r7
 456 001c 4046     		mov	r0, r8
 457              	.LVL37:
 458 001e 4946     		mov	r1, r9
 459 0020 FFF7FEFF 		bl	__aeabi_dcmpeq
 460              	.LVL38:
 461 0024 78BB     		cbnz	r0, .L36
 111:Core/Src/devs/wheeler.cpp **** 			Wheel_arr[wheel_no].velocity += (RAMPING_FACTOR/3);
 462              		.loc 1 111 0
 463 0026 0022     		movs	r2, #0
 464 0028 264B     		ldr	r3, .L50+4
 465 002a 4046     		mov	r0, r8
 466 002c 4946     		mov	r1, r9
 467 002e FFF7FEFF 		bl	__aeabi_dadd
 468              	.LVL39:
 469 0032 8246     		mov	r10, r0
 470 0034 8B46     		mov	fp, r1
 471 0036 0246     		mov	r2, r0
 472 0038 0B46     		mov	r3, r1
 473 003a 3046     		mov	r0, r6
 474 003c 3946     		mov	r1, r7
 475 003e FFF7FEFF 		bl	__aeabi_dcmpgt
 476              	.LVL40:
 477 0042 C8B9     		cbnz	r0, .L48
 113:Core/Src/devs/wheeler.cpp **** 			Wheel_arr[wheel_no].velocity -= (RAMPING_FACTOR/3);
 478              		.loc 1 113 0
 479 0044 0022     		movs	r2, #0
 480 0046 1F4B     		ldr	r3, .L50+4
 481 0048 4046     		mov	r0, r8
 482 004a 4946     		mov	r1, r9
 483 004c FFF7FEFF 		bl	__aeabi_dsub
 484              	.LVL41:
 485 0050 8046     		mov	r8, r0
 486 0052 8946     		mov	r9, r1
 487 0054 0246     		mov	r2, r0
 488 0056 0B46     		mov	r3, r1
 489 0058 3046     		mov	r0, r6
 490 005a 3946     		mov	r1, r7
 491 005c FFF7FEFF 		bl	__aeabi_dcmplt
 492              	.LVL42:
 493 0060 30BB     		cbnz	r0, .L49
 117:Core/Src/devs/wheeler.cpp ****                         is_first_ramping = true;
 494              		.loc 1 117 0
 495 0062 04EB4403 		add	r3, r4, r4, lsl #1
 496 0066 DA00     		lsls	r2, r3, #3
 497 0068 154B     		ldr	r3, .L50
ARM GAS  C:\Users\Prashant\AppData\Local\Temp\ccWdDaW2.s 			page 21


 498 006a 1344     		add	r3, r3, r2
 499 006c C3E90467 		strd	r6, [r3, #16]
 118:Core/Src/devs/wheeler.cpp **** 		}        
 500              		.loc 1 118 0
 501 0070 154B     		ldr	r3, .L50+8
 502 0072 0122     		movs	r2, #1
 503 0074 1A70     		strb	r2, [r3]
 504 0076 06E0     		b	.L36
 505              	.L48:
 112:Core/Src/devs/wheeler.cpp **** 		else if( (Wheel_arr[wheel_no].velocity - (RAMPING_FACTOR/3)) > Wheel_arr[wheel_no].next_velocity)
 506              		.loc 1 112 0
 507 0078 04EB4403 		add	r3, r4, r4, lsl #1
 508 007c DA00     		lsls	r2, r3, #3
 509 007e 104B     		ldr	r3, .L50
 510 0080 1344     		add	r3, r3, r2
 511 0082 C3E904AB 		strd	r10, [r3, #16]
 512              	.L36:
 121:Core/Src/devs/wheeler.cpp **** }
 513              		.loc 1 121 0
 514 0086 04EB4404 		add	r4, r4, r4, lsl #1
 515 008a E300     		lsls	r3, r4, #3
 516 008c 0C49     		ldr	r1, .L50
 517 008e 1944     		add	r1, r1, r3
 518 0090 0022     		movs	r2, #0
 519 0092 0E4B     		ldr	r3, .L50+12
 520 0094 D1E90401 		ldrd	r0, [r1, #16]
 521 0098 FFF7FEFF 		bl	__aeabi_dmul
 522              	.LVL43:
 523 009c 0022     		movs	r2, #0
 524 009e 0C4B     		ldr	r3, .L50+16
 525 00a0 FFF7FEFF 		bl	__aeabi_ddiv
 526              	.LVL44:
 527 00a4 FFF7FEFF 		bl	__aeabi_d2f
 528              	.LVL45:
 122:Core/Src/devs/wheeler.cpp **** 
 529              		.loc 1 122 0
 530 00a8 00EE100A 		vmov	s0, r0
 531 00ac BDE8D08F 		pop	{r4, r6, r7, r8, r9, r10, fp, pc}
 532              	.L49:
 114:Core/Src/devs/wheeler.cpp **** 		else
 533              		.loc 1 114 0
 534 00b0 04EB4403 		add	r3, r4, r4, lsl #1
 535 00b4 DA00     		lsls	r2, r3, #3
 536 00b6 024B     		ldr	r3, .L50
 537 00b8 1344     		add	r3, r3, r2
 538 00ba C3E90489 		strd	r8, [r3, #16]
 539 00be E2E7     		b	.L36
 540              	.L51:
 541              		.align	2
 542              	.L50:
 543 00c0 00000000 		.word	.LANCHOR1
 544 00c4 00001840 		.word	1075314688
 545 00c8 00000000 		.word	.LANCHOR3
 546 00cc 00804140 		.word	1078034432
 547 00d0 00C0A240 		.word	1084407808
 548              		.cfi_endproc
 549              	.LFE358:
ARM GAS  C:\Users\Prashant\AppData\Local\Temp\ccWdDaW2.s 			page 22


 551              		.section	.text._Z4ramph,"ax",%progbits
 552              		.align	1
 553              		.global	_Z4ramph
 554              		.syntax unified
 555              		.thumb
 556              		.thumb_func
 557              		.fpu fpv4-sp-d16
 559              	_Z4ramph:
 560              	.LFB359:
 125:Core/Src/devs/wheeler.cpp **** 	if(Wheel_arr[wheel_no].velocity != Wheel_arr[wheel_no].next_velocity)
 561              		.loc 1 125 0
 562              		.cfi_startproc
 563              		@ args = 0, pretend = 0, frame = 0
 564              		@ frame_needed = 0, uses_anonymous_args = 0
 565              	.LVL46:
 566 0000 2DE9D04F 		push	{r4, r6, r7, r8, r9, r10, fp, lr}
 567              	.LCFI7:
 568              		.cfi_def_cfa_offset 32
 569              		.cfi_offset 4, -32
 570              		.cfi_offset 6, -28
 571              		.cfi_offset 7, -24
 572              		.cfi_offset 8, -20
 573              		.cfi_offset 9, -16
 574              		.cfi_offset 10, -12
 575              		.cfi_offset 11, -8
 576              		.cfi_offset 14, -4
 577 0004 0446     		mov	r4, r0
 126:Core/Src/devs/wheeler.cpp **** 	{
 578              		.loc 1 126 0
 579 0006 4200     		lsls	r2, r0, #1
 580 0008 0244     		add	r2, r2, r0
 581 000a D100     		lsls	r1, r2, #3
 582 000c 2B4B     		ldr	r3, .L67
 583 000e 0B44     		add	r3, r3, r1
 584 0010 D3E90489 		ldrd	r8, [r3, #16]
 585 0014 D3E90267 		ldrd	r6, [r3, #8]
 586 0018 3246     		mov	r2, r6
 587 001a 3B46     		mov	r3, r7
 588 001c 4046     		mov	r0, r8
 589              	.LVL47:
 590 001e 4946     		mov	r1, r9
 591 0020 FFF7FEFF 		bl	__aeabi_dcmpeq
 592              	.LVL48:
 593 0024 60BB     		cbnz	r0, .L53
 128:Core/Src/devs/wheeler.cpp **** 			Wheel_arr[wheel_no].velocity += RAMPING_FACTOR;
 594              		.loc 1 128 0
 595 0026 0022     		movs	r2, #0
 596 0028 254B     		ldr	r3, .L67+4
 597 002a 4046     		mov	r0, r8
 598 002c 4946     		mov	r1, r9
 599 002e FFF7FEFF 		bl	__aeabi_dadd
 600              	.LVL49:
 601 0032 8246     		mov	r10, r0
 602 0034 8B46     		mov	fp, r1
 603 0036 0246     		mov	r2, r0
 604 0038 0B46     		mov	r3, r1
 605 003a 3046     		mov	r0, r6
ARM GAS  C:\Users\Prashant\AppData\Local\Temp\ccWdDaW2.s 			page 23


 606 003c 3946     		mov	r1, r7
 607 003e FFF7FEFF 		bl	__aeabi_dcmpgt
 608              	.LVL50:
 609 0042 B0B9     		cbnz	r0, .L65
 130:Core/Src/devs/wheeler.cpp **** 			Wheel_arr[wheel_no].velocity -= RAMPING_FACTOR;
 610              		.loc 1 130 0
 611 0044 0022     		movs	r2, #0
 612 0046 1E4B     		ldr	r3, .L67+4
 613 0048 4046     		mov	r0, r8
 614 004a 4946     		mov	r1, r9
 615 004c FFF7FEFF 		bl	__aeabi_dsub
 616              	.LVL51:
 617 0050 8046     		mov	r8, r0
 618 0052 8946     		mov	r9, r1
 619 0054 0246     		mov	r2, r0
 620 0056 0B46     		mov	r3, r1
 621 0058 3046     		mov	r0, r6
 622 005a 3946     		mov	r1, r7
 623 005c FFF7FEFF 		bl	__aeabi_dcmplt
 624              	.LVL52:
 625 0060 18BB     		cbnz	r0, .L66
 134:Core/Src/devs/wheeler.cpp **** 		}        
 626              		.loc 1 134 0
 627 0062 04EB4403 		add	r3, r4, r4, lsl #1
 628 0066 DA00     		lsls	r2, r3, #3
 629 0068 144B     		ldr	r3, .L67
 630 006a 1344     		add	r3, r3, r2
 631 006c C3E90467 		strd	r6, [r3, #16]
 632 0070 06E0     		b	.L53
 633              	.L65:
 129:Core/Src/devs/wheeler.cpp **** 		else if( (Wheel_arr[wheel_no].velocity - RAMPING_FACTOR) > Wheel_arr[wheel_no].next_velocity)
 634              		.loc 1 129 0
 635 0072 04EB4403 		add	r3, r4, r4, lsl #1
 636 0076 DA00     		lsls	r2, r3, #3
 637 0078 104B     		ldr	r3, .L67
 638 007a 1344     		add	r3, r3, r2
 639 007c C3E904AB 		strd	r10, [r3, #16]
 640              	.L53:
 137:Core/Src/devs/wheeler.cpp **** }
 641              		.loc 1 137 0
 642 0080 04EB4404 		add	r4, r4, r4, lsl #1
 643 0084 E300     		lsls	r3, r4, #3
 644 0086 0D49     		ldr	r1, .L67
 645 0088 1944     		add	r1, r1, r3
 646 008a 0022     		movs	r2, #0
 647 008c 0D4B     		ldr	r3, .L67+8
 648 008e D1E90401 		ldrd	r0, [r1, #16]
 649 0092 FFF7FEFF 		bl	__aeabi_dmul
 650              	.LVL53:
 651 0096 0022     		movs	r2, #0
 652 0098 0B4B     		ldr	r3, .L67+12
 653 009a FFF7FEFF 		bl	__aeabi_ddiv
 654              	.LVL54:
 655 009e FFF7FEFF 		bl	__aeabi_d2f
 656              	.LVL55:
 138:Core/Src/devs/wheeler.cpp **** 
 657              		.loc 1 138 0
ARM GAS  C:\Users\Prashant\AppData\Local\Temp\ccWdDaW2.s 			page 24


 658 00a2 00EE100A 		vmov	s0, r0
 659 00a6 BDE8D08F 		pop	{r4, r6, r7, r8, r9, r10, fp, pc}
 660              	.L66:
 131:Core/Src/devs/wheeler.cpp **** 		else
 661              		.loc 1 131 0
 662 00aa 04EB4403 		add	r3, r4, r4, lsl #1
 663 00ae DA00     		lsls	r2, r3, #3
 664 00b0 024B     		ldr	r3, .L67
 665 00b2 1344     		add	r3, r3, r2
 666 00b4 C3E90489 		strd	r8, [r3, #16]
 667 00b8 E2E7     		b	.L53
 668              	.L68:
 669 00ba 00BF     		.align	2
 670              	.L67:
 671 00bc 00000000 		.word	.LANCHOR1
 672 00c0 00003440 		.word	1077149696
 673 00c4 00804140 		.word	1078034432
 674 00c8 00C0A240 		.word	1084407808
 675              		.cfi_endproc
 676              	.LFE359:
 678              		.section	.text._Z24calculate_robot_velocityPfS_,"ax",%progbits
 679              		.align	1
 680              		.global	_Z24calculate_robot_velocityPfS_
 681              		.syntax unified
 682              		.thumb
 683              		.thumb_func
 684              		.fpu fpv4-sp-d16
 686              	_Z24calculate_robot_velocityPfS_:
 687              	.LFB357:
  77:Core/Src/devs/wheeler.cpp ****         for (int i = 0; i < 4; i++)
 688              		.loc 1 77 0
 689              		.cfi_startproc
 690              		@ args = 0, pretend = 0, frame = 0
 691              		@ frame_needed = 0, uses_anonymous_args = 0
 692              	.LVL56:
 693 0000 2DE9F84F 		push	{r3, r4, r5, r6, r7, r8, r9, r10, fp, lr}
 694              	.LCFI8:
 695              		.cfi_def_cfa_offset 40
 696              		.cfi_offset 3, -40
 697              		.cfi_offset 4, -36
 698              		.cfi_offset 5, -32
 699              		.cfi_offset 6, -28
 700              		.cfi_offset 7, -24
 701              		.cfi_offset 8, -20
 702              		.cfi_offset 9, -16
 703              		.cfi_offset 10, -12
 704              		.cfi_offset 11, -8
 705              		.cfi_offset 14, -4
 706 0004 8246     		mov	r10, r0
 707 0006 0F46     		mov	r7, r1
 708              	.LVL57:
 709              	.LBB38:
  78:Core/Src/devs/wheeler.cpp ****         {
 710              		.loc 1 78 0
 711 0008 0024     		movs	r4, #0
 712 000a 2AE0     		b	.L81
 713              	.LVL58:
ARM GAS  C:\Users\Prashant\AppData\Local\Temp\ccWdDaW2.s 			page 25


 714              	.L71:
 715              	.LBB39:
 716              	.LBB40:
  86:Core/Src/devs/wheeler.cpp **** 		{
 717              		.loc 1 86 0
 718 000c 04EB4402 		add	r2, r4, r4, lsl #1
 719 0010 D300     		lsls	r3, r2, #3
 720 0012 5349     		ldr	r1, .L87+8
 721 0014 1944     		add	r1, r1, r3
 722 0016 50A3     		adr	r3, .L87
 723 0018 D3E90023 		ldrd	r2, [r3]
 724 001c D1E90201 		ldrd	r0, [r1, #8]
 725 0020 FFF7FEFF 		bl	__aeabi_dcmpgt
 726              	.LVL59:
 727 0024 0028     		cmp	r0, #0
 728 0026 4CD1     		bne	.L85
 729              	.LVL60:
 730              	.L73:
 731              	.LBE40:
 732              	.LBB42:
  91:Core/Src/devs/wheeler.cpp **** 		{
 733              		.loc 1 91 0
 734 0028 04EB4402 		add	r2, r4, r4, lsl #1
 735 002c D300     		lsls	r3, r2, #3
 736 002e 4C49     		ldr	r1, .L87+8
 737 0030 1944     		add	r1, r1, r3
 738 0032 0022     		movs	r2, #0
 739 0034 4B4B     		ldr	r3, .L87+12
 740 0036 D1E90201 		ldrd	r0, [r1, #8]
 741 003a FFF7FEFF 		bl	__aeabi_dcmplt
 742              	.LVL61:
 743 003e 0028     		cmp	r0, #0
 744 0040 5BD1     		bne	.L86
 745              	.L76:
 746              	.LBE42:
  96:Core/Src/devs/wheeler.cpp ****                 {
 747              		.loc 1 96 0
 748 0042 494B     		ldr	r3, .L87+16
 749 0044 1B78     		ldrb	r3, [r3]	@ zero_extendqisi2
 750 0046 002B     		cmp	r3, #0
 751 0048 76D1     		bne	.L79
  98:Core/Src/devs/wheeler.cpp ****                 }
 752              		.loc 1 98 0
 753 004a 0AEB8405 		add	r5, r10, r4, lsl #2
 754 004e 04EB4402 		add	r2, r4, r4, lsl #1
 755 0052 D300     		lsls	r3, r2, #3
 756 0054 424A     		ldr	r2, .L87+8
 757 0056 D05C     		ldrb	r0, [r2, r3]	@ zero_extendqisi2
 758 0058 FFF7FEFF 		bl	_Z12initial_ramph
 759              	.LVL62:
 760 005c 85ED000A 		vstr.32	s0, [r5]
 761              	.L80:
 762              	.LBE39:
  78:Core/Src/devs/wheeler.cpp ****         {
 763              		.loc 1 78 0 discriminator 2
 764 0060 0134     		adds	r4, r4, #1
 765              	.LVL63:
ARM GAS  C:\Users\Prashant\AppData\Local\Temp\ccWdDaW2.s 			page 26


 766              	.L81:
  78:Core/Src/devs/wheeler.cpp ****         {
 767              		.loc 1 78 0 is_stmt 0 discriminator 1
 768 0062 032C     		cmp	r4, #3
 769 0064 74DC     		bgt	.L69
 770              	.LBB47:
  80:Core/Src/devs/wheeler.cpp ****                 for (int j = 0; j < 3; j++)
 771              		.loc 1 80 0 is_stmt 1
 772 0066 04EB4403 		add	r3, r4, r4, lsl #1
 773 006a DA00     		lsls	r2, r3, #3
 774 006c 3C4B     		ldr	r3, .L87+8
 775 006e 1344     		add	r3, r3, r2
 776 0070 0020     		movs	r0, #0
 777 0072 0021     		movs	r1, #0
 778 0074 C3E90201 		strd	r0, [r3, #8]
 779              	.LVL64:
 780              	.LBB44:
  81:Core/Src/devs/wheeler.cpp ****                 {
 781              		.loc 1 81 0
 782 0078 0025     		movs	r5, #0
 783              	.LVL65:
 784              	.L72:
  81:Core/Src/devs/wheeler.cpp ****                 {
 785              		.loc 1 81 0 is_stmt 0 discriminator 3
 786 007a 022D     		cmp	r5, #2
 787 007c C6DC     		bgt	.L71
  83:Core/Src/devs/wheeler.cpp ****                 }
 788              		.loc 1 83 0 is_stmt 1 discriminator 2
 789 007e 07EB8503 		add	r3, r7, r5, lsl #2
 790 0082 93ED007A 		vldr.32	s14, [r3]
 791 0086 04EB440B 		add	fp, r4, r4, lsl #1
 792 008a 0BEB0502 		add	r2, fp, r5
 793 008e 374B     		ldr	r3, .L87+20
 794 0090 53F82230 		ldr	r3, [r3, r2, lsl #2]
 795 0094 07EE903A 		vmov	s15, r3	@ int
 796 0098 F8EEE77A 		vcvt.f32.s32	s15, s15
 797 009c 67EE877A 		vmul.f32	s15, s15, s14
 798 00a0 17EE900A 		vmov	r0, s15
 799 00a4 FFF7FEFF 		bl	__aeabi_f2d
 800              	.LVL66:
 801 00a8 2D4E     		ldr	r6, .L87+8
 802 00aa 06EBCB06 		add	r6, r6, fp, lsl #3
 803 00ae 0246     		mov	r2, r0
 804 00b0 0B46     		mov	r3, r1
 805 00b2 D6E90201 		ldrd	r0, [r6, #8]
 806 00b6 FFF7FEFF 		bl	__aeabi_dadd
 807              	.LVL67:
 808 00ba C6E90201 		strd	r0, [r6, #8]
  81:Core/Src/devs/wheeler.cpp ****                 {
 809              		.loc 1 81 0 discriminator 2
 810 00be 0135     		adds	r5, r5, #1
 811              	.LVL68:
 812 00c0 DBE7     		b	.L72
 813              	.L85:
 814              	.LBE44:
 815              	.LBB45:
 816              	.LBB41:
ARM GAS  C:\Users\Prashant\AppData\Local\Temp\ccWdDaW2.s 			page 27


  88:Core/Src/devs/wheeler.cpp **** 				Wheel_arr[j].next_velocity = (ROBOT_VELOCITY * Wheel_arr[j].next_velocity)/ Wheel_arr[i].next_v
 817              		.loc 1 88 0
 818 00c2 0026     		movs	r6, #0
 819              	.LVL69:
 820              	.L75:
  88:Core/Src/devs/wheeler.cpp **** 				Wheel_arr[j].next_velocity = (ROBOT_VELOCITY * Wheel_arr[j].next_velocity)/ Wheel_arr[i].next_v
 821              		.loc 1 88 0 is_stmt 0 discriminator 3
 822 00c4 032E     		cmp	r6, #3
 823 00c6 AFDC     		bgt	.L73
  89:Core/Src/devs/wheeler.cpp **** 		}
 824              		.loc 1 89 0 is_stmt 1 discriminator 2
 825 00c8 DFF894B0 		ldr	fp, .L87+8
 826 00cc 7300     		lsls	r3, r6, #1
 827 00ce 3344     		add	r3, r3, r6
 828 00d0 DD00     		lsls	r5, r3, #3
 829 00d2 5D44     		add	r5, r5, fp
 830 00d4 20A3     		adr	r3, .L87
 831 00d6 D3E90023 		ldrd	r2, [r3]
 832 00da D5E90201 		ldrd	r0, [r5, #8]
 833 00de FFF7FEFF 		bl	__aeabi_dmul
 834              	.LVL70:
 835 00e2 04EB4402 		add	r2, r4, r4, lsl #1
 836 00e6 D300     		lsls	r3, r2, #3
 837 00e8 9B44     		add	fp, fp, r3
 838 00ea DBE90223 		ldrd	r2, [fp, #8]
 839 00ee FFF7FEFF 		bl	__aeabi_ddiv
 840              	.LVL71:
 841 00f2 C5E90201 		strd	r0, [r5, #8]
  88:Core/Src/devs/wheeler.cpp **** 				Wheel_arr[j].next_velocity = (ROBOT_VELOCITY * Wheel_arr[j].next_velocity)/ Wheel_arr[i].next_v
 842              		.loc 1 88 0 discriminator 2
 843 00f6 0136     		adds	r6, r6, #1
 844              	.LVL72:
 845 00f8 E4E7     		b	.L75
 846              	.LVL73:
 847              	.L86:
 848              	.LBE41:
 849              	.LBE45:
 850              	.LBB46:
 851              	.LBB43:
  93:Core/Src/devs/wheeler.cpp **** 				Wheel_arr[j].next_velocity = -((ROBOT_VELOCITY * Wheel_arr[j].next_velocity)/ Wheel_arr[i].next
 852              		.loc 1 93 0
 853 00fa 0026     		movs	r6, #0
 854              	.L78:
 855              	.LVL74:
  93:Core/Src/devs/wheeler.cpp **** 				Wheel_arr[j].next_velocity = -((ROBOT_VELOCITY * Wheel_arr[j].next_velocity)/ Wheel_arr[i].next
 856              		.loc 1 93 0 is_stmt 0 discriminator 3
 857 00fc 032E     		cmp	r6, #3
 858 00fe A0DC     		bgt	.L76
  94:Core/Src/devs/wheeler.cpp **** 		}
 859              		.loc 1 94 0 is_stmt 1 discriminator 2
 860 0100 DFF85CB0 		ldr	fp, .L87+8
 861 0104 7300     		lsls	r3, r6, #1
 862 0106 3344     		add	r3, r3, r6
 863 0108 DD00     		lsls	r5, r3, #3
 864 010a 5D44     		add	r5, r5, fp
 865 010c 12A3     		adr	r3, .L87
 866 010e D3E90023 		ldrd	r2, [r3]
ARM GAS  C:\Users\Prashant\AppData\Local\Temp\ccWdDaW2.s 			page 28


 867 0112 D5E90201 		ldrd	r0, [r5, #8]
 868 0116 FFF7FEFF 		bl	__aeabi_dmul
 869              	.LVL75:
 870 011a 04EB4402 		add	r2, r4, r4, lsl #1
 871 011e D300     		lsls	r3, r2, #3
 872 0120 9B44     		add	fp, fp, r3
 873 0122 DBE90223 		ldrd	r2, [fp, #8]
 874 0126 FFF7FEFF 		bl	__aeabi_ddiv
 875              	.LVL76:
 876 012a 8046     		mov	r8, r0
 877 012c 01F10049 		add	r9, r1, #-2147483648
 878 0130 C5E90289 		strd	r8, [r5, #8]
  93:Core/Src/devs/wheeler.cpp **** 				Wheel_arr[j].next_velocity = -((ROBOT_VELOCITY * Wheel_arr[j].next_velocity)/ Wheel_arr[i].next
 879              		.loc 1 93 0 discriminator 2
 880 0134 0136     		adds	r6, r6, #1
 881              	.LVL77:
 882 0136 E1E7     		b	.L78
 883              	.LVL78:
 884              	.L79:
 885              	.LBE43:
 886              	.LBE46:
 102:Core/Src/devs/wheeler.cpp ****                 }
 887              		.loc 1 102 0
 888 0138 0AEB8405 		add	r5, r10, r4, lsl #2
 889 013c 04EB4402 		add	r2, r4, r4, lsl #1
 890 0140 D300     		lsls	r3, r2, #3
 891 0142 074A     		ldr	r2, .L87+8
 892 0144 D05C     		ldrb	r0, [r2, r3]	@ zero_extendqisi2
 893 0146 FFF7FEFF 		bl	_Z4ramph
 894              	.LVL79:
 895 014a 85ED000A 		vstr.32	s0, [r5]
 896 014e 87E7     		b	.L80
 897              	.L69:
 898              	.LBE47:
 899              	.LBE38:
 105:Core/Src/devs/wheeler.cpp **** 
 900              		.loc 1 105 0
 901 0150 BDE8F88F 		pop	{r3, r4, r5, r6, r7, r8, r9, r10, fp, pc}
 902              	.LVL80:
 903              	.L88:
 904 0154 AFF30080 		.align	3
 905              	.L87:
 906 0158 00000000 		.word	0
 907 015c 00C07240 		.word	1081262080
 908 0160 00000000 		.word	.LANCHOR1
 909 0164 00C072C0 		.word	-1066221568
 910 0168 00000000 		.word	.LANCHOR3
 911 016c 00000000 		.word	.LANCHOR2
 912              		.cfi_endproc
 913              	.LFE357:
 915              		.global	__aeabi_d2iz
 916              		.section	.text._Z16send_WheelerPackPf,"ax",%progbits
 917              		.align	1
 918              		.global	_Z16send_WheelerPackPf
 919              		.syntax unified
 920              		.thumb
 921              		.thumb_func
ARM GAS  C:\Users\Prashant\AppData\Local\Temp\ccWdDaW2.s 			page 29


 922              		.fpu fpv4-sp-d16
 924              	_Z16send_WheelerPackPf:
 925              	.LFB360:
 141:Core/Src/devs/wheeler.cpp ****         int16_t data;
 926              		.loc 1 141 0
 927              		.cfi_startproc
 928              		@ args = 0, pretend = 0, frame = 0
 929              		@ frame_needed = 0, uses_anonymous_args = 0
 930              	.LVL81:
 931 0000 70B5     		push	{r4, r5, r6, lr}
 932              	.LCFI9:
 933              		.cfi_def_cfa_offset 16
 934              		.cfi_offset 4, -16
 935              		.cfi_offset 5, -12
 936              		.cfi_offset 6, -8
 937              		.cfi_offset 14, -4
 938 0002 0546     		mov	r5, r0
 939              	.LVL82:
 940              	.LBB48:
 144:Core/Src/devs/wheeler.cpp ****                 data = (int16_t)((pack[i] * 32768.0) / (MAX_POSSIBLE_OMEGA));
 941              		.loc 1 144 0
 942 0004 0024     		movs	r4, #0
 943              	.LVL83:
 944              	.L91:
 144:Core/Src/devs/wheeler.cpp ****                 data = (int16_t)((pack[i] * 32768.0) / (MAX_POSSIBLE_OMEGA));
 945              		.loc 1 144 0 is_stmt 0 discriminator 3
 946 0006 032C     		cmp	r4, #3
 947 0008 22D8     		bhi	.L90
 145:Core/Src/devs/wheeler.cpp ****                 gWheeler_Data[i].insert(data);
 948              		.loc 1 145 0 is_stmt 1 discriminator 2
 949 000a 05EB8403 		add	r3, r5, r4, lsl #2
 950 000e 1868     		ldr	r0, [r3]	@ float
 951 0010 FFF7FEFF 		bl	__aeabi_f2d
 952              	.LVL84:
 953 0014 0022     		movs	r2, #0
 954 0016 144B     		ldr	r3, .L95
 955 0018 FFF7FEFF 		bl	__aeabi_dmul
 956              	.LVL85:
 957 001c 0022     		movs	r2, #0
 958 001e 134B     		ldr	r3, .L95+4
 959 0020 FFF7FEFF 		bl	__aeabi_ddiv
 960              	.LVL86:
 961 0024 FFF7FEFF 		bl	__aeabi_d2iz
 962              	.LVL87:
 963              	.LBB49:
 964              	.LBB50:
  19:Core/Inc/utils/queue.h ****         Queue(Queue &&) = default;
  20:Core/Inc/utils/queue.h ****         Queue(const Queue &) = default;
  21:Core/Inc/utils/queue.h ****         Queue &operator=(Queue &&) = default;
  22:Core/Inc/utils/queue.h ****         Queue &operator=(const Queue &) = default;
  23:Core/Inc/utils/queue.h ****         ~Queue() {  }
  24:Core/Inc/utils/queue.h **** 
  25:Core/Inc/utils/queue.h ****         void insert(T elem) {
  26:Core/Inc/utils/queue.h ****                 ++curr_size_;
 965              		.loc 2 26 0 discriminator 2
 966 0028 114A     		ldr	r2, .L95+8
 967 002a 2101     		lsls	r1, r4, #4
ARM GAS  C:\Users\Prashant\AppData\Local\Temp\ccWdDaW2.s 			page 30


 968 002c 5618     		adds	r6, r2, r1
 969 002e B368     		ldr	r3, [r6, #8]
 970 0030 0133     		adds	r3, r3, #1
 971 0032 B360     		str	r3, [r6, #8]
  27:Core/Inc/utils/queue.h ****                 queue_[head_++] = elem;
 972              		.loc 2 27 0 discriminator 2
 973 0034 5358     		ldr	r3, [r2, r1]
 974 0036 5E1C     		adds	r6, r3, #1
 975 0038 03EBC403 		add	r3, r3, r4, lsl #3
 976 003c 0433     		adds	r3, r3, #4
 977 003e 02EB4303 		add	r3, r2, r3, lsl #1
 978 0042 9880     		strh	r0, [r3, #4]	@ movhi
  28:Core/Inc/utils/queue.h ****                 head_ %= q_size;
 979              		.loc 2 28 0 discriminator 2
 980 0044 06F00106 		and	r6, r6, #1
 981 0048 5650     		str	r6, [r2, r1]
 982              	.LVL88:
 983              	.LBE50:
 984              	.LBE49:
 144:Core/Src/devs/wheeler.cpp ****                 data = (int16_t)((pack[i] * 32768.0) / (MAX_POSSIBLE_OMEGA));
 985              		.loc 1 144 0 discriminator 2
 986 004a 0134     		adds	r4, r4, #1
 987              	.LVL89:
 988 004c E4B2     		uxtb	r4, r4
 989              	.LVL90:
 990 004e DAE7     		b	.L91
 991              	.LVL91:
 992              	.L90:
 993              	.LBE48:
 148:Core/Src/devs/wheeler.cpp ****                 gWheeler_Start_Byte_Sent = true;
 994              		.loc 1 148 0
 995 0050 084B     		ldr	r3, .L95+12
 996 0052 1B78     		ldrb	r3, [r3]	@ zero_extendqisi2
 997 0054 03B1     		cbz	r3, .L94
 998              	.L89:
 152:Core/Src/devs/wheeler.cpp **** 
 999              		.loc 1 152 0
 1000 0056 70BD     		pop	{r4, r5, r6, pc}
 1001              	.LVL92:
 1002              	.L94:
 149:Core/Src/devs/wheeler.cpp ****                 HAL_UART_Transmit_IT(&huart2, &gStart_Byte, 1);
 1003              		.loc 1 149 0
 1004 0058 0122     		movs	r2, #1
 1005 005a 064B     		ldr	r3, .L95+12
 1006 005c 1A70     		strb	r2, [r3]
 150:Core/Src/devs/wheeler.cpp ****         }
 1007              		.loc 1 150 0
 1008 005e 0649     		ldr	r1, .L95+16
 1009 0060 0648     		ldr	r0, .L95+20
 1010 0062 FFF7FEFF 		bl	HAL_UART_Transmit_IT
 1011              	.LVL93:
 152:Core/Src/devs/wheeler.cpp **** 
 1012              		.loc 1 152 0
 1013 0066 F6E7     		b	.L89
 1014              	.L96:
 1015              		.align	2
 1016              	.L95:
ARM GAS  C:\Users\Prashant\AppData\Local\Temp\ccWdDaW2.s 			page 31


 1017 0068 0000E040 		.word	1088421888
 1018 006c 00004440 		.word	1078198272
 1019 0070 00000000 		.word	.LANCHOR0
 1020 0074 00000000 		.word	.LANCHOR4
 1021 0078 00000000 		.word	.LANCHOR5
 1022 007c 00000000 		.word	huart2
 1023              		.cfi_endproc
 1024              	.LFE360:
 1026              		.section	.text._Z28Wheeler_UART2_TxCpltCallbackv,"ax",%progbits
 1027              		.align	1
 1028              		.global	_Z28Wheeler_UART2_TxCpltCallbackv
 1029              		.syntax unified
 1030              		.thumb
 1031              		.thumb_func
 1032              		.fpu fpv4-sp-d16
 1034              	_Z28Wheeler_UART2_TxCpltCallbackv:
 1035              	.LFB361:
 155:Core/Src/devs/wheeler.cpp ****         if (gWheeler_Start_Byte_Sent) {
 1036              		.loc 1 155 0
 1037              		.cfi_startproc
 1038              		@ args = 0, pretend = 0, frame = 0
 1039              		@ frame_needed = 0, uses_anonymous_args = 0
 1040 0000 38B5     		push	{r3, r4, r5, lr}
 1041              	.LCFI10:
 1042              		.cfi_def_cfa_offset 16
 1043              		.cfi_offset 3, -16
 1044              		.cfi_offset 4, -12
 1045              		.cfi_offset 5, -8
 1046              		.cfi_offset 14, -4
 1047              	.LBB51:
 156:Core/Src/devs/wheeler.cpp ****                 gWheeler_Start_Byte_Sent = false;
 1048              		.loc 1 156 0
 1049 0002 1E4B     		ldr	r3, .L105
 1050 0004 1B78     		ldrb	r3, [r3]	@ zero_extendqisi2
 1051 0006 6BB3     		cbz	r3, .L98
 1052              	.LBB52:
 157:Core/Src/devs/wheeler.cpp ****                 int16_t data;
 1053              		.loc 1 157 0
 1054 0008 0023     		movs	r3, #0
 1055 000a 1C4A     		ldr	r2, .L105
 1056 000c 1370     		strb	r3, [r2]
 1057              	.LVL94:
 1058 000e 09E0     		b	.L101
 1059              	.LVL95:
 1060              	.L103:
 1061              	.LBB53:
 1062              	.LBB54:
 1063              	.LBB55:
  29:Core/Inc/utils/queue.h ****         }
  30:Core/Inc/utils/queue.h **** 
  31:Core/Inc/utils/queue.h ****         T lookup() {
  32:Core/Inc/utils/queue.h ****                 if( curr_size_ ) {
  33:Core/Inc/utils/queue.h ****                         --curr_size_;
  34:Core/Inc/utils/queue.h ****                         T elem = queue_[tail_++];
  35:Core/Inc/utils/queue.h ****                         tail_ %= q_size;
  36:Core/Inc/utils/queue.h ****                         return elem;
  37:Core/Inc/utils/queue.h ****                 }
ARM GAS  C:\Users\Prashant\AppData\Local\Temp\ccWdDaW2.s 			page 32


  38:Core/Inc/utils/queue.h ****                 return 0;
 1064              		.loc 2 38 0
 1065 0010 0020     		movs	r0, #0
 1066              	.L100:
 1067              	.LVL96:
 1068              	.LBE55:
 1069              	.LBE54:
 161:Core/Src/devs/wheeler.cpp ****                         gWheeler_Bytes[2*i + 1] = (uint8_t)(data);
 1070              		.loc 1 161 0
 1071 0012 0512     		asrs	r5, r0, #8
 1072 0014 6200     		lsls	r2, r4, #1
 1073 0016 1A49     		ldr	r1, .L105+4
 1074 0018 01F81450 		strb	r5, [r1, r4, lsl #1]
 162:Core/Src/devs/wheeler.cpp ****                 }
 1075              		.loc 1 162 0
 1076 001c 0132     		adds	r2, r2, #1
 1077 001e 8854     		strb	r0, [r1, r2]
 159:Core/Src/devs/wheeler.cpp ****                         data = gWheeler_Data[i].lookup();
 1078              		.loc 1 159 0
 1079 0020 0133     		adds	r3, r3, #1
 1080              	.LVL97:
 1081 0022 DBB2     		uxtb	r3, r3
 1082              	.LVL98:
 1083              	.L101:
 159:Core/Src/devs/wheeler.cpp ****                         data = gWheeler_Data[i].lookup();
 1084              		.loc 1 159 0 is_stmt 0 discriminator 3
 1085 0024 032B     		cmp	r3, #3
 1086 0026 17D8     		bhi	.L99
 160:Core/Src/devs/wheeler.cpp ****                         gWheeler_Bytes[2*i + 0] = (uint8_t)(data >> 8);
 1087              		.loc 1 160 0 is_stmt 1 discriminator 2
 1088 0028 1C46     		mov	r4, r3
 1089              	.LVL99:
 1090              	.LBB59:
 1091              	.LBB58:
 1092              	.LBB56:
  32:Core/Inc/utils/queue.h ****                         --curr_size_;
 1093              		.loc 2 32 0 discriminator 2
 1094 002a 164A     		ldr	r2, .L105+8
 1095 002c 02EB0312 		add	r2, r2, r3, lsl #4
 1096 0030 9168     		ldr	r1, [r2, #8]
 1097 0032 0029     		cmp	r1, #0
 1098 0034 ECD0     		beq	.L103
 1099              	.LBB57:
  33:Core/Inc/utils/queue.h ****                         T elem = queue_[tail_++];
 1100              		.loc 2 33 0
 1101 0036 1348     		ldr	r0, .L105+8
 1102 0038 1546     		mov	r5, r2
 1103 003a 0139     		subs	r1, r1, #1
 1104 003c 9160     		str	r1, [r2, #8]
  34:Core/Inc/utils/queue.h ****                         tail_ %= q_size;
 1105              		.loc 2 34 0
 1106 003e 5268     		ldr	r2, [r2, #4]
 1107 0040 511C     		adds	r1, r2, #1
 1108 0042 02EBC302 		add	r2, r2, r3, lsl #3
 1109 0046 0432     		adds	r2, r2, #4
 1110 0048 00EB4202 		add	r2, r0, r2, lsl #1
 1111 004c B2F90400 		ldrsh	r0, [r2, #4]
ARM GAS  C:\Users\Prashant\AppData\Local\Temp\ccWdDaW2.s 			page 33


 1112              	.LVL100:
  35:Core/Inc/utils/queue.h ****                         return elem;
 1113              		.loc 2 35 0
 1114 0050 01F00101 		and	r1, r1, #1
 1115 0054 6960     		str	r1, [r5, #4]
 1116 0056 DCE7     		b	.L100
 1117              	.LVL101:
 1118              	.L99:
 1119              	.LBE57:
 1120              	.LBE56:
 1121              	.LBE58:
 1122              	.LBE59:
 1123              	.LBE53:
 164:Core/Src/devs/wheeler.cpp ****         }
 1124              		.loc 1 164 0
 1125 0058 0822     		movs	r2, #8
 1126 005a 0949     		ldr	r1, .L105+4
 1127 005c 0A48     		ldr	r0, .L105+12
 1128 005e FFF7FEFF 		bl	HAL_UART_Transmit_IT
 1129              	.LVL102:
 1130              	.L97:
 1131              	.LBE52:
 1132              	.LBE51:
 1133              		.loc 1 173 0
 1134 0062 38BD     		pop	{r3, r4, r5, pc}
 1135              	.L98:
 1136              	.LVL103:
 1137              	.LBB62:
 1138              	.LBB60:
 1139              	.LBB61:
  39:Core/Inc/utils/queue.h ****         }
  40:Core/Inc/utils/queue.h **** 
  41:Core/Inc/utils/queue.h ****         uint32_t length() const { return curr_size_; }
 1140              		.loc 2 41 0
 1141 0064 074B     		ldr	r3, .L105+8
 1142 0066 9B68     		ldr	r3, [r3, #8]
 1143              	.LVL104:
 1144              	.LBE61:
 1145              	.LBE60:
 168:Core/Src/devs/wheeler.cpp ****                         gWheeler_Start_Byte_Sent = true;
 1146              		.loc 1 168 0
 1147 0068 002B     		cmp	r3, #0
 1148 006a FAD0     		beq	.L97
 169:Core/Src/devs/wheeler.cpp ****                         HAL_UART_Transmit_IT(&huart2, &gStart_Byte, 1);
 1149              		.loc 1 169 0
 1150 006c 0122     		movs	r2, #1
 1151 006e 034B     		ldr	r3, .L105
 1152 0070 1A70     		strb	r2, [r3]
 170:Core/Src/devs/wheeler.cpp ****                 }
 1153              		.loc 1 170 0
 1154 0072 0649     		ldr	r1, .L105+16
 1155 0074 0448     		ldr	r0, .L105+12
 1156 0076 FFF7FEFF 		bl	HAL_UART_Transmit_IT
 1157              	.LVL105:
 1158              	.LBE62:
 1159              		.loc 1 173 0
 1160 007a F2E7     		b	.L97
ARM GAS  C:\Users\Prashant\AppData\Local\Temp\ccWdDaW2.s 			page 34


 1161              	.L106:
 1162              		.align	2
 1163              	.L105:
 1164 007c 00000000 		.word	.LANCHOR4
 1165 0080 00000000 		.word	.LANCHOR6
 1166 0084 00000000 		.word	.LANCHOR0
 1167 0088 00000000 		.word	huart2
 1168 008c 00000000 		.word	.LANCHOR5
 1169              		.cfi_endproc
 1170              	.LFE361:
 1172              		.section	.text._GLOBAL__sub_I_gWheel_Velocities,"ax",%progbits
 1173              		.align	1
 1174              		.syntax unified
 1175              		.thumb
 1176              		.thumb_func
 1177              		.fpu fpv4-sp-d16
 1179              	_GLOBAL__sub_I_gWheel_Velocities:
 1180              	.LFB373:
 1181              		.loc 1 173 0
 1182              		.cfi_startproc
 1183              		@ args = 0, pretend = 0, frame = 0
 1184              		@ frame_needed = 0, uses_anonymous_args = 0
 1185 0000 08B5     		push	{r3, lr}
 1186              	.LCFI11:
 1187              		.cfi_def_cfa_offset 8
 1188              		.cfi_offset 3, -8
 1189              		.cfi_offset 14, -4
 1190              		.loc 1 173 0
 1191 0002 4FF6FF71 		movw	r1, #65535
 1192 0006 0120     		movs	r0, #1
 1193 0008 FFF7FEFF 		bl	_Z41__static_initialization_and_destruction_0ii
 1194              	.LVL106:
 1195 000c 08BD     		pop	{r3, pc}
 1196              		.cfi_endproc
 1197              	.LFE373:
 1199              		.section	.init_array,"aw",%init_array
 1200              		.align	2
 1201 0000 00000000 		.word	_GLOBAL__sub_I_gWheel_Velocities(target1)
 1202              		.global	Wheel_arr
 1203              		.global	gWheeler_Bytes
 1204              		.global	gWheel_Omegas
 1205              		.global	gWheel_Velocities
 1206              		.section	.bss.Wheel_arr,"aw",%nobits
 1207              		.align	3
 1208              		.set	.LANCHOR1,. + 0
 1211              	Wheel_arr:
 1212 0000 00000000 		.space	96
 1212      00000000 
 1212      00000000 
 1212      00000000 
 1212      00000000 
 1213              		.section	.bss._ZL13gWheeler_Data,"aw",%nobits
 1214              		.align	2
 1215              		.set	.LANCHOR0,. + 0
 1218              	_ZL13gWheeler_Data:
 1219 0000 00000000 		.space	64
 1219      00000000 
ARM GAS  C:\Users\Prashant\AppData\Local\Temp\ccWdDaW2.s 			page 35


 1219      00000000 
 1219      00000000 
 1219      00000000 
 1220              		.section	.bss._ZL16is_first_ramping,"aw",%nobits
 1221              		.set	.LANCHOR3,. + 0
 1224              	_ZL16is_first_ramping:
 1225 0000 00       		.space	1
 1226              		.section	.bss._ZL24gWheeler_Start_Byte_Sent,"aw",%nobits
 1227              		.set	.LANCHOR4,. + 0
 1230              	_ZL24gWheeler_Start_Byte_Sent:
 1231 0000 00       		.space	1
 1232              		.section	.bss.gWheel_Omegas,"aw",%nobits
 1233              		.align	2
 1236              	gWheel_Omegas:
 1237 0000 00000000 		.space	16
 1237      00000000 
 1237      00000000 
 1237      00000000 
 1238              		.section	.bss.gWheel_Velocities,"aw",%nobits
 1239              		.align	2
 1242              	gWheel_Velocities:
 1243 0000 00000000 		.space	16
 1243      00000000 
 1243      00000000 
 1243      00000000 
 1244              		.section	.bss.gWheeler_Bytes,"aw",%nobits
 1245              		.align	2
 1246              		.set	.LANCHOR6,. + 0
 1249              	gWheeler_Bytes:
 1250 0000 00000000 		.space	8
 1250      00000000 
 1251              		.section	.data._ZL11gStart_Byte,"aw",%progbits
 1252              		.set	.LANCHOR5,. + 0
 1255              	_ZL11gStart_Byte:
 1256 0000 A5       		.byte	-91
 1257              		.section	.rodata._ZL16gCoupling_Matrix,"a",%progbits
 1258              		.align	2
 1259              		.set	.LANCHOR2,. + 0
 1262              	_ZL16gCoupling_Matrix:
 1263 0000 01000000 		.word	1
 1264 0004 01000000 		.word	1
 1265 0008 01000000 		.word	1
 1266 000c 01000000 		.word	1
 1267 0010 FFFFFFFF 		.word	-1
 1268 0014 01000000 		.word	1
 1269 0018 FFFFFFFF 		.word	-1
 1270 001c FFFFFFFF 		.word	-1
 1271 0020 01000000 		.word	1
 1272 0024 FFFFFFFF 		.word	-1
 1273 0028 01000000 		.word	1
 1274 002c 01000000 		.word	1
 1275              		.text
 1276              	.Letext0:
 1277              		.file 4 "c:\\program files (x86)\\gnu tools arm embedded\\7 2017-q4-major\\arm-none-eabi\\include\
 1278              		.file 5 "c:\\program files (x86)\\gnu tools arm embedded\\7 2017-q4-major\\arm-none-eabi\\include\
 1279              		.file 6 "C:/Users/Prashant/STM32Cube/Repository/STM32Cube_FW_F4_V1.21.0/Drivers/CMSIS/Include/core
 1280              		.file 7 "C:/Users/Prashant/STM32Cube/Repository/STM32Cube_FW_F4_V1.21.0/Drivers/CMSIS/Device/ST/ST
ARM GAS  C:\Users\Prashant\AppData\Local\Temp\ccWdDaW2.s 			page 36


 1281              		.file 8 "C:/Users/Prashant/STM32Cube/Repository/STM32Cube_FW_F4_V1.21.0/Drivers/CMSIS/Device/ST/ST
 1282              		.file 9 "c:\\program files (x86)\\gnu tools arm embedded\\7 2017-q4-major\\arm-none-eabi\\include\
 1283              		.file 10 "c:\\program files (x86)\\gnu tools arm embedded\\7 2017-q4-major\\arm-none-eabi\\include
 1284              		.file 11 "c:\\program files (x86)\\gnu tools arm embedded\\7 2017-q4-major\\lib\\gcc\\arm-none-eab
 1285              		.file 12 "c:\\program files (x86)\\gnu tools arm embedded\\7 2017-q4-major\\arm-none-eabi\\include
 1286              		.file 13 "C:/Users/Prashant/STM32Cube/Repository/STM32Cube_FW_F4_V1.21.0/Drivers/STM32F4xx_HAL_Dri
 1287              		.file 14 "C:/Users/Prashant/STM32Cube/Repository/STM32Cube_FW_F4_V1.21.0/Drivers/STM32F4xx_HAL_Dri
 1288              		.file 15 "C:/Users/Prashant/STM32Cube/Repository/STM32Cube_FW_F4_V1.21.0/Drivers/STM32F4xx_HAL_Dri
 1289              		.file 16 "Core/Inc/periphs/usart.h"
 1290              		.file 17 "Core/Inc/devs/wheeler.h"
 1291              		.file 18 "c:\\program files (x86)\\gnu tools arm embedded\\7 2017-q4-major\\arm-none-eabi\\include
 1292              		.file 19 "c:\\program files (x86)\\gnu tools arm embedded\\7 2017-q4-major\\arm-none-eabi\\include
 1293              		.file 20 "c:\\program files (x86)\\gnu tools arm embedded\\7 2017-q4-major\\arm-none-eabi\\include
 1294              		.file 21 "c:\\program files (x86)\\gnu tools arm embedded\\7 2017-q4-major\\arm-none-eabi\\include
 1295              		.file 22 "<built-in>"
ARM GAS  C:\Users\Prashant\AppData\Local\Temp\ccWdDaW2.s 			page 37

