ARM GAS  C:\Users\Prashant\AppData\Local\Temp\ccdqio9U.s 			page 1


   1              		.cpu cortex-m4
   2              		.eabi_attribute 27, 1
   3              		.eabi_attribute 28, 1
   4              		.eabi_attribute 20, 1
   5              		.eabi_attribute 21, 1
   6              		.eabi_attribute 23, 3
   7              		.eabi_attribute 24, 1
   8              		.eabi_attribute 25, 1
   9              		.eabi_attribute 26, 1
  10              		.eabi_attribute 30, 1
  11              		.eabi_attribute 34, 1
  12              		.eabi_attribute 18, 4
  13              		.file	"devs_config.cpp"
  14              		.text
  15              	.Ltext0:
  16              		.cfi_sections	.debug_frame
  17              		.section	.text._Z8IMU_Initv,"ax",%progbits
  18              		.align	1
  19              		.global	_Z8IMU_Initv
  20              		.syntax unified
  21              		.thumb
  22              		.thumb_func
  23              		.fpu fpv4-sp-d16
  25              	_Z8IMU_Initv:
  26              	.LFB160:
  27              		.file 1 "Core/Src/robot/devs_config.cpp"
   1:Core/Src/robot/devs_config.cpp **** /*
   2:Core/Src/robot/devs_config.cpp ****  * devs_config.cpp
   3:Core/Src/robot/devs_config.cpp ****  * 
   4:Core/Src/robot/devs_config.cpp ****  * Created : 11/9/2018
   5:Core/Src/robot/devs_config.cpp ****  *  Author : n-is
   6:Core/Src/robot/devs_config.cpp ****  *   email : 073bex422.nischal@pcampus.edu.np
   7:Core/Src/robot/devs_config.cpp ****  */
   8:Core/Src/robot/devs_config.cpp **** 
   9:Core/Src/robot/devs_config.cpp **** #include "robot/devs_config.h"
  10:Core/Src/robot/devs_config.cpp **** 
  11:Core/Src/robot/devs_config.cpp **** struct MPU6050 Body_IMU;
  12:Core/Src/robot/devs_config.cpp **** struct HMC5883 Body_HMC;
  13:Core/Src/robot/devs_config.cpp **** struct A4988 IMU_Stepper;
  14:Core/Src/robot/devs_config.cpp **** 
  15:Core/Src/robot/devs_config.cpp **** struct Encoder gXEncoder;
  16:Core/Src/robot/devs_config.cpp **** struct Encoder gYEncoder;
  17:Core/Src/robot/devs_config.cpp **** 
  18:Core/Src/robot/devs_config.cpp **** void IMU_Init()
  19:Core/Src/robot/devs_config.cpp **** {
  28              		.loc 1 19 0
  29              		.cfi_startproc
  30              		@ args = 0, pretend = 0, frame = 0
  31              		@ frame_needed = 0, uses_anonymous_args = 0
  32 0000 10B5     		push	{r4, lr}
  33              	.LCFI0:
  34              		.cfi_def_cfa_offset 8
  35              		.cfi_offset 4, -8
  36              		.cfi_offset 14, -4
  20:Core/Src/robot/devs_config.cpp ****         Body_IMU.hi2c = &hi2c1;
  37              		.loc 1 20 0
  38 0002 0A48     		ldr	r0, .L3
ARM GAS  C:\Users\Prashant\AppData\Local\Temp\ccdqio9U.s 			page 2


  39 0004 0A4B     		ldr	r3, .L3+4
  40 0006 0360     		str	r3, [r0]
  21:Core/Src/robot/devs_config.cpp ****         Body_IMU.address = 0xD0;
  41              		.loc 1 21 0
  42 0008 D022     		movs	r2, #208
  43 000a 80F82820 		strb	r2, [r0, #40]
  22:Core/Src/robot/devs_config.cpp ****         Body_IMU.a_scale = Accel_Scale::SCALE_2G;
  44              		.loc 1 22 0
  45 000e 0022     		movs	r2, #0
  46 0010 80F83020 		strb	r2, [r0, #48]
  23:Core/Src/robot/devs_config.cpp ****         Body_IMU.g_scale = Gyro_Scale::SCALE_250;
  47              		.loc 1 23 0
  48 0014 80F83120 		strb	r2, [r0, #49]
  24:Core/Src/robot/devs_config.cpp **** 
  25:Core/Src/robot/devs_config.cpp ****         Body_HMC.hi2c = &hi2c1;
  49              		.loc 1 25 0
  50 0018 064C     		ldr	r4, .L3+8
  51 001a 2360     		str	r3, [r4]
  26:Core/Src/robot/devs_config.cpp ****         Body_HMC.address = 0x3C;
  52              		.loc 1 26 0
  53 001c 3C23     		movs	r3, #60
  54 001e 2374     		strb	r3, [r4, #16]
  27:Core/Src/robot/devs_config.cpp **** 
  28:Core/Src/robot/devs_config.cpp ****         MPU6050_Init(&Body_IMU);
  55              		.loc 1 28 0
  56 0020 FFF7FEFF 		bl	_Z12MPU6050_InitP7MPU6050
  57              	.LVL0:
  29:Core/Src/robot/devs_config.cpp ****         HMC5883_Init(&Body_HMC);
  58              		.loc 1 29 0
  59 0024 2046     		mov	r0, r4
  60 0026 FFF7FEFF 		bl	_Z12HMC5883_InitP7HMC5883
  61              	.LVL1:
  30:Core/Src/robot/devs_config.cpp **** }
  62              		.loc 1 30 0
  63 002a 10BD     		pop	{r4, pc}
  64              	.L4:
  65              		.align	2
  66              	.L3:
  67 002c 00000000 		.word	.LANCHOR0
  68 0030 00000000 		.word	hi2c1
  69 0034 00000000 		.word	.LANCHOR1
  70              		.cfi_endproc
  71              	.LFE160:
  73              		.section	.text._Z12Stepper_Initv,"ax",%progbits
  74              		.align	1
  75              		.global	_Z12Stepper_Initv
  76              		.syntax unified
  77              		.thumb
  78              		.thumb_func
  79              		.fpu fpv4-sp-d16
  81              	_Z12Stepper_Initv:
  82              	.LFB161:
  31:Core/Src/robot/devs_config.cpp **** 
  32:Core/Src/robot/devs_config.cpp **** void Stepper_Init()
  33:Core/Src/robot/devs_config.cpp **** {
  83              		.loc 1 33 0
  84              		.cfi_startproc
ARM GAS  C:\Users\Prashant\AppData\Local\Temp\ccdqio9U.s 			page 3


  85              		@ args = 0, pretend = 0, frame = 0
  86              		@ frame_needed = 0, uses_anonymous_args = 0
  87 0000 08B5     		push	{r3, lr}
  88              	.LCFI1:
  89              		.cfi_def_cfa_offset 8
  90              		.cfi_offset 3, -8
  91              		.cfi_offset 14, -4
  34:Core/Src/robot/devs_config.cpp ****         IMU_Stepper.htim = &htim2;
  92              		.loc 1 34 0
  93 0002 0848     		ldr	r0, .L7
  94 0004 084B     		ldr	r3, .L7+4
  95 0006 0360     		str	r3, [r0]
  35:Core/Src/robot/devs_config.cpp ****         IMU_Stepper.steps_per_rev = 200;
  96              		.loc 1 35 0
  97 0008 C823     		movs	r3, #200
  98 000a 4360     		str	r3, [r0, #4]
  36:Core/Src/robot/devs_config.cpp ****         IMU_Stepper.dir_port = GPIOC;
  99              		.loc 1 36 0
 100 000c 074B     		ldr	r3, .L7+8
 101 000e 8360     		str	r3, [r0, #8]
  37:Core/Src/robot/devs_config.cpp ****         IMU_Stepper.dir_pin = GPIO_PIN_0;
 102              		.loc 1 37 0
 103 0010 0123     		movs	r3, #1
 104 0012 0361     		str	r3, [r0, #16]
  38:Core/Src/robot/devs_config.cpp ****         IMU_Stepper.step_port = GPIOA;
 105              		.loc 1 38 0
 106 0014 064B     		ldr	r3, .L7+12
 107 0016 C360     		str	r3, [r0, #12]
  39:Core/Src/robot/devs_config.cpp ****         IMU_Stepper.step_pin = GPIO_PIN_2;
 108              		.loc 1 39 0
 109 0018 0423     		movs	r3, #4
 110 001a 4361     		str	r3, [r0, #20]
  40:Core/Src/robot/devs_config.cpp **** 
  41:Core/Src/robot/devs_config.cpp ****         A4988_setDirection(&IMU_Stepper, 0);
 111              		.loc 1 41 0
 112 001c 0021     		movs	r1, #0
 113 001e FFF7FEFF 		bl	_Z18A4988_setDirectionP5A4988m
 114              	.LVL2:
  42:Core/Src/robot/devs_config.cpp **** }
 115              		.loc 1 42 0
 116 0022 08BD     		pop	{r3, pc}
 117              	.L8:
 118              		.align	2
 119              	.L7:
 120 0024 00000000 		.word	.LANCHOR2
 121 0028 00000000 		.word	htim2
 122 002c 00080240 		.word	1073874944
 123 0030 00000240 		.word	1073872896
 124              		.cfi_endproc
 125              	.LFE161:
 127              		.section	.text._Z13Encoders_Initv,"ax",%progbits
 128              		.align	1
 129              		.global	_Z13Encoders_Initv
 130              		.syntax unified
 131              		.thumb
 132              		.thumb_func
 133              		.fpu fpv4-sp-d16
ARM GAS  C:\Users\Prashant\AppData\Local\Temp\ccdqio9U.s 			page 4


 135              	_Z13Encoders_Initv:
 136              	.LFB162:
  43:Core/Src/robot/devs_config.cpp **** 
  44:Core/Src/robot/devs_config.cpp **** void Encoders_Init()
  45:Core/Src/robot/devs_config.cpp **** {
 137              		.loc 1 45 0
 138              		.cfi_startproc
 139              		@ args = 0, pretend = 0, frame = 0
 140              		@ frame_needed = 0, uses_anonymous_args = 0
 141              		@ link register save eliminated.
  46:Core/Src/robot/devs_config.cpp ****         gXEncoder.chB_port = GPIOE;
 142              		.loc 1 46 0
 143 0000 064B     		ldr	r3, .L10
 144 0002 074A     		ldr	r2, .L10+4
 145 0004 1A60     		str	r2, [r3]
  47:Core/Src/robot/devs_config.cpp ****         gXEncoder.chB_pin = GPIO_PIN_11;
 146              		.loc 1 47 0
 147 0006 4FF40061 		mov	r1, #2048
 148 000a 9980     		strh	r1, [r3, #4]	@ movhi
  48:Core/Src/robot/devs_config.cpp ****         gXEncoder.count = 0;
 149              		.loc 1 48 0
 150 000c 0022     		movs	r2, #0
 151 000e 9A60     		str	r2, [r3, #8]
  49:Core/Src/robot/devs_config.cpp ****         
  50:Core/Src/robot/devs_config.cpp ****         gYEncoder.chB_port = GPIOD;
 152              		.loc 1 50 0
 153 0010 044B     		ldr	r3, .L10+8
 154 0012 0548     		ldr	r0, .L10+12
 155 0014 1860     		str	r0, [r3]
  51:Core/Src/robot/devs_config.cpp ****         gYEncoder.chB_pin = GPIO_PIN_11;
 156              		.loc 1 51 0
 157 0016 9980     		strh	r1, [r3, #4]	@ movhi
  52:Core/Src/robot/devs_config.cpp ****         gYEncoder.count = 0;
 158              		.loc 1 52 0
 159 0018 9A60     		str	r2, [r3, #8]
  53:Core/Src/robot/devs_config.cpp **** }
 160              		.loc 1 53 0
 161 001a 7047     		bx	lr
 162              	.L11:
 163              		.align	2
 164              	.L10:
 165 001c 00000000 		.word	.LANCHOR3
 166 0020 00100240 		.word	1073876992
 167 0024 00000000 		.word	.LANCHOR4
 168 0028 000C0240 		.word	1073875968
 169              		.cfi_endproc
 170              	.LFE162:
 172              		.section	.text._ZN4Vec3IsED2Ev,"axG",%progbits,_ZN4Vec3IsED5Ev,comdat
 173              		.align	1
 174              		.weak	_ZN4Vec3IsED2Ev
 175              		.syntax unified
 176              		.thumb
 177              		.thumb_func
 178              		.fpu fpv4-sp-d16
 180              	_ZN4Vec3IsED2Ev:
 181              	.LFB167:
 182              		.file 2 "Core/Inc\\utils/vec3.h"
ARM GAS  C:\Users\Prashant\AppData\Local\Temp\ccdqio9U.s 			page 5


   1:Core/Inc\utils/vec3.h **** /*
   2:Core/Inc\utils/vec3.h ****  * vec3.h
   3:Core/Inc\utils/vec3.h ****  * 
   4:Core/Inc\utils/vec3.h ****  * Created : 11/9/2018
   5:Core/Inc\utils/vec3.h ****  *  Author : n-is
   6:Core/Inc\utils/vec3.h ****  *   email : 073bex422.nischal@pcampus.edu.np
   7:Core/Inc\utils/vec3.h ****  */
   8:Core/Inc\utils/vec3.h **** 
   9:Core/Inc\utils/vec3.h **** #ifndef _VEC3_H_
  10:Core/Inc\utils/vec3.h **** #define _VEC3_H_
  11:Core/Inc\utils/vec3.h **** 
  12:Core/Inc\utils/vec3.h **** #include "stm32f4xx_hal.h"
  13:Core/Inc\utils/vec3.h **** 
  14:Core/Inc\utils/vec3.h **** template <typename T>
  15:Core/Inc\utils/vec3.h **** void swap_Element(T &first, T &second)
  16:Core/Inc\utils/vec3.h **** {
  17:Core/Inc\utils/vec3.h ****         T temp = first;
  18:Core/Inc\utils/vec3.h ****         first = second;
  19:Core/Inc\utils/vec3.h ****         second = temp;
  20:Core/Inc\utils/vec3.h **** }
  21:Core/Inc\utils/vec3.h **** 
  22:Core/Inc\utils/vec3.h **** template <class T>
  23:Core/Inc\utils/vec3.h **** class Vec3
  24:Core/Inc\utils/vec3.h **** {
  25:Core/Inc\utils/vec3.h **** public:
  26:Core/Inc\utils/vec3.h ****         Vec3() { set_Values(0,0,0); }
  27:Core/Inc\utils/vec3.h ****         Vec3(T x, T y, T z) { set_Values(x,y,z); }
  28:Core/Inc\utils/vec3.h ****         Vec3(Vec3 &&) = default;
  29:Core/Inc\utils/vec3.h ****         Vec3 &operator=(Vec3 &&) = default;
  30:Core/Inc\utils/vec3.h ****         ~Vec3();
  31:Core/Inc\utils/vec3.h **** 
  32:Core/Inc\utils/vec3.h ****         void set_Values(T x, T y, T z);
  33:Core/Inc\utils/vec3.h ****         T getX() const;
  34:Core/Inc\utils/vec3.h ****         T getY() const;
  35:Core/Inc\utils/vec3.h ****         T getZ() const;
  36:Core/Inc\utils/vec3.h ****         void setX(T x) { x_ = x; }
  37:Core/Inc\utils/vec3.h ****         void setY(T y) { y_ = y; }
  38:Core/Inc\utils/vec3.h ****         void setZ(T z) { z_ = z; }
  39:Core/Inc\utils/vec3.h **** 
  40:Core/Inc\utils/vec3.h ****         template <typename T1, typename T2>
  41:Core/Inc\utils/vec3.h ****         void divide(const Vec3<T1> &v, T2 num) {
  42:Core/Inc\utils/vec3.h ****                 x_ = v.getX() / num;
  43:Core/Inc\utils/vec3.h ****                 y_ = v.getY() / num;
  44:Core/Inc\utils/vec3.h ****                 z_ = v.getZ() / num;
  45:Core/Inc\utils/vec3.h ****         }
  46:Core/Inc\utils/vec3.h **** 
  47:Core/Inc\utils/vec3.h ****         Vec3 mult_EW(float num) {
  48:Core/Inc\utils/vec3.h ****                 Vec3 temp(*this);
  49:Core/Inc\utils/vec3.h ****                 temp.x_ *= num;
  50:Core/Inc\utils/vec3.h ****                 temp.y_ *= num;
  51:Core/Inc\utils/vec3.h ****                 temp.z_ *= num;
  52:Core/Inc\utils/vec3.h **** 
  53:Core/Inc\utils/vec3.h ****                 return temp;
  54:Core/Inc\utils/vec3.h ****         }
  55:Core/Inc\utils/vec3.h **** 
  56:Core/Inc\utils/vec3.h ****         Vec3 add_EW(float num) {
  57:Core/Inc\utils/vec3.h ****                 Vec3 temp(*this);
ARM GAS  C:\Users\Prashant\AppData\Local\Temp\ccdqio9U.s 			page 6


  58:Core/Inc\utils/vec3.h ****                 temp.x_ += num;
  59:Core/Inc\utils/vec3.h ****                 temp.y_ += num;
  60:Core/Inc\utils/vec3.h ****                 temp.z_ += num;
  61:Core/Inc\utils/vec3.h **** 
  62:Core/Inc\utils/vec3.h ****                 return temp;
  63:Core/Inc\utils/vec3.h ****         }
  64:Core/Inc\utils/vec3.h **** 
  65:Core/Inc\utils/vec3.h ****         Vec3 sub_EW(float num) {
  66:Core/Inc\utils/vec3.h ****                 Vec3 temp(*this);
  67:Core/Inc\utils/vec3.h ****                 temp.x_ -= num;
  68:Core/Inc\utils/vec3.h ****                 temp.y_ -= num;
  69:Core/Inc\utils/vec3.h ****                 temp.z_ -= num;
  70:Core/Inc\utils/vec3.h **** 
  71:Core/Inc\utils/vec3.h ****                 return temp;
  72:Core/Inc\utils/vec3.h ****         }
  73:Core/Inc\utils/vec3.h **** 
  74:Core/Inc\utils/vec3.h ****         template <typename T1>
  75:Core/Inc\utils/vec3.h ****         Vec3 div_EW(Vec3<T1> v) {
  76:Core/Inc\utils/vec3.h ****                 Vec3 temp(*this);
  77:Core/Inc\utils/vec3.h ****                 temp.x_ /= (float)v.x_;
  78:Core/Inc\utils/vec3.h ****                 temp.y_ /= (float)v.y_;
  79:Core/Inc\utils/vec3.h ****                 temp.z_ /= (float)v.z_;
  80:Core/Inc\utils/vec3.h **** 
  81:Core/Inc\utils/vec3.h ****                 return temp;
  82:Core/Inc\utils/vec3.h ****         }
  83:Core/Inc\utils/vec3.h **** 
  84:Core/Inc\utils/vec3.h ****         template <typename T1>
  85:Core/Inc\utils/vec3.h ****         Vec3 mult_EW(Vec3<T1> v) {
  86:Core/Inc\utils/vec3.h ****                 Vec3 temp(v);
  87:Core/Inc\utils/vec3.h ****                 temp.x_ *= x_;
  88:Core/Inc\utils/vec3.h ****                 temp.y_ *= y_;
  89:Core/Inc\utils/vec3.h ****                 temp.z_ *= z_;
  90:Core/Inc\utils/vec3.h **** 
  91:Core/Inc\utils/vec3.h ****                 return temp;
  92:Core/Inc\utils/vec3.h ****         }
  93:Core/Inc\utils/vec3.h **** 
  94:Core/Inc\utils/vec3.h ****         friend void swap(Vec3 &first, Vec3 &second) {
  95:Core/Inc\utils/vec3.h ****                 swap_Element(first.x_, second.x_);
  96:Core/Inc\utils/vec3.h ****                 swap_Element(first.y_, second.y_);
  97:Core/Inc\utils/vec3.h ****                 swap_Element(first.z_, second.z_);
  98:Core/Inc\utils/vec3.h ****         }
  99:Core/Inc\utils/vec3.h ****         
 100:Core/Inc\utils/vec3.h ****         Vec3(const Vec3 &v) {
 101:Core/Inc\utils/vec3.h ****                 x_ = v.x_;
 102:Core/Inc\utils/vec3.h ****                 y_ = v.y_;
 103:Core/Inc\utils/vec3.h ****                 z_ = v.z_;
 104:Core/Inc\utils/vec3.h ****         }
 105:Core/Inc\utils/vec3.h ****         
 106:Core/Inc\utils/vec3.h ****         Vec3 &operator=(const Vec3 &v) {
 107:Core/Inc\utils/vec3.h ****                 Vec3 temp(v);
 108:Core/Inc\utils/vec3.h ****                 swap(*this, temp);
 109:Core/Inc\utils/vec3.h **** 
 110:Core/Inc\utils/vec3.h ****                 return *this;
 111:Core/Inc\utils/vec3.h ****         }
 112:Core/Inc\utils/vec3.h **** 
 113:Core/Inc\utils/vec3.h ****         Vec3 &operator+=(const Vec3 &rhs) {
 114:Core/Inc\utils/vec3.h ****                 x_ += rhs.x_;
ARM GAS  C:\Users\Prashant\AppData\Local\Temp\ccdqio9U.s 			page 7


 115:Core/Inc\utils/vec3.h ****                 y_ += rhs.y_;
 116:Core/Inc\utils/vec3.h ****                 z_ += rhs.z_;
 117:Core/Inc\utils/vec3.h **** 
 118:Core/Inc\utils/vec3.h ****                 return *this;
 119:Core/Inc\utils/vec3.h ****         }
 120:Core/Inc\utils/vec3.h ****         
 121:Core/Inc\utils/vec3.h ****         Vec3 &operator-=(const Vec3 &rhs) {
 122:Core/Inc\utils/vec3.h ****                 x_ -= rhs.x_;
 123:Core/Inc\utils/vec3.h ****                 y_ -= rhs.y_;
 124:Core/Inc\utils/vec3.h ****                 z_ -= rhs.z_;
 125:Core/Inc\utils/vec3.h **** 
 126:Core/Inc\utils/vec3.h ****                 return *this;
 127:Core/Inc\utils/vec3.h ****         }
 128:Core/Inc\utils/vec3.h **** 
 129:Core/Inc\utils/vec3.h ****         friend Vec3 operator+(Vec3 lhs, const Vec3 &rhs) {
 130:Core/Inc\utils/vec3.h ****                 lhs += rhs;
 131:Core/Inc\utils/vec3.h ****                 return lhs;
 132:Core/Inc\utils/vec3.h ****         }
 133:Core/Inc\utils/vec3.h **** 
 134:Core/Inc\utils/vec3.h ****         friend Vec3 operator-(Vec3 lhs, const Vec3 &rhs) {
 135:Core/Inc\utils/vec3.h ****                 lhs -= rhs;
 136:Core/Inc\utils/vec3.h ****                 return lhs;
 137:Core/Inc\utils/vec3.h ****         }
 138:Core/Inc\utils/vec3.h **** 
 139:Core/Inc\utils/vec3.h ****         void print() const {
 140:Core/Inc\utils/vec3.h ****                 printf("%ld, %ld, %ld", (int32_t)x_, (int32_t)y_, (int32_t)z_);
 141:Core/Inc\utils/vec3.h ****         }
 142:Core/Inc\utils/vec3.h **** 
 143:Core/Inc\utils/vec3.h **** private:
 144:Core/Inc\utils/vec3.h ****         T x_,y_,z_;
 145:Core/Inc\utils/vec3.h **** };
 146:Core/Inc\utils/vec3.h **** 
 147:Core/Inc\utils/vec3.h **** template <class T>
 148:Core/Inc\utils/vec3.h **** Vec3<T>::~Vec3()
 183              		.loc 2 148 0
 184              		.cfi_startproc
 185              		@ args = 0, pretend = 0, frame = 0
 186              		@ frame_needed = 0, uses_anonymous_args = 0
 187              		@ link register save eliminated.
 188              	.LVL3:
 149:Core/Inc\utils/vec3.h **** {
 150:Core/Inc\utils/vec3.h **** }
 189              		.loc 2 150 0
 190 0000 7047     		bx	lr
 191              		.cfi_endproc
 192              	.LFE167:
 194              		.weak	_ZN4Vec3IsED1Ev
 195              		.thumb_set _ZN4Vec3IsED1Ev,_ZN4Vec3IsED2Ev
 196              		.section	.text._ZN4Vec3IfED2Ev,"axG",%progbits,_ZN4Vec3IfED5Ev,comdat
 197              		.align	1
 198              		.weak	_ZN4Vec3IfED2Ev
 199              		.syntax unified
 200              		.thumb
 201              		.thumb_func
 202              		.fpu fpv4-sp-d16
 204              	_ZN4Vec3IfED2Ev:
 205              	.LFB173:
ARM GAS  C:\Users\Prashant\AppData\Local\Temp\ccdqio9U.s 			page 8


 148:Core/Inc\utils/vec3.h **** {
 206              		.loc 2 148 0
 207              		.cfi_startproc
 208              		@ args = 0, pretend = 0, frame = 0
 209              		@ frame_needed = 0, uses_anonymous_args = 0
 210              		@ link register save eliminated.
 211              	.LVL4:
 212              		.loc 2 150 0
 213 0000 7047     		bx	lr
 214              		.cfi_endproc
 215              	.LFE173:
 217              		.weak	_ZN4Vec3IfED1Ev
 218              		.thumb_set _ZN4Vec3IfED1Ev,_ZN4Vec3IfED2Ev
 219              		.section	.text._ZN7HMC5883D2Ev,"axG",%progbits,_ZN7HMC5883D5Ev,comdat
 220              		.align	1
 221              		.weak	_ZN7HMC5883D2Ev
 222              		.syntax unified
 223              		.thumb
 224              		.thumb_func
 225              		.fpu fpv4-sp-d16
 227              	_ZN7HMC5883D2Ev:
 228              	.LFB182:
 229              		.file 3 "Core/Inc/devs/hmc5883.h"
   1:Core/Inc/devs/hmc5883.h **** /*
   2:Core/Inc/devs/hmc5883.h ****  * hmc5883.c
   3:Core/Inc/devs/hmc5883.h ****  * 
   4:Core/Inc/devs/hmc5883.h ****  * Created : 11/13/2018
   5:Core/Inc/devs/hmc5883.h ****  *  Author : n-is & ane
   6:Core/Inc/devs/hmc5883.h ****  *   email : 073bex421.nischal@pcampus.edu.np
   7:Core/Inc/devs/hmc5883.h ****  *   email : 073bex422.nischal@pcampus.edu.np
   8:Core/Inc/devs/hmc5883.h ****  */
   9:Core/Inc/devs/hmc5883.h **** 
  10:Core/Inc/devs/hmc5883.h **** #ifndef _HMC5883_H_
  11:Core/Inc/devs/hmc5883.h **** #define _HMC5883_H_
  12:Core/Inc/devs/hmc5883.h **** 
  13:Core/Inc/devs/hmc5883.h **** #include "periphs/i2c.h"
  14:Core/Inc/devs/hmc5883.h **** #include "utils/vec3.h"
  15:Core/Inc/devs/hmc5883.h **** #include "devs/a4988.h"
  16:Core/Inc/devs/hmc5883.h **** 
  17:Core/Inc/devs/hmc5883.h **** struct HMC5883
 230              		.loc 3 17 0
 231              		.cfi_startproc
 232              		@ args = 0, pretend = 0, frame = 0
 233              		@ frame_needed = 0, uses_anonymous_args = 0
 234              		@ link register save eliminated.
 235              	.LVL5:
 236              		.loc 3 17 0
 237 0000 7047     		bx	lr
 238              		.cfi_endproc
 239              	.LFE182:
 241              		.weak	_ZN7HMC5883D1Ev
 242              		.thumb_set _ZN7HMC5883D1Ev,_ZN7HMC5883D2Ev
 243              		.section	.text._ZN7MPU6050D2Ev,"axG",%progbits,_ZN7MPU6050D5Ev,comdat
 244              		.align	1
 245              		.weak	_ZN7MPU6050D2Ev
 246              		.syntax unified
 247              		.thumb
ARM GAS  C:\Users\Prashant\AppData\Local\Temp\ccdqio9U.s 			page 9


 248              		.thumb_func
 249              		.fpu fpv4-sp-d16
 251              	_ZN7MPU6050D2Ev:
 252              	.LFB179:
 253              		.file 4 "Core/Inc/devs/mpu6050.h"
   1:Core/Inc/devs/mpu6050.h **** /*
   2:Core/Inc/devs/mpu6050.h ****  * mpu6050.h
   3:Core/Inc/devs/mpu6050.h ****  * 
   4:Core/Inc/devs/mpu6050.h ****  * Created : 9/27/2018
   5:Core/Inc/devs/mpu6050.h ****  *  Author : n-is
   6:Core/Inc/devs/mpu6050.h ****  *   email : 073bex422.nischal@pcampus.edu.np
   7:Core/Inc/devs/mpu6050.h ****  */
   8:Core/Inc/devs/mpu6050.h **** 
   9:Core/Inc/devs/mpu6050.h **** #ifndef _MPU6050_H_
  10:Core/Inc/devs/mpu6050.h **** #define _MPU6050_H_
  11:Core/Inc/devs/mpu6050.h **** 
  12:Core/Inc/devs/mpu6050.h **** #include "vec3.h"
  13:Core/Inc/devs/mpu6050.h **** 
  14:Core/Inc/devs/mpu6050.h **** #include "i2c.h"
  15:Core/Inc/devs/mpu6050.h **** #include "mpu6050_reg.h"
  16:Core/Inc/devs/mpu6050.h **** 
  17:Core/Inc/devs/mpu6050.h **** enum Accel_Scale
  18:Core/Inc/devs/mpu6050.h **** {
  19:Core/Inc/devs/mpu6050.h ****         SCALE_2G = 0,
  20:Core/Inc/devs/mpu6050.h ****         SCALE_4G,
  21:Core/Inc/devs/mpu6050.h ****         SCALE_8G,
  22:Core/Inc/devs/mpu6050.h ****         SCALE_16G
  23:Core/Inc/devs/mpu6050.h **** };
  24:Core/Inc/devs/mpu6050.h **** 
  25:Core/Inc/devs/mpu6050.h **** enum Gyro_Scale
  26:Core/Inc/devs/mpu6050.h **** {
  27:Core/Inc/devs/mpu6050.h ****         SCALE_250 = 0,
  28:Core/Inc/devs/mpu6050.h ****         SCALE_500,
  29:Core/Inc/devs/mpu6050.h ****         SCALE_1000,
  30:Core/Inc/devs/mpu6050.h ****         SCALE_2000
  31:Core/Inc/devs/mpu6050.h **** };
  32:Core/Inc/devs/mpu6050.h **** 
  33:Core/Inc/devs/mpu6050.h **** struct MPU6050
 254              		.loc 4 33 0
 255              		.cfi_startproc
 256              		@ args = 0, pretend = 0, frame = 0
 257              		@ frame_needed = 0, uses_anonymous_args = 0
 258              		@ link register save eliminated.
 259              	.LVL6:
 260              		.loc 4 33 0
 261 0000 7047     		bx	lr
 262              		.cfi_endproc
 263              	.LFE179:
 265              		.weak	_ZN7MPU6050D1Ev
 266              		.thumb_set _ZN7MPU6050D1Ev,_ZN7MPU6050D2Ev
 267              		.section	.text._ZN4Vec3IsE10set_ValuesEsss,"axG",%progbits,_ZN4Vec3IsE10set_ValuesEsss,comdat
 268              		.align	1
 269              		.weak	_ZN4Vec3IsE10set_ValuesEsss
 270              		.syntax unified
 271              		.thumb
 272              		.thumb_func
 273              		.fpu fpv4-sp-d16
ARM GAS  C:\Users\Prashant\AppData\Local\Temp\ccdqio9U.s 			page 10


 275              	_ZN4Vec3IsE10set_ValuesEsss:
 276              	.LFB175:
 151:Core/Inc\utils/vec3.h **** 
 152:Core/Inc\utils/vec3.h **** template <class T>
 153:Core/Inc\utils/vec3.h **** void Vec3<T>::set_Values(T x, T y, T z)
 277              		.loc 2 153 0
 278              		.cfi_startproc
 279              		@ args = 0, pretend = 0, frame = 0
 280              		@ frame_needed = 0, uses_anonymous_args = 0
 281              		@ link register save eliminated.
 282              	.LVL7:
 154:Core/Inc\utils/vec3.h **** {
 155:Core/Inc\utils/vec3.h ****         x_ = x;
 283              		.loc 2 155 0
 284 0000 0180     		strh	r1, [r0]	@ movhi
 156:Core/Inc\utils/vec3.h ****         y_ = y;
 285              		.loc 2 156 0
 286 0002 4280     		strh	r2, [r0, #2]	@ movhi
 157:Core/Inc\utils/vec3.h ****         z_ = z;
 287              		.loc 2 157 0
 288 0004 8380     		strh	r3, [r0, #4]	@ movhi
 158:Core/Inc\utils/vec3.h **** }
 289              		.loc 2 158 0
 290 0006 7047     		bx	lr
 291              		.cfi_endproc
 292              	.LFE175:
 294              		.section	.text._ZN4Vec3IfE10set_ValuesEfff,"axG",%progbits,_ZN4Vec3IfE10set_ValuesEfff,comdat
 295              		.align	1
 296              		.weak	_ZN4Vec3IfE10set_ValuesEfff
 297              		.syntax unified
 298              		.thumb
 299              		.thumb_func
 300              		.fpu fpv4-sp-d16
 302              	_ZN4Vec3IfE10set_ValuesEfff:
 303              	.LFB176:
 153:Core/Inc\utils/vec3.h **** {
 304              		.loc 2 153 0
 305              		.cfi_startproc
 306              		@ args = 0, pretend = 0, frame = 0
 307              		@ frame_needed = 0, uses_anonymous_args = 0
 308              		@ link register save eliminated.
 309              	.LVL8:
 155:Core/Inc\utils/vec3.h ****         y_ = y;
 310              		.loc 2 155 0
 311 0000 80ED000A 		vstr.32	s0, [r0]
 156:Core/Inc\utils/vec3.h ****         z_ = z;
 312              		.loc 2 156 0
 313 0004 C0ED010A 		vstr.32	s1, [r0, #4]
 157:Core/Inc\utils/vec3.h **** }
 314              		.loc 2 157 0
 315 0008 80ED021A 		vstr.32	s2, [r0, #8]
 316              		.loc 2 158 0
 317 000c 7047     		bx	lr
 318              		.cfi_endproc
 319              	.LFE176:
 321              		.section	.text._Z41__static_initialization_and_destruction_0ii,"ax",%progbits
 322              		.align	1
ARM GAS  C:\Users\Prashant\AppData\Local\Temp\ccdqio9U.s 			page 11


 323              		.syntax unified
 324              		.thumb
 325              		.thumb_func
 326              		.fpu fpv4-sp-d16
 328              	_Z41__static_initialization_and_destruction_0ii:
 329              	.LFB177:
 330              		.loc 1 53 0
 331              		.cfi_startproc
 332              		@ args = 0, pretend = 0, frame = 0
 333              		@ frame_needed = 0, uses_anonymous_args = 0
 334              	.LVL9:
 335 0000 0128     		cmp	r0, #1
 336 0002 00D0     		beq	.L24
 337 0004 7047     		bx	lr
 338              	.L24:
 339              		.loc 1 53 0 is_stmt 0 discriminator 1
 340 0006 38B5     		push	{r3, r4, r5, lr}
 341              	.LCFI2:
 342              		.cfi_def_cfa_offset 16
 343              		.cfi_offset 3, -16
 344              		.cfi_offset 4, -12
 345              		.cfi_offset 5, -8
 346              		.cfi_offset 14, -4
 347 0008 2DED028B 		vpush.64	{d8}
 348              	.LCFI3:
 349              		.cfi_def_cfa_offset 24
 350              		.cfi_offset 80, -24
 351              		.cfi_offset 81, -20
 352              		.loc 1 53 0 is_stmt 1 discriminator 1
 353 000c 4FF6FF73 		movw	r3, #65535
 354 0010 9942     		cmp	r1, r3
 355 0012 02D0     		beq	.L25
 356              	.LVL10:
 357              	.L18:
 358              		.loc 1 53 0 is_stmt 0
 359 0014 BDEC028B 		vldm	sp!, {d8}
 360              	.LCFI4:
 361              		.cfi_remember_state
 362              		.cfi_restore 80
 363              		.cfi_restore 81
 364              		.cfi_def_cfa_offset 16
 365 0018 38BD     		pop	{r3, r4, r5, pc}
 366              	.LVL11:
 367              	.L25:
 368              	.LCFI5:
 369              		.cfi_restore_state
 370              	.LBB46:
 371              	.LBB47:
 372              	.LBB48:
 373              	.LBB49:
  26:Core/Inc\utils/vec3.h ****         Vec3(T x, T y, T z) { set_Values(x,y,z); }
 374              		.loc 2 26 0 is_stmt 1
 375 001a 224C     		ldr	r4, .L26
 376 001c 0023     		movs	r3, #0
 377 001e 1A46     		mov	r2, r3
 378 0020 1946     		mov	r1, r3
 379              	.LVL12:
ARM GAS  C:\Users\Prashant\AppData\Local\Temp\ccdqio9U.s 			page 12


 380 0022 201D     		adds	r0, r4, #4
 381              	.LVL13:
 382 0024 FFF7FEFF 		bl	_ZN4Vec3IsE10set_ValuesEsss
 383              	.LVL14:
 384              	.LBE49:
 385              	.LBE48:
 386              	.LBE47:
 387              	.LBB50:
 388              	.LBB51:
 389              	.LBB52:
 390 0028 0023     		movs	r3, #0
 391 002a 1A46     		mov	r2, r3
 392 002c 1946     		mov	r1, r3
 393 002e 04F10A00 		add	r0, r4, #10
 394 0032 FFF7FEFF 		bl	_ZN4Vec3IsE10set_ValuesEsss
 395              	.LVL15:
 396              	.LBE52:
 397              	.LBE51:
 398              	.LBE50:
 399              	.LBB53:
 400              	.LBB54:
 401              	.LBB55:
 402 0036 9FED1C8A 		vldr.32	s16, .L26+4
 403 003a B0EE481A 		vmov.f32	s2, s16
 404 003e F0EE480A 		vmov.f32	s1, s16
 405 0042 B0EE480A 		vmov.f32	s0, s16
 406 0046 04F11000 		add	r0, r4, #16
 407 004a FFF7FEFF 		bl	_ZN4Vec3IfE10set_ValuesEfff
 408              	.LVL16:
 409              	.LBE55:
 410              	.LBE54:
 411              	.LBE53:
 412              	.LBB56:
 413              	.LBB57:
 414              	.LBB58:
 415 004e B0EE481A 		vmov.f32	s2, s16
 416 0052 F0EE480A 		vmov.f32	s1, s16
 417 0056 B0EE480A 		vmov.f32	s0, s16
 418 005a 04F11C00 		add	r0, r4, #28
 419 005e FFF7FEFF 		bl	_ZN4Vec3IfE10set_ValuesEfff
 420              	.LVL17:
 421              	.LBE58:
 422              	.LBE57:
 423              	.LBE56:
 424              	.LBE46:
  11:Core/Src/robot/devs_config.cpp **** struct HMC5883 Body_HMC;
 425              		.loc 1 11 0
 426 0062 124D     		ldr	r5, .L26+8
 427 0064 2A46     		mov	r2, r5
 428 0066 1249     		ldr	r1, .L26+12
 429 0068 2046     		mov	r0, r4
 430 006a FFF7FEFF 		bl	__aeabi_atexit
 431              	.LVL18:
 432              	.LBB59:
 433              	.LBB60:
 434              	.LBB61:
 435              	.LBB62:
ARM GAS  C:\Users\Prashant\AppData\Local\Temp\ccdqio9U.s 			page 13


  26:Core/Inc\utils/vec3.h ****         Vec3(T x, T y, T z) { set_Values(x,y,z); }
 436              		.loc 2 26 0
 437 006e 114C     		ldr	r4, .L26+16
 438 0070 B0EE481A 		vmov.f32	s2, s16
 439 0074 F0EE480A 		vmov.f32	s1, s16
 440 0078 B0EE480A 		vmov.f32	s0, s16
 441 007c 201D     		adds	r0, r4, #4
 442 007e FFF7FEFF 		bl	_ZN4Vec3IfE10set_ValuesEfff
 443              	.LVL19:
 444              	.LBE62:
 445              	.LBE61:
 446              	.LBE60:
 447              	.LBB63:
 448              	.LBB64:
 449              	.LBB65:
 450 0082 B0EE481A 		vmov.f32	s2, s16
 451 0086 F0EE480A 		vmov.f32	s1, s16
 452 008a B0EE480A 		vmov.f32	s0, s16
 453 008e 04F11400 		add	r0, r4, #20
 454 0092 FFF7FEFF 		bl	_ZN4Vec3IfE10set_ValuesEfff
 455              	.LVL20:
 456              	.LBE65:
 457              	.LBE64:
 458              	.LBE63:
 459              	.LBE59:
  12:Core/Src/robot/devs_config.cpp **** struct A4988 IMU_Stepper;
 460              		.loc 1 12 0
 461 0096 2A46     		mov	r2, r5
 462 0098 0749     		ldr	r1, .L26+20
 463 009a 2046     		mov	r0, r4
 464 009c FFF7FEFF 		bl	__aeabi_atexit
 465              	.LVL21:
 466              		.loc 1 53 0
 467 00a0 B8E7     		b	.L18
 468              	.L27:
 469 00a2 00BF     		.align	2
 470              	.L26:
 471 00a4 00000000 		.word	.LANCHOR0
 472 00a8 00000000 		.word	0
 473 00ac 00000000 		.word	__dso_handle
 474 00b0 00000000 		.word	_ZN7MPU6050D1Ev
 475 00b4 00000000 		.word	.LANCHOR1
 476 00b8 00000000 		.word	_ZN7HMC5883D1Ev
 477              		.cfi_endproc
 478              	.LFE177:
 480              		.section	.text._GLOBAL__sub_I_Body_IMU,"ax",%progbits
 481              		.align	1
 482              		.syntax unified
 483              		.thumb
 484              		.thumb_func
 485              		.fpu fpv4-sp-d16
 487              	_GLOBAL__sub_I_Body_IMU:
 488              	.LFB184:
 489              		.loc 1 53 0
 490              		.cfi_startproc
 491              		@ args = 0, pretend = 0, frame = 0
 492              		@ frame_needed = 0, uses_anonymous_args = 0
ARM GAS  C:\Users\Prashant\AppData\Local\Temp\ccdqio9U.s 			page 14


 493 0000 08B5     		push	{r3, lr}
 494              	.LCFI6:
 495              		.cfi_def_cfa_offset 8
 496              		.cfi_offset 3, -8
 497              		.cfi_offset 14, -4
 498              		.loc 1 53 0
 499 0002 4FF6FF71 		movw	r1, #65535
 500 0006 0120     		movs	r0, #1
 501 0008 FFF7FEFF 		bl	_Z41__static_initialization_and_destruction_0ii
 502              	.LVL22:
 503 000c 08BD     		pop	{r3, pc}
 504              		.cfi_endproc
 505              	.LFE184:
 507              		.section	.init_array,"aw",%init_array
 508              		.align	2
 509 0000 00000000 		.word	_GLOBAL__sub_I_Body_IMU(target1)
 510              		.global	gYEncoder
 511              		.global	gXEncoder
 512              		.global	IMU_Stepper
 513              		.global	Body_HMC
 514              		.global	Body_IMU
 515              		.section	.bss.Body_HMC,"aw",%nobits
 516              		.align	2
 517              		.set	.LANCHOR1,. + 0
 520              	Body_HMC:
 521 0000 00000000 		.space	32
 521      00000000 
 521      00000000 
 521      00000000 
 521      00000000 
 522              		.section	.bss.Body_IMU,"aw",%nobits
 523              		.align	2
 524              		.set	.LANCHOR0,. + 0
 527              	Body_IMU:
 528 0000 00000000 		.space	52
 528      00000000 
 528      00000000 
 528      00000000 
 528      00000000 
 529              		.section	.bss.IMU_Stepper,"aw",%nobits
 530              		.align	2
 531              		.set	.LANCHOR2,. + 0
 534              	IMU_Stepper:
 535 0000 00000000 		.space	28
 535      00000000 
 535      00000000 
 535      00000000 
 535      00000000 
 536              		.section	.bss.gXEncoder,"aw",%nobits
 537              		.align	2
 538              		.set	.LANCHOR3,. + 0
 541              	gXEncoder:
 542 0000 00000000 		.space	12
 542      00000000 
 542      00000000 
 543              		.section	.bss.gYEncoder,"aw",%nobits
 544              		.align	2
ARM GAS  C:\Users\Prashant\AppData\Local\Temp\ccdqio9U.s 			page 15


 545              		.set	.LANCHOR4,. + 0
 548              	gYEncoder:
 549 0000 00000000 		.space	12
 549      00000000 
 549      00000000 
 550              		.text
 551              	.Letext0:
 552              		.file 5 "c:\\program files (x86)\\gnu tools arm embedded\\7 2017-q4-major\\arm-none-eabi\\include\
 553              		.file 6 "c:\\program files (x86)\\gnu tools arm embedded\\7 2017-q4-major\\arm-none-eabi\\include\
 554              		.file 7 "C:/Users/Prashant/STM32Cube/Repository/STM32Cube_FW_F4_V1.21.0/Drivers/CMSIS/Include/core
 555              		.file 8 "C:/Users/Prashant/STM32Cube/Repository/STM32Cube_FW_F4_V1.21.0/Drivers/CMSIS/Device/ST/ST
 556              		.file 9 "C:/Users/Prashant/STM32Cube/Repository/STM32Cube_FW_F4_V1.21.0/Drivers/CMSIS/Device/ST/ST
 557              		.file 10 "C:/Users/Prashant/STM32Cube/Repository/STM32Cube_FW_F4_V1.21.0/Drivers/CMSIS/Device/ST/S
 558              		.file 11 "c:\\program files (x86)\\gnu tools arm embedded\\7 2017-q4-major\\arm-none-eabi\\include
 559              		.file 12 "c:\\program files (x86)\\gnu tools arm embedded\\7 2017-q4-major\\arm-none-eabi\\include
 560              		.file 13 "c:\\program files (x86)\\gnu tools arm embedded\\7 2017-q4-major\\lib\\gcc\\arm-none-eab
 561              		.file 14 "c:\\program files (x86)\\gnu tools arm embedded\\7 2017-q4-major\\arm-none-eabi\\include
 562              		.file 15 "C:/Users/Prashant/STM32Cube/Repository/STM32Cube_FW_F4_V1.21.0/Drivers/STM32F4xx_HAL_Dri
 563              		.file 16 "C:/Users/Prashant/STM32Cube/Repository/STM32Cube_FW_F4_V1.21.0/Drivers/STM32F4xx_HAL_Dri
 564              		.file 17 "C:/Users/Prashant/STM32Cube/Repository/STM32Cube_FW_F4_V1.21.0/Drivers/STM32F4xx_HAL_Dri
 565              		.file 18 "C:/Users/Prashant/STM32Cube/Repository/STM32Cube_FW_F4_V1.21.0/Drivers/STM32F4xx_HAL_Dri
 566              		.file 19 "C:/Users/Prashant/STM32Cube/Repository/STM32Cube_FW_F4_V1.21.0/Drivers/STM32F4xx_HAL_Dri
 567              		.file 20 "C:/Users/Prashant/STM32Cube/Repository/STM32Cube_FW_F4_V1.21.0/Drivers/STM32F4xx_HAL_Dri
 568              		.file 21 "Core/Inc/periphs/i2c.h"
 569              		.file 22 "Core/Inc/periphs/tim.h"
 570              		.file 23 "Core/Inc/devs/a4988.h"
 571              		.file 24 "Core/Inc/devs/encoder.h"
 572              		.file 25 "Core/Inc/periphs/usart.h"
 573              		.file 26 "Core/Inc\\devs/wheeler.h"
 574              		.file 27 "Core/Inc/robot/devs_config.h"
ARM GAS  C:\Users\Prashant\AppData\Local\Temp\ccdqio9U.s 			page 16

