ARM GAS  C:\Users\Prashant\AppData\Local\Temp\ccoUHb4u.s 			page 1


   1              		.cpu cortex-m4
   2              		.eabi_attribute 27, 1
   3              		.eabi_attribute 28, 1
   4              		.eabi_attribute 20, 1
   5              		.eabi_attribute 21, 1
   6              		.eabi_attribute 23, 3
   7              		.eabi_attribute 24, 1
   8              		.eabi_attribute 25, 1
   9              		.eabi_attribute 26, 1
  10              		.eabi_attribute 30, 1
  11              		.eabi_attribute 34, 1
  12              		.eabi_attribute 18, 4
  13              		.file	"imu_utils.cpp"
  14              		.text
  15              	.Ltext0:
  16              		.cfi_sections	.debug_frame
  17              		.section	.text._ZN4Vec3IfED2Ev,"axG",%progbits,_ZN4Vec3IfED5Ev,comdat
  18              		.align	1
  19              		.weak	_ZN4Vec3IfED2Ev
  20              		.syntax unified
  21              		.thumb
  22              		.thumb_func
  23              		.fpu fpv4-sp-d16
  25              	_ZN4Vec3IfED2Ev:
  26              	.LFB400:
  27              		.file 1 "Core/Inc\\utils/vec3.h"
   1:Core/Inc\utils/vec3.h **** /*
   2:Core/Inc\utils/vec3.h ****  * vec3.h
   3:Core/Inc\utils/vec3.h ****  * 
   4:Core/Inc\utils/vec3.h ****  * Created : 11/9/2018
   5:Core/Inc\utils/vec3.h ****  *  Author : n-is
   6:Core/Inc\utils/vec3.h ****  *   email : 073bex422.nischal@pcampus.edu.np
   7:Core/Inc\utils/vec3.h ****  */
   8:Core/Inc\utils/vec3.h **** 
   9:Core/Inc\utils/vec3.h **** #ifndef _VEC3_H_
  10:Core/Inc\utils/vec3.h **** #define _VEC3_H_
  11:Core/Inc\utils/vec3.h **** 
  12:Core/Inc\utils/vec3.h **** #include "stm32f4xx_hal.h"
  13:Core/Inc\utils/vec3.h **** 
  14:Core/Inc\utils/vec3.h **** template <typename T>
  15:Core/Inc\utils/vec3.h **** void swap_Element(T &first, T &second)
  16:Core/Inc\utils/vec3.h **** {
  17:Core/Inc\utils/vec3.h ****         T temp = first;
  18:Core/Inc\utils/vec3.h ****         first = second;
  19:Core/Inc\utils/vec3.h ****         second = temp;
  20:Core/Inc\utils/vec3.h **** }
  21:Core/Inc\utils/vec3.h **** 
  22:Core/Inc\utils/vec3.h **** template <class T>
  23:Core/Inc\utils/vec3.h **** class Vec3
  24:Core/Inc\utils/vec3.h **** {
  25:Core/Inc\utils/vec3.h **** public:
  26:Core/Inc\utils/vec3.h ****         Vec3() { set_Values(0,0,0); }
  27:Core/Inc\utils/vec3.h ****         Vec3(T x, T y, T z) { set_Values(x,y,z); }
  28:Core/Inc\utils/vec3.h ****         Vec3(Vec3 &&) = default;
  29:Core/Inc\utils/vec3.h ****         Vec3 &operator=(Vec3 &&) = default;
  30:Core/Inc\utils/vec3.h ****         ~Vec3();
  31:Core/Inc\utils/vec3.h **** 
ARM GAS  C:\Users\Prashant\AppData\Local\Temp\ccoUHb4u.s 			page 2


  32:Core/Inc\utils/vec3.h ****         void set_Values(T x, T y, T z);
  33:Core/Inc\utils/vec3.h ****         T getX() const;
  34:Core/Inc\utils/vec3.h ****         T getY() const;
  35:Core/Inc\utils/vec3.h ****         T getZ() const;
  36:Core/Inc\utils/vec3.h ****         void setX(T x) { x_ = x; }
  37:Core/Inc\utils/vec3.h ****         void setY(T y) { y_ = y; }
  38:Core/Inc\utils/vec3.h ****         void setZ(T z) { z_ = z; }
  39:Core/Inc\utils/vec3.h **** 
  40:Core/Inc\utils/vec3.h ****         template <typename T1, typename T2>
  41:Core/Inc\utils/vec3.h ****         void divide(const Vec3<T1> &v, T2 num) {
  42:Core/Inc\utils/vec3.h ****                 x_ = v.getX() / num;
  43:Core/Inc\utils/vec3.h ****                 y_ = v.getY() / num;
  44:Core/Inc\utils/vec3.h ****                 z_ = v.getZ() / num;
  45:Core/Inc\utils/vec3.h ****         }
  46:Core/Inc\utils/vec3.h **** 
  47:Core/Inc\utils/vec3.h ****         Vec3 mult_EW(float num) {
  48:Core/Inc\utils/vec3.h ****                 Vec3 temp(*this);
  49:Core/Inc\utils/vec3.h ****                 temp.x_ *= num;
  50:Core/Inc\utils/vec3.h ****                 temp.y_ *= num;
  51:Core/Inc\utils/vec3.h ****                 temp.z_ *= num;
  52:Core/Inc\utils/vec3.h **** 
  53:Core/Inc\utils/vec3.h ****                 return temp;
  54:Core/Inc\utils/vec3.h ****         }
  55:Core/Inc\utils/vec3.h **** 
  56:Core/Inc\utils/vec3.h ****         Vec3 add_EW(float num) {
  57:Core/Inc\utils/vec3.h ****                 Vec3 temp(*this);
  58:Core/Inc\utils/vec3.h ****                 temp.x_ += num;
  59:Core/Inc\utils/vec3.h ****                 temp.y_ += num;
  60:Core/Inc\utils/vec3.h ****                 temp.z_ += num;
  61:Core/Inc\utils/vec3.h **** 
  62:Core/Inc\utils/vec3.h ****                 return temp;
  63:Core/Inc\utils/vec3.h ****         }
  64:Core/Inc\utils/vec3.h **** 
  65:Core/Inc\utils/vec3.h ****         Vec3 sub_EW(float num) {
  66:Core/Inc\utils/vec3.h ****                 Vec3 temp(*this);
  67:Core/Inc\utils/vec3.h ****                 temp.x_ -= num;
  68:Core/Inc\utils/vec3.h ****                 temp.y_ -= num;
  69:Core/Inc\utils/vec3.h ****                 temp.z_ -= num;
  70:Core/Inc\utils/vec3.h **** 
  71:Core/Inc\utils/vec3.h ****                 return temp;
  72:Core/Inc\utils/vec3.h ****         }
  73:Core/Inc\utils/vec3.h **** 
  74:Core/Inc\utils/vec3.h ****         template <typename T1>
  75:Core/Inc\utils/vec3.h ****         Vec3 div_EW(Vec3<T1> v) {
  76:Core/Inc\utils/vec3.h ****                 Vec3 temp(*this);
  77:Core/Inc\utils/vec3.h ****                 temp.x_ /= (float)v.x_;
  78:Core/Inc\utils/vec3.h ****                 temp.y_ /= (float)v.y_;
  79:Core/Inc\utils/vec3.h ****                 temp.z_ /= (float)v.z_;
  80:Core/Inc\utils/vec3.h **** 
  81:Core/Inc\utils/vec3.h ****                 return temp;
  82:Core/Inc\utils/vec3.h ****         }
  83:Core/Inc\utils/vec3.h **** 
  84:Core/Inc\utils/vec3.h ****         template <typename T1>
  85:Core/Inc\utils/vec3.h ****         Vec3 mult_EW(Vec3<T1> v) {
  86:Core/Inc\utils/vec3.h ****                 Vec3 temp(v);
  87:Core/Inc\utils/vec3.h ****                 temp.x_ *= x_;
  88:Core/Inc\utils/vec3.h ****                 temp.y_ *= y_;
ARM GAS  C:\Users\Prashant\AppData\Local\Temp\ccoUHb4u.s 			page 3


  89:Core/Inc\utils/vec3.h ****                 temp.z_ *= z_;
  90:Core/Inc\utils/vec3.h **** 
  91:Core/Inc\utils/vec3.h ****                 return temp;
  92:Core/Inc\utils/vec3.h ****         }
  93:Core/Inc\utils/vec3.h **** 
  94:Core/Inc\utils/vec3.h ****         friend void swap(Vec3 &first, Vec3 &second) {
  95:Core/Inc\utils/vec3.h ****                 swap_Element(first.x_, second.x_);
  96:Core/Inc\utils/vec3.h ****                 swap_Element(first.y_, second.y_);
  97:Core/Inc\utils/vec3.h ****                 swap_Element(first.z_, second.z_);
  98:Core/Inc\utils/vec3.h ****         }
  99:Core/Inc\utils/vec3.h ****         
 100:Core/Inc\utils/vec3.h ****         Vec3(const Vec3 &v) {
 101:Core/Inc\utils/vec3.h ****                 x_ = v.x_;
 102:Core/Inc\utils/vec3.h ****                 y_ = v.y_;
 103:Core/Inc\utils/vec3.h ****                 z_ = v.z_;
 104:Core/Inc\utils/vec3.h ****         }
 105:Core/Inc\utils/vec3.h ****         
 106:Core/Inc\utils/vec3.h ****         Vec3 &operator=(const Vec3 &v) {
 107:Core/Inc\utils/vec3.h ****                 Vec3 temp(v);
 108:Core/Inc\utils/vec3.h ****                 swap(*this, temp);
 109:Core/Inc\utils/vec3.h **** 
 110:Core/Inc\utils/vec3.h ****                 return *this;
 111:Core/Inc\utils/vec3.h ****         }
 112:Core/Inc\utils/vec3.h **** 
 113:Core/Inc\utils/vec3.h ****         Vec3 &operator+=(const Vec3 &rhs) {
 114:Core/Inc\utils/vec3.h ****                 x_ += rhs.x_;
 115:Core/Inc\utils/vec3.h ****                 y_ += rhs.y_;
 116:Core/Inc\utils/vec3.h ****                 z_ += rhs.z_;
 117:Core/Inc\utils/vec3.h **** 
 118:Core/Inc\utils/vec3.h ****                 return *this;
 119:Core/Inc\utils/vec3.h ****         }
 120:Core/Inc\utils/vec3.h ****         
 121:Core/Inc\utils/vec3.h ****         Vec3 &operator-=(const Vec3 &rhs) {
 122:Core/Inc\utils/vec3.h ****                 x_ -= rhs.x_;
 123:Core/Inc\utils/vec3.h ****                 y_ -= rhs.y_;
 124:Core/Inc\utils/vec3.h ****                 z_ -= rhs.z_;
 125:Core/Inc\utils/vec3.h **** 
 126:Core/Inc\utils/vec3.h ****                 return *this;
 127:Core/Inc\utils/vec3.h ****         }
 128:Core/Inc\utils/vec3.h **** 
 129:Core/Inc\utils/vec3.h ****         friend Vec3 operator+(Vec3 lhs, const Vec3 &rhs) {
 130:Core/Inc\utils/vec3.h ****                 lhs += rhs;
 131:Core/Inc\utils/vec3.h ****                 return lhs;
 132:Core/Inc\utils/vec3.h ****         }
 133:Core/Inc\utils/vec3.h **** 
 134:Core/Inc\utils/vec3.h ****         friend Vec3 operator-(Vec3 lhs, const Vec3 &rhs) {
 135:Core/Inc\utils/vec3.h ****                 lhs -= rhs;
 136:Core/Inc\utils/vec3.h ****                 return lhs;
 137:Core/Inc\utils/vec3.h ****         }
 138:Core/Inc\utils/vec3.h **** 
 139:Core/Inc\utils/vec3.h ****         void print() const {
 140:Core/Inc\utils/vec3.h ****                 printf("%ld, %ld, %ld", (int32_t)x_, (int32_t)y_, (int32_t)z_);
 141:Core/Inc\utils/vec3.h ****         }
 142:Core/Inc\utils/vec3.h **** 
 143:Core/Inc\utils/vec3.h **** private:
 144:Core/Inc\utils/vec3.h ****         T x_,y_,z_;
 145:Core/Inc\utils/vec3.h **** };
ARM GAS  C:\Users\Prashant\AppData\Local\Temp\ccoUHb4u.s 			page 4


 146:Core/Inc\utils/vec3.h **** 
 147:Core/Inc\utils/vec3.h **** template <class T>
 148:Core/Inc\utils/vec3.h **** Vec3<T>::~Vec3()
  28              		.loc 1 148 0
  29              		.cfi_startproc
  30              		@ args = 0, pretend = 0, frame = 0
  31              		@ frame_needed = 0, uses_anonymous_args = 0
  32              		@ link register save eliminated.
  33              	.LVL0:
 149:Core/Inc\utils/vec3.h **** {
 150:Core/Inc\utils/vec3.h **** }
  34              		.loc 1 150 0
  35 0000 7047     		bx	lr
  36              		.cfi_endproc
  37              	.LFE400:
  39              		.weak	_ZN4Vec3IfED1Ev
  40              		.thumb_set _ZN4Vec3IfED1Ev,_ZN4Vec3IfED2Ev
  41              		.section	.text._ZN4Vec3IfE10set_ValuesEfff,"axG",%progbits,_ZN4Vec3IfE10set_ValuesEfff,comdat
  42              		.align	1
  43              		.weak	_ZN4Vec3IfE10set_ValuesEfff
  44              		.syntax unified
  45              		.thumb
  46              		.thumb_func
  47              		.fpu fpv4-sp-d16
  49              	_ZN4Vec3IfE10set_ValuesEfff:
  50              	.LFB410:
 151:Core/Inc\utils/vec3.h **** 
 152:Core/Inc\utils/vec3.h **** template <class T>
 153:Core/Inc\utils/vec3.h **** void Vec3<T>::set_Values(T x, T y, T z)
  51              		.loc 1 153 0
  52              		.cfi_startproc
  53              		@ args = 0, pretend = 0, frame = 0
  54              		@ frame_needed = 0, uses_anonymous_args = 0
  55              		@ link register save eliminated.
  56              	.LVL1:
 154:Core/Inc\utils/vec3.h **** {
 155:Core/Inc\utils/vec3.h ****         x_ = x;
  57              		.loc 1 155 0
  58 0000 80ED000A 		vstr.32	s0, [r0]
 156:Core/Inc\utils/vec3.h ****         y_ = y;
  59              		.loc 1 156 0
  60 0004 C0ED010A 		vstr.32	s1, [r0, #4]
 157:Core/Inc\utils/vec3.h ****         z_ = z;
  61              		.loc 1 157 0
  62 0008 80ED021A 		vstr.32	s2, [r0, #8]
 158:Core/Inc\utils/vec3.h **** }
  63              		.loc 1 158 0
  64 000c 7047     		bx	lr
  65              		.cfi_endproc
  66              	.LFE410:
  68              		.section	.text._Z14calc_OmegaMeanP7MPU6050m,"ax",%progbits
  69              		.align	1
  70              		.global	_Z14calc_OmegaMeanP7MPU6050m
  71              		.syntax unified
  72              		.thumb
  73              		.thumb_func
  74              		.fpu fpv4-sp-d16
ARM GAS  C:\Users\Prashant\AppData\Local\Temp\ccoUHb4u.s 			page 5


  76              	_Z14calc_OmegaMeanP7MPU6050m:
  77              	.LFB387:
  78              		.file 2 "Core/Src/utils/imu_utils.cpp"
   1:Core/Src/utils/imu_utils.cpp **** /*
   2:Core/Src/utils/imu_utils.cpp ****  * imu_utils.cpp
   3:Core/Src/utils/imu_utils.cpp ****  * 
   4:Core/Src/utils/imu_utils.cpp ****  * Created : 11/11/2018
   5:Core/Src/utils/imu_utils.cpp ****  *  Author : n-is
   6:Core/Src/utils/imu_utils.cpp ****  *   email : 073bex422.nischal@pcampus.edu.np
   7:Core/Src/utils/imu_utils.cpp ****  */
   8:Core/Src/utils/imu_utils.cpp **** 
   9:Core/Src/utils/imu_utils.cpp **** #include <math.h>
  10:Core/Src/utils/imu_utils.cpp **** #include "utils/imu_utils.h"
  11:Core/Src/utils/imu_utils.cpp **** #include "utils/smoothie.h"
  12:Core/Src/utils/imu_utils.cpp **** 
  13:Core/Src/utils/imu_utils.cpp **** Vec3<float> calc_OmegaMean(struct MPU6050 *mpu, uint32_t n)
  14:Core/Src/utils/imu_utils.cpp **** {
  79              		.loc 2 14 0
  80              		.cfi_startproc
  81              		@ args = 0, pretend = 0, frame = 64
  82              		@ frame_needed = 0, uses_anonymous_args = 0
  83              	.LVL2:
  84 0000 2DE9F041 		push	{r4, r5, r6, r7, r8, lr}
  85              	.LCFI0:
  86              		.cfi_def_cfa_offset 24
  87              		.cfi_offset 4, -24
  88              		.cfi_offset 5, -20
  89              		.cfi_offset 6, -16
  90              		.cfi_offset 7, -12
  91              		.cfi_offset 8, -8
  92              		.cfi_offset 14, -4
  93 0004 2DED028B 		vpush.64	{d8}
  94              	.LCFI1:
  95              		.cfi_def_cfa_offset 32
  96              		.cfi_offset 80, -32
  97              		.cfi_offset 81, -28
  98 0008 90B0     		sub	sp, sp, #64
  99              	.LCFI2:
 100              		.cfi_def_cfa_offset 96
 101 000a 0446     		mov	r4, r0
 102 000c 0F46     		mov	r7, r1
 103 000e 9046     		mov	r8, r2
 104              	.LVL3:
 105              	.LBB134:
 106              	.LBB135:
  26:Core/Inc\utils/vec3.h ****         Vec3(T x, T y, T z) { set_Values(x,y,z); }
 107              		.loc 1 26 0
 108 0010 9FED340A 		vldr.32	s0, .L7
 109 0014 B0EE401A 		vmov.f32	s2, s0
 110 0018 F0EE400A 		vmov.f32	s1, s0
 111 001c FFF7FEFF 		bl	_ZN4Vec3IfE10set_ValuesEfff
 112              	.LVL4:
 113              	.LBE135:
 114              	.LBE134:
  15:Core/Src/utils/imu_utils.cpp ****         Vec3<float> mean;
  16:Core/Src/utils/imu_utils.cpp ****         float item_num;
  17:Core/Src/utils/imu_utils.cpp ****         
ARM GAS  C:\Users\Prashant\AppData\Local\Temp\ccoUHb4u.s 			page 6


  18:Core/Src/utils/imu_utils.cpp ****         Exp_Smooth alpha35(0.35);
 115              		.loc 2 18 0
 116 0020 9FED310A 		vldr.32	s0, .L7+4
 117 0024 01A8     		add	r0, sp, #4
 118 0026 FFF7FEFF 		bl	_ZN10Exp_SmoothC1Ef
 119              	.LVL5:
  19:Core/Src/utils/imu_utils.cpp ****         Smoothie s(&alpha35);
 120              		.loc 2 19 0
 121 002a 01A9     		add	r1, sp, #4
 122 002c 6846     		mov	r0, sp
 123 002e FFF7FEFF 		bl	_ZN8SmoothieC1EP19Smoothing_Algorithm
 124              	.LVL6:
 125              	.LBB136:
  20:Core/Src/utils/imu_utils.cpp **** 
  21:Core/Src/utils/imu_utils.cpp ****         for (uint32_t i = 0; i < n; ++i) {
 126              		.loc 2 21 0
 127 0032 0026     		movs	r6, #0
 128              	.LVL7:
 129              	.L5:
 130              		.loc 2 21 0 is_stmt 0 discriminator 3
 131 0034 4645     		cmp	r6, r8
 132 0036 4CD2     		bcs	.L4
  22:Core/Src/utils/imu_utils.cpp ****                 MPU6050_Read_NormGyro(mpu);
 133              		.loc 2 22 0 is_stmt 1 discriminator 2
 134 0038 3846     		mov	r0, r7
 135 003a FFF7FEFF 		bl	_Z21MPU6050_Read_NormGyroP7MPU6050
 136              	.LVL8:
  23:Core/Src/utils/imu_utils.cpp ****                 item_num = 1.0 / (float)(i+1);
 137              		.loc 2 23 0 discriminator 2
 138 003e 0136     		adds	r6, r6, #1
 139              	.LVL9:
 140 0040 07EE906A 		vmov	s15, r6	@ int
 141 0044 F8EE677A 		vcvt.f32.u32	s15, s15
 142 0048 B7EE007A 		vmov.f32	s14, #1.0e+0
 143 004c 87EE278A 		vdiv.f32	s16, s14, s15
 144              	.LVL10:
 145              	.LBB137:
 146              	.LBB138:
 147              		.file 3 "Core/Inc/utils/smoothie.h"
   1:Core/Inc\utils/smoothie.h **** /*
   2:Core/Inc\utils/smoothie.h ****  * smoothie.h
   3:Core/Inc\utils/smoothie.h ****  * 
   4:Core/Inc\utils/smoothie.h ****  * Created : 11/9/2018
   5:Core/Inc\utils/smoothie.h ****  *  Author : n-is
   6:Core/Inc\utils/smoothie.h ****  *   email : 073bex422.nischal@pcampus.edu.np
   7:Core/Inc\utils/smoothie.h ****  */
   8:Core/Inc\utils/smoothie.h **** 
   9:Core/Inc\utils/smoothie.h **** #ifndef _SMOOTHIE_H_
  10:Core/Inc\utils/smoothie.h **** #define _SMOOTHIE_H_
  11:Core/Inc\utils/smoothie.h **** 
  12:Core/Inc\utils/smoothie.h **** #include "smoothing_algorithm.h"
  13:Core/Inc\utils/smoothie.h **** 
  14:Core/Inc\utils/smoothie.h **** class Smoothie
  15:Core/Inc\utils/smoothie.h **** {
  16:Core/Inc\utils/smoothie.h **** public:
  17:Core/Inc\utils/smoothie.h ****         Smoothie() { algo_ = 0; }
  18:Core/Inc\utils/smoothie.h ****         Smoothie(Smoothing_Algorithm *sm_algo);
ARM GAS  C:\Users\Prashant\AppData\Local\Temp\ccoUHb4u.s 			page 7


  19:Core/Inc\utils/smoothie.h ****         Smoothie(Smoothie &&) = default;
  20:Core/Inc\utils/smoothie.h ****         Smoothie(const Smoothie &) = default;
  21:Core/Inc\utils/smoothie.h ****         Smoothie &operator=(Smoothie &&) = default;
  22:Core/Inc\utils/smoothie.h ****         Smoothie &operator=(const Smoothie &) = default;
  23:Core/Inc\utils/smoothie.h ****         ~Smoothie();
  24:Core/Inc\utils/smoothie.h **** 
  25:Core/Inc\utils/smoothie.h ****         void set_Algorithm(Smoothing_Algorithm *sm_algo) { algo_ = sm_algo; }
  26:Core/Inc\utils/smoothie.h ****         Vec3<float> smooth(const Vec3<float> &input) {
  27:Core/Inc\utils/smoothie.h ****                 return algo_->smooth(input);
 148              		.loc 3 27 0 discriminator 2
 149 0050 0099     		ldr	r1, [sp]
 150 0052 0DAD     		add	r5, sp, #52
 151 0054 0B68     		ldr	r3, [r1]
 152 0056 1B68     		ldr	r3, [r3]
 153 0058 07F11002 		add	r2, r7, #16
 154              	.LVL11:
 155 005c 2846     		mov	r0, r5
 156 005e 9847     		blx	r3
 157              	.LVL12:
 158              	.LBE138:
 159              	.LBE137:
 160              	.LBB139:
 161              	.LBB140:
 162              	.LBB141:
 163              	.LBB142:
 122:Core/Inc\utils/vec3.h ****                 y_ -= rhs.y_;
 164              		.loc 1 122 0 discriminator 2
 165 0060 94ED005A 		vldr.32	s10, [r4]
 166 0064 9DED0D7A 		vldr.32	s14, [sp, #52]
 167 0068 37EE457A 		vsub.f32	s14, s14, s10
 168 006c 8DED0D7A 		vstr.32	s14, [sp, #52]
 123:Core/Inc\utils/vec3.h ****                 z_ -= rhs.z_;
 169              		.loc 1 123 0 discriminator 2
 170 0070 D4ED015A 		vldr.32	s11, [r4, #4]
 171 0074 DDED0E7A 		vldr.32	s15, [sp, #56]
 172 0078 77EEE57A 		vsub.f32	s15, s15, s11
 173 007c CDED0E7A 		vstr.32	s15, [sp, #56]
 124:Core/Inc\utils/vec3.h **** 
 174              		.loc 1 124 0 discriminator 2
 175 0080 94ED026A 		vldr.32	s12, [r4, #8]
 176 0084 DDED0F6A 		vldr.32	s13, [sp, #60]
 177 0088 76EEC66A 		vsub.f32	s13, s13, s12
 178 008c CDED0F6A 		vstr.32	s13, [sp, #60]
 179              	.LVL13:
 180              	.LBE142:
 181              	.LBE141:
 136:Core/Inc\utils/vec3.h ****         }
 182              		.loc 1 136 0 discriminator 2
 183 0090 0AAB     		add	r3, sp, #40
 184 0092 95E80700 		ldm	r5, {r0, r1, r2}
 185 0096 83E80700 		stm	r3, {r0, r1, r2}
 186              	.LVL14:
 187              	.LBE140:
 188              	.LBE139:
 189              	.LBB143:
 190              	.LBB144:
  49:Core/Inc\utils/vec3.h ****                 temp.y_ *= num;
ARM GAS  C:\Users\Prashant\AppData\Local\Temp\ccoUHb4u.s 			page 8


 191              		.loc 1 49 0 discriminator 2
 192 009a 28EE077A 		vmul.f32	s14, s16, s14
 193 009e 8DED077A 		vstr.32	s14, [sp, #28]
  50:Core/Inc\utils/vec3.h ****                 temp.z_ *= num;
 194              		.loc 1 50 0 discriminator 2
 195 00a2 68EE277A 		vmul.f32	s15, s16, s15
 196 00a6 CDED087A 		vstr.32	s15, [sp, #32]
  51:Core/Inc\utils/vec3.h **** 
 197              		.loc 1 51 0 discriminator 2
 198 00aa 28EE268A 		vmul.f32	s16, s16, s13
 199              	.LVL15:
 200 00ae 8DED098A 		vstr.32	s16, [sp, #36]
 201              	.LVL16:
 202              	.LBE144:
 203              	.LBE143:
 204              	.LBB145:
 205              	.LBB146:
 114:Core/Inc\utils/vec3.h ****                 y_ += rhs.y_;
 206              		.loc 1 114 0 discriminator 2
 207 00b2 37EE057A 		vadd.f32	s14, s14, s10
 208 00b6 84ED007A 		vstr.32	s14, [r4]
 115:Core/Inc\utils/vec3.h ****                 z_ += rhs.z_;
 209              		.loc 1 115 0 discriminator 2
 210 00ba 77EEA57A 		vadd.f32	s15, s15, s11
 211 00be C4ED017A 		vstr.32	s15, [r4, #4]
 116:Core/Inc\utils/vec3.h **** 
 212              		.loc 1 116 0 discriminator 2
 213 00c2 38EE068A 		vadd.f32	s16, s16, s12
 214 00c6 84ED028A 		vstr.32	s16, [r4, #8]
 215              	.LVL17:
 216              	.LBE146:
 217              	.LBE145:
  24:Core/Src/utils/imu_utils.cpp ****                 mean += (s.smooth(mpu->norm_g_axis) - mean).mult_EW(item_num);
  25:Core/Src/utils/imu_utils.cpp ****                 HAL_Delay(1);
 218              		.loc 2 25 0 discriminator 2
 219 00ca 0120     		movs	r0, #1
 220 00cc FFF7FEFF 		bl	HAL_Delay
 221              	.LVL18:
  21:Core/Src/utils/imu_utils.cpp ****                 MPU6050_Read_NormGyro(mpu);
 222              		.loc 2 21 0 discriminator 2
 223 00d0 B0E7     		b	.L5
 224              	.LVL19:
 225              	.L4:
 226              	.LBE136:
  19:Core/Src/utils/imu_utils.cpp **** 
 227              		.loc 2 19 0
 228 00d2 6846     		mov	r0, sp
 229 00d4 FFF7FEFF 		bl	_ZN8SmoothieD1Ev
 230              	.LVL20:
  26:Core/Src/utils/imu_utils.cpp ****         }
  27:Core/Src/utils/imu_utils.cpp ****         return mean;
  28:Core/Src/utils/imu_utils.cpp **** }
 231              		.loc 2 28 0
 232 00d8 2046     		mov	r0, r4
 233 00da 10B0     		add	sp, sp, #64
 234              	.LCFI3:
 235              		.cfi_def_cfa_offset 32
ARM GAS  C:\Users\Prashant\AppData\Local\Temp\ccoUHb4u.s 			page 9


 236              		@ sp needed
 237 00dc BDEC028B 		vldm	sp!, {d8}
 238              	.LCFI4:
 239              		.cfi_restore 80
 240              		.cfi_restore 81
 241              		.cfi_def_cfa_offset 24
 242 00e0 BDE8F081 		pop	{r4, r5, r6, r7, r8, pc}
 243              	.LVL21:
 244              	.L8:
 245              		.align	2
 246              	.L7:
 247 00e4 00000000 		.word	0
 248 00e8 3333B33E 		.word	1051931443
 249              		.cfi_endproc
 250              	.LFE387:
 252              		.section	.text._Z3avgILm100EE4Vec3IfERAT__S1_m,"axG",%progbits,_Z3avgILm100EE4Vec3IfERAT__S1_m,com
 253              		.align	1
 254              		.weak	_Z3avgILm100EE4Vec3IfERAT__S1_m
 255              		.syntax unified
 256              		.thumb
 257              		.thumb_func
 258              		.fpu fpv4-sp-d16
 260              	_Z3avgILm100EE4Vec3IfERAT__S1_m:
 261              	.LFB415:
  29:Core/Src/utils/imu_utils.cpp **** 
  30:Core/Src/utils/imu_utils.cpp **** template <uint32_t N>
  31:Core/Src/utils/imu_utils.cpp **** float avg(float (&arr)[N], uint32_t n)
  32:Core/Src/utils/imu_utils.cpp **** {
  33:Core/Src/utils/imu_utils.cpp ****         float mean = 0;
  34:Core/Src/utils/imu_utils.cpp **** 
  35:Core/Src/utils/imu_utils.cpp ****         for (uint32_t i = 0; i < n; ++i) {
  36:Core/Src/utils/imu_utils.cpp ****                 mean += (arr[i] - mean) / (float)(i+1);
  37:Core/Src/utils/imu_utils.cpp ****         }
  38:Core/Src/utils/imu_utils.cpp **** 
  39:Core/Src/utils/imu_utils.cpp ****         return mean;
  40:Core/Src/utils/imu_utils.cpp **** }
  41:Core/Src/utils/imu_utils.cpp **** 
  42:Core/Src/utils/imu_utils.cpp **** template <uint32_t N>
  43:Core/Src/utils/imu_utils.cpp **** float var(float (&arr)[N], uint32_t n)
  44:Core/Src/utils/imu_utils.cpp **** {
  45:Core/Src/utils/imu_utils.cpp ****         float mean = avg(arr, n);
  46:Core/Src/utils/imu_utils.cpp ****         float diff;
  47:Core/Src/utils/imu_utils.cpp ****         float sum_diff_sq = 0;
  48:Core/Src/utils/imu_utils.cpp ****         for (uint32_t i = 0; i < n; ++i) {
  49:Core/Src/utils/imu_utils.cpp ****                 diff = arr[i] - mean;
  50:Core/Src/utils/imu_utils.cpp ****                 sum_diff_sq += diff * diff;
  51:Core/Src/utils/imu_utils.cpp ****         }
  52:Core/Src/utils/imu_utils.cpp ****         return sum_diff_sq / (float)n;
  53:Core/Src/utils/imu_utils.cpp **** }
  54:Core/Src/utils/imu_utils.cpp **** 
  55:Core/Src/utils/imu_utils.cpp **** template <uint32_t N>
  56:Core/Src/utils/imu_utils.cpp **** Vec3<float> avg(Vec3<float> (&arr)[N], uint32_t n)
 262              		.loc 2 56 0
 263              		.cfi_startproc
 264              		@ args = 0, pretend = 0, frame = 40
 265              		@ frame_needed = 0, uses_anonymous_args = 0
 266              	.LVL22:
ARM GAS  C:\Users\Prashant\AppData\Local\Temp\ccoUHb4u.s 			page 10


 267 0000 F0B5     		push	{r4, r5, r6, r7, lr}
 268              	.LCFI5:
 269              		.cfi_def_cfa_offset 20
 270              		.cfi_offset 4, -20
 271              		.cfi_offset 5, -16
 272              		.cfi_offset 6, -12
 273              		.cfi_offset 7, -8
 274              		.cfi_offset 14, -4
 275 0002 8BB0     		sub	sp, sp, #44
 276              	.LCFI6:
 277              		.cfi_def_cfa_offset 64
 278 0004 0446     		mov	r4, r0
 279 0006 0F46     		mov	r7, r1
 280 0008 1646     		mov	r6, r2
 281              	.LVL23:
 282              	.LBB147:
 283              	.LBB148:
  26:Core/Inc\utils/vec3.h ****         Vec3(T x, T y, T z) { set_Values(x,y,z); }
 284              		.loc 1 26 0
 285 000a 9FED260A 		vldr.32	s0, .L13
 286 000e B0EE401A 		vmov.f32	s2, s0
 287 0012 F0EE400A 		vmov.f32	s1, s0
 288 0016 FFF7FEFF 		bl	_ZN4Vec3IfE10set_ValuesEfff
 289              	.LVL24:
 290              	.LBE148:
 291              	.LBE147:
 292              	.LBB149:
  57:Core/Src/utils/imu_utils.cpp **** {
  58:Core/Src/utils/imu_utils.cpp ****         Vec3<float> mean;
  59:Core/Src/utils/imu_utils.cpp **** 
  60:Core/Src/utils/imu_utils.cpp ****         for (uint32_t i = 0; i < n; ++i) {
 293              		.loc 2 60 0
 294 001a 0023     		movs	r3, #0
 295              	.LVL25:
 296              	.L11:
 297              		.loc 2 60 0 is_stmt 0 discriminator 3
 298 001c B342     		cmp	r3, r6
 299 001e 3DD2     		bcs	.L9
 300              	.LVL26:
 301              	.LBB150:
 302              	.LBB151:
 303              	.LBB152:
 101:Core/Inc\utils/vec3.h ****                 y_ = v.y_;
 304              		.loc 1 101 0 is_stmt 1 discriminator 2
 305 0020 03EB4302 		add	r2, r3, r3, lsl #1
 306 0024 07EB8202 		add	r2, r7, r2, lsl #2
 307 0028 92ED007A 		vldr.32	s14, [r2]
 102:Core/Inc\utils/vec3.h ****                 z_ = v.z_;
 308              		.loc 1 102 0 discriminator 2
 309 002c D2ED017A 		vldr.32	s15, [r2, #4]
 103:Core/Inc\utils/vec3.h ****         }
 310              		.loc 1 103 0 discriminator 2
 311 0030 D2ED026A 		vldr.32	s13, [r2, #8]
 312              	.LVL27:
 313              	.LBE152:
 314              	.LBE151:
 315              	.LBE150:
ARM GAS  C:\Users\Prashant\AppData\Local\Temp\ccoUHb4u.s 			page 11


 316              	.LBB153:
 317              	.LBB154:
 318              	.LBB155:
 319              	.LBB156:
 122:Core/Inc\utils/vec3.h ****                 y_ -= rhs.y_;
 320              		.loc 1 122 0 discriminator 2
 321 0034 D4ED004A 		vldr.32	s9, [r4]
 322 0038 37EE647A 		vsub.f32	s14, s14, s9
 323 003c 8DED077A 		vstr.32	s14, [sp, #28]
 123:Core/Inc\utils/vec3.h ****                 z_ -= rhs.z_;
 324              		.loc 1 123 0 discriminator 2
 325 0040 94ED015A 		vldr.32	s10, [r4, #4]
 326 0044 77EEC57A 		vsub.f32	s15, s15, s10
 327 0048 CDED087A 		vstr.32	s15, [sp, #32]
 124:Core/Inc\utils/vec3.h **** 
 328              		.loc 1 124 0 discriminator 2
 329 004c D4ED025A 		vldr.32	s11, [r4, #8]
 330 0050 36EEE56A 		vsub.f32	s12, s13, s11
 331 0054 8DED096A 		vstr.32	s12, [sp, #36]
 332              	.LVL28:
 333              	.LBE156:
 334              	.LBE155:
 136:Core/Inc\utils/vec3.h ****         }
 335              		.loc 1 136 0 discriminator 2
 336 0058 04AD     		add	r5, sp, #16
 337 005a 0AAA     		add	r2, sp, #40
 338 005c 12E90700 		ldmdb	r2, {r0, r1, r2}
 339 0060 85E80700 		stm	r5, {r0, r1, r2}
 340              	.LVL29:
 341              	.LBE154:
 342              	.LBE153:
  61:Core/Src/utils/imu_utils.cpp ****                 mean += (arr[i] - mean).mult_EW(1.0 / (float)(i+1));
 343              		.loc 2 61 0 discriminator 2
 344 0064 0133     		adds	r3, r3, #1
 345              	.LVL30:
 346 0066 06EE903A 		vmov	s13, r3	@ int
 347 006a B8EE664A 		vcvt.f32.u32	s8, s13
 348 006e F7EE003A 		vmov.f32	s7, #1.0e+0
 349 0072 C3EE846A 		vdiv.f32	s13, s7, s8
 350              	.LVL31:
 351              	.LBB157:
 352              	.LBB158:
  49:Core/Inc\utils/vec3.h ****                 temp.y_ *= num;
 353              		.loc 1 49 0 discriminator 2
 354 0076 26EE877A 		vmul.f32	s14, s13, s14
  50:Core/Inc\utils/vec3.h ****                 temp.z_ *= num;
 355              		.loc 1 50 0 discriminator 2
 356 007a 66EEA77A 		vmul.f32	s15, s13, s15
  51:Core/Inc\utils/vec3.h **** 
 357              		.loc 1 51 0 discriminator 2
 358 007e 66EE866A 		vmul.f32	s13, s13, s12
 359              	.LVL32:
 360              	.LBE158:
 361              	.LBE157:
 362              	.LBB159:
 363              	.LBB160:
 114:Core/Inc\utils/vec3.h ****                 y_ += rhs.y_;
ARM GAS  C:\Users\Prashant\AppData\Local\Temp\ccoUHb4u.s 			page 12


 364              		.loc 1 114 0 discriminator 2
 365 0082 37EE247A 		vadd.f32	s14, s14, s9
 366 0086 84ED007A 		vstr.32	s14, [r4]
 115:Core/Inc\utils/vec3.h ****                 z_ += rhs.z_;
 367              		.loc 1 115 0 discriminator 2
 368 008a 77EE857A 		vadd.f32	s15, s15, s10
 369 008e C4ED017A 		vstr.32	s15, [r4, #4]
 116:Core/Inc\utils/vec3.h **** 
 370              		.loc 1 116 0 discriminator 2
 371 0092 76EEA56A 		vadd.f32	s13, s13, s11
 372 0096 C4ED026A 		vstr.32	s13, [r4, #8]
 373              	.LVL33:
 374              	.LBE160:
 375              	.LBE159:
  60:Core/Src/utils/imu_utils.cpp ****                 mean += (arr[i] - mean).mult_EW(1.0 / (float)(i+1));
 376              		.loc 2 60 0 discriminator 2
 377 009a BFE7     		b	.L11
 378              	.L9:
 379              	.LBE149:
  62:Core/Src/utils/imu_utils.cpp ****         }
  63:Core/Src/utils/imu_utils.cpp **** 
  64:Core/Src/utils/imu_utils.cpp ****         return mean;
  65:Core/Src/utils/imu_utils.cpp **** }
 380              		.loc 2 65 0
 381 009c 2046     		mov	r0, r4
 382 009e 0BB0     		add	sp, sp, #44
 383              	.LCFI7:
 384              		.cfi_def_cfa_offset 20
 385              		@ sp needed
 386 00a0 F0BD     		pop	{r4, r5, r6, r7, pc}
 387              	.LVL34:
 388              	.L14:
 389 00a2 00BF     		.align	2
 390              	.L13:
 391 00a4 00000000 		.word	0
 392              		.cfi_endproc
 393              	.LFE415:
 395              		.section	.text._Z3varILm100EE4Vec3IfERAT__S1_m,"axG",%progbits,_Z3varILm100EE4Vec3IfERAT__S1_m,com
 396              		.align	1
 397              		.weak	_Z3varILm100EE4Vec3IfERAT__S1_m
 398              		.syntax unified
 399              		.thumb
 400              		.thumb_func
 401              		.fpu fpv4-sp-d16
 403              	_Z3varILm100EE4Vec3IfERAT__S1_m:
 404              	.LFB408:
  66:Core/Src/utils/imu_utils.cpp **** 
  67:Core/Src/utils/imu_utils.cpp **** template <uint32_t N>
  68:Core/Src/utils/imu_utils.cpp **** Vec3<float> var(Vec3<float> (&arr)[N], uint32_t n)
 405              		.loc 2 68 0
 406              		.cfi_startproc
 407              		@ args = 0, pretend = 0, frame = 88
 408              		@ frame_needed = 0, uses_anonymous_args = 0
 409              	.LVL35:
 410 0000 2DE9F041 		push	{r4, r5, r6, r7, r8, lr}
 411              	.LCFI8:
 412              		.cfi_def_cfa_offset 24
ARM GAS  C:\Users\Prashant\AppData\Local\Temp\ccoUHb4u.s 			page 13


 413              		.cfi_offset 4, -24
 414              		.cfi_offset 5, -20
 415              		.cfi_offset 6, -16
 416              		.cfi_offset 7, -12
 417              		.cfi_offset 8, -8
 418              		.cfi_offset 14, -4
 419 0004 2DED028B 		vpush.64	{d8}
 420              	.LCFI9:
 421              		.cfi_def_cfa_offset 32
 422              		.cfi_offset 80, -32
 423              		.cfi_offset 81, -28
 424 0008 96B0     		sub	sp, sp, #88
 425              	.LCFI10:
 426              		.cfi_def_cfa_offset 120
 427 000a 8046     		mov	r8, r0
 428 000c 0F46     		mov	r7, r1
 429 000e 1646     		mov	r6, r2
  69:Core/Src/utils/imu_utils.cpp **** {
  70:Core/Src/utils/imu_utils.cpp ****         Vec3<float> mean = avg(arr, n);
 430              		.loc 2 70 0
 431 0010 07A8     		add	r0, sp, #28
 432              	.LVL36:
 433 0012 FFF7FEFF 		bl	_Z3avgILm100EE4Vec3IfERAT__S1_m
 434              	.LVL37:
 435              	.LBB161:
 436              	.LBB162:
 437              	.LBB163:
  26:Core/Inc\utils/vec3.h ****         Vec3(T x, T y, T z) { set_Values(x,y,z); }
 438              		.loc 1 26 0
 439 0016 9FED3D8A 		vldr.32	s16, .L19
 440 001a B0EE481A 		vmov.f32	s2, s16
 441 001e F0EE480A 		vmov.f32	s1, s16
 442 0022 B0EE480A 		vmov.f32	s0, s16
 443 0026 04A8     		add	r0, sp, #16
 444              	.LVL38:
 445 0028 FFF7FEFF 		bl	_ZN4Vec3IfE10set_ValuesEfff
 446              	.LVL39:
 447              	.LBE163:
 448              	.LBE162:
 449              	.LBE161:
 450              	.LBB164:
 451              	.LBB165:
 452              	.LBB166:
  27:Core/Inc\utils/vec3.h ****         Vec3(Vec3 &&) = default;
 453              		.loc 1 27 0
 454 002c B0EE481A 		vmov.f32	s2, s16
 455 0030 F0EE480A 		vmov.f32	s1, s16
 456 0034 B0EE480A 		vmov.f32	s0, s16
 457 0038 01A8     		add	r0, sp, #4
 458              	.LVL40:
 459 003a FFF7FEFF 		bl	_ZN4Vec3IfE10set_ValuesEfff
 460              	.LVL41:
 461              	.LBE166:
 462              	.LBE165:
 463              	.LBE164:
 464              	.LBB167:
  71:Core/Src/utils/imu_utils.cpp ****         Vec3<float> diff;
ARM GAS  C:\Users\Prashant\AppData\Local\Temp\ccoUHb4u.s 			page 14


  72:Core/Src/utils/imu_utils.cpp ****         Vec3<float> sum_diff_sq(0,0,0);
  73:Core/Src/utils/imu_utils.cpp ****         for (uint32_t i = 0; i < n; ++i) {
 465              		.loc 2 73 0
 466 003e 0024     		movs	r4, #0
 467              	.LVL42:
 468              	.L17:
 469              		.loc 2 73 0 is_stmt 0 discriminator 3
 470 0040 B442     		cmp	r4, r6
 471 0042 43D2     		bcs	.L16
 472              	.LVL43:
 473              	.LBB168:
 474              	.LBB169:
 475              	.LBB170:
 101:Core/Inc\utils/vec3.h ****                 y_ = v.y_;
 476              		.loc 1 101 0 is_stmt 1 discriminator 2
 477 0044 04EB4403 		add	r3, r4, r4, lsl #1
 478 0048 07EB8303 		add	r3, r7, r3, lsl #2
 479 004c D3ED006A 		vldr.32	s13, [r3]
 102:Core/Inc\utils/vec3.h ****                 z_ = v.z_;
 480              		.loc 1 102 0 discriminator 2
 481 0050 93ED017A 		vldr.32	s14, [r3, #4]
 103:Core/Inc\utils/vec3.h ****         }
 482              		.loc 1 103 0 discriminator 2
 483 0054 D3ED027A 		vldr.32	s15, [r3, #8]
 484              	.LVL44:
 485              	.LBE170:
 486              	.LBE169:
 487              	.LBE168:
 488              	.LBB171:
 489              	.LBB172:
 490              	.LBB173:
 491              	.LBB174:
 122:Core/Inc\utils/vec3.h ****                 y_ -= rhs.y_;
 492              		.loc 1 122 0 discriminator 2
 493 0058 9DED076A 		vldr.32	s12, [sp, #28]
 494 005c 76EEC66A 		vsub.f32	s13, s13, s12
 495 0060 CDED0D6A 		vstr.32	s13, [sp, #52]
 123:Core/Inc\utils/vec3.h ****                 z_ -= rhs.z_;
 496              		.loc 1 123 0 discriminator 2
 497 0064 DDED086A 		vldr.32	s13, [sp, #32]
 498 0068 37EE667A 		vsub.f32	s14, s14, s13
 499 006c 8DED0E7A 		vstr.32	s14, [sp, #56]
 124:Core/Inc\utils/vec3.h **** 
 500              		.loc 1 124 0 discriminator 2
 501 0070 9DED097A 		vldr.32	s14, [sp, #36]
 502 0074 77EEC77A 		vsub.f32	s15, s15, s14
 503 0078 CDED0F7A 		vstr.32	s15, [sp, #60]
 504              	.LVL45:
 505              	.LBE174:
 506              	.LBE173:
 136:Core/Inc\utils/vec3.h ****         }
 507              		.loc 1 136 0 discriminator 2
 508 007c 0AAB     		add	r3, sp, #40
 509 007e 0DAA     		add	r2, sp, #52
 510              	.LVL46:
 511 0080 07CA     		ldm	r2, {r0, r1, r2}
 512              	.LVL47:
ARM GAS  C:\Users\Prashant\AppData\Local\Temp\ccoUHb4u.s 			page 15


 513 0082 83E80700 		stm	r3, {r0, r1, r2}
 514              	.LVL48:
 515              	.LBE172:
 516              	.LBE171:
  74:Core/Src/utils/imu_utils.cpp ****                 diff = arr[i] - mean;
 517              		.loc 2 74 0 discriminator 2
 518 0086 04AD     		add	r5, sp, #16
 519 0088 85E80700 		stm	r5, {r0, r1, r2}
 520              	.LVL49:
 521              	.LBB175:
 522              	.LBB176:
 523              	.LBB177:
 101:Core/Inc\utils/vec3.h ****                 y_ = v.y_;
 524              		.loc 1 101 0 discriminator 2
 525 008c DDED046A 		vldr.32	s13, [sp, #16]
 102:Core/Inc\utils/vec3.h ****                 z_ = v.z_;
 526              		.loc 1 102 0 discriminator 2
 527 0090 9DED057A 		vldr.32	s14, [sp, #20]
 103:Core/Inc\utils/vec3.h ****         }
 528              		.loc 1 103 0 discriminator 2
 529 0094 DDED067A 		vldr.32	s15, [sp, #24]
 530              	.LVL50:
 531              	.LBE177:
 532              	.LBE176:
 533              	.LBE175:
 534              	.LBB178:
 535              	.LBB179:
  87:Core/Inc\utils/vec3.h ****                 temp.y_ *= y_;
 536              		.loc 1 87 0 discriminator 2
 537 0098 66EEA66A 		vmul.f32	s13, s13, s13
  88:Core/Inc\utils/vec3.h ****                 temp.z_ *= z_;
 538              		.loc 1 88 0 discriminator 2
 539 009c 27EE077A 		vmul.f32	s14, s14, s14
  89:Core/Inc\utils/vec3.h **** 
 540              		.loc 1 89 0 discriminator 2
 541 00a0 67EEA77A 		vmul.f32	s15, s15, s15
 542              	.LVL51:
 543              	.LBE179:
 544              	.LBE178:
 545              	.LBB180:
 546              	.LBB181:
 114:Core/Inc\utils/vec3.h ****                 y_ += rhs.y_;
 547              		.loc 1 114 0 discriminator 2
 548 00a4 9DED016A 		vldr.32	s12, [sp, #4]
 549 00a8 76EE866A 		vadd.f32	s13, s13, s12
 550 00ac CDED016A 		vstr.32	s13, [sp, #4]
 115:Core/Inc\utils/vec3.h ****                 z_ += rhs.z_;
 551              		.loc 1 115 0 discriminator 2
 552 00b0 DDED026A 		vldr.32	s13, [sp, #8]
 553 00b4 37EE267A 		vadd.f32	s14, s14, s13
 554 00b8 8DED027A 		vstr.32	s14, [sp, #8]
 116:Core/Inc\utils/vec3.h **** 
 555              		.loc 1 116 0 discriminator 2
 556 00bc 9DED037A 		vldr.32	s14, [sp, #12]
 557 00c0 77EE877A 		vadd.f32	s15, s15, s14
 558 00c4 CDED037A 		vstr.32	s15, [sp, #12]
 559              	.LVL52:
ARM GAS  C:\Users\Prashant\AppData\Local\Temp\ccoUHb4u.s 			page 16


 560              	.LBE181:
 561              	.LBE180:
  73:Core/Src/utils/imu_utils.cpp ****                 diff = arr[i] - mean;
 562              		.loc 2 73 0 discriminator 2
 563 00c8 0134     		adds	r4, r4, #1
 564              	.LVL53:
 565 00ca B9E7     		b	.L17
 566              	.L16:
 567              	.LBE167:
  75:Core/Src/utils/imu_utils.cpp ****                 sum_diff_sq += diff.mult_EW(diff);
  76:Core/Src/utils/imu_utils.cpp ****         }
  77:Core/Src/utils/imu_utils.cpp ****         return sum_diff_sq.mult_EW(1.0 / (float)n);
 568              		.loc 2 77 0
 569 00cc 07EE906A 		vmov	s15, r6	@ int
 570 00d0 F8EE677A 		vcvt.f32.u32	s15, s15
 571 00d4 F7EE006A 		vmov.f32	s13, #1.0e+0
 572 00d8 86EEA77A 		vdiv.f32	s14, s13, s15
 573              	.LVL54:
 574              	.LBB182:
 575              	.LBB183:
  49:Core/Inc\utils/vec3.h ****                 temp.y_ *= num;
 576              		.loc 1 49 0
 577 00dc DDED017A 		vldr.32	s15, [sp, #4]
 578 00e0 67EE277A 		vmul.f32	s15, s14, s15
 579 00e4 C8ED007A 		vstr.32	s15, [r8]
  50:Core/Inc\utils/vec3.h ****                 temp.z_ *= num;
 580              		.loc 1 50 0
 581 00e8 DDED027A 		vldr.32	s15, [sp, #8]
 582 00ec 67EE277A 		vmul.f32	s15, s14, s15
 583 00f0 C8ED017A 		vstr.32	s15, [r8, #4]
  51:Core/Inc\utils/vec3.h **** 
 584              		.loc 1 51 0
 585 00f4 DDED037A 		vldr.32	s15, [sp, #12]
 586 00f8 27EE277A 		vmul.f32	s14, s14, s15
 587              	.LVL55:
 588 00fc 88ED027A 		vstr.32	s14, [r8, #8]
 589              	.LVL56:
 590              	.LBE183:
 591              	.LBE182:
  78:Core/Src/utils/imu_utils.cpp **** }
 592              		.loc 2 78 0
 593 0100 4046     		mov	r0, r8
 594 0102 16B0     		add	sp, sp, #88
 595              	.LCFI11:
 596              		.cfi_def_cfa_offset 32
 597              		@ sp needed
 598 0104 BDEC028B 		vldm	sp!, {d8}
 599              	.LCFI12:
 600              		.cfi_restore 80
 601              		.cfi_restore 81
 602              		.cfi_def_cfa_offset 24
 603 0108 BDE8F081 		pop	{r4, r5, r6, r7, r8, pc}
 604              	.LVL57:
 605              	.L20:
 606              		.align	2
 607              	.L19:
 608 010c 00000000 		.word	0
ARM GAS  C:\Users\Prashant\AppData\Local\Temp\ccoUHb4u.s 			page 17


 609              		.cfi_endproc
 610              	.LFE408:
 612              		.section	.text._Z13calc_VarAccelP7MPU6050m,"ax",%progbits
 613              		.align	1
 614              		.global	_Z13calc_VarAccelP7MPU6050m
 615              		.syntax unified
 616              		.thumb
 617              		.thumb_func
 618              		.fpu fpv4-sp-d16
 620              	_Z13calc_VarAccelP7MPU6050m:
 621              	.LFB395:
  79:Core/Src/utils/imu_utils.cpp **** 
  80:Core/Src/utils/imu_utils.cpp **** template <uint32_t N>
  81:Core/Src/utils/imu_utils.cpp **** Vec3<float> stdDev(Vec3<float> (&arr)[N], uint32_t n)
  82:Core/Src/utils/imu_utils.cpp **** {
  83:Core/Src/utils/imu_utils.cpp ****         Vec3<float> std_dev;
  84:Core/Src/utils/imu_utils.cpp ****         Vec3<float> variance = var(arr, n);
  85:Core/Src/utils/imu_utils.cpp ****         std_dev.setX(sqrtf(variance.getX()));
  86:Core/Src/utils/imu_utils.cpp ****         std_dev.setY(sqrtf(variance.getY()));
  87:Core/Src/utils/imu_utils.cpp ****         std_dev.setZ(sqrtf(variance.getZ()));
  88:Core/Src/utils/imu_utils.cpp **** 
  89:Core/Src/utils/imu_utils.cpp ****         return std_dev;
  90:Core/Src/utils/imu_utils.cpp **** }
  91:Core/Src/utils/imu_utils.cpp **** 
  92:Core/Src/utils/imu_utils.cpp **** template <uint32_t N>
  93:Core/Src/utils/imu_utils.cpp **** Vec3<float> max(Vec3<float> (&arr)[N], uint32_t n)
  94:Core/Src/utils/imu_utils.cpp **** {
  95:Core/Src/utils/imu_utils.cpp ****         Vec3<float> mx = arr[0];
  96:Core/Src/utils/imu_utils.cpp **** 
  97:Core/Src/utils/imu_utils.cpp ****         for (uint32_t i = 0; i < n; ++i) {
  98:Core/Src/utils/imu_utils.cpp ****                 if (mx.getX() < arr[i].getX()) {
  99:Core/Src/utils/imu_utils.cpp ****                         mx.setX(arr[i].getX());
 100:Core/Src/utils/imu_utils.cpp ****                 }
 101:Core/Src/utils/imu_utils.cpp ****                 if (mx.getY() < arr[i].getY()) {
 102:Core/Src/utils/imu_utils.cpp ****                         mx.setY(arr[i].getY());
 103:Core/Src/utils/imu_utils.cpp ****                 }
 104:Core/Src/utils/imu_utils.cpp ****                 if (mx.getZ() < arr[i].getZ()) {
 105:Core/Src/utils/imu_utils.cpp ****                         mx.setZ(arr[i].getZ());
 106:Core/Src/utils/imu_utils.cpp ****                 }
 107:Core/Src/utils/imu_utils.cpp ****         }
 108:Core/Src/utils/imu_utils.cpp ****         
 109:Core/Src/utils/imu_utils.cpp ****         return mx;
 110:Core/Src/utils/imu_utils.cpp **** }
 111:Core/Src/utils/imu_utils.cpp **** 
 112:Core/Src/utils/imu_utils.cpp **** template <uint32_t N>
 113:Core/Src/utils/imu_utils.cpp **** Vec3<float> min(Vec3<float> (&arr)[N], uint32_t n)
 114:Core/Src/utils/imu_utils.cpp **** {
 115:Core/Src/utils/imu_utils.cpp ****         Vec3<float> mn = arr[0];
 116:Core/Src/utils/imu_utils.cpp **** 
 117:Core/Src/utils/imu_utils.cpp ****         for (uint32_t i = 0; i < n; ++i) {
 118:Core/Src/utils/imu_utils.cpp ****                 if (mn.getX() > arr[i].getX()) {
 119:Core/Src/utils/imu_utils.cpp ****                         mn.setX(arr[i].getX());
 120:Core/Src/utils/imu_utils.cpp ****                 }
 121:Core/Src/utils/imu_utils.cpp ****                 if (mn.getY() > arr[i].getY()) {
 122:Core/Src/utils/imu_utils.cpp ****                         mn.setY(arr[i].getY());
 123:Core/Src/utils/imu_utils.cpp ****                 }
 124:Core/Src/utils/imu_utils.cpp ****                 if (mn.getZ() > arr[i].getZ()) {
ARM GAS  C:\Users\Prashant\AppData\Local\Temp\ccoUHb4u.s 			page 18


 125:Core/Src/utils/imu_utils.cpp ****                         mn.setZ(arr[i].getZ());
 126:Core/Src/utils/imu_utils.cpp ****                 }
 127:Core/Src/utils/imu_utils.cpp ****         }
 128:Core/Src/utils/imu_utils.cpp ****         
 129:Core/Src/utils/imu_utils.cpp ****         return mn;
 130:Core/Src/utils/imu_utils.cpp **** }
 131:Core/Src/utils/imu_utils.cpp **** 
 132:Core/Src/utils/imu_utils.cpp **** Vec3<float> calc_VarAccel(struct MPU6050 *mpu, uint32_t n)
 133:Core/Src/utils/imu_utils.cpp **** {
 622              		.loc 2 133 0
 623              		.cfi_startproc
 624              		@ args = 0, pretend = 0, frame = 1240
 625              		@ frame_needed = 0, uses_anonymous_args = 0
 626              	.LVL58:
 627 0000 F0B5     		push	{r4, r5, r6, r7, lr}
 628              	.LCFI13:
 629              		.cfi_def_cfa_offset 20
 630              		.cfi_offset 4, -20
 631              		.cfi_offset 5, -16
 632              		.cfi_offset 6, -12
 633              		.cfi_offset 7, -8
 634              		.cfi_offset 14, -4
 635 0002 ADF2DC4D 		subw	sp, sp, #1244
 636              	.LCFI14:
 637              		.cfi_def_cfa_offset 1264
 638 0006 0646     		mov	r6, r0
 639 0008 0F46     		mov	r7, r1
 134:Core/Src/utils/imu_utils.cpp ****         Exp_Smooth alpha35(0.35);
 640              		.loc 2 134 0
 641 000a 9FED250A 		vldr.32	s0, .L29
 642 000e 0DF2B440 		addw	r0, sp, #1204
 643              	.LVL59:
 644 0012 FFF7FEFF 		bl	_ZN10Exp_SmoothC1Ef
 645              	.LVL60:
 135:Core/Src/utils/imu_utils.cpp ****         Smoothie s(&alpha35);
 646              		.loc 2 135 0
 647 0016 0DF2B441 		addw	r1, sp, #1204
 648 001a 0DF59660 		add	r0, sp, #1200
 649 001e FFF7FEFF 		bl	_ZN8SmoothieC1EP19Smoothing_Algorithm
 650              	.LVL61:
 136:Core/Src/utils/imu_utils.cpp **** 
 137:Core/Src/utils/imu_utils.cpp ****         const uint32_t data_num = 100;
 138:Core/Src/utils/imu_utils.cpp ****         Vec3<float> accel_initial_data[data_num];
 651              		.loc 2 138 0
 652 0022 6324     		movs	r4, #99
 653 0024 6D46     		mov	r5, sp
 654              	.L23:
 655              		.loc 2 138 0 is_stmt 0 discriminator 4
 656 0026 002C     		cmp	r4, #0
 657 0028 0BDB     		blt	.L27
 658              	.LVL62:
 659              	.LBB184:
 660              	.LBB185:
  26:Core/Inc\utils/vec3.h ****         Vec3(T x, T y, T z) { set_Values(x,y,z); }
 661              		.loc 1 26 0 is_stmt 1
 662 002a 9FED1E0A 		vldr.32	s0, .L29+4
 663 002e B0EE401A 		vmov.f32	s2, s0
ARM GAS  C:\Users\Prashant\AppData\Local\Temp\ccoUHb4u.s 			page 19


 664 0032 F0EE400A 		vmov.f32	s1, s0
 665 0036 2846     		mov	r0, r5
 666 0038 FFF7FEFF 		bl	_ZN4Vec3IfE10set_ValuesEfff
 667              	.LVL63:
 668              	.LBE185:
 669              	.LBE184:
 670              		.loc 2 138 0
 671 003c 0C35     		adds	r5, r5, #12
 672 003e 013C     		subs	r4, r4, #1
 673 0040 F1E7     		b	.L23
 674              	.L27:
 675              	.LBB186:
 139:Core/Src/utils/imu_utils.cpp ****         for (uint32_t i = 0; i < data_num; ++i) {
 676              		.loc 2 139 0
 677 0042 0024     		movs	r4, #0
 678              	.L22:
 679              	.LVL64:
 680              		.loc 2 139 0 is_stmt 0 discriminator 3
 681 0044 632C     		cmp	r4, #99
 682 0046 16D8     		bhi	.L24
 140:Core/Src/utils/imu_utils.cpp ****                 MPU6050_Read_NormAccel(mpu);
 683              		.loc 2 140 0 is_stmt 1 discriminator 2
 684 0048 3846     		mov	r0, r7
 685 004a FFF7FEFF 		bl	_Z22MPU6050_Read_NormAccelP7MPU6050
 686              	.LVL65:
 687              	.LBB187:
 688              	.LBB188:
 689              		.loc 3 27 0 discriminator 2
 690 004e DDF8B014 		ldr	r1, [sp, #1200]
 691 0052 0DF2CC45 		addw	r5, sp, #1228
 692 0056 0B68     		ldr	r3, [r1]
 693 0058 1B68     		ldr	r3, [r3]
 694 005a 07F11C02 		add	r2, r7, #28
 695              	.LVL66:
 696 005e 2846     		mov	r0, r5
 697 0060 9847     		blx	r3
 698              	.LVL67:
 699              	.LBE188:
 700              	.LBE187:
 141:Core/Src/utils/imu_utils.cpp ****                 accel_initial_data[i] = s.smooth(mpu->norm_a_axis);
 701              		.loc 2 141 0 discriminator 2
 702 0062 04EB4402 		add	r2, r4, r4, lsl #1
 703 0066 9300     		lsls	r3, r2, #2
 704 0068 6B44     		add	r3, r3, sp
 705 006a 95E80700 		ldm	r5, {r0, r1, r2}
 706 006e 83E80700 		stm	r3, {r0, r1, r2}
 139:Core/Src/utils/imu_utils.cpp ****         for (uint32_t i = 0; i < data_num; ++i) {
 707              		.loc 2 139 0 discriminator 2
 708 0072 0134     		adds	r4, r4, #1
 709              	.LVL68:
 710 0074 E6E7     		b	.L22
 711              	.L24:
 712              	.LBE186:
 142:Core/Src/utils/imu_utils.cpp ****         }
 143:Core/Src/utils/imu_utils.cpp ****         return var(accel_initial_data, data_num);
 713              		.loc 2 143 0
 714 0076 6422     		movs	r2, #100
ARM GAS  C:\Users\Prashant\AppData\Local\Temp\ccoUHb4u.s 			page 20


 715 0078 6946     		mov	r1, sp
 716 007a 3046     		mov	r0, r6
 717 007c FFF7FEFF 		bl	_Z3varILm100EE4Vec3IfERAT__S1_m
 718              	.LVL69:
 138:Core/Src/utils/imu_utils.cpp ****         for (uint32_t i = 0; i < data_num; ++i) {
 719              		.loc 2 138 0
 720 0080 0DF59663 		add	r3, sp, #1200
 721              	.L26:
 138:Core/Src/utils/imu_utils.cpp ****         for (uint32_t i = 0; i < data_num; ++i) {
 722              		.loc 2 138 0 is_stmt 0 discriminator 10
 723 0084 6A46     		mov	r2, sp
 724 0086 9342     		cmp	r3, r2
 725 0088 01D0     		beq	.L25
 138:Core/Src/utils/imu_utils.cpp ****         for (uint32_t i = 0; i < data_num; ++i) {
 726              		.loc 2 138 0 discriminator 9
 727 008a 0C3B     		subs	r3, r3, #12
 728 008c FAE7     		b	.L26
 729              	.L25:
 135:Core/Src/utils/imu_utils.cpp **** 
 730              		.loc 2 135 0 is_stmt 1
 731 008e 0DF59660 		add	r0, sp, #1200
 732 0092 FFF7FEFF 		bl	_ZN8SmoothieD1Ev
 733              	.LVL70:
 144:Core/Src/utils/imu_utils.cpp **** }
 734              		.loc 2 144 0
 735 0096 3046     		mov	r0, r6
 736 0098 0DF2DC4D 		addw	sp, sp, #1244
 737              	.LCFI15:
 738              		.cfi_def_cfa_offset 20
 739              		@ sp needed
 740 009c F0BD     		pop	{r4, r5, r6, r7, pc}
 741              	.LVL71:
 742              	.L30:
 743 009e 00BF     		.align	2
 744              	.L29:
 745 00a0 3333B33E 		.word	1051931443
 746 00a4 00000000 		.word	0
 747              		.cfi_endproc
 748              	.LFE395:
 750              		.section	.text._Z12calc_VarGyroP7MPU6050m,"ax",%progbits
 751              		.align	1
 752              		.global	_Z12calc_VarGyroP7MPU6050m
 753              		.syntax unified
 754              		.thumb
 755              		.thumb_func
 756              		.fpu fpv4-sp-d16
 758              	_Z12calc_VarGyroP7MPU6050m:
 759              	.LFB396:
 145:Core/Src/utils/imu_utils.cpp **** 
 146:Core/Src/utils/imu_utils.cpp **** Vec3<float> calc_VarGyro(struct MPU6050 *mpu, uint32_t n)
 147:Core/Src/utils/imu_utils.cpp **** {
 760              		.loc 2 147 0
 761              		.cfi_startproc
 762              		@ args = 0, pretend = 0, frame = 1240
 763              		@ frame_needed = 0, uses_anonymous_args = 0
 764              	.LVL72:
 765 0000 F0B5     		push	{r4, r5, r6, r7, lr}
ARM GAS  C:\Users\Prashant\AppData\Local\Temp\ccoUHb4u.s 			page 21


 766              	.LCFI16:
 767              		.cfi_def_cfa_offset 20
 768              		.cfi_offset 4, -20
 769              		.cfi_offset 5, -16
 770              		.cfi_offset 6, -12
 771              		.cfi_offset 7, -8
 772              		.cfi_offset 14, -4
 773 0002 ADF2DC4D 		subw	sp, sp, #1244
 774              	.LCFI17:
 775              		.cfi_def_cfa_offset 1264
 776 0006 0646     		mov	r6, r0
 777 0008 0F46     		mov	r7, r1
 148:Core/Src/utils/imu_utils.cpp ****         Exp_Smooth alpha35(0.35);
 778              		.loc 2 148 0
 779 000a 9FED250A 		vldr.32	s0, .L39
 780 000e 0DF2B440 		addw	r0, sp, #1204
 781              	.LVL73:
 782 0012 FFF7FEFF 		bl	_ZN10Exp_SmoothC1Ef
 783              	.LVL74:
 149:Core/Src/utils/imu_utils.cpp ****         Smoothie s(&alpha35);
 784              		.loc 2 149 0
 785 0016 0DF2B441 		addw	r1, sp, #1204
 786 001a 0DF59660 		add	r0, sp, #1200
 787 001e FFF7FEFF 		bl	_ZN8SmoothieC1EP19Smoothing_Algorithm
 788              	.LVL75:
 150:Core/Src/utils/imu_utils.cpp **** 
 151:Core/Src/utils/imu_utils.cpp ****         const uint32_t data_num = 100;
 152:Core/Src/utils/imu_utils.cpp ****         Vec3<float> gyro_initial_data[data_num];
 789              		.loc 2 152 0
 790 0022 6324     		movs	r4, #99
 791 0024 6D46     		mov	r5, sp
 792              	.L33:
 793              		.loc 2 152 0 is_stmt 0 discriminator 4
 794 0026 002C     		cmp	r4, #0
 795 0028 0BDB     		blt	.L37
 796              	.LVL76:
 797              	.LBB189:
 798              	.LBB190:
  26:Core/Inc\utils/vec3.h ****         Vec3(T x, T y, T z) { set_Values(x,y,z); }
 799              		.loc 1 26 0 is_stmt 1
 800 002a 9FED1E0A 		vldr.32	s0, .L39+4
 801 002e B0EE401A 		vmov.f32	s2, s0
 802 0032 F0EE400A 		vmov.f32	s1, s0
 803 0036 2846     		mov	r0, r5
 804 0038 FFF7FEFF 		bl	_ZN4Vec3IfE10set_ValuesEfff
 805              	.LVL77:
 806              	.LBE190:
 807              	.LBE189:
 808              		.loc 2 152 0
 809 003c 0C35     		adds	r5, r5, #12
 810 003e 013C     		subs	r4, r4, #1
 811 0040 F1E7     		b	.L33
 812              	.L37:
 813              	.LBB191:
 153:Core/Src/utils/imu_utils.cpp ****         for (uint32_t i = 0; i < data_num; ++i) {
 814              		.loc 2 153 0
 815 0042 0024     		movs	r4, #0
ARM GAS  C:\Users\Prashant\AppData\Local\Temp\ccoUHb4u.s 			page 22


 816              	.L32:
 817              	.LVL78:
 818              		.loc 2 153 0 is_stmt 0 discriminator 3
 819 0044 632C     		cmp	r4, #99
 820 0046 16D8     		bhi	.L34
 154:Core/Src/utils/imu_utils.cpp ****                 MPU6050_Read_NormGyro(mpu);
 821              		.loc 2 154 0 is_stmt 1 discriminator 2
 822 0048 3846     		mov	r0, r7
 823 004a FFF7FEFF 		bl	_Z21MPU6050_Read_NormGyroP7MPU6050
 824              	.LVL79:
 825              	.LBB192:
 826              	.LBB193:
 827              		.loc 3 27 0 discriminator 2
 828 004e DDF8B014 		ldr	r1, [sp, #1200]
 829 0052 0DF2CC45 		addw	r5, sp, #1228
 830 0056 0B68     		ldr	r3, [r1]
 831 0058 1B68     		ldr	r3, [r3]
 832 005a 07F11002 		add	r2, r7, #16
 833              	.LVL80:
 834 005e 2846     		mov	r0, r5
 835 0060 9847     		blx	r3
 836              	.LVL81:
 837              	.LBE193:
 838              	.LBE192:
 155:Core/Src/utils/imu_utils.cpp ****                 gyro_initial_data[i] = s.smooth(mpu->norm_g_axis);
 839              		.loc 2 155 0 discriminator 2
 840 0062 04EB4402 		add	r2, r4, r4, lsl #1
 841 0066 9300     		lsls	r3, r2, #2
 842 0068 6B44     		add	r3, r3, sp
 843 006a 95E80700 		ldm	r5, {r0, r1, r2}
 844 006e 83E80700 		stm	r3, {r0, r1, r2}
 153:Core/Src/utils/imu_utils.cpp ****         for (uint32_t i = 0; i < data_num; ++i) {
 845              		.loc 2 153 0 discriminator 2
 846 0072 0134     		adds	r4, r4, #1
 847              	.LVL82:
 848 0074 E6E7     		b	.L32
 849              	.L34:
 850              	.LBE191:
 156:Core/Src/utils/imu_utils.cpp ****         }
 157:Core/Src/utils/imu_utils.cpp ****         return var(gyro_initial_data, data_num);
 851              		.loc 2 157 0
 852 0076 6422     		movs	r2, #100
 853 0078 6946     		mov	r1, sp
 854 007a 3046     		mov	r0, r6
 855 007c FFF7FEFF 		bl	_Z3varILm100EE4Vec3IfERAT__S1_m
 856              	.LVL83:
 152:Core/Src/utils/imu_utils.cpp ****         for (uint32_t i = 0; i < data_num; ++i) {
 857              		.loc 2 152 0
 858 0080 0DF59663 		add	r3, sp, #1200
 859              	.L36:
 152:Core/Src/utils/imu_utils.cpp ****         for (uint32_t i = 0; i < data_num; ++i) {
 860              		.loc 2 152 0 is_stmt 0 discriminator 10
 861 0084 6A46     		mov	r2, sp
 862 0086 9342     		cmp	r3, r2
 863 0088 01D0     		beq	.L35
 152:Core/Src/utils/imu_utils.cpp ****         for (uint32_t i = 0; i < data_num; ++i) {
 864              		.loc 2 152 0 discriminator 9
ARM GAS  C:\Users\Prashant\AppData\Local\Temp\ccoUHb4u.s 			page 23


 865 008a 0C3B     		subs	r3, r3, #12
 866 008c FAE7     		b	.L36
 867              	.L35:
 149:Core/Src/utils/imu_utils.cpp **** 
 868              		.loc 2 149 0 is_stmt 1
 869 008e 0DF59660 		add	r0, sp, #1200
 870 0092 FFF7FEFF 		bl	_ZN8SmoothieD1Ev
 871              	.LVL84:
 158:Core/Src/utils/imu_utils.cpp **** }
 872              		.loc 2 158 0
 873 0096 3046     		mov	r0, r6
 874 0098 0DF2DC4D 		addw	sp, sp, #1244
 875              	.LCFI18:
 876              		.cfi_def_cfa_offset 20
 877              		@ sp needed
 878 009c F0BD     		pop	{r4, r5, r6, r7, pc}
 879              	.LVL85:
 880              	.L40:
 881 009e 00BF     		.align	2
 882              	.L39:
 883 00a0 3333B33E 		.word	1051931443
 884 00a4 00000000 		.word	0
 885              		.cfi_endproc
 886              	.LFE396:
 888              		.section	.text._ZNK4Vec3IfE4getXEv,"axG",%progbits,_ZNK4Vec3IfE4getXEv,comdat
 889              		.align	1
 890              		.weak	_ZNK4Vec3IfE4getXEv
 891              		.syntax unified
 892              		.thumb
 893              		.thumb_func
 894              		.fpu fpv4-sp-d16
 896              	_ZNK4Vec3IfE4getXEv:
 897              	.LFB421:
 159:Core/Inc\utils/vec3.h **** 
 160:Core/Inc\utils/vec3.h **** template <class T>
 161:Core/Inc\utils/vec3.h **** T Vec3<T>::getX() const { return x_;}
 898              		.loc 1 161 0
 899              		.cfi_startproc
 900              		@ args = 0, pretend = 0, frame = 0
 901              		@ frame_needed = 0, uses_anonymous_args = 0
 902              		@ link register save eliminated.
 903              	.LVL86:
 904              		.loc 1 161 0
 905 0000 90ED000A 		vldr.32	s0, [r0]
 906 0004 7047     		bx	lr
 907              		.cfi_endproc
 908              	.LFE421:
 910              		.section	.text._ZNK4Vec3IfE4getYEv,"axG",%progbits,_ZNK4Vec3IfE4getYEv,comdat
 911              		.align	1
 912              		.weak	_ZNK4Vec3IfE4getYEv
 913              		.syntax unified
 914              		.thumb
 915              		.thumb_func
 916              		.fpu fpv4-sp-d16
 918              	_ZNK4Vec3IfE4getYEv:
 919              	.LFB423:
 162:Core/Inc\utils/vec3.h **** 
ARM GAS  C:\Users\Prashant\AppData\Local\Temp\ccoUHb4u.s 			page 24


 163:Core/Inc\utils/vec3.h **** template <class T>
 164:Core/Inc\utils/vec3.h **** T Vec3<T>::getY() const { return y_;}
 920              		.loc 1 164 0
 921              		.cfi_startproc
 922              		@ args = 0, pretend = 0, frame = 0
 923              		@ frame_needed = 0, uses_anonymous_args = 0
 924              		@ link register save eliminated.
 925              	.LVL87:
 926              		.loc 1 164 0
 927 0000 90ED010A 		vldr.32	s0, [r0, #4]
 928 0004 7047     		bx	lr
 929              		.cfi_endproc
 930              	.LFE423:
 932              		.section	.text._ZNK4Vec3IfE4getZEv,"axG",%progbits,_ZNK4Vec3IfE4getZEv,comdat
 933              		.align	1
 934              		.weak	_ZNK4Vec3IfE4getZEv
 935              		.syntax unified
 936              		.thumb
 937              		.thumb_func
 938              		.fpu fpv4-sp-d16
 940              	_ZNK4Vec3IfE4getZEv:
 941              	.LFB425:
 165:Core/Inc\utils/vec3.h **** 
 166:Core/Inc\utils/vec3.h **** template <class T>
 167:Core/Inc\utils/vec3.h **** T Vec3<T>::getZ() const { return z_;}
 942              		.loc 1 167 0
 943              		.cfi_startproc
 944              		@ args = 0, pretend = 0, frame = 0
 945              		@ frame_needed = 0, uses_anonymous_args = 0
 946              		@ link register save eliminated.
 947              	.LVL88:
 948              		.loc 1 167 0
 949 0000 90ED020A 		vldr.32	s0, [r0, #8]
 950 0004 7047     		bx	lr
 951              		.cfi_endproc
 952              	.LFE425:
 954              		.section	.text._Z6stdDevILm100EE4Vec3IfERAT__S1_m,"axG",%progbits,_Z6stdDevILm100EE4Vec3IfERAT__S1
 955              		.align	1
 956              		.weak	_Z6stdDevILm100EE4Vec3IfERAT__S1_m
 957              		.syntax unified
 958              		.thumb
 959              		.thumb_func
 960              		.fpu fpv4-sp-d16
 962              	_Z6stdDevILm100EE4Vec3IfERAT__S1_m:
 963              	.LFB409:
  81:Core/Src/utils/imu_utils.cpp **** {
 964              		.loc 2 81 0
 965              		.cfi_startproc
 966              		@ args = 0, pretend = 0, frame = 16
 967              		@ frame_needed = 0, uses_anonymous_args = 0
 968              	.LVL89:
 969 0000 70B5     		push	{r4, r5, r6, lr}
 970              	.LCFI19:
 971              		.cfi_def_cfa_offset 16
 972              		.cfi_offset 4, -16
 973              		.cfi_offset 5, -12
 974              		.cfi_offset 6, -8
ARM GAS  C:\Users\Prashant\AppData\Local\Temp\ccoUHb4u.s 			page 25


 975              		.cfi_offset 14, -4
 976 0002 84B0     		sub	sp, sp, #16
 977              	.LCFI20:
 978              		.cfi_def_cfa_offset 32
 979 0004 0446     		mov	r4, r0
 980 0006 0D46     		mov	r5, r1
 981 0008 1646     		mov	r6, r2
 982              	.LVL90:
 983              	.LBB194:
 984              	.LBB195:
  26:Core/Inc\utils/vec3.h ****         Vec3(T x, T y, T z) { set_Values(x,y,z); }
 985              		.loc 1 26 0
 986 000a 9FED120A 		vldr.32	s0, .L46
 987 000e B0EE401A 		vmov.f32	s2, s0
 988 0012 F0EE400A 		vmov.f32	s1, s0
 989 0016 FFF7FEFF 		bl	_ZN4Vec3IfE10set_ValuesEfff
 990              	.LVL91:
 991              	.LBE195:
 992              	.LBE194:
  84:Core/Src/utils/imu_utils.cpp ****         std_dev.setX(sqrtf(variance.getX()));
 993              		.loc 2 84 0
 994 001a 3246     		mov	r2, r6
 995 001c 2946     		mov	r1, r5
 996 001e 01A8     		add	r0, sp, #4
 997 0020 FFF7FEFF 		bl	_Z3varILm100EE4Vec3IfERAT__S1_m
 998              	.LVL92:
  85:Core/Src/utils/imu_utils.cpp ****         std_dev.setY(sqrtf(variance.getY()));
 999              		.loc 2 85 0
 1000 0024 01A8     		add	r0, sp, #4
 1001 0026 FFF7FEFF 		bl	_ZNK4Vec3IfE4getXEv
 1002              	.LVL93:
 1003 002a FFF7FEFF 		bl	sqrtf
 1004              	.LVL94:
 1005              	.LBB196:
 1006              	.LBB197:
  36:Core/Inc\utils/vec3.h ****         void setY(T y) { y_ = y; }
 1007              		.loc 1 36 0
 1008 002e 84ED000A 		vstr.32	s0, [r4]
 1009              	.LVL95:
 1010              	.LBE197:
 1011              	.LBE196:
  86:Core/Src/utils/imu_utils.cpp ****         std_dev.setZ(sqrtf(variance.getZ()));
 1012              		.loc 2 86 0
 1013 0032 01A8     		add	r0, sp, #4
 1014 0034 FFF7FEFF 		bl	_ZNK4Vec3IfE4getYEv
 1015              	.LVL96:
 1016 0038 FFF7FEFF 		bl	sqrtf
 1017              	.LVL97:
 1018              	.LBB198:
 1019              	.LBB199:
  37:Core/Inc\utils/vec3.h ****         void setZ(T z) { z_ = z; }
 1020              		.loc 1 37 0
 1021 003c 84ED010A 		vstr.32	s0, [r4, #4]
 1022              	.LVL98:
 1023              	.LBE199:
 1024              	.LBE198:
  87:Core/Src/utils/imu_utils.cpp **** 
ARM GAS  C:\Users\Prashant\AppData\Local\Temp\ccoUHb4u.s 			page 26


 1025              		.loc 2 87 0
 1026 0040 01A8     		add	r0, sp, #4
 1027 0042 FFF7FEFF 		bl	_ZNK4Vec3IfE4getZEv
 1028              	.LVL99:
 1029 0046 FFF7FEFF 		bl	sqrtf
 1030              	.LVL100:
 1031              	.LBB200:
 1032              	.LBB201:
  38:Core/Inc\utils/vec3.h **** 
 1033              		.loc 1 38 0
 1034 004a 84ED020A 		vstr.32	s0, [r4, #8]
 1035              	.LVL101:
 1036              	.LBE201:
 1037              	.LBE200:
  90:Core/Src/utils/imu_utils.cpp **** 
 1038              		.loc 2 90 0
 1039 004e 2046     		mov	r0, r4
 1040 0050 04B0     		add	sp, sp, #16
 1041              	.LCFI21:
 1042              		.cfi_def_cfa_offset 16
 1043              		@ sp needed
 1044 0052 70BD     		pop	{r4, r5, r6, pc}
 1045              	.LVL102:
 1046              	.L47:
 1047              		.align	2
 1048              	.L46:
 1049 0054 00000000 		.word	0
 1050              		.cfi_endproc
 1051              	.LFE409:
 1053              		.section	.text._Z16calc_StdDevAccelP7MPU6050m,"ax",%progbits
 1054              		.align	1
 1055              		.global	_Z16calc_StdDevAccelP7MPU6050m
 1056              		.syntax unified
 1057              		.thumb
 1058              		.thumb_func
 1059              		.fpu fpv4-sp-d16
 1061              	_Z16calc_StdDevAccelP7MPU6050m:
 1062              	.LFB397:
 159:Core/Src/utils/imu_utils.cpp **** 
 160:Core/Src/utils/imu_utils.cpp **** Vec3<float> calc_StdDevAccel(struct MPU6050 *mpu, uint32_t n)
 161:Core/Src/utils/imu_utils.cpp **** {
 1063              		.loc 2 161 0
 1064              		.cfi_startproc
 1065              		@ args = 0, pretend = 0, frame = 1240
 1066              		@ frame_needed = 0, uses_anonymous_args = 0
 1067              	.LVL103:
 1068 0000 F0B5     		push	{r4, r5, r6, r7, lr}
 1069              	.LCFI22:
 1070              		.cfi_def_cfa_offset 20
 1071              		.cfi_offset 4, -20
 1072              		.cfi_offset 5, -16
 1073              		.cfi_offset 6, -12
 1074              		.cfi_offset 7, -8
 1075              		.cfi_offset 14, -4
 1076 0002 ADF2DC4D 		subw	sp, sp, #1244
 1077              	.LCFI23:
 1078              		.cfi_def_cfa_offset 1264
ARM GAS  C:\Users\Prashant\AppData\Local\Temp\ccoUHb4u.s 			page 27


 1079 0006 0646     		mov	r6, r0
 1080 0008 0F46     		mov	r7, r1
 162:Core/Src/utils/imu_utils.cpp ****         Exp_Smooth alpha35(0.35);
 1081              		.loc 2 162 0
 1082 000a 9FED250A 		vldr.32	s0, .L56
 1083 000e 0DF2B440 		addw	r0, sp, #1204
 1084              	.LVL104:
 1085 0012 FFF7FEFF 		bl	_ZN10Exp_SmoothC1Ef
 1086              	.LVL105:
 163:Core/Src/utils/imu_utils.cpp ****         Smoothie s(&alpha35);
 1087              		.loc 2 163 0
 1088 0016 0DF2B441 		addw	r1, sp, #1204
 1089 001a 0DF59660 		add	r0, sp, #1200
 1090 001e FFF7FEFF 		bl	_ZN8SmoothieC1EP19Smoothing_Algorithm
 1091              	.LVL106:
 164:Core/Src/utils/imu_utils.cpp **** 
 165:Core/Src/utils/imu_utils.cpp ****         const uint32_t data_num = 100;
 166:Core/Src/utils/imu_utils.cpp ****         Vec3<float> accel_initial_data[data_num];
 1092              		.loc 2 166 0
 1093 0022 6324     		movs	r4, #99
 1094 0024 6D46     		mov	r5, sp
 1095              	.L50:
 1096              		.loc 2 166 0 is_stmt 0 discriminator 4
 1097 0026 002C     		cmp	r4, #0
 1098 0028 0BDB     		blt	.L54
 1099              	.LVL107:
 1100              	.LBB202:
 1101              	.LBB203:
  26:Core/Inc\utils/vec3.h ****         Vec3(T x, T y, T z) { set_Values(x,y,z); }
 1102              		.loc 1 26 0 is_stmt 1
 1103 002a 9FED1E0A 		vldr.32	s0, .L56+4
 1104 002e B0EE401A 		vmov.f32	s2, s0
 1105 0032 F0EE400A 		vmov.f32	s1, s0
 1106 0036 2846     		mov	r0, r5
 1107 0038 FFF7FEFF 		bl	_ZN4Vec3IfE10set_ValuesEfff
 1108              	.LVL108:
 1109              	.LBE203:
 1110              	.LBE202:
 1111              		.loc 2 166 0
 1112 003c 0C35     		adds	r5, r5, #12
 1113 003e 013C     		subs	r4, r4, #1
 1114 0040 F1E7     		b	.L50
 1115              	.L54:
 1116              	.LBB204:
 167:Core/Src/utils/imu_utils.cpp ****         for (uint32_t i = 0; i < data_num; ++i) {
 1117              		.loc 2 167 0
 1118 0042 0024     		movs	r4, #0
 1119              	.L49:
 1120              	.LVL109:
 1121              		.loc 2 167 0 is_stmt 0 discriminator 3
 1122 0044 632C     		cmp	r4, #99
 1123 0046 16D8     		bhi	.L51
 168:Core/Src/utils/imu_utils.cpp ****                 MPU6050_Read_NormAccel(mpu);
 1124              		.loc 2 168 0 is_stmt 1 discriminator 2
 1125 0048 3846     		mov	r0, r7
 1126 004a FFF7FEFF 		bl	_Z22MPU6050_Read_NormAccelP7MPU6050
 1127              	.LVL110:
ARM GAS  C:\Users\Prashant\AppData\Local\Temp\ccoUHb4u.s 			page 28


 1128              	.LBB205:
 1129              	.LBB206:
 1130              		.loc 3 27 0 discriminator 2
 1131 004e DDF8B014 		ldr	r1, [sp, #1200]
 1132 0052 0DF2CC45 		addw	r5, sp, #1228
 1133 0056 0B68     		ldr	r3, [r1]
 1134 0058 1B68     		ldr	r3, [r3]
 1135 005a 07F11C02 		add	r2, r7, #28
 1136              	.LVL111:
 1137 005e 2846     		mov	r0, r5
 1138 0060 9847     		blx	r3
 1139              	.LVL112:
 1140              	.LBE206:
 1141              	.LBE205:
 169:Core/Src/utils/imu_utils.cpp ****                 accel_initial_data[i] = s.smooth(mpu->norm_a_axis);
 1142              		.loc 2 169 0 discriminator 2
 1143 0062 04EB4402 		add	r2, r4, r4, lsl #1
 1144 0066 9300     		lsls	r3, r2, #2
 1145 0068 6B44     		add	r3, r3, sp
 1146 006a 95E80700 		ldm	r5, {r0, r1, r2}
 1147 006e 83E80700 		stm	r3, {r0, r1, r2}
 167:Core/Src/utils/imu_utils.cpp ****         for (uint32_t i = 0; i < data_num; ++i) {
 1148              		.loc 2 167 0 discriminator 2
 1149 0072 0134     		adds	r4, r4, #1
 1150              	.LVL113:
 1151 0074 E6E7     		b	.L49
 1152              	.L51:
 1153              	.LBE204:
 170:Core/Src/utils/imu_utils.cpp ****         }
 171:Core/Src/utils/imu_utils.cpp ****         return stdDev(accel_initial_data, data_num);
 1154              		.loc 2 171 0
 1155 0076 6422     		movs	r2, #100
 1156 0078 6946     		mov	r1, sp
 1157 007a 3046     		mov	r0, r6
 1158 007c FFF7FEFF 		bl	_Z6stdDevILm100EE4Vec3IfERAT__S1_m
 1159              	.LVL114:
 166:Core/Src/utils/imu_utils.cpp ****         for (uint32_t i = 0; i < data_num; ++i) {
 1160              		.loc 2 166 0
 1161 0080 0DF59663 		add	r3, sp, #1200
 1162              	.L53:
 166:Core/Src/utils/imu_utils.cpp ****         for (uint32_t i = 0; i < data_num; ++i) {
 1163              		.loc 2 166 0 is_stmt 0 discriminator 10
 1164 0084 6A46     		mov	r2, sp
 1165 0086 9342     		cmp	r3, r2
 1166 0088 01D0     		beq	.L52
 166:Core/Src/utils/imu_utils.cpp ****         for (uint32_t i = 0; i < data_num; ++i) {
 1167              		.loc 2 166 0 discriminator 9
 1168 008a 0C3B     		subs	r3, r3, #12
 1169 008c FAE7     		b	.L53
 1170              	.L52:
 163:Core/Src/utils/imu_utils.cpp **** 
 1171              		.loc 2 163 0 is_stmt 1
 1172 008e 0DF59660 		add	r0, sp, #1200
 1173 0092 FFF7FEFF 		bl	_ZN8SmoothieD1Ev
 1174              	.LVL115:
 172:Core/Src/utils/imu_utils.cpp **** }
 1175              		.loc 2 172 0
ARM GAS  C:\Users\Prashant\AppData\Local\Temp\ccoUHb4u.s 			page 29


 1176 0096 3046     		mov	r0, r6
 1177 0098 0DF2DC4D 		addw	sp, sp, #1244
 1178              	.LCFI24:
 1179              		.cfi_def_cfa_offset 20
 1180              		@ sp needed
 1181 009c F0BD     		pop	{r4, r5, r6, r7, pc}
 1182              	.LVL116:
 1183              	.L57:
 1184 009e 00BF     		.align	2
 1185              	.L56:
 1186 00a0 3333B33E 		.word	1051931443
 1187 00a4 00000000 		.word	0
 1188              		.cfi_endproc
 1189              	.LFE397:
 1191              		.section	.text._Z15calc_StdDevGyroP7MPU6050m,"ax",%progbits
 1192              		.align	1
 1193              		.global	_Z15calc_StdDevGyroP7MPU6050m
 1194              		.syntax unified
 1195              		.thumb
 1196              		.thumb_func
 1197              		.fpu fpv4-sp-d16
 1199              	_Z15calc_StdDevGyroP7MPU6050m:
 1200              	.LFB398:
 173:Core/Src/utils/imu_utils.cpp **** 
 174:Core/Src/utils/imu_utils.cpp **** Vec3<float> calc_StdDevGyro(struct MPU6050 *mpu, uint32_t n)
 175:Core/Src/utils/imu_utils.cpp **** {
 1201              		.loc 2 175 0
 1202              		.cfi_startproc
 1203              		@ args = 0, pretend = 0, frame = 1240
 1204              		@ frame_needed = 0, uses_anonymous_args = 0
 1205              	.LVL117:
 1206 0000 F0B5     		push	{r4, r5, r6, r7, lr}
 1207              	.LCFI25:
 1208              		.cfi_def_cfa_offset 20
 1209              		.cfi_offset 4, -20
 1210              		.cfi_offset 5, -16
 1211              		.cfi_offset 6, -12
 1212              		.cfi_offset 7, -8
 1213              		.cfi_offset 14, -4
 1214 0002 ADF2DC4D 		subw	sp, sp, #1244
 1215              	.LCFI26:
 1216              		.cfi_def_cfa_offset 1264
 1217 0006 0646     		mov	r6, r0
 1218 0008 0F46     		mov	r7, r1
 176:Core/Src/utils/imu_utils.cpp ****         Exp_Smooth alpha35(0.35);
 1219              		.loc 2 176 0
 1220 000a 9FED250A 		vldr.32	s0, .L66
 1221 000e 0DF2B440 		addw	r0, sp, #1204
 1222              	.LVL118:
 1223 0012 FFF7FEFF 		bl	_ZN10Exp_SmoothC1Ef
 1224              	.LVL119:
 177:Core/Src/utils/imu_utils.cpp ****         Smoothie s(&alpha35);
 1225              		.loc 2 177 0
 1226 0016 0DF2B441 		addw	r1, sp, #1204
 1227 001a 0DF59660 		add	r0, sp, #1200
 1228 001e FFF7FEFF 		bl	_ZN8SmoothieC1EP19Smoothing_Algorithm
 1229              	.LVL120:
ARM GAS  C:\Users\Prashant\AppData\Local\Temp\ccoUHb4u.s 			page 30


 178:Core/Src/utils/imu_utils.cpp **** 
 179:Core/Src/utils/imu_utils.cpp ****         const uint32_t data_num = 100;
 180:Core/Src/utils/imu_utils.cpp ****         Vec3<float> gyro_initial_data[data_num];
 1230              		.loc 2 180 0
 1231 0022 6324     		movs	r4, #99
 1232 0024 6D46     		mov	r5, sp
 1233              	.L60:
 1234              		.loc 2 180 0 is_stmt 0 discriminator 4
 1235 0026 002C     		cmp	r4, #0
 1236 0028 0BDB     		blt	.L64
 1237              	.LVL121:
 1238              	.LBB207:
 1239              	.LBB208:
  26:Core/Inc\utils/vec3.h ****         Vec3(T x, T y, T z) { set_Values(x,y,z); }
 1240              		.loc 1 26 0 is_stmt 1
 1241 002a 9FED1E0A 		vldr.32	s0, .L66+4
 1242 002e B0EE401A 		vmov.f32	s2, s0
 1243 0032 F0EE400A 		vmov.f32	s1, s0
 1244 0036 2846     		mov	r0, r5
 1245 0038 FFF7FEFF 		bl	_ZN4Vec3IfE10set_ValuesEfff
 1246              	.LVL122:
 1247              	.LBE208:
 1248              	.LBE207:
 1249              		.loc 2 180 0
 1250 003c 0C35     		adds	r5, r5, #12
 1251 003e 013C     		subs	r4, r4, #1
 1252 0040 F1E7     		b	.L60
 1253              	.L64:
 1254              	.LBB209:
 181:Core/Src/utils/imu_utils.cpp ****         for (uint32_t i = 0; i < data_num; ++i) {
 1255              		.loc 2 181 0
 1256 0042 0024     		movs	r4, #0
 1257              	.L59:
 1258              	.LVL123:
 1259              		.loc 2 181 0 is_stmt 0 discriminator 3
 1260 0044 632C     		cmp	r4, #99
 1261 0046 16D8     		bhi	.L61
 182:Core/Src/utils/imu_utils.cpp ****                 MPU6050_Read_NormGyro(mpu);
 1262              		.loc 2 182 0 is_stmt 1 discriminator 2
 1263 0048 3846     		mov	r0, r7
 1264 004a FFF7FEFF 		bl	_Z21MPU6050_Read_NormGyroP7MPU6050
 1265              	.LVL124:
 1266              	.LBB210:
 1267              	.LBB211:
 1268              		.loc 3 27 0 discriminator 2
 1269 004e DDF8B014 		ldr	r1, [sp, #1200]
 1270 0052 0DF2CC45 		addw	r5, sp, #1228
 1271 0056 0B68     		ldr	r3, [r1]
 1272 0058 1B68     		ldr	r3, [r3]
 1273 005a 07F11002 		add	r2, r7, #16
 1274              	.LVL125:
 1275 005e 2846     		mov	r0, r5
 1276 0060 9847     		blx	r3
 1277              	.LVL126:
 1278              	.LBE211:
 1279              	.LBE210:
 183:Core/Src/utils/imu_utils.cpp ****                 gyro_initial_data[i] = s.smooth(mpu->norm_g_axis);
ARM GAS  C:\Users\Prashant\AppData\Local\Temp\ccoUHb4u.s 			page 31


 1280              		.loc 2 183 0 discriminator 2
 1281 0062 04EB4402 		add	r2, r4, r4, lsl #1
 1282 0066 9300     		lsls	r3, r2, #2
 1283 0068 6B44     		add	r3, r3, sp
 1284 006a 95E80700 		ldm	r5, {r0, r1, r2}
 1285 006e 83E80700 		stm	r3, {r0, r1, r2}
 181:Core/Src/utils/imu_utils.cpp ****         for (uint32_t i = 0; i < data_num; ++i) {
 1286              		.loc 2 181 0 discriminator 2
 1287 0072 0134     		adds	r4, r4, #1
 1288              	.LVL127:
 1289 0074 E6E7     		b	.L59
 1290              	.L61:
 1291              	.LBE209:
 184:Core/Src/utils/imu_utils.cpp ****         }
 185:Core/Src/utils/imu_utils.cpp ****         return stdDev(gyro_initial_data, data_num);
 1292              		.loc 2 185 0
 1293 0076 6422     		movs	r2, #100
 1294 0078 6946     		mov	r1, sp
 1295 007a 3046     		mov	r0, r6
 1296 007c FFF7FEFF 		bl	_Z6stdDevILm100EE4Vec3IfERAT__S1_m
 1297              	.LVL128:
 180:Core/Src/utils/imu_utils.cpp ****         for (uint32_t i = 0; i < data_num; ++i) {
 1298              		.loc 2 180 0
 1299 0080 0DF59663 		add	r3, sp, #1200
 1300              	.L63:
 180:Core/Src/utils/imu_utils.cpp ****         for (uint32_t i = 0; i < data_num; ++i) {
 1301              		.loc 2 180 0 is_stmt 0 discriminator 10
 1302 0084 6A46     		mov	r2, sp
 1303 0086 9342     		cmp	r3, r2
 1304 0088 01D0     		beq	.L62
 180:Core/Src/utils/imu_utils.cpp ****         for (uint32_t i = 0; i < data_num; ++i) {
 1305              		.loc 2 180 0 discriminator 9
 1306 008a 0C3B     		subs	r3, r3, #12
 1307 008c FAE7     		b	.L63
 1308              	.L62:
 177:Core/Src/utils/imu_utils.cpp **** 
 1309              		.loc 2 177 0 is_stmt 1
 1310 008e 0DF59660 		add	r0, sp, #1200
 1311 0092 FFF7FEFF 		bl	_ZN8SmoothieD1Ev
 1312              	.LVL129:
 186:Core/Src/utils/imu_utils.cpp **** }
 1313              		.loc 2 186 0
 1314 0096 3046     		mov	r0, r6
 1315 0098 0DF2DC4D 		addw	sp, sp, #1244
 1316              	.LCFI27:
 1317              		.cfi_def_cfa_offset 20
 1318              		@ sp needed
 1319 009c F0BD     		pop	{r4, r5, r6, r7, pc}
 1320              	.LVL130:
 1321              	.L67:
 1322 009e 00BF     		.align	2
 1323              	.L66:
 1324 00a0 3333B33E 		.word	1051931443
 1325 00a4 00000000 		.word	0
 1326              		.cfi_endproc
 1327              	.LFE398:
 1329              		.text
ARM GAS  C:\Users\Prashant\AppData\Local\Temp\ccoUHb4u.s 			page 32


 1330              	.Letext0:
 1331              		.file 4 "c:\\program files (x86)\\gnu tools arm embedded\\7 2017-q4-major\\arm-none-eabi\\include\
 1332              		.file 5 "c:\\program files (x86)\\gnu tools arm embedded\\7 2017-q4-major\\arm-none-eabi\\include\
 1333              		.file 6 "c:\\program files (x86)\\gnu tools arm embedded\\7 2017-q4-major\\arm-none-eabi\\include\
 1334              		.file 7 "c:\\program files (x86)\\gnu tools arm embedded\\7 2017-q4-major\\arm-none-eabi\\include\
 1335              		.file 8 "c:\\program files (x86)\\gnu tools arm embedded\\7 2017-q4-major\\arm-none-eabi\\include\
 1336              		.file 9 "c:\\program files (x86)\\gnu tools arm embedded\\7 2017-q4-major\\arm-none-eabi\\include\
 1337              		.file 10 "c:\\program files (x86)\\gnu tools arm embedded\\7 2017-q4-major\\lib\\gcc\\arm-none-eab
 1338              		.file 11 "c:\\program files (x86)\\gnu tools arm embedded\\7 2017-q4-major\\arm-none-eabi\\include
 1339              		.file 12 "c:\\program files (x86)\\gnu tools arm embedded\\7 2017-q4-major\\arm-none-eabi\\include
 1340              		.file 13 "c:\\program files (x86)\\gnu tools arm embedded\\7 2017-q4-major\\arm-none-eabi\\include
 1341              		.file 14 "c:\\program files (x86)\\gnu tools arm embedded\\7 2017-q4-major\\arm-none-eabi\\include
 1342              		.file 15 "c:\\program files (x86)\\gnu tools arm embedded\\7 2017-q4-major\\arm-none-eabi\\include
 1343              		.file 16 "C:/Users/Prashant/STM32Cube/Repository/STM32Cube_FW_F4_V1.21.0/Drivers/CMSIS/Include/cor
 1344              		.file 17 "C:/Users/Prashant/STM32Cube/Repository/STM32Cube_FW_F4_V1.21.0/Drivers/CMSIS/Device/ST/S
 1345              		.file 18 "C:/Users/Prashant/STM32Cube/Repository/STM32Cube_FW_F4_V1.21.0/Drivers/CMSIS/Device/ST/S
 1346              		.file 19 "C:/Users/Prashant/STM32Cube/Repository/STM32Cube_FW_F4_V1.21.0/Drivers/CMSIS/Device/ST/S
 1347              		.file 20 "C:/Users/Prashant/STM32Cube/Repository/STM32Cube_FW_F4_V1.21.0/Drivers/STM32F4xx_HAL_Dri
 1348              		.file 21 "C:/Users/Prashant/STM32Cube/Repository/STM32Cube_FW_F4_V1.21.0/Drivers/STM32F4xx_HAL_Dri
 1349              		.file 22 "C:/Users/Prashant/STM32Cube/Repository/STM32Cube_FW_F4_V1.21.0/Drivers/STM32F4xx_HAL_Dri
 1350              		.file 23 "C:/Users/Prashant/STM32Cube/Repository/STM32Cube_FW_F4_V1.21.0/Drivers/STM32F4xx_HAL_Dri
 1351              		.file 24 "Core/Inc\\periphs/i2c.h"
 1352              		.file 25 "Core/Inc/devs/mpu6050.h"
 1353              		.file 26 "Core/Inc/utils/smoothing_algorithm.h"
 1354              		.file 27 "<built-in>"
ARM GAS  C:\Users\Prashant\AppData\Local\Temp\ccoUHb4u.s 			page 33

