ARM GAS  C:\Users\Prashant\AppData\Local\Temp\ccSc8lg5.s 			page 1


   1              		.cpu cortex-m4
   2              		.eabi_attribute 27, 1
   3              		.eabi_attribute 28, 1
   4              		.eabi_attribute 20, 1
   5              		.eabi_attribute 21, 1
   6              		.eabi_attribute 23, 3
   7              		.eabi_attribute 24, 1
   8              		.eabi_attribute 25, 1
   9              		.eabi_attribute 26, 1
  10              		.eabi_attribute 30, 1
  11              		.eabi_attribute 34, 1
  12              		.eabi_attribute 18, 4
  13              		.file	"int_config.cpp"
  14              		.text
  15              	.Ltext0:
  16              		.cfi_sections	.debug_frame
  17              		.section	.text.HAL_GPIO_EXTI_Callback,"ax",%progbits
  18              		.align	1
  19              		.global	HAL_GPIO_EXTI_Callback
  20              		.syntax unified
  21              		.thumb
  22              		.thumb_func
  23              		.fpu fpv4-sp-d16
  25              	HAL_GPIO_EXTI_Callback:
  26              	.LFB154:
  27              		.file 1 "Core/Src/robot/int_config.cpp"
   1:Core/Src/robot/int_config.cpp **** /*
   2:Core/Src/robot/int_config.cpp ****  * int_config.cpp
   3:Core/Src/robot/int_config.cpp ****  * 
   4:Core/Src/robot/int_config.cpp ****  * Created : 11/16/2018
   5:Core/Src/robot/int_config.cpp ****  *  Author : n-is
   6:Core/Src/robot/int_config.cpp ****  *   email : 073bex422.nischal@pcampus.edu.np
   7:Core/Src/robot/int_config.cpp ****  */
   8:Core/Src/robot/int_config.cpp **** 
   9:Core/Src/robot/int_config.cpp **** #include "robot/devs_config.h"
  10:Core/Src/robot/int_config.cpp **** 
  11:Core/Src/robot/int_config.cpp **** 
  12:Core/Src/robot/int_config.cpp **** void HAL_GPIO_EXTI_Callback(uint16_t GPIO_Pin)
  13:Core/Src/robot/int_config.cpp **** {
  28              		.loc 1 13 0
  29              		.cfi_startproc
  30              		@ args = 0, pretend = 0, frame = 0
  31              		@ frame_needed = 0, uses_anonymous_args = 0
  32              	.LVL0:
  33 0000 08B5     		push	{r3, lr}
  34              	.LCFI0:
  35              		.cfi_def_cfa_offset 8
  36              		.cfi_offset 3, -8
  37              		.cfi_offset 14, -4
  14:Core/Src/robot/int_config.cpp ****         switch (GPIO_Pin) {
  38              		.loc 1 14 0
  39 0002 1028     		cmp	r0, #16
  40 0004 03D0     		beq	.L3
  41 0006 B0F5005F 		cmp	r0, #8192
  42 000a 04D0     		beq	.L4
  43              	.LVL1:
  44              	.L1:
ARM GAS  C:\Users\Prashant\AppData\Local\Temp\ccSc8lg5.s 			page 2


  15:Core/Src/robot/int_config.cpp ****                 // This interrupt pin is connected to gXEncoder
  16:Core/Src/robot/int_config.cpp ****                 case GPIO_PIN_4 : {     // PA4
  17:Core/Src/robot/int_config.cpp ****                         Encoder_HandleCount(&gXEncoder);
  18:Core/Src/robot/int_config.cpp ****                 } break;
  19:Core/Src/robot/int_config.cpp ****                 
  20:Core/Src/robot/int_config.cpp ****                 // This interrupt pin is connected to gYEncoder
  21:Core/Src/robot/int_config.cpp ****                 case GPIO_PIN_13 : {    // PD13
  22:Core/Src/robot/int_config.cpp ****                         Encoder_HandleCount(&gYEncoder);
  23:Core/Src/robot/int_config.cpp ****                 } break;
  24:Core/Src/robot/int_config.cpp ****         }
  25:Core/Src/robot/int_config.cpp **** }
  45              		.loc 1 25 0
  46 000c 08BD     		pop	{r3, pc}
  47              	.LVL2:
  48              	.L3:
  17:Core/Src/robot/int_config.cpp ****                 } break;
  49              		.loc 1 17 0
  50 000e 0448     		ldr	r0, .L6
  51              	.LVL3:
  52 0010 FFF7FEFF 		bl	_Z19Encoder_HandleCountP7Encoder
  53              	.LVL4:
  18:Core/Src/robot/int_config.cpp ****                 
  54              		.loc 1 18 0
  55 0014 FAE7     		b	.L1
  56              	.LVL5:
  57              	.L4:
  22:Core/Src/robot/int_config.cpp ****                 } break;
  58              		.loc 1 22 0
  59 0016 0348     		ldr	r0, .L6+4
  60              	.LVL6:
  61 0018 FFF7FEFF 		bl	_Z19Encoder_HandleCountP7Encoder
  62              	.LVL7:
  63              		.loc 1 25 0
  64 001c F6E7     		b	.L1
  65              	.L7:
  66 001e 00BF     		.align	2
  67              	.L6:
  68 0020 00000000 		.word	gXEncoder
  69 0024 00000000 		.word	gYEncoder
  70              		.cfi_endproc
  71              	.LFE154:
  73              		.section	.text.HAL_UART_RxCpltCallback,"ax",%progbits
  74              		.align	1
  75              		.global	HAL_UART_RxCpltCallback
  76              		.syntax unified
  77              		.thumb
  78              		.thumb_func
  79              		.fpu fpv4-sp-d16
  81              	HAL_UART_RxCpltCallback:
  82              	.LFB155:
  26:Core/Src/robot/int_config.cpp **** 
  27:Core/Src/robot/int_config.cpp **** void HAL_UART_RxCpltCallback(UART_HandleTypeDef *huart)
  28:Core/Src/robot/int_config.cpp **** {
  83              		.loc 1 28 0
  84              		.cfi_startproc
  85              		@ args = 0, pretend = 0, frame = 0
  86              		@ frame_needed = 0, uses_anonymous_args = 0
ARM GAS  C:\Users\Prashant\AppData\Local\Temp\ccSc8lg5.s 			page 3


  87              	.LVL8:
  88 0000 08B5     		push	{r3, lr}
  89              	.LCFI1:
  90              		.cfi_def_cfa_offset 8
  91              		.cfi_offset 3, -8
  92              		.cfi_offset 14, -4
  29:Core/Src/robot/int_config.cpp ****         if (huart->Instance == USART3) {
  93              		.loc 1 29 0
  94 0002 0268     		ldr	r2, [r0]
  95 0004 034B     		ldr	r3, .L12
  96 0006 9A42     		cmp	r2, r3
  97 0008 00D0     		beq	.L11
  98              	.LVL9:
  99              	.L8:
  30:Core/Src/robot/int_config.cpp ****                 LIDAR_UART3_RxCpltCallback();
  31:Core/Src/robot/int_config.cpp ****         }
  32:Core/Src/robot/int_config.cpp **** }
 100              		.loc 1 32 0
 101 000a 08BD     		pop	{r3, pc}
 102              	.LVL10:
 103              	.L11:
  30:Core/Src/robot/int_config.cpp ****                 LIDAR_UART3_RxCpltCallback();
 104              		.loc 1 30 0
 105 000c FFF7FEFF 		bl	_Z26LIDAR_UART3_RxCpltCallbackv
 106              	.LVL11:
 107              		.loc 1 32 0
 108 0010 FBE7     		b	.L8
 109              	.L13:
 110 0012 00BF     		.align	2
 111              	.L12:
 112 0014 00480040 		.word	1073760256
 113              		.cfi_endproc
 114              	.LFE155:
 116              		.section	.text.HAL_UART_TxCpltCallback,"ax",%progbits
 117              		.align	1
 118              		.global	HAL_UART_TxCpltCallback
 119              		.syntax unified
 120              		.thumb
 121              		.thumb_func
 122              		.fpu fpv4-sp-d16
 124              	HAL_UART_TxCpltCallback:
 125              	.LFB156:
  33:Core/Src/robot/int_config.cpp **** 
  34:Core/Src/robot/int_config.cpp **** void HAL_UART_TxCpltCallback(UART_HandleTypeDef *huart)
  35:Core/Src/robot/int_config.cpp **** {
 126              		.loc 1 35 0
 127              		.cfi_startproc
 128              		@ args = 0, pretend = 0, frame = 0
 129              		@ frame_needed = 0, uses_anonymous_args = 0
 130              	.LVL12:
 131 0000 08B5     		push	{r3, lr}
 132              	.LCFI2:
 133              		.cfi_def_cfa_offset 8
 134              		.cfi_offset 3, -8
 135              		.cfi_offset 14, -4
  36:Core/Src/robot/int_config.cpp ****         if (huart->Instance == USART2) {
 136              		.loc 1 36 0
ARM GAS  C:\Users\Prashant\AppData\Local\Temp\ccSc8lg5.s 			page 4


 137 0002 0268     		ldr	r2, [r0]
 138 0004 034B     		ldr	r3, .L18
 139 0006 9A42     		cmp	r2, r3
 140 0008 00D0     		beq	.L17
 141              	.LVL13:
 142              	.L14:
  37:Core/Src/robot/int_config.cpp ****                 Wheeler_UART2_TxCpltCallback();
  38:Core/Src/robot/int_config.cpp ****         }
  39:Core/Src/robot/int_config.cpp **** }
 143              		.loc 1 39 0
 144 000a 08BD     		pop	{r3, pc}
 145              	.LVL14:
 146              	.L17:
  37:Core/Src/robot/int_config.cpp ****                 Wheeler_UART2_TxCpltCallback();
 147              		.loc 1 37 0
 148 000c FFF7FEFF 		bl	_Z28Wheeler_UART2_TxCpltCallbackv
 149              	.LVL15:
 150              		.loc 1 39 0
 151 0010 FBE7     		b	.L14
 152              	.L19:
 153 0012 00BF     		.align	2
 154              	.L18:
 155 0014 00440040 		.word	1073759232
 156              		.cfi_endproc
 157              	.LFE156:
 159              		.text
 160              	.Letext0:
 161              		.file 2 "c:\\program files (x86)\\gnu tools arm embedded\\7 2017-q4-major\\arm-none-eabi\\include\
 162              		.file 3 "c:\\program files (x86)\\gnu tools arm embedded\\7 2017-q4-major\\arm-none-eabi\\include\
 163              		.file 4 "C:/Users/Prashant/STM32Cube/Repository/STM32Cube_FW_F4_V1.21.0/Drivers/CMSIS/Include/core
 164              		.file 5 "C:/Users/Prashant/STM32Cube/Repository/STM32Cube_FW_F4_V1.21.0/Drivers/CMSIS/Device/ST/ST
 165              		.file 6 "C:/Users/Prashant/STM32Cube/Repository/STM32Cube_FW_F4_V1.21.0/Drivers/CMSIS/Device/ST/ST
 166              		.file 7 "c:\\program files (x86)\\gnu tools arm embedded\\7 2017-q4-major\\arm-none-eabi\\include\
 167              		.file 8 "c:\\program files (x86)\\gnu tools arm embedded\\7 2017-q4-major\\arm-none-eabi\\include\
 168              		.file 9 "c:\\program files (x86)\\gnu tools arm embedded\\7 2017-q4-major\\lib\\gcc\\arm-none-eabi
 169              		.file 10 "c:\\program files (x86)\\gnu tools arm embedded\\7 2017-q4-major\\arm-none-eabi\\include
 170              		.file 11 "C:/Users/Prashant/STM32Cube/Repository/STM32Cube_FW_F4_V1.21.0/Drivers/STM32F4xx_HAL_Dri
 171              		.file 12 "C:/Users/Prashant/STM32Cube/Repository/STM32Cube_FW_F4_V1.21.0/Drivers/STM32F4xx_HAL_Dri
 172              		.file 13 "C:/Users/Prashant/STM32Cube/Repository/STM32Cube_FW_F4_V1.21.0/Drivers/STM32F4xx_HAL_Dri
 173              		.file 14 "C:/Users/Prashant/STM32Cube/Repository/STM32Cube_FW_F4_V1.21.0/Drivers/STM32F4xx_HAL_Dri
 174              		.file 15 "C:/Users/Prashant/STM32Cube/Repository/STM32Cube_FW_F4_V1.21.0/Drivers/STM32F4xx_HAL_Dri
 175              		.file 16 "Core/Inc/periphs/i2c.h"
 176              		.file 17 "Core/Inc/periphs/tim.h"
 177              		.file 18 "Core/Inc/devs/mpu6050.h"
 178              		.file 19 "Core/Inc\\utils/vec3.h"
 179              		.file 20 "Core/Inc/devs/a4988.h"
 180              		.file 21 "Core/Inc/devs/hmc5883.h"
 181              		.file 22 "Core/Inc/devs/encoder.h"
 182              		.file 23 "Core/Inc/periphs/usart.h"
 183              		.file 24 "Core/Inc\\devs/wheeler.h"
 184              		.file 25 "Core/Inc/robot/devs_config.h"
 185              		.file 26 "Core/Inc/devs/lidar.h"
ARM GAS  C:\Users\Prashant\AppData\Local\Temp\ccSc8lg5.s 			page 5

