ARM GAS  C:\Users\Prashant\AppData\Local\Temp\ccVs7dbm.s 			page 1


   1              		.cpu cortex-m4
   2              		.eabi_attribute 27, 1
   3              		.eabi_attribute 28, 1
   4              		.eabi_attribute 20, 1
   5              		.eabi_attribute 21, 1
   6              		.eabi_attribute 23, 3
   7              		.eabi_attribute 24, 1
   8              		.eabi_attribute 25, 1
   9              		.eabi_attribute 26, 1
  10              		.eabi_attribute 30, 1
  11              		.eabi_attribute 34, 1
  12              		.eabi_attribute 18, 4
  13              		.file	"main.cpp"
  14              		.text
  15              	.Ltext0:
  16              		.cfi_sections	.debug_frame
  17              		.section	.text._Error_Handler,"ax",%progbits
  18              		.align	1
  19              		.global	_Error_Handler
  20              		.syntax unified
  21              		.thumb
  22              		.thumb_func
  23              		.fpu fpv4-sp-d16
  25              	_Error_Handler:
  26              	.LFB475:
  27              		.file 1 "Core/Src/main.cpp"
   1:Core/Src/main.cpp **** 
   2:Core/Src/main.cpp **** /**
   3:Core/Src/main.cpp ****   ******************************************************************************
   4:Core/Src/main.cpp ****   * @file           : main.c
   5:Core/Src/main.cpp ****   * @brief          : Main program body
   6:Core/Src/main.cpp ****   ******************************************************************************
   7:Core/Src/main.cpp ****   ** This notice applies to any and all portions of this file
   8:Core/Src/main.cpp ****   * that are not between comment pairs USER CODE BEGIN and
   9:Core/Src/main.cpp ****   * USER CODE END. Other portions of this file, whether 
  10:Core/Src/main.cpp ****   * inserted by the user or by software development tools
  11:Core/Src/main.cpp ****   * are owned by their respective copyright owners.
  12:Core/Src/main.cpp ****   *
  13:Core/Src/main.cpp ****   * COPYRIGHT(c) 2018 STMicroelectronics
  14:Core/Src/main.cpp ****   *
  15:Core/Src/main.cpp ****   * Redistribution and use in source and binary forms, with or without modification,
  16:Core/Src/main.cpp ****   * are permitted provided that the following conditions are met:
  17:Core/Src/main.cpp ****   *   1. Redistributions of source code must retain the above copyright notice,
  18:Core/Src/main.cpp ****   *      this list of conditions and the following disclaimer.
  19:Core/Src/main.cpp ****   *   2. Redistributions in binary form must reproduce the above copyright notice,
  20:Core/Src/main.cpp ****   *      this list of conditions and the following disclaimer in the documentation
  21:Core/Src/main.cpp ****   *      and/or other materials provided with the distribution.
  22:Core/Src/main.cpp ****   *   3. Neither the name of STMicroelectronics nor the names of its contributors
  23:Core/Src/main.cpp ****   *      may be used to endorse or promote products derived from this software
  24:Core/Src/main.cpp ****   *      without specific prior written permission.
  25:Core/Src/main.cpp ****   *
  26:Core/Src/main.cpp ****   * THIS SOFTWARE IS PROVIDED BY THE COPYRIGHT HOLDERS AND CONTRIBUTORS "AS IS"
  27:Core/Src/main.cpp ****   * AND ANY EXPRESS OR IMPLIED WARRANTIES, INCLUDING, BUT NOT LIMITED TO, THE
  28:Core/Src/main.cpp ****   * IMPLIED WARRANTIES OF MERCHANTABILITY AND FITNESS FOR A PARTICULAR PURPOSE ARE
  29:Core/Src/main.cpp ****   * DISCLAIMED. IN NO EVENT SHALL THE COPYRIGHT HOLDER OR CONTRIBUTORS BE LIABLE
  30:Core/Src/main.cpp ****   * FOR ANY DIRECT, INDIRECT, INCIDENTAL, SPECIAL, EXEMPLARY, OR CONSEQUENTIAL
  31:Core/Src/main.cpp ****   * DAMAGES (INCLUDING, BUT NOT LIMITED TO, PROCUREMENT OF SUBSTITUTE GOODS OR
ARM GAS  C:\Users\Prashant\AppData\Local\Temp\ccVs7dbm.s 			page 2


  32:Core/Src/main.cpp ****   * SERVICES; LOSS OF USE, DATA, OR PROFITS; OR BUSINESS INTERRUPTION) HOWEVER
  33:Core/Src/main.cpp ****   * CAUSED AND ON ANY THEORY OF LIABILITY, WHETHER IN CONTRACT, STRICT LIABILITY,
  34:Core/Src/main.cpp ****   * OR TORT (INCLUDING NEGLIGENCE OR OTHERWISE) ARISING IN ANY WAY OUT OF THE USE
  35:Core/Src/main.cpp ****   * OF THIS SOFTWARE, EVEN IF ADVISED OF THE POSSIBILITY OF SUCH DAMAGE.
  36:Core/Src/main.cpp ****   *
  37:Core/Src/main.cpp ****   ******************************************************************************
  38:Core/Src/main.cpp ****   */
  39:Core/Src/main.cpp **** /* Includes ------------------------------------------------------------------*/
  40:Core/Src/main.cpp **** #include "main.h"
  41:Core/Src/main.cpp **** #include "stm32f4xx_hal.h"
  42:Core/Src/main.cpp **** #include "adc.h"
  43:Core/Src/main.cpp **** #include "dma.h"
  44:Core/Src/main.cpp **** #include "i2c.h"
  45:Core/Src/main.cpp **** #include "spi.h"
  46:Core/Src/main.cpp **** #include "tim.h"
  47:Core/Src/main.cpp **** #include "usart.h"
  48:Core/Src/main.cpp **** #include "gpio.h"
  49:Core/Src/main.cpp **** /* USER CODE BEGIN Includes */
  50:Core/Src/main.cpp **** #include "robot/play.h"
  51:Core/Src/main.cpp **** #include "robot/robo_init.h"
  52:Core/Src/main.cpp **** #include "utils/i2c_utils.h"
  53:Core/Src/main.cpp **** /* USER CODE END Includes */
  54:Core/Src/main.cpp **** 
  55:Core/Src/main.cpp **** /* Private variables ---------------------------------------------------------*/
  56:Core/Src/main.cpp **** 
  57:Core/Src/main.cpp **** /* USER CODE BEGIN PV */
  58:Core/Src/main.cpp **** /* Private variables ---------------------------------------------------------*/
  59:Core/Src/main.cpp **** 
  60:Core/Src/main.cpp **** /* USER CODE END PV */
  61:Core/Src/main.cpp **** 
  62:Core/Src/main.cpp **** /* Private function prototypes -----------------------------------------------*/
  63:Core/Src/main.cpp **** void SystemClock_Config(void);
  64:Core/Src/main.cpp **** 
  65:Core/Src/main.cpp **** /* USER CODE BEGIN PFP */
  66:Core/Src/main.cpp **** /* Private function prototypes -----------------------------------------------*/
  67:Core/Src/main.cpp **** 
  68:Core/Src/main.cpp **** /* USER CODE END PFP */
  69:Core/Src/main.cpp **** 
  70:Core/Src/main.cpp **** /* USER CODE BEGIN 0 */
  71:Core/Src/main.cpp **** 
  72:Core/Src/main.cpp **** /* USER CODE END 0 */
  73:Core/Src/main.cpp **** 
  74:Core/Src/main.cpp **** /**
  75:Core/Src/main.cpp ****   * @brief  The application entry point.
  76:Core/Src/main.cpp ****   *
  77:Core/Src/main.cpp ****   * @retval None
  78:Core/Src/main.cpp ****   */
  79:Core/Src/main.cpp **** int main(void)
  80:Core/Src/main.cpp **** {
  81:Core/Src/main.cpp ****         /* USER CODE BEGIN 1 */
  82:Core/Src/main.cpp **** 
  83:Core/Src/main.cpp ****         /* USER CODE END 1 */
  84:Core/Src/main.cpp **** 
  85:Core/Src/main.cpp ****         /* MCU Configuration----------------------------------------------------------*/
  86:Core/Src/main.cpp **** 
  87:Core/Src/main.cpp ****         /* Reset of all peripherals, Initializes the Flash interface and the Systick. */
  88:Core/Src/main.cpp ****         HAL_Init();
ARM GAS  C:\Users\Prashant\AppData\Local\Temp\ccVs7dbm.s 			page 3


  89:Core/Src/main.cpp **** 
  90:Core/Src/main.cpp ****         /* USER CODE BEGIN Init */
  91:Core/Src/main.cpp **** 
  92:Core/Src/main.cpp ****         /* USER CODE END Init */
  93:Core/Src/main.cpp **** 
  94:Core/Src/main.cpp ****         /* Configure the system clock */
  95:Core/Src/main.cpp ****         SystemClock_Config();
  96:Core/Src/main.cpp **** 
  97:Core/Src/main.cpp ****         /* USER CODE BEGIN SysInit */
  98:Core/Src/main.cpp **** 
  99:Core/Src/main.cpp ****         /* USER CODE END SysInit */
 100:Core/Src/main.cpp **** 
 101:Core/Src/main.cpp ****         /* Initialize all configured peripherals */
 102:Core/Src/main.cpp ****         MX_GPIO_Init();
 103:Core/Src/main.cpp ****         MX_DMA_Init();
 104:Core/Src/main.cpp ****         MX_SPI3_Init();
 105:Core/Src/main.cpp ****         MX_I2C3_Init();
 106:Core/Src/main.cpp ****         MX_USART2_UART_Init();
 107:Core/Src/main.cpp ****         MX_I2C1_Init();
 108:Core/Src/main.cpp ****         MX_UART4_Init();
 109:Core/Src/main.cpp ****         MX_ADC1_Init();
 110:Core/Src/main.cpp ****         MX_SPI1_Init();
 111:Core/Src/main.cpp ****         MX_I2C2_Init();
 112:Core/Src/main.cpp ****         MX_USART3_UART_Init();
 113:Core/Src/main.cpp ****         MX_USART6_UART_Init();
 114:Core/Src/main.cpp ****         MX_TIM2_Init();
 115:Core/Src/main.cpp ****         /* USER CODE BEGIN 2 */
 116:Core/Src/main.cpp **** 
 117:Core/Src/main.cpp ****         const uint32_t sampling_period = 10; // milli-seconds
 118:Core/Src/main.cpp **** 
 119:Core/Src/main.cpp ****         HAL_Delay(100);
 120:Core/Src/main.cpp ****         if (HAL_I2C_IsDeviceReady(&hi2c1, 0x3C, 1, 10) != HAL_OK) {
 121:Core/Src/main.cpp ****                 HAL_GPIO_WritePin(GPIOD, GPIO_PIN_14, GPIO_PIN_SET);
 122:Core/Src/main.cpp ****         }
 123:Core/Src/main.cpp ****         if (HAL_I2C_IsDeviceReady(&hi2c1, 0xD0, 1, 10) != HAL_OK) {
 124:Core/Src/main.cpp ****                 HAL_GPIO_WritePin(GPIOD, GPIO_PIN_14, GPIO_PIN_SET);
 125:Core/Src/main.cpp ****         }
 126:Core/Src/main.cpp ****         // print_I2C_Addresses(&hi2c1);
 127:Core/Src/main.cpp ****         robo_Init(sampling_period);
 128:Core/Src/main.cpp **** 
 129:Core/Src/main.cpp ****         const char * greet = "Hello World!!\n";
 130:Core/Src/main.cpp ****         printf(greet);
 131:Core/Src/main.cpp **** 
 132:Core/Src/main.cpp ****         /* USER CODE END 2 */
 133:Core/Src/main.cpp **** 
 134:Core/Src/main.cpp ****         /* Infinite loop */
 135:Core/Src/main.cpp ****         /* USER CODE BEGIN WHILE */
 136:Core/Src/main.cpp ****         uint32_t sample = HAL_GetTick();
 137:Core/Src/main.cpp ****         HAL_GPIO_WritePin(GPIOD, GPIO_PIN_15, GPIO_PIN_SET);
 138:Core/Src/main.cpp ****         while (1)
 139:Core/Src/main.cpp ****         {
 140:Core/Src/main.cpp ****                 /* USER CODE END WHILE */
 141:Core/Src/main.cpp **** 
 142:Core/Src/main.cpp ****                 /* USER CODE BEGIN 3 */
 143:Core/Src/main.cpp ****                 if (HAL_GetTick() - sample > sampling_period) {
 144:Core/Src/main.cpp ****                         sample = HAL_GetTick();
 145:Core/Src/main.cpp ****                         play(sampling_period);
ARM GAS  C:\Users\Prashant\AppData\Local\Temp\ccVs7dbm.s 			page 4


 146:Core/Src/main.cpp ****                 }
 147:Core/Src/main.cpp ****         }
 148:Core/Src/main.cpp ****         /* USER CODE END 3 */
 149:Core/Src/main.cpp **** }
 150:Core/Src/main.cpp **** 
 151:Core/Src/main.cpp **** /**
 152:Core/Src/main.cpp ****   * @brief System Clock Configuration
 153:Core/Src/main.cpp ****   * @retval None
 154:Core/Src/main.cpp ****   */
 155:Core/Src/main.cpp **** void SystemClock_Config(void)
 156:Core/Src/main.cpp **** {
 157:Core/Src/main.cpp **** 
 158:Core/Src/main.cpp ****         RCC_OscInitTypeDef RCC_OscInitStruct;
 159:Core/Src/main.cpp ****         RCC_ClkInitTypeDef RCC_ClkInitStruct;
 160:Core/Src/main.cpp **** 
 161:Core/Src/main.cpp ****         /**Configure the main internal regulator output voltage 
 162:Core/Src/main.cpp ****     */
 163:Core/Src/main.cpp ****         __HAL_RCC_PWR_CLK_ENABLE();
 164:Core/Src/main.cpp **** 
 165:Core/Src/main.cpp ****         __HAL_PWR_VOLTAGESCALING_CONFIG(PWR_REGULATOR_VOLTAGE_SCALE1);
 166:Core/Src/main.cpp **** 
 167:Core/Src/main.cpp ****         /**Initializes the CPU, AHB and APB busses clocks 
 168:Core/Src/main.cpp ****     */
 169:Core/Src/main.cpp ****         RCC_OscInitStruct.OscillatorType = RCC_OSCILLATORTYPE_HSE;
 170:Core/Src/main.cpp ****         RCC_OscInitStruct.HSEState = RCC_HSE_ON;
 171:Core/Src/main.cpp ****         RCC_OscInitStruct.PLL.PLLState = RCC_PLL_ON;
 172:Core/Src/main.cpp ****         RCC_OscInitStruct.PLL.PLLSource = RCC_PLLSOURCE_HSE;
 173:Core/Src/main.cpp ****         RCC_OscInitStruct.PLL.PLLM = 8;
 174:Core/Src/main.cpp ****         RCC_OscInitStruct.PLL.PLLN = 336;
 175:Core/Src/main.cpp ****         RCC_OscInitStruct.PLL.PLLP = RCC_PLLP_DIV2;
 176:Core/Src/main.cpp ****         RCC_OscInitStruct.PLL.PLLQ = 4;
 177:Core/Src/main.cpp ****         if (HAL_RCC_OscConfig(&RCC_OscInitStruct) != HAL_OK)
 178:Core/Src/main.cpp ****         {
 179:Core/Src/main.cpp ****                 _Error_Handler(__FILE__, __LINE__);
 180:Core/Src/main.cpp ****         }
 181:Core/Src/main.cpp **** 
 182:Core/Src/main.cpp ****         /**Initializes the CPU, AHB and APB busses clocks 
 183:Core/Src/main.cpp ****     */
 184:Core/Src/main.cpp ****         RCC_ClkInitStruct.ClockType = RCC_CLOCKTYPE_HCLK | RCC_CLOCKTYPE_SYSCLK | RCC_CLOCKTYPE_PCL
 185:Core/Src/main.cpp ****         RCC_ClkInitStruct.SYSCLKSource = RCC_SYSCLKSOURCE_PLLCLK;
 186:Core/Src/main.cpp ****         RCC_ClkInitStruct.AHBCLKDivider = RCC_SYSCLK_DIV1;
 187:Core/Src/main.cpp ****         RCC_ClkInitStruct.APB1CLKDivider = RCC_HCLK_DIV4;
 188:Core/Src/main.cpp ****         RCC_ClkInitStruct.APB2CLKDivider = RCC_HCLK_DIV2;
 189:Core/Src/main.cpp **** 
 190:Core/Src/main.cpp ****         if (HAL_RCC_ClockConfig(&RCC_ClkInitStruct, FLASH_LATENCY_5) != HAL_OK)
 191:Core/Src/main.cpp ****         {
 192:Core/Src/main.cpp ****                 _Error_Handler(__FILE__, __LINE__);
 193:Core/Src/main.cpp ****         }
 194:Core/Src/main.cpp **** 
 195:Core/Src/main.cpp ****         /**Configure the Systick interrupt time 
 196:Core/Src/main.cpp ****     */
 197:Core/Src/main.cpp ****         HAL_SYSTICK_Config(HAL_RCC_GetHCLKFreq() / 1000);
 198:Core/Src/main.cpp **** 
 199:Core/Src/main.cpp ****         /**Configure the Systick 
 200:Core/Src/main.cpp ****     */
 201:Core/Src/main.cpp ****         HAL_SYSTICK_CLKSourceConfig(SYSTICK_CLKSOURCE_HCLK);
 202:Core/Src/main.cpp **** 
ARM GAS  C:\Users\Prashant\AppData\Local\Temp\ccVs7dbm.s 			page 5


 203:Core/Src/main.cpp ****         /* SysTick_IRQn interrupt configuration */
 204:Core/Src/main.cpp ****         HAL_NVIC_SetPriority(SysTick_IRQn, 0, 0);
 205:Core/Src/main.cpp **** }
 206:Core/Src/main.cpp **** 
 207:Core/Src/main.cpp **** /* USER CODE BEGIN 4 */
 208:Core/Src/main.cpp **** /* USER CODE END 4 */
 209:Core/Src/main.cpp **** 
 210:Core/Src/main.cpp **** /**
 211:Core/Src/main.cpp ****   * @brief  This function is executed in case of error occurrence.
 212:Core/Src/main.cpp ****   * @param  file: The file name as string.
 213:Core/Src/main.cpp ****   * @param  line: The line in file as a number.
 214:Core/Src/main.cpp ****   * @retval None
 215:Core/Src/main.cpp ****   */
 216:Core/Src/main.cpp **** void _Error_Handler(const char *file, int line)
 217:Core/Src/main.cpp **** {
  28              		.loc 1 217 0
  29              		.cfi_startproc
  30              		@ Volatile: function does not return.
  31              		@ args = 0, pretend = 0, frame = 0
  32              		@ frame_needed = 0, uses_anonymous_args = 0
  33              	.LVL0:
  34 0000 08B5     		push	{r3, lr}
  35              	.LCFI0:
  36              		.cfi_def_cfa_offset 8
  37              		.cfi_offset 3, -8
  38              		.cfi_offset 14, -4
 218:Core/Src/main.cpp ****         /* USER CODE BEGIN Error_Handler_Debug */
 219:Core/Src/main.cpp ****         /* User can add his own implementation to report the HAL error return state */
 220:Core/Src/main.cpp ****         printf(file);
  39              		.loc 1 220 0
  40 0002 FFF7FEFF 		bl	printf
  41              	.LVL1:
  42              	.L2:
  43 0006 FEE7     		b	.L2
  44              		.cfi_endproc
  45              	.LFE475:
  47              		.section	.text._Z18SystemClock_Configv,"ax",%progbits
  48              		.align	1
  49              		.global	_Z18SystemClock_Configv
  50              		.syntax unified
  51              		.thumb
  52              		.thumb_func
  53              		.fpu fpv4-sp-d16
  55              	_Z18SystemClock_Configv:
  56              	.LFB474:
 156:Core/Src/main.cpp **** 
  57              		.loc 1 156 0
  58              		.cfi_startproc
  59              		@ args = 0, pretend = 0, frame = 80
  60              		@ frame_needed = 0, uses_anonymous_args = 0
  61 0000 00B5     		push	{lr}
  62              	.LCFI1:
  63              		.cfi_def_cfa_offset 4
  64              		.cfi_offset 14, -4
  65 0002 95B0     		sub	sp, sp, #84
  66              	.LCFI2:
  67              		.cfi_def_cfa_offset 88
ARM GAS  C:\Users\Prashant\AppData\Local\Temp\ccVs7dbm.s 			page 6


  68              	.LBB2:
 163:Core/Src/main.cpp **** 
  69              		.loc 1 163 0
  70 0004 0021     		movs	r1, #0
  71 0006 0191     		str	r1, [sp, #4]
  72 0008 2B4B     		ldr	r3, .L10
  73 000a 1A6C     		ldr	r2, [r3, #64]
  74 000c 42F08052 		orr	r2, r2, #268435456
  75 0010 1A64     		str	r2, [r3, #64]
  76 0012 1B6C     		ldr	r3, [r3, #64]
  77 0014 03F08053 		and	r3, r3, #268435456
  78 0018 0193     		str	r3, [sp, #4]
  79 001a 019B     		ldr	r3, [sp, #4]
  80              	.LBE2:
  81              	.LBB3:
 165:Core/Src/main.cpp **** 
  82              		.loc 1 165 0
  83 001c 0291     		str	r1, [sp, #8]
  84 001e 274B     		ldr	r3, .L10+4
  85 0020 1A68     		ldr	r2, [r3]
  86 0022 42F48042 		orr	r2, r2, #16384
  87 0026 1A60     		str	r2, [r3]
  88 0028 1B68     		ldr	r3, [r3]
  89 002a 03F48043 		and	r3, r3, #16384
  90 002e 0293     		str	r3, [sp, #8]
  91 0030 029B     		ldr	r3, [sp, #8]
  92              	.LBE3:
 169:Core/Src/main.cpp ****         RCC_OscInitStruct.HSEState = RCC_HSE_ON;
  93              		.loc 1 169 0
  94 0032 0123     		movs	r3, #1
  95 0034 0893     		str	r3, [sp, #32]
 170:Core/Src/main.cpp ****         RCC_OscInitStruct.PLL.PLLState = RCC_PLL_ON;
  96              		.loc 1 170 0
  97 0036 4FF48033 		mov	r3, #65536
  98 003a 0993     		str	r3, [sp, #36]
 171:Core/Src/main.cpp ****         RCC_OscInitStruct.PLL.PLLSource = RCC_PLLSOURCE_HSE;
  99              		.loc 1 171 0
 100 003c 0223     		movs	r3, #2
 101 003e 0E93     		str	r3, [sp, #56]
 172:Core/Src/main.cpp ****         RCC_OscInitStruct.PLL.PLLM = 8;
 102              		.loc 1 172 0
 103 0040 4FF48002 		mov	r2, #4194304
 104 0044 0F92     		str	r2, [sp, #60]
 173:Core/Src/main.cpp ****         RCC_OscInitStruct.PLL.PLLN = 336;
 105              		.loc 1 173 0
 106 0046 0822     		movs	r2, #8
 107 0048 1092     		str	r2, [sp, #64]
 174:Core/Src/main.cpp ****         RCC_OscInitStruct.PLL.PLLP = RCC_PLLP_DIV2;
 108              		.loc 1 174 0
 109 004a 4FF4A872 		mov	r2, #336
 110 004e 1192     		str	r2, [sp, #68]
 175:Core/Src/main.cpp ****         RCC_OscInitStruct.PLL.PLLQ = 4;
 111              		.loc 1 175 0
 112 0050 1293     		str	r3, [sp, #72]
 176:Core/Src/main.cpp ****         if (HAL_RCC_OscConfig(&RCC_OscInitStruct) != HAL_OK)
 113              		.loc 1 176 0
 114 0052 0423     		movs	r3, #4
ARM GAS  C:\Users\Prashant\AppData\Local\Temp\ccVs7dbm.s 			page 7


 115 0054 1393     		str	r3, [sp, #76]
 177:Core/Src/main.cpp ****         {
 116              		.loc 1 177 0
 117 0056 08A8     		add	r0, sp, #32
 118 0058 FFF7FEFF 		bl	HAL_RCC_OscConfig
 119              	.LVL2:
 120 005c 20BB     		cbnz	r0, .L8
 184:Core/Src/main.cpp ****         RCC_ClkInitStruct.SYSCLKSource = RCC_SYSCLKSOURCE_PLLCLK;
 121              		.loc 1 184 0
 122 005e 0F23     		movs	r3, #15
 123 0060 0393     		str	r3, [sp, #12]
 185:Core/Src/main.cpp ****         RCC_ClkInitStruct.AHBCLKDivider = RCC_SYSCLK_DIV1;
 124              		.loc 1 185 0
 125 0062 0223     		movs	r3, #2
 126 0064 0493     		str	r3, [sp, #16]
 186:Core/Src/main.cpp ****         RCC_ClkInitStruct.APB1CLKDivider = RCC_HCLK_DIV4;
 127              		.loc 1 186 0
 128 0066 0023     		movs	r3, #0
 129 0068 0593     		str	r3, [sp, #20]
 187:Core/Src/main.cpp ****         RCC_ClkInitStruct.APB2CLKDivider = RCC_HCLK_DIV2;
 130              		.loc 1 187 0
 131 006a 4FF4A053 		mov	r3, #5120
 132 006e 0693     		str	r3, [sp, #24]
 188:Core/Src/main.cpp **** 
 133              		.loc 1 188 0
 134 0070 4FF48053 		mov	r3, #4096
 135 0074 0793     		str	r3, [sp, #28]
 190:Core/Src/main.cpp ****         {
 136              		.loc 1 190 0
 137 0076 0521     		movs	r1, #5
 138 0078 03A8     		add	r0, sp, #12
 139 007a FFF7FEFF 		bl	HAL_RCC_ClockConfig
 140              	.LVL3:
 141 007e B8B9     		cbnz	r0, .L9
 197:Core/Src/main.cpp **** 
 142              		.loc 1 197 0
 143 0080 FFF7FEFF 		bl	HAL_RCC_GetHCLKFreq
 144              	.LVL4:
 145 0084 0E4B     		ldr	r3, .L10+8
 146 0086 A3FB0030 		umull	r3, r0, r3, r0
 147 008a 8009     		lsrs	r0, r0, #6
 148 008c FFF7FEFF 		bl	HAL_SYSTICK_Config
 149              	.LVL5:
 201:Core/Src/main.cpp **** 
 150              		.loc 1 201 0
 151 0090 0420     		movs	r0, #4
 152 0092 FFF7FEFF 		bl	HAL_SYSTICK_CLKSourceConfig
 153              	.LVL6:
 204:Core/Src/main.cpp **** }
 154              		.loc 1 204 0
 155 0096 0022     		movs	r2, #0
 156 0098 1146     		mov	r1, r2
 157 009a 4FF0FF30 		mov	r0, #-1
 158 009e FFF7FEFF 		bl	HAL_NVIC_SetPriority
 159              	.LVL7:
 205:Core/Src/main.cpp **** 
 160              		.loc 1 205 0
ARM GAS  C:\Users\Prashant\AppData\Local\Temp\ccVs7dbm.s 			page 8


 161 00a2 15B0     		add	sp, sp, #84
 162              	.LCFI3:
 163              		.cfi_remember_state
 164              		.cfi_def_cfa_offset 4
 165              		@ sp needed
 166 00a4 5DF804FB 		ldr	pc, [sp], #4
 167              	.L8:
 168              	.LCFI4:
 169              		.cfi_restore_state
 179:Core/Src/main.cpp ****         }
 170              		.loc 1 179 0
 171 00a8 B321     		movs	r1, #179
 172 00aa 0648     		ldr	r0, .L10+12
 173 00ac FFF7FEFF 		bl	_Error_Handler
 174              	.LVL8:
 175              	.L9:
 192:Core/Src/main.cpp ****         }
 176              		.loc 1 192 0
 177 00b0 C021     		movs	r1, #192
 178 00b2 0448     		ldr	r0, .L10+12
 179 00b4 FFF7FEFF 		bl	_Error_Handler
 180              	.LVL9:
 181              	.L11:
 182              		.align	2
 183              	.L10:
 184 00b8 00380240 		.word	1073887232
 185 00bc 00700040 		.word	1073770496
 186 00c0 D34D6210 		.word	274877907
 187 00c4 00000000 		.word	.LC0
 188              		.cfi_endproc
 189              	.LFE474:
 191              		.section	.text.main,"ax",%progbits
 192              		.align	1
 193              		.global	main
 194              		.syntax unified
 195              		.thumb
 196              		.thumb_func
 197              		.fpu fpv4-sp-d16
 199              	main:
 200              	.LFB473:
  80:Core/Src/main.cpp ****         /* USER CODE BEGIN 1 */
 201              		.loc 1 80 0
 202              		.cfi_startproc
 203              		@ args = 0, pretend = 0, frame = 0
 204              		@ frame_needed = 0, uses_anonymous_args = 0
 205 0000 10B5     		push	{r4, lr}
 206              	.LCFI5:
 207              		.cfi_def_cfa_offset 8
 208              		.cfi_offset 4, -8
 209              		.cfi_offset 14, -4
  88:Core/Src/main.cpp **** 
 210              		.loc 1 88 0
 211 0002 FFF7FEFF 		bl	HAL_Init
 212              	.LVL10:
  95:Core/Src/main.cpp **** 
 213              		.loc 1 95 0
 214 0006 FFF7FEFF 		bl	_Z18SystemClock_Configv
ARM GAS  C:\Users\Prashant\AppData\Local\Temp\ccVs7dbm.s 			page 9


 215              	.LVL11:
 102:Core/Src/main.cpp ****         MX_DMA_Init();
 216              		.loc 1 102 0
 217 000a FFF7FEFF 		bl	MX_GPIO_Init
 218              	.LVL12:
 103:Core/Src/main.cpp ****         MX_SPI3_Init();
 219              		.loc 1 103 0
 220 000e FFF7FEFF 		bl	MX_DMA_Init
 221              	.LVL13:
 104:Core/Src/main.cpp ****         MX_I2C3_Init();
 222              		.loc 1 104 0
 223 0012 FFF7FEFF 		bl	MX_SPI3_Init
 224              	.LVL14:
 105:Core/Src/main.cpp ****         MX_USART2_UART_Init();
 225              		.loc 1 105 0
 226 0016 FFF7FEFF 		bl	MX_I2C3_Init
 227              	.LVL15:
 106:Core/Src/main.cpp ****         MX_I2C1_Init();
 228              		.loc 1 106 0
 229 001a FFF7FEFF 		bl	MX_USART2_UART_Init
 230              	.LVL16:
 107:Core/Src/main.cpp ****         MX_UART4_Init();
 231              		.loc 1 107 0
 232 001e FFF7FEFF 		bl	MX_I2C1_Init
 233              	.LVL17:
 108:Core/Src/main.cpp ****         MX_ADC1_Init();
 234              		.loc 1 108 0
 235 0022 FFF7FEFF 		bl	MX_UART4_Init
 236              	.LVL18:
 109:Core/Src/main.cpp ****         MX_SPI1_Init();
 237              		.loc 1 109 0
 238 0026 FFF7FEFF 		bl	MX_ADC1_Init
 239              	.LVL19:
 110:Core/Src/main.cpp ****         MX_I2C2_Init();
 240              		.loc 1 110 0
 241 002a FFF7FEFF 		bl	MX_SPI1_Init
 242              	.LVL20:
 111:Core/Src/main.cpp ****         MX_USART3_UART_Init();
 243              		.loc 1 111 0
 244 002e FFF7FEFF 		bl	MX_I2C2_Init
 245              	.LVL21:
 112:Core/Src/main.cpp ****         MX_USART6_UART_Init();
 246              		.loc 1 112 0
 247 0032 FFF7FEFF 		bl	MX_USART3_UART_Init
 248              	.LVL22:
 113:Core/Src/main.cpp ****         MX_TIM2_Init();
 249              		.loc 1 113 0
 250 0036 FFF7FEFF 		bl	MX_USART6_UART_Init
 251              	.LVL23:
 114:Core/Src/main.cpp ****         /* USER CODE BEGIN 2 */
 252              		.loc 1 114 0
 253 003a FFF7FEFF 		bl	MX_TIM2_Init
 254              	.LVL24:
 119:Core/Src/main.cpp ****         if (HAL_I2C_IsDeviceReady(&hi2c1, 0x3C, 1, 10) != HAL_OK) {
 255              		.loc 1 119 0
 256 003e 6420     		movs	r0, #100
 257 0040 FFF7FEFF 		bl	HAL_Delay
ARM GAS  C:\Users\Prashant\AppData\Local\Temp\ccVs7dbm.s 			page 10


 258              	.LVL25:
 120:Core/Src/main.cpp ****                 HAL_GPIO_WritePin(GPIOD, GPIO_PIN_14, GPIO_PIN_SET);
 259              		.loc 1 120 0
 260 0044 0A23     		movs	r3, #10
 261 0046 0122     		movs	r2, #1
 262 0048 3C21     		movs	r1, #60
 263 004a 1948     		ldr	r0, .L18
 264 004c FFF7FEFF 		bl	HAL_I2C_IsDeviceReady
 265              	.LVL26:
 266 0050 28B1     		cbz	r0, .L13
 121:Core/Src/main.cpp ****         }
 267              		.loc 1 121 0
 268 0052 0122     		movs	r2, #1
 269 0054 4FF48041 		mov	r1, #16384
 270 0058 1648     		ldr	r0, .L18+4
 271 005a FFF7FEFF 		bl	HAL_GPIO_WritePin
 272              	.LVL27:
 273              	.L13:
 123:Core/Src/main.cpp ****                 HAL_GPIO_WritePin(GPIOD, GPIO_PIN_14, GPIO_PIN_SET);
 274              		.loc 1 123 0
 275 005e 0A23     		movs	r3, #10
 276 0060 0122     		movs	r2, #1
 277 0062 D021     		movs	r1, #208
 278 0064 1248     		ldr	r0, .L18
 279 0066 FFF7FEFF 		bl	HAL_I2C_IsDeviceReady
 280              	.LVL28:
 281 006a 28B1     		cbz	r0, .L14
 124:Core/Src/main.cpp ****         }
 282              		.loc 1 124 0
 283 006c 0122     		movs	r2, #1
 284 006e 4FF48041 		mov	r1, #16384
 285 0072 1048     		ldr	r0, .L18+4
 286 0074 FFF7FEFF 		bl	HAL_GPIO_WritePin
 287              	.LVL29:
 288              	.L14:
 127:Core/Src/main.cpp **** 
 289              		.loc 1 127 0
 290 0078 0A20     		movs	r0, #10
 291 007a FFF7FEFF 		bl	_Z9robo_Initm
 292              	.LVL30:
 130:Core/Src/main.cpp **** 
 293              		.loc 1 130 0
 294 007e 0E48     		ldr	r0, .L18+8
 295 0080 FFF7FEFF 		bl	puts
 296              	.LVL31:
 136:Core/Src/main.cpp ****         HAL_GPIO_WritePin(GPIOD, GPIO_PIN_15, GPIO_PIN_SET);
 297              		.loc 1 136 0
 298 0084 FFF7FEFF 		bl	HAL_GetTick
 299              	.LVL32:
 300 0088 0446     		mov	r4, r0
 301              	.LVL33:
 137:Core/Src/main.cpp ****         while (1)
 302              		.loc 1 137 0
 303 008a 0122     		movs	r2, #1
 304 008c 4FF40041 		mov	r1, #32768
 305 0090 0848     		ldr	r0, .L18+4
 306              	.LVL34:
ARM GAS  C:\Users\Prashant\AppData\Local\Temp\ccVs7dbm.s 			page 11


 307 0092 FFF7FEFF 		bl	HAL_GPIO_WritePin
 308              	.LVL35:
 309              	.L15:
 143:Core/Src/main.cpp ****                         sample = HAL_GetTick();
 310              		.loc 1 143 0
 311 0096 FFF7FEFF 		bl	HAL_GetTick
 312              	.LVL36:
 313 009a 001B     		subs	r0, r0, r4
 314 009c 0A28     		cmp	r0, #10
 315 009e FAD9     		bls	.L15
 144:Core/Src/main.cpp ****                         play(sampling_period);
 316              		.loc 1 144 0
 317 00a0 FFF7FEFF 		bl	HAL_GetTick
 318              	.LVL37:
 319 00a4 0446     		mov	r4, r0
 320              	.LVL38:
 145:Core/Src/main.cpp ****                 }
 321              		.loc 1 145 0
 322 00a6 0A20     		movs	r0, #10
 323              	.LVL39:
 324 00a8 FFF7FEFF 		bl	_Z4playm
 325              	.LVL40:
 326 00ac F3E7     		b	.L15
 327              	.L19:
 328 00ae 00BF     		.align	2
 329              	.L18:
 330 00b0 00000000 		.word	hi2c1
 331 00b4 000C0240 		.word	1073875968
 332 00b8 00000000 		.word	.LC1
 333              		.cfi_endproc
 334              	.LFE473:
 336              		.section	.text.assert_failed,"ax",%progbits
 337              		.align	1
 338              		.global	assert_failed
 339              		.syntax unified
 340              		.thumb
 341              		.thumb_func
 342              		.fpu fpv4-sp-d16
 344              	assert_failed:
 345              	.LFB476:
 221:Core/Src/main.cpp ****         while (1)
 222:Core/Src/main.cpp ****         {
 223:Core/Src/main.cpp ****         }
 224:Core/Src/main.cpp ****         /* USER CODE END Error_Handler_Debug */
 225:Core/Src/main.cpp **** }
 226:Core/Src/main.cpp **** 
 227:Core/Src/main.cpp **** #ifdef USE_FULL_ASSERT
 228:Core/Src/main.cpp **** /**
 229:Core/Src/main.cpp ****   * @brief  Reports the name of the source file and the source line number
 230:Core/Src/main.cpp ****   *         where the assert_param error has occurred.
 231:Core/Src/main.cpp ****   * @param  file: pointer to the source file name
 232:Core/Src/main.cpp ****   * @param  line: assert_param error line source number
 233:Core/Src/main.cpp ****   * @retval None
 234:Core/Src/main.cpp ****   */
 235:Core/Src/main.cpp **** void assert_failed(uint8_t *file, uint32_t line)
 236:Core/Src/main.cpp **** {
 346              		.loc 1 236 0
ARM GAS  C:\Users\Prashant\AppData\Local\Temp\ccVs7dbm.s 			page 12


 347              		.cfi_startproc
 348              		@ args = 0, pretend = 0, frame = 0
 349              		@ frame_needed = 0, uses_anonymous_args = 0
 350              		@ link register save eliminated.
 351              	.LVL41:
 237:Core/Src/main.cpp ****         /* USER CODE BEGIN 6 */
 238:Core/Src/main.cpp ****         /* User can add his own implementation to report the file name and line number,
 239:Core/Src/main.cpp ****      tex: printf("Wrong parameters value: file %s on line %d\r\n", file, line) */
 240:Core/Src/main.cpp ****         /* USER CODE END 6 */
 241:Core/Src/main.cpp **** }
 352              		.loc 1 241 0
 353 0000 7047     		bx	lr
 354              		.cfi_endproc
 355              	.LFE476:
 357              		.section	.rodata._Z18SystemClock_Configv.str1.4,"aMS",%progbits,1
 358              		.align	2
 359              	.LC0:
 360 0000 436F7265 		.ascii	"Core/Src/main.cpp\000"
 360      2F537263 
 360      2F6D6169 
 360      6E2E6370 
 360      7000
 361              		.section	.rodata.main.str1.4,"aMS",%progbits,1
 362              		.align	2
 363              	.LC1:
 364 0000 48656C6C 		.ascii	"Hello World!!\000"
 364      6F20576F 
 364      726C6421 
 364      2100
 365              		.text
 366              	.Letext0:
 367              		.file 2 "C:/Users/Prashant/STM32Cube/Repository/STM32Cube_FW_F4_V1.21.0/Drivers/CMSIS/Device/ST/ST
 368              		.file 3 "c:\\program files (x86)\\gnu tools arm embedded\\7 2017-q4-major\\arm-none-eabi\\include\
 369              		.file 4 "c:\\program files (x86)\\gnu tools arm embedded\\7 2017-q4-major\\arm-none-eabi\\include\
 370              		.file 5 "C:/Users/Prashant/STM32Cube/Repository/STM32Cube_FW_F4_V1.21.0/Drivers/CMSIS/Include/core
 371              		.file 6 "C:/Users/Prashant/STM32Cube/Repository/STM32Cube_FW_F4_V1.21.0/Drivers/CMSIS/Device/ST/ST
 372              		.file 7 "c:\\program files (x86)\\gnu tools arm embedded\\7 2017-q4-major\\arm-none-eabi\\include\
 373              		.file 8 "c:\\program files (x86)\\gnu tools arm embedded\\7 2017-q4-major\\arm-none-eabi\\include\
 374              		.file 9 "c:\\program files (x86)\\gnu tools arm embedded\\7 2017-q4-major\\lib\\gcc\\arm-none-eabi
 375              		.file 10 "c:\\program files (x86)\\gnu tools arm embedded\\7 2017-q4-major\\arm-none-eabi\\include
 376              		.file 11 "C:/Users/Prashant/STM32Cube/Repository/STM32Cube_FW_F4_V1.21.0/Drivers/STM32F4xx_HAL_Dri
 377              		.file 12 "C:/Users/Prashant/STM32Cube/Repository/STM32Cube_FW_F4_V1.21.0/Drivers/STM32F4xx_HAL_Dri
 378              		.file 13 "C:/Users/Prashant/STM32Cube/Repository/STM32Cube_FW_F4_V1.21.0/Drivers/STM32F4xx_HAL_Dri
 379              		.file 14 "C:/Users/Prashant/STM32Cube/Repository/STM32Cube_FW_F4_V1.21.0/Drivers/STM32F4xx_HAL_Dri
 380              		.file 15 "C:/Users/Prashant/STM32Cube/Repository/STM32Cube_FW_F4_V1.21.0/Drivers/STM32F4xx_HAL_Dri
 381              		.file 16 "C:/Users/Prashant/STM32Cube/Repository/STM32Cube_FW_F4_V1.21.0/Drivers/STM32F4xx_HAL_Dri
 382              		.file 17 "C:/Users/Prashant/STM32Cube/Repository/STM32Cube_FW_F4_V1.21.0/Drivers/STM32F4xx_HAL_Dri
 383              		.file 18 "C:/Users/Prashant/STM32Cube/Repository/STM32Cube_FW_F4_V1.21.0/Drivers/STM32F4xx_HAL_Dri
 384              		.file 19 "C:/Users/Prashant/STM32Cube/Repository/STM32Cube_FW_F4_V1.21.0/Drivers/STM32F4xx_HAL_Dri
 385              		.file 20 "C:/Users/Prashant/STM32Cube/Repository/STM32Cube_FW_F4_V1.21.0/Drivers/STM32F4xx_HAL_Dri
 386              		.file 21 "Core/Inc\\periphs/adc.h"
 387              		.file 22 "Core/Inc\\periphs/i2c.h"
 388              		.file 23 "Core/Inc\\periphs/spi.h"
 389              		.file 24 "Core/Inc\\periphs/tim.h"
 390              		.file 25 "Core/Inc\\periphs/usart.h"
 391              		.file 26 "Core/Inc/utils/vec3.h"
 392              		.file 27 "c:\\program files (x86)\\gnu tools arm embedded\\7 2017-q4-major\\arm-none-eabi\\include
ARM GAS  C:\Users\Prashant\AppData\Local\Temp\ccVs7dbm.s 			page 13


 393              		.file 28 "c:\\program files (x86)\\gnu tools arm embedded\\7 2017-q4-major\\arm-none-eabi\\include
 394              		.file 29 "c:\\program files (x86)\\gnu tools arm embedded\\7 2017-q4-major\\arm-none-eabi\\include
 395              		.file 30 "c:\\program files (x86)\\gnu tools arm embedded\\7 2017-q4-major\\arm-none-eabi\\include
 396              		.file 31 "c:\\program files (x86)\\gnu tools arm embedded\\7 2017-q4-major\\arm-none-eabi\\include
 397              		.file 32 "Core/Inc/utils/mat.h"
 398              		.file 33 "Core/Inc/utils/filter.h"
 399              		.file 34 "Core/Inc/utils/filter_algorithm.h"
 400              		.file 35 "Core/Inc/devs/mpu6050.h"
 401              		.file 36 "Core/Inc/devs/a4988.h"
 402              		.file 37 "Core/Inc/devs/hmc5883.h"
 403              		.file 38 "Core/Inc/devs/encoder.h"
 404              		.file 39 "Core/Inc\\devs/wheeler.h"
 405              		.file 40 "Core/Inc/robot/devs_config.h"
 406              		.file 41 "Core/Inc/utils/kalman.h"
 407              		.file 42 "Core/Inc/robot/robo_init.h"
 408              		.file 43 "c:\\program files (x86)\\gnu tools arm embedded\\7 2017-q4-major\\arm-none-eabi\\include
 409              		.file 44 "C:/Users/Prashant/STM32Cube/Repository/STM32Cube_FW_F4_V1.21.0/Drivers/STM32F4xx_HAL_Dri
 410              		.file 45 "C:/Users/Prashant/STM32Cube/Repository/STM32Cube_FW_F4_V1.21.0/Drivers/STM32F4xx_HAL_Dri
 411              		.file 46 "Core/Inc\\periphs/gpio.h"
 412              		.file 47 "Core/Inc\\periphs/dma.h"
 413              		.file 48 "Core/Inc/robot/play.h"
 414              		.file 49 "<built-in>"
ARM GAS  C:\Users\Prashant\AppData\Local\Temp\ccVs7dbm.s 			page 14

