ARM GAS  C:\Users\Prashant\AppData\Local\Temp\ccj9MmWd.s 			page 1


   1              		.cpu cortex-m4
   2              		.eabi_attribute 27, 1
   3              		.eabi_attribute 28, 1
   4              		.eabi_attribute 20, 1
   5              		.eabi_attribute 21, 1
   6              		.eabi_attribute 23, 3
   7              		.eabi_attribute 24, 1
   8              		.eabi_attribute 25, 1
   9              		.eabi_attribute 26, 1
  10              		.eabi_attribute 30, 1
  11              		.eabi_attribute 34, 1
  12              		.eabi_attribute 18, 4
  13              		.file	"play.cpp"
  14              		.text
  15              	.Ltext0:
  16              		.cfi_sections	.debug_frame
  17              		.section	.text._ZN4Vec3IfED2Ev,"axG",%progbits,_ZN4Vec3IfED5Ev,comdat
  18              		.align	1
  19              		.weak	_ZN4Vec3IfED2Ev
  20              		.syntax unified
  21              		.thumb
  22              		.thumb_func
  23              		.fpu fpv4-sp-d16
  25              	_ZN4Vec3IfED2Ev:
  26              	.LFB460:
  27              		.file 1 "Core/Inc/utils/vec3.h"
   1:Core/Inc/utils/vec3.h **** /*
   2:Core/Inc/utils/vec3.h ****  * vec3.h
   3:Core/Inc/utils/vec3.h ****  * 
   4:Core/Inc/utils/vec3.h ****  * Created : 11/9/2018
   5:Core/Inc/utils/vec3.h ****  *  Author : n-is
   6:Core/Inc/utils/vec3.h ****  *   email : 073bex422.nischal@pcampus.edu.np
   7:Core/Inc/utils/vec3.h ****  */
   8:Core/Inc/utils/vec3.h **** 
   9:Core/Inc/utils/vec3.h **** #ifndef _VEC3_H_
  10:Core/Inc/utils/vec3.h **** #define _VEC3_H_
  11:Core/Inc/utils/vec3.h **** 
  12:Core/Inc/utils/vec3.h **** #include "stm32f4xx_hal.h"
  13:Core/Inc/utils/vec3.h **** 
  14:Core/Inc/utils/vec3.h **** template <typename T>
  15:Core/Inc/utils/vec3.h **** void swap_Element(T &first, T &second)
  16:Core/Inc/utils/vec3.h **** {
  17:Core/Inc/utils/vec3.h ****         T temp = first;
  18:Core/Inc/utils/vec3.h ****         first = second;
  19:Core/Inc/utils/vec3.h ****         second = temp;
  20:Core/Inc/utils/vec3.h **** }
  21:Core/Inc/utils/vec3.h **** 
  22:Core/Inc/utils/vec3.h **** template <class T>
  23:Core/Inc/utils/vec3.h **** class Vec3
  24:Core/Inc/utils/vec3.h **** {
  25:Core/Inc/utils/vec3.h **** public:
  26:Core/Inc/utils/vec3.h ****         Vec3() { set_Values(0,0,0); }
  27:Core/Inc/utils/vec3.h ****         Vec3(T x, T y, T z) { set_Values(x,y,z); }
  28:Core/Inc/utils/vec3.h ****         Vec3(Vec3 &&) = default;
  29:Core/Inc/utils/vec3.h ****         Vec3 &operator=(Vec3 &&) = default;
  30:Core/Inc/utils/vec3.h ****         ~Vec3();
  31:Core/Inc/utils/vec3.h **** 
ARM GAS  C:\Users\Prashant\AppData\Local\Temp\ccj9MmWd.s 			page 2


  32:Core/Inc/utils/vec3.h ****         void set_Values(T x, T y, T z);
  33:Core/Inc/utils/vec3.h ****         T getX() const;
  34:Core/Inc/utils/vec3.h ****         T getY() const;
  35:Core/Inc/utils/vec3.h ****         T getZ() const;
  36:Core/Inc/utils/vec3.h ****         void setX(T x) { x_ = x; }
  37:Core/Inc/utils/vec3.h ****         void setY(T y) { y_ = y; }
  38:Core/Inc/utils/vec3.h ****         void setZ(T z) { z_ = z; }
  39:Core/Inc/utils/vec3.h **** 
  40:Core/Inc/utils/vec3.h ****         template <typename T1, typename T2>
  41:Core/Inc/utils/vec3.h ****         void divide(const Vec3<T1> &v, T2 num) {
  42:Core/Inc/utils/vec3.h ****                 x_ = v.getX() / num;
  43:Core/Inc/utils/vec3.h ****                 y_ = v.getY() / num;
  44:Core/Inc/utils/vec3.h ****                 z_ = v.getZ() / num;
  45:Core/Inc/utils/vec3.h ****         }
  46:Core/Inc/utils/vec3.h **** 
  47:Core/Inc/utils/vec3.h ****         Vec3 mult_EW(float num) {
  48:Core/Inc/utils/vec3.h ****                 Vec3 temp(*this);
  49:Core/Inc/utils/vec3.h ****                 temp.x_ *= num;
  50:Core/Inc/utils/vec3.h ****                 temp.y_ *= num;
  51:Core/Inc/utils/vec3.h ****                 temp.z_ *= num;
  52:Core/Inc/utils/vec3.h **** 
  53:Core/Inc/utils/vec3.h ****                 return temp;
  54:Core/Inc/utils/vec3.h ****         }
  55:Core/Inc/utils/vec3.h **** 
  56:Core/Inc/utils/vec3.h ****         Vec3 add_EW(float num) {
  57:Core/Inc/utils/vec3.h ****                 Vec3 temp(*this);
  58:Core/Inc/utils/vec3.h ****                 temp.x_ += num;
  59:Core/Inc/utils/vec3.h ****                 temp.y_ += num;
  60:Core/Inc/utils/vec3.h ****                 temp.z_ += num;
  61:Core/Inc/utils/vec3.h **** 
  62:Core/Inc/utils/vec3.h ****                 return temp;
  63:Core/Inc/utils/vec3.h ****         }
  64:Core/Inc/utils/vec3.h **** 
  65:Core/Inc/utils/vec3.h ****         Vec3 sub_EW(float num) {
  66:Core/Inc/utils/vec3.h ****                 Vec3 temp(*this);
  67:Core/Inc/utils/vec3.h ****                 temp.x_ -= num;
  68:Core/Inc/utils/vec3.h ****                 temp.y_ -= num;
  69:Core/Inc/utils/vec3.h ****                 temp.z_ -= num;
  70:Core/Inc/utils/vec3.h **** 
  71:Core/Inc/utils/vec3.h ****                 return temp;
  72:Core/Inc/utils/vec3.h ****         }
  73:Core/Inc/utils/vec3.h **** 
  74:Core/Inc/utils/vec3.h ****         template <typename T1>
  75:Core/Inc/utils/vec3.h ****         Vec3 div_EW(Vec3<T1> v) {
  76:Core/Inc/utils/vec3.h ****                 Vec3 temp(*this);
  77:Core/Inc/utils/vec3.h ****                 temp.x_ /= (float)v.x_;
  78:Core/Inc/utils/vec3.h ****                 temp.y_ /= (float)v.y_;
  79:Core/Inc/utils/vec3.h ****                 temp.z_ /= (float)v.z_;
  80:Core/Inc/utils/vec3.h **** 
  81:Core/Inc/utils/vec3.h ****                 return temp;
  82:Core/Inc/utils/vec3.h ****         }
  83:Core/Inc/utils/vec3.h **** 
  84:Core/Inc/utils/vec3.h ****         template <typename T1>
  85:Core/Inc/utils/vec3.h ****         Vec3 mult_EW(Vec3<T1> v) {
  86:Core/Inc/utils/vec3.h ****                 Vec3 temp(v);
  87:Core/Inc/utils/vec3.h ****                 temp.x_ *= x_;
  88:Core/Inc/utils/vec3.h ****                 temp.y_ *= y_;
ARM GAS  C:\Users\Prashant\AppData\Local\Temp\ccj9MmWd.s 			page 3


  89:Core/Inc/utils/vec3.h ****                 temp.z_ *= z_;
  90:Core/Inc/utils/vec3.h **** 
  91:Core/Inc/utils/vec3.h ****                 return temp;
  92:Core/Inc/utils/vec3.h ****         }
  93:Core/Inc/utils/vec3.h **** 
  94:Core/Inc/utils/vec3.h ****         friend void swap(Vec3 &first, Vec3 &second) {
  95:Core/Inc/utils/vec3.h ****                 swap_Element(first.x_, second.x_);
  96:Core/Inc/utils/vec3.h ****                 swap_Element(first.y_, second.y_);
  97:Core/Inc/utils/vec3.h ****                 swap_Element(first.z_, second.z_);
  98:Core/Inc/utils/vec3.h ****         }
  99:Core/Inc/utils/vec3.h ****         
 100:Core/Inc/utils/vec3.h ****         Vec3(const Vec3 &v) {
 101:Core/Inc/utils/vec3.h ****                 x_ = v.x_;
 102:Core/Inc/utils/vec3.h ****                 y_ = v.y_;
 103:Core/Inc/utils/vec3.h ****                 z_ = v.z_;
 104:Core/Inc/utils/vec3.h ****         }
 105:Core/Inc/utils/vec3.h ****         
 106:Core/Inc/utils/vec3.h ****         Vec3 &operator=(const Vec3 &v) {
 107:Core/Inc/utils/vec3.h ****                 Vec3 temp(v);
 108:Core/Inc/utils/vec3.h ****                 swap(*this, temp);
 109:Core/Inc/utils/vec3.h **** 
 110:Core/Inc/utils/vec3.h ****                 return *this;
 111:Core/Inc/utils/vec3.h ****         }
 112:Core/Inc/utils/vec3.h **** 
 113:Core/Inc/utils/vec3.h ****         Vec3 &operator+=(const Vec3 &rhs) {
 114:Core/Inc/utils/vec3.h ****                 x_ += rhs.x_;
 115:Core/Inc/utils/vec3.h ****                 y_ += rhs.y_;
 116:Core/Inc/utils/vec3.h ****                 z_ += rhs.z_;
 117:Core/Inc/utils/vec3.h **** 
 118:Core/Inc/utils/vec3.h ****                 return *this;
 119:Core/Inc/utils/vec3.h ****         }
 120:Core/Inc/utils/vec3.h ****         
 121:Core/Inc/utils/vec3.h ****         Vec3 &operator-=(const Vec3 &rhs) {
 122:Core/Inc/utils/vec3.h ****                 x_ -= rhs.x_;
 123:Core/Inc/utils/vec3.h ****                 y_ -= rhs.y_;
 124:Core/Inc/utils/vec3.h ****                 z_ -= rhs.z_;
 125:Core/Inc/utils/vec3.h **** 
 126:Core/Inc/utils/vec3.h ****                 return *this;
 127:Core/Inc/utils/vec3.h ****         }
 128:Core/Inc/utils/vec3.h **** 
 129:Core/Inc/utils/vec3.h ****         friend Vec3 operator+(Vec3 lhs, const Vec3 &rhs) {
 130:Core/Inc/utils/vec3.h ****                 lhs += rhs;
 131:Core/Inc/utils/vec3.h ****                 return lhs;
 132:Core/Inc/utils/vec3.h ****         }
 133:Core/Inc/utils/vec3.h **** 
 134:Core/Inc/utils/vec3.h ****         friend Vec3 operator-(Vec3 lhs, const Vec3 &rhs) {
 135:Core/Inc/utils/vec3.h ****                 lhs -= rhs;
 136:Core/Inc/utils/vec3.h ****                 return lhs;
 137:Core/Inc/utils/vec3.h ****         }
 138:Core/Inc/utils/vec3.h **** 
 139:Core/Inc/utils/vec3.h ****         void print() const {
 140:Core/Inc/utils/vec3.h ****                 printf("%ld, %ld, %ld", (int32_t)x_, (int32_t)y_, (int32_t)z_);
 141:Core/Inc/utils/vec3.h ****         }
 142:Core/Inc/utils/vec3.h **** 
 143:Core/Inc/utils/vec3.h **** private:
 144:Core/Inc/utils/vec3.h ****         T x_,y_,z_;
 145:Core/Inc/utils/vec3.h **** };
ARM GAS  C:\Users\Prashant\AppData\Local\Temp\ccj9MmWd.s 			page 4


 146:Core/Inc/utils/vec3.h **** 
 147:Core/Inc/utils/vec3.h **** template <class T>
 148:Core/Inc/utils/vec3.h **** Vec3<T>::~Vec3()
  28              		.loc 1 148 0
  29              		.cfi_startproc
  30              		@ args = 0, pretend = 0, frame = 0
  31              		@ frame_needed = 0, uses_anonymous_args = 0
  32              		@ link register save eliminated.
  33              	.LVL0:
 149:Core/Inc/utils/vec3.h **** {
 150:Core/Inc/utils/vec3.h **** }
  34              		.loc 1 150 0
  35 0000 7047     		bx	lr
  36              		.cfi_endproc
  37              	.LFE460:
  39              		.weak	_ZN4Vec3IfED1Ev
  40              		.thumb_set _ZN4Vec3IfED1Ev,_ZN4Vec3IfED2Ev
  41              		.section	.text._ZNK4Vec3IfE4getZEv,"axG",%progbits,_ZNK4Vec3IfE4getZEv,comdat
  42              		.align	1
  43              		.weak	_ZNK4Vec3IfE4getZEv
  44              		.syntax unified
  45              		.thumb
  46              		.thumb_func
  47              		.fpu fpv4-sp-d16
  49              	_ZNK4Vec3IfE4getZEv:
  50              	.LFB467:
 151:Core/Inc/utils/vec3.h **** 
 152:Core/Inc/utils/vec3.h **** template <class T>
 153:Core/Inc/utils/vec3.h **** void Vec3<T>::set_Values(T x, T y, T z)
 154:Core/Inc/utils/vec3.h **** {
 155:Core/Inc/utils/vec3.h ****         x_ = x;
 156:Core/Inc/utils/vec3.h ****         y_ = y;
 157:Core/Inc/utils/vec3.h ****         z_ = z;
 158:Core/Inc/utils/vec3.h **** }
 159:Core/Inc/utils/vec3.h **** 
 160:Core/Inc/utils/vec3.h **** template <class T>
 161:Core/Inc/utils/vec3.h **** T Vec3<T>::getX() const { return x_;}
 162:Core/Inc/utils/vec3.h **** 
 163:Core/Inc/utils/vec3.h **** template <class T>
 164:Core/Inc/utils/vec3.h **** T Vec3<T>::getY() const { return y_;}
 165:Core/Inc/utils/vec3.h **** 
 166:Core/Inc/utils/vec3.h **** template <class T>
 167:Core/Inc/utils/vec3.h **** T Vec3<T>::getZ() const { return z_;}
  51              		.loc 1 167 0
  52              		.cfi_startproc
  53              		@ args = 0, pretend = 0, frame = 0
  54              		@ frame_needed = 0, uses_anonymous_args = 0
  55              		@ link register save eliminated.
  56              	.LVL1:
  57              		.loc 1 167 0
  58 0000 90ED020A 		vldr.32	s0, [r0, #8]
  59 0004 7047     		bx	lr
  60              		.cfi_endproc
  61              	.LFE467:
  63              		.section	.text._ZNK4Vec3IfE4getXEv,"axG",%progbits,_ZNK4Vec3IfE4getXEv,comdat
  64              		.align	1
  65              		.weak	_ZNK4Vec3IfE4getXEv
ARM GAS  C:\Users\Prashant\AppData\Local\Temp\ccj9MmWd.s 			page 5


  66              		.syntax unified
  67              		.thumb
  68              		.thumb_func
  69              		.fpu fpv4-sp-d16
  71              	_ZNK4Vec3IfE4getXEv:
  72              	.LFB468:
 161:Core/Inc/utils/vec3.h **** 
  73              		.loc 1 161 0
  74              		.cfi_startproc
  75              		@ args = 0, pretend = 0, frame = 0
  76              		@ frame_needed = 0, uses_anonymous_args = 0
  77              		@ link register save eliminated.
  78              	.LVL2:
 161:Core/Inc/utils/vec3.h **** 
  79              		.loc 1 161 0
  80 0000 90ED000A 		vldr.32	s0, [r0]
  81 0004 7047     		bx	lr
  82              		.cfi_endproc
  83              	.LFE468:
  85              		.section	.text._ZN4Vec3IfE10set_ValuesEfff,"axG",%progbits,_ZN4Vec3IfE10set_ValuesEfff,comdat
  86              		.align	1
  87              		.weak	_ZN4Vec3IfE10set_ValuesEfff
  88              		.syntax unified
  89              		.thumb
  90              		.thumb_func
  91              		.fpu fpv4-sp-d16
  93              	_ZN4Vec3IfE10set_ValuesEfff:
  94              	.LFB469:
 153:Core/Inc/utils/vec3.h **** {
  95              		.loc 1 153 0
  96              		.cfi_startproc
  97              		@ args = 0, pretend = 0, frame = 0
  98              		@ frame_needed = 0, uses_anonymous_args = 0
  99              		@ link register save eliminated.
 100              	.LVL3:
 155:Core/Inc/utils/vec3.h ****         y_ = y;
 101              		.loc 1 155 0
 102 0000 80ED000A 		vstr.32	s0, [r0]
 156:Core/Inc/utils/vec3.h ****         z_ = z;
 103              		.loc 1 156 0
 104 0004 C0ED010A 		vstr.32	s1, [r0, #4]
 157:Core/Inc/utils/vec3.h **** }
 105              		.loc 1 157 0
 106 0008 80ED021A 		vstr.32	s2, [r0, #8]
 158:Core/Inc/utils/vec3.h **** 
 107              		.loc 1 158 0
 108 000c 7047     		bx	lr
 109              		.cfi_endproc
 110              	.LFE469:
 112              		.global	__aeabi_f2d
 113              		.global	__aeabi_ddiv
 114              		.global	__aeabi_d2f
 115              		.global	__aeabi_dmul
 116              		.section	.text._Z4playm,"ax",%progbits
 117              		.align	1
 118              		.global	_Z4playm
 119              		.syntax unified
ARM GAS  C:\Users\Prashant\AppData\Local\Temp\ccj9MmWd.s 			page 6


 120              		.thumb
 121              		.thumb_func
 122              		.fpu fpv4-sp-d16
 124              	_Z4playm:
 125              	.LFB458:
 126              		.file 2 "Core/Src/robot/play.cpp"
   1:Core/Src/robot/play.cpp **** /*
   2:Core/Src/robot/play.cpp ****  * play.cpp
   3:Core/Src/robot/play.cpp ****  * 
   4:Core/Src/robot/play.cpp ****  * Created : 11/9/2018
   5:Core/Src/robot/play.cpp ****  *  Author : n-is
   6:Core/Src/robot/play.cpp ****  *   email : 073bex422.nischal@pcampus.edu.np
   7:Core/Src/robot/play.cpp ****  */
   8:Core/Src/robot/play.cpp **** 
   9:Core/Src/robot/play.cpp **** #include <math.h>
  10:Core/Src/robot/play.cpp **** #include "robot/play.h"
  11:Core/Src/robot/play.cpp **** 
  12:Core/Src/robot/play.cpp **** #define ROBOT_VELOCITY          (1000)
  13:Core/Src/robot/play.cpp **** #define FIRST_ANGLE             (0 + 3.14159)
  14:Core/Src/robot/play.cpp **** 
  15:Core/Src/robot/play.cpp **** #define MAX_POSSIBLE_OMEGA      (40)
  16:Core/Src/robot/play.cpp **** 
  17:Core/Src/robot/play.cpp **** 
  18:Core/Src/robot/play.cpp **** void read_State(Vec3<float> &euler_angles, Vec3<float> &position, uint32_t dt_millis);
  19:Core/Src/robot/play.cpp **** 
  20:Core/Src/robot/play.cpp **** float gFirst_Heading = 0;
  21:Core/Src/robot/play.cpp **** bool gIs_First_Heading = true;
  22:Core/Src/robot/play.cpp **** 
  23:Core/Src/robot/play.cpp **** 
  24:Core/Src/robot/play.cpp **** /*
  25:Core/Src/robot/play.cpp ****  * Tasks to be performed by this part of robot
  26:Core/Src/robot/play.cpp ****  TODO 1:  Read Orientation of Robot
  27:Core/Src/robot/play.cpp ****  TODO 2:  Smooth the Orientation Reading and Filter It Using CF or KF
  28:Core/Src/robot/play.cpp ****  TODO  :    -> Inclination : Gyroscope and Accelerometer
  29:Core/Src/robot/play.cpp ****  TODO  :    -> Heading : Gyroscope and Magnetometer
  30:Core/Src/robot/play.cpp ****  TODO 3:  Correct LIDAR Servo/Dynamixel if Used
  31:Core/Src/robot/play.cpp ****  TODO 4:  Read Distaces from Fences Using LIDAR
  32:Core/Src/robot/play.cpp ****  TODO 5:  Smooth the Distance Reading and Filter It using KF
  33:Core/Src/robot/play.cpp ****  TODO  :    -> should probably use enncoder for second data
  34:Core/Src/robot/play.cpp ****  TODO 6:  Calculate Four Corners of Robot using Distance and Orientation Data
  35:Core/Src/robot/play.cpp ****  TODO 7:  Transfer the Calulated values
  36:Core/Src/robot/play.cpp ****  TODO 8:  Repeat from step 1.
  37:Core/Src/robot/play.cpp ****  */
  38:Core/Src/robot/play.cpp **** 
  39:Core/Src/robot/play.cpp **** void play(uint32_t dt_millis)
  40:Core/Src/robot/play.cpp **** {
 127              		.loc 2 40 0
 128              		.cfi_startproc
 129              		@ args = 0, pretend = 0, frame = 32
 130              		@ frame_needed = 0, uses_anonymous_args = 0
 131              	.LVL4:
 132 0000 10B5     		push	{r4, lr}
 133              	.LCFI0:
 134              		.cfi_def_cfa_offset 8
 135              		.cfi_offset 4, -8
 136              		.cfi_offset 14, -4
 137 0002 2DED028B 		vpush.64	{d8}
ARM GAS  C:\Users\Prashant\AppData\Local\Temp\ccj9MmWd.s 			page 7


 138              	.LCFI1:
 139              		.cfi_def_cfa_offset 16
 140              		.cfi_offset 80, -16
 141              		.cfi_offset 81, -12
 142 0006 88B0     		sub	sp, sp, #32
 143              	.LCFI2:
 144              		.cfi_def_cfa_offset 48
 145 0008 0446     		mov	r4, r0
 146              	.LVL5:
 147              	.LBB12:
 148              	.LBB13:
 149              	.LBB14:
  26:Core/Inc/utils/vec3.h ****         Vec3(T x, T y, T z) { set_Values(x,y,z); }
 150              		.loc 1 26 0
 151 000a 9FED438A 		vldr.32	s16, .L17+16
 152 000e B0EE481A 		vmov.f32	s2, s16
 153 0012 F0EE480A 		vmov.f32	s1, s16
 154 0016 B0EE480A 		vmov.f32	s0, s16
 155 001a 05A8     		add	r0, sp, #20
 156              	.LVL6:
 157 001c FFF7FEFF 		bl	_ZN4Vec3IfE10set_ValuesEfff
 158              	.LVL7:
 159              	.LBE14:
 160              	.LBE13:
 161              	.LBE12:
 162              	.LBB15:
 163              	.LBB16:
 164              	.LBB17:
 165 0020 B0EE481A 		vmov.f32	s2, s16
 166 0024 F0EE480A 		vmov.f32	s1, s16
 167 0028 B0EE480A 		vmov.f32	s0, s16
 168 002c 02A8     		add	r0, sp, #8
 169              	.LVL8:
 170 002e FFF7FEFF 		bl	_ZN4Vec3IfE10set_ValuesEfff
 171              	.LVL9:
 172              	.LBE17:
 173              	.LBE16:
 174              	.LBE15:
  41:Core/Src/robot/play.cpp ****         Vec3<float> euler_angles;
  42:Core/Src/robot/play.cpp ****         Vec3<float> position;
  43:Core/Src/robot/play.cpp **** 
  44:Core/Src/robot/play.cpp ****         read_State(euler_angles, position, dt_millis);
 175              		.loc 2 44 0
 176 0032 2246     		mov	r2, r4
 177 0034 02A9     		add	r1, sp, #8
 178 0036 05A8     		add	r0, sp, #20
 179 0038 FFF7FEFF 		bl	_Z10read_StateR4Vec3IfES1_m
 180              	.LVL10:
 181              	.LBB18:
  45:Core/Src/robot/play.cpp **** 
  46:Core/Src/robot/play.cpp ****         if (gIs_First_Heading) {
 182              		.loc 2 46 0
 183 003c 374B     		ldr	r3, .L17+20
 184 003e 1B78     		ldrb	r3, [r3]	@ zero_extendqisi2
 185 0040 002B     		cmp	r3, #0
 186 0042 43D1     		bne	.L16
 187              	.LBB19:
ARM GAS  C:\Users\Prashant\AppData\Local\Temp\ccj9MmWd.s 			page 8


  47:Core/Src/robot/play.cpp ****                 gIs_First_Heading = false;
  48:Core/Src/robot/play.cpp ****                 gFirst_Heading = euler_angles.getZ();
  49:Core/Src/robot/play.cpp ****         }
  50:Core/Src/robot/play.cpp ****         else {
  51:Core/Src/robot/play.cpp ****                 if (position.getX() < 120) {
 188              		.loc 2 51 0
 189 0044 02A8     		add	r0, sp, #8
 190 0046 FFF7FEFF 		bl	_ZNK4Vec3IfE4getXEv
 191              	.LVL11:
 192 004a DFED357A 		vldr.32	s15, .L17+24
 193 004e B4EEE70A 		vcmpe.f32	s0, s15
 194 0052 F1EE10FA 		vmrs	APSR_nzcv, FPSCR
 195 0056 43D5     		bpl	.L14
  52:Core/Src/robot/play.cpp ****                         calculate_robot_velocity(ROBOT_VELOCITY, FIRST_ANGLE, (gFirst_Heading - eul
 196              		.loc 2 52 0
 197 0058 324B     		ldr	r3, .L17+28
 198 005a 93ED008A 		vldr.32	s16, [r3]
 199 005e 05A8     		add	r0, sp, #20
 200 0060 FFF7FEFF 		bl	_ZNK4Vec3IfE4getZEv
 201              	.LVL12:
 202 0064 78EE407A 		vsub.f32	s15, s16, s0
 203 0068 17EE900A 		vmov	r0, s15
 204 006c FFF7FEFF 		bl	__aeabi_f2d
 205              	.LVL13:
 206 0070 25A3     		adr	r3, .L17
 207 0072 D3E90023 		ldrd	r2, [r3]
 208 0076 FFF7FEFF 		bl	__aeabi_ddiv
 209              	.LVL14:
 210 007a FFF7FEFF 		bl	__aeabi_d2f
 211              	.LVL15:
 212 007e 01EE100A 		vmov	s2, r0
 213 0082 2046     		mov	r0, r4
 214 0084 DFED280A 		vldr.32	s1, .L17+32
 215 0088 9FED280A 		vldr.32	s0, .L17+36
 216 008c FFF7FEFF 		bl	_Z24calculate_robot_velocityfffm
 217              	.LVL16:
 218              	.L11:
 219              	.LBE19:
 220              	.LBE18:
  40:Core/Src/robot/play.cpp ****         Vec3<float> euler_angles;
 221              		.loc 2 40 0 discriminator 3
 222 0090 0024     		movs	r4, #0
 223              	.LVL17:
 224              	.L10:
 225              	.LBB24:
 226              	.LBB22:
 227              	.LBB20:
  53:Core/Src/robot/play.cpp ****                 }
  54:Core/Src/robot/play.cpp ****                 else {
  55:Core/Src/robot/play.cpp ****                         calculate_robot_velocity(0, 0, 0, dt_millis);
  56:Core/Src/robot/play.cpp ****                 }
  57:Core/Src/robot/play.cpp ****                 int16_t wheel_omegas[4];
  58:Core/Src/robot/play.cpp ****                 for (uint8_t i = 0; i < 4; ++i) {
 228              		.loc 2 58 0 discriminator 3
 229 0092 032C     		cmp	r4, #3
 230 0094 2ED8     		bhi	.L12
 231              	.LBB21:
ARM GAS  C:\Users\Prashant\AppData\Local\Temp\ccj9MmWd.s 			page 9


  59:Core/Src/robot/play.cpp ****                         float tmp = gWheel_Omegas[i] * (32768.0 / (float)MAX_POSSIBLE_OMEGA);
 232              		.loc 2 59 0 discriminator 2
 233 0096 264B     		ldr	r3, .L17+40
 234 0098 03EB8403 		add	r3, r3, r4, lsl #2
 235 009c 1868     		ldr	r0, [r3]	@ float
 236 009e FFF7FEFF 		bl	__aeabi_f2d
 237              	.LVL18:
 238 00a2 1BA3     		adr	r3, .L17+8
 239 00a4 D3E90023 		ldrd	r2, [r3]
 240 00a8 FFF7FEFF 		bl	__aeabi_dmul
 241              	.LVL19:
 242 00ac FFF7FEFF 		bl	__aeabi_d2f
 243              	.LVL20:
  60:Core/Src/robot/play.cpp ****                         wheel_omegas[i] = (int16_t)(tmp);
 244              		.loc 2 60 0 discriminator 2
 245 00b0 07EE900A 		vmov	s15, r0
 246 00b4 FDEEE77A 		vcvt.s32.f32	s15, s15
 247 00b8 17EE900A 		vmov	r0, s15	@ int
 248              	.LVL21:
 249 00bc 08AB     		add	r3, sp, #32
 250 00be 03EB4403 		add	r3, r3, r4, lsl #1
 251 00c2 23F8200C 		strh	r0, [r3, #-32]	@ movhi
 252              	.LBE21:
  58:Core/Src/robot/play.cpp ****                         float tmp = gWheel_Omegas[i] * (32768.0 / (float)MAX_POSSIBLE_OMEGA);
 253              		.loc 2 58 0 discriminator 2
 254 00c6 0134     		adds	r4, r4, #1
 255              	.LVL22:
 256 00c8 E4B2     		uxtb	r4, r4
 257              	.LVL23:
 258 00ca E2E7     		b	.L10
 259              	.LVL24:
 260              	.L16:
 261              	.LBE20:
 262              	.LBE22:
  47:Core/Src/robot/play.cpp ****                 gFirst_Heading = euler_angles.getZ();
 263              		.loc 2 47 0
 264 00cc 134B     		ldr	r3, .L17+20
 265 00ce 0022     		movs	r2, #0
 266 00d0 1A70     		strb	r2, [r3]
  48:Core/Src/robot/play.cpp ****         }
 267              		.loc 2 48 0
 268 00d2 05A8     		add	r0, sp, #20
 269 00d4 FFF7FEFF 		bl	_ZNK4Vec3IfE4getZEv
 270              	.LVL25:
 271 00d8 124B     		ldr	r3, .L17+28
 272 00da 83ED000A 		vstr.32	s0, [r3]
 273 00de 0CE0     		b	.L5
 274              	.L14:
 275              	.LBB23:
  55:Core/Src/robot/play.cpp ****                 }
 276              		.loc 2 55 0
 277 00e0 9FED0D0A 		vldr.32	s0, .L17+16
 278 00e4 2046     		mov	r0, r4
 279 00e6 B0EE401A 		vmov.f32	s2, s0
 280 00ea F0EE400A 		vmov.f32	s1, s0
 281 00ee FFF7FEFF 		bl	_Z24calculate_robot_velocityfffm
 282              	.LVL26:
ARM GAS  C:\Users\Prashant\AppData\Local\Temp\ccj9MmWd.s 			page 10


 283 00f2 CDE7     		b	.L11
 284              	.LVL27:
 285              	.L12:
  61:Core/Src/robot/play.cpp ****                 }
  62:Core/Src/robot/play.cpp ****                 send_WheelerPack(wheel_omegas);
 286              		.loc 2 62 0
 287 00f4 6846     		mov	r0, sp
 288 00f6 FFF7FEFF 		bl	_Z16send_WheelerPackPs
 289              	.LVL28:
 290              	.L5:
 291              	.LBE23:
 292              	.LBE24:
  63:Core/Src/robot/play.cpp ****         }
  64:Core/Src/robot/play.cpp **** }
 293              		.loc 2 64 0
 294 00fa 08B0     		add	sp, sp, #32
 295              	.LCFI3:
 296              		.cfi_def_cfa_offset 16
 297              		@ sp needed
 298 00fc BDEC028B 		vldm	sp!, {d8}
 299              	.LCFI4:
 300              		.cfi_restore 80
 301              		.cfi_restore 81
 302              		.cfi_def_cfa_offset 8
 303 0100 10BD     		pop	{r4, pc}
 304              	.L18:
 305 0102 00BFAFF3 		.align	3
 305      0080
 306              	.L17:
 307 0108 66666666 		.word	1717986918
 308 010c 66A64C40 		.word	1078765158
 309 0110 9A999999 		.word	-1717986918
 310 0114 99998940 		.word	1082759577
 311 0118 00000000 		.word	0
 312 011c 00000000 		.word	.LANCHOR0
 313 0120 0000F042 		.word	1123024896
 314 0124 00000000 		.word	.LANCHOR1
 315 0128 D00F4940 		.word	1078530000
 316 012c 00007A44 		.word	1148846080
 317 0130 00000000 		.word	gWheel_Omegas
 318              		.cfi_endproc
 319              	.LFE458:
 321              		.global	gIs_First_Heading
 322              		.global	gFirst_Heading
 323              		.section	.bss.gFirst_Heading,"aw",%nobits
 324              		.align	2
 325              		.set	.LANCHOR1,. + 0
 328              	gFirst_Heading:
 329 0000 00000000 		.space	4
 330              		.section	.data.gIs_First_Heading,"aw",%progbits
 331              		.set	.LANCHOR0,. + 0
 334              	gIs_First_Heading:
 335 0000 01       		.byte	1
 336              		.text
 337              	.Letext0:
 338              		.file 3 "c:\\program files (x86)\\gnu tools arm embedded\\7 2017-q4-major\\arm-none-eabi\\include\
 339              		.file 4 "c:\\program files (x86)\\gnu tools arm embedded\\7 2017-q4-major\\arm-none-eabi\\include\
ARM GAS  C:\Users\Prashant\AppData\Local\Temp\ccj9MmWd.s 			page 11


 340              		.file 5 "c:\\program files (x86)\\gnu tools arm embedded\\7 2017-q4-major\\arm-none-eabi\\include\
 341              		.file 6 "c:\\program files (x86)\\gnu tools arm embedded\\7 2017-q4-major\\arm-none-eabi\\include\
 342              		.file 7 "c:\\program files (x86)\\gnu tools arm embedded\\7 2017-q4-major\\arm-none-eabi\\include\
 343              		.file 8 "c:\\program files (x86)\\gnu tools arm embedded\\7 2017-q4-major\\lib\\gcc\\arm-none-eabi
 344              		.file 9 "c:\\program files (x86)\\gnu tools arm embedded\\7 2017-q4-major\\arm-none-eabi\\include\
 345              		.file 10 "c:\\program files (x86)\\gnu tools arm embedded\\7 2017-q4-major\\arm-none-eabi\\include
 346              		.file 11 "c:\\program files (x86)\\gnu tools arm embedded\\7 2017-q4-major\\arm-none-eabi\\include
 347              		.file 12 "c:\\program files (x86)\\gnu tools arm embedded\\7 2017-q4-major\\arm-none-eabi\\include
 348              		.file 13 "c:\\program files (x86)\\gnu tools arm embedded\\7 2017-q4-major\\arm-none-eabi\\include
 349              		.file 14 "C:/Users/Prashant/STM32Cube/Repository/STM32Cube_FW_F4_V1.21.0/Drivers/CMSIS/Include/cor
 350              		.file 15 "C:/Users/Prashant/STM32Cube/Repository/STM32Cube_FW_F4_V1.21.0/Drivers/CMSIS/Device/ST/S
 351              		.file 16 "C:/Users/Prashant/STM32Cube/Repository/STM32Cube_FW_F4_V1.21.0/Drivers/CMSIS/Device/ST/S
 352              		.file 17 "C:/Users/Prashant/STM32Cube/Repository/STM32Cube_FW_F4_V1.21.0/Drivers/STM32F4xx_HAL_Dri
 353              		.file 18 "C:/Users/Prashant/STM32Cube/Repository/STM32Cube_FW_F4_V1.21.0/Drivers/STM32F4xx_HAL_Dri
 354              		.file 19 "C:/Users/Prashant/STM32Cube/Repository/STM32Cube_FW_F4_V1.21.0/Drivers/STM32F4xx_HAL_Dri
 355              		.file 20 "C:/Users/Prashant/STM32Cube/Repository/STM32Cube_FW_F4_V1.21.0/Drivers/STM32F4xx_HAL_Dri
 356              		.file 21 "C:/Users/Prashant/STM32Cube/Repository/STM32Cube_FW_F4_V1.21.0/Drivers/STM32F4xx_HAL_Dri
 357              		.file 22 "Core/Inc/periphs/i2c.h"
 358              		.file 23 "Core/Inc/periphs/tim.h"
 359              		.file 24 "Core/Inc/devs/mpu6050.h"
 360              		.file 25 "Core/Inc/devs/a4988.h"
 361              		.file 26 "Core/Inc/devs/hmc5883.h"
 362              		.file 27 "Core/Inc/devs/encoder.h"
 363              		.file 28 "Core/Inc/periphs/usart.h"
 364              		.file 29 "Core/Inc\\devs/wheeler.h"
 365              		.file 30 "Core/Inc/robot/devs_config.h"
 366              		.file 31 "<built-in>"
ARM GAS  C:\Users\Prashant\AppData\Local\Temp\ccj9MmWd.s 			page 12

