ARM GAS  C:\Users\Prashant\AppData\Local\Temp\ccIdreTb.s 			page 1


   1              		.cpu cortex-m4
   2              		.eabi_attribute 27, 1
   3              		.eabi_attribute 28, 1
   4              		.eabi_attribute 20, 1
   5              		.eabi_attribute 21, 1
   6              		.eabi_attribute 23, 3
   7              		.eabi_attribute 24, 1
   8              		.eabi_attribute 25, 1
   9              		.eabi_attribute 26, 1
  10              		.eabi_attribute 30, 1
  11              		.eabi_attribute 34, 1
  12              		.eabi_attribute 18, 4
  13              		.file	"robo_init.cpp"
  14              		.text
  15              	.Ltext0:
  16              		.cfi_sections	.debug_frame
  17              		.section	.text._ZN20Complementary_FilterD2Ev,"axG",%progbits,_ZN20Complementary_FilterD5Ev,comdat
  18              		.align	1
  19              		.weak	_ZN20Complementary_FilterD2Ev
  20              		.syntax unified
  21              		.thumb
  22              		.thumb_func
  23              		.fpu fpv4-sp-d16
  25              	_ZN20Complementary_FilterD2Ev:
  26              	.LFB413:
  27              		.file 1 "Core/Inc/utils/filter_algorithm.h"
   1:Core/Inc/utils/filter_algorithm.h **** /*
   2:Core/Inc/utils/filter_algorithm.h ****  * filter_algorithm.h
   3:Core/Inc/utils/filter_algorithm.h ****  * 
   4:Core/Inc/utils/filter_algorithm.h ****  * Created : 11/9/2018
   5:Core/Inc/utils/filter_algorithm.h ****  *  Author : n-is
   6:Core/Inc/utils/filter_algorithm.h ****  *   email : 073bex422.nischal@pcampus.edu.np
   7:Core/Inc/utils/filter_algorithm.h ****  */
   8:Core/Inc/utils/filter_algorithm.h **** 
   9:Core/Inc/utils/filter_algorithm.h **** #ifndef _FILTER_ALGORITHM_H_
  10:Core/Inc/utils/filter_algorithm.h **** #define _FILTER_ALGORITHM_H_
  11:Core/Inc/utils/filter_algorithm.h **** 
  12:Core/Inc/utils/filter_algorithm.h **** #include "vec3.h"
  13:Core/Inc/utils/filter_algorithm.h **** #include "mat.h"
  14:Core/Inc/utils/filter_algorithm.h **** 
  15:Core/Inc/utils/filter_algorithm.h **** class Filter_Algorithm
  16:Core/Inc/utils/filter_algorithm.h **** {
  17:Core/Inc/utils/filter_algorithm.h **** public:
  18:Core/Inc/utils/filter_algorithm.h ****         virtual float filter(float low_pass, float rate, uint32_t dt_millis) = 0;
  19:Core/Inc/utils/filter_algorithm.h ****         virtual ~Filter_Algorithm() { }
  20:Core/Inc/utils/filter_algorithm.h ****         
  21:Core/Inc/utils/filter_algorithm.h **** };
  22:Core/Inc/utils/filter_algorithm.h **** 
  23:Core/Inc/utils/filter_algorithm.h **** // filtered_data = lambda * (theta + rate*dt) + (1 - lambda) * (low_pass_data)
  24:Core/Inc/utils/filter_algorithm.h **** class Complementary_Filter : public Filter_Algorithm
  25:Core/Inc/utils/filter_algorithm.h **** {
  26:Core/Inc/utils/filter_algorithm.h **** public:
  27:Core/Inc/utils/filter_algorithm.h ****         Complementary_Filter() {
  28:Core/Inc/utils/filter_algorithm.h ****                 set_Lambda(1);
  29:Core/Inc/utils/filter_algorithm.h ****         }
  30:Core/Inc/utils/filter_algorithm.h ****         Complementary_Filter(float lambda) : Complementary_Filter() {
  31:Core/Inc/utils/filter_algorithm.h ****                 set_Lambda(lambda);
ARM GAS  C:\Users\Prashant\AppData\Local\Temp\ccIdreTb.s 			page 2


  32:Core/Inc/utils/filter_algorithm.h ****         }
  33:Core/Inc/utils/filter_algorithm.h ****         Complementary_Filter(Complementary_Filter &&) = default;
  34:Core/Inc/utils/filter_algorithm.h ****         Complementary_Filter(const Complementary_Filter &) = default;
  35:Core/Inc/utils/filter_algorithm.h ****         Complementary_Filter &operator=(Complementary_Filter &&) = default;
  36:Core/Inc/utils/filter_algorithm.h ****         Complementary_Filter &operator=(const Complementary_Filter &) = default;
  37:Core/Inc/utils/filter_algorithm.h ****         ~Complementary_Filter() { }
  28              		.loc 1 37 0
  29              		.cfi_startproc
  30              		@ args = 0, pretend = 0, frame = 0
  31              		@ frame_needed = 0, uses_anonymous_args = 0
  32              		@ link register save eliminated.
  33              	.LVL0:
  34              		.loc 1 37 0
  35 0000 7047     		bx	lr
  36              		.cfi_endproc
  37              	.LFE413:
  39              		.weak	_ZN20Complementary_FilterD1Ev
  40              		.thumb_set _ZN20Complementary_FilterD1Ev,_ZN20Complementary_FilterD2Ev
  41              		.section	.text._ZN21Complementary_Filter2D2Ev,"axG",%progbits,_ZN21Complementary_Filter2D5Ev,comda
  42              		.align	1
  43              		.weak	_ZN21Complementary_Filter2D2Ev
  44              		.syntax unified
  45              		.thumb
  46              		.thumb_func
  47              		.fpu fpv4-sp-d16
  49              	_ZN21Complementary_Filter2D2Ev:
  50              	.LFB424:
  38:Core/Inc/utils/filter_algorithm.h **** 
  39:Core/Inc/utils/filter_algorithm.h ****         void set_Lambda(float lambda) { lambda_ = lambda; }
  40:Core/Inc/utils/filter_algorithm.h ****         float filter(float low_pass, float rate, uint32_t dt_millis);
  41:Core/Inc/utils/filter_algorithm.h **** 
  42:Core/Inc/utils/filter_algorithm.h **** private:
  43:Core/Inc/utils/filter_algorithm.h ****         float lambda_;
  44:Core/Inc/utils/filter_algorithm.h ****         float filtered_;
  45:Core/Inc/utils/filter_algorithm.h **** 
  46:Core/Inc/utils/filter_algorithm.h **** };
  47:Core/Inc/utils/filter_algorithm.h **** 
  48:Core/Inc/utils/filter_algorithm.h **** 
  49:Core/Inc/utils/filter_algorithm.h **** class Complementary_Filter2 : public Filter_Algorithm
  50:Core/Inc/utils/filter_algorithm.h **** {
  51:Core/Inc/utils/filter_algorithm.h **** public:
  52:Core/Inc/utils/filter_algorithm.h ****         Complementary_Filter2() {
  53:Core/Inc/utils/filter_algorithm.h ****                 setK(0);
  54:Core/Inc/utils/filter_algorithm.h ****                 last_acc_sum_ = 0;
  55:Core/Inc/utils/filter_algorithm.h ****         }
  56:Core/Inc/utils/filter_algorithm.h ****         Complementary_Filter2(float k) : Complementary_Filter2() {
  57:Core/Inc/utils/filter_algorithm.h ****                 setK(k);
  58:Core/Inc/utils/filter_algorithm.h ****         }
  59:Core/Inc/utils/filter_algorithm.h ****         Complementary_Filter2(Complementary_Filter2 &&) = default;
  60:Core/Inc/utils/filter_algorithm.h ****         Complementary_Filter2(const Complementary_Filter2 &) = default;
  61:Core/Inc/utils/filter_algorithm.h ****         Complementary_Filter2 &operator=(Complementary_Filter2 &&) = default;
  62:Core/Inc/utils/filter_algorithm.h ****         Complementary_Filter2 &operator=(const Complementary_Filter2 &) = default;
  63:Core/Inc/utils/filter_algorithm.h ****         ~Complementary_Filter2() { }
  51              		.loc 1 63 0
  52              		.cfi_startproc
  53              		@ args = 0, pretend = 0, frame = 0
  54              		@ frame_needed = 0, uses_anonymous_args = 0
ARM GAS  C:\Users\Prashant\AppData\Local\Temp\ccIdreTb.s 			page 3


  55              		@ link register save eliminated.
  56              	.LVL1:
  57              		.loc 1 63 0
  58 0000 7047     		bx	lr
  59              		.cfi_endproc
  60              	.LFE424:
  62              		.weak	_ZN21Complementary_Filter2D1Ev
  63              		.thumb_set _ZN21Complementary_Filter2D1Ev,_ZN21Complementary_Filter2D2Ev
  64              		.section	.text._ZN13Kalman_FilterD2Ev,"axG",%progbits,_ZN13Kalman_FilterD5Ev,comdat
  65              		.align	1
  66              		.weak	_ZN13Kalman_FilterD2Ev
  67              		.syntax unified
  68              		.thumb
  69              		.thumb_func
  70              		.fpu fpv4-sp-d16
  72              	_ZN13Kalman_FilterD2Ev:
  73              	.LFB439:
  74              		.file 2 "Core/Inc/utils/kalman.h"
   1:Core/Inc/utils/kalman.h **** /*
   2:Core/Inc/utils/kalman.h ****  * kalman.h
   3:Core/Inc/utils/kalman.h ****  * 
   4:Core/Inc/utils/kalman.h ****  * Created : 11/13/2018
   5:Core/Inc/utils/kalman.h ****  *  Author : n-is
   6:Core/Inc/utils/kalman.h ****  *   email : 073bex422.nischal@pcampus.edu.np
   7:Core/Inc/utils/kalman.h ****  */
   8:Core/Inc/utils/kalman.h **** 
   9:Core/Inc/utils/kalman.h **** #ifndef _KALMAN_H_
  10:Core/Inc/utils/kalman.h **** #define _KALMAN_H_
  11:Core/Inc/utils/kalman.h **** 
  12:Core/Inc/utils/kalman.h **** #include "filter_algorithm.h"
  13:Core/Inc/utils/kalman.h **** 
  14:Core/Inc/utils/kalman.h **** class Kalman_Filter;
  15:Core/Inc/utils/kalman.h **** 
  16:Core/Inc/utils/kalman.h **** struct Kalman_Vars
  17:Core/Inc/utils/kalman.h **** {
  18:Core/Inc/utils/kalman.h **** public:
  19:Core/Inc/utils/kalman.h ****         void set_F(const Mat &f) { F_ = f; }
  20:Core/Inc/utils/kalman.h ****         void set_B(const Mat &b) { B_ = b; }
  21:Core/Inc/utils/kalman.h ****         void set_H(const Mat &h) { H_ = h; }
  22:Core/Inc/utils/kalman.h ****         void set_I(const Mat &i) { I_ = i; }
  23:Core/Inc/utils/kalman.h ****         void set_P(const Mat &p) { P_ = p; }
  24:Core/Inc/utils/kalman.h ****         void set_Q(const Mat &q) { Q_ = q; }
  25:Core/Inc/utils/kalman.h ****         void set_R(const Mat &r) { R_ = r; }
  26:Core/Inc/utils/kalman.h **** 
  27:Core/Inc/utils/kalman.h ****         friend class Kalman_Filter;
  28:Core/Inc/utils/kalman.h **** 
  29:Core/Inc/utils/kalman.h **** private:
  30:Core/Inc/utils/kalman.h ****         Mat F_, B_, H_, I_, P_, Q_, R_;
  31:Core/Inc/utils/kalman.h **** };
  32:Core/Inc/utils/kalman.h **** 
  33:Core/Inc/utils/kalman.h **** // Trying a Simple Sensor Fusion : Gyroscope and (Accelerometer/Magnetometer)
  34:Core/Inc/utils/kalman.h **** class Kalman_Filter : public Filter_Algorithm
  35:Core/Inc/utils/kalman.h **** {
  36:Core/Inc/utils/kalman.h **** public:
  37:Core/Inc/utils/kalman.h ****         Kalman_Filter(Kalman_Vars *kv) :
  38:Core/Inc/utils/kalman.h ****         x_(2,1), u_(1,1), z_(1,1), K_(2,1)
  39:Core/Inc/utils/kalman.h ****         {
ARM GAS  C:\Users\Prashant\AppData\Local\Temp\ccIdreTb.s 			page 4


  40:Core/Inc/utils/kalman.h ****                 is_first_ = true;
  41:Core/Inc/utils/kalman.h ****                 kv_ = kv;
  42:Core/Inc/utils/kalman.h ****         }
  43:Core/Inc/utils/kalman.h ****         Kalman_Filter(Kalman_Filter &&) = default;
  44:Core/Inc/utils/kalman.h ****         Kalman_Filter(const Kalman_Filter &) = default;
  45:Core/Inc/utils/kalman.h ****         Kalman_Filter &operator=(Kalman_Filter &&) = default;
  46:Core/Inc/utils/kalman.h ****         Kalman_Filter &operator=(const Kalman_Filter &) = default;
  47:Core/Inc/utils/kalman.h ****         ~Kalman_Filter() { }
  75              		.loc 2 47 0
  76              		.cfi_startproc
  77              		@ args = 0, pretend = 0, frame = 0
  78              		@ frame_needed = 0, uses_anonymous_args = 0
  79              		@ link register save eliminated.
  80              	.LVL2:
  81              		.loc 2 47 0
  82 0000 7047     		bx	lr
  83              		.cfi_endproc
  84              	.LFE439:
  86              		.weak	_ZN13Kalman_FilterD1Ev
  87              		.thumb_set _ZN13Kalman_FilterD1Ev,_ZN13Kalman_FilterD2Ev
  88              		.section	.text._ZN6FilterD2Ev,"axG",%progbits,_ZN6FilterD5Ev,comdat
  89              		.align	1
  90              		.weak	_ZN6FilterD2Ev
  91              		.syntax unified
  92              		.thumb
  93              		.thumb_func
  94              		.fpu fpv4-sp-d16
  96              	_ZN6FilterD2Ev:
  97              	.LFB450:
  98              		.file 3 "Core/Inc/utils/filter.h"
   1:Core/Inc/utils/filter.h **** /*
   2:Core/Inc/utils/filter.h ****  * filter.h
   3:Core/Inc/utils/filter.h ****  * 
   4:Core/Inc/utils/filter.h ****  * Created : 11/9/2018
   5:Core/Inc/utils/filter.h ****  *  Author : n-is
   6:Core/Inc/utils/filter.h ****  *   email : 073bex422.nischal@pcampus.edu.np
   7:Core/Inc/utils/filter.h ****  */
   8:Core/Inc/utils/filter.h **** 
   9:Core/Inc/utils/filter.h **** #ifndef _FILTER_H_
  10:Core/Inc/utils/filter.h **** #define _FILTER_H_
  11:Core/Inc/utils/filter.h **** 
  12:Core/Inc/utils/filter.h **** #include "filter_algorithm.h"
  13:Core/Inc/utils/filter.h **** 
  14:Core/Inc/utils/filter.h **** class Filter
  15:Core/Inc/utils/filter.h **** {
  16:Core/Inc/utils/filter.h **** public:
  17:Core/Inc/utils/filter.h ****         Filter() { algo_ = 0; }
  18:Core/Inc/utils/filter.h **** 
  19:Core/Inc/utils/filter.h ****         Filter(Filter_Algorithm *filt_algo) { set_Algorithm(filt_algo); }
  20:Core/Inc/utils/filter.h **** 
  21:Core/Inc/utils/filter.h ****         Filter(Filter &&) = default;
  22:Core/Inc/utils/filter.h ****         Filter(const Filter &) = default;
  23:Core/Inc/utils/filter.h ****         Filter &operator=(Filter &&) = default;
  24:Core/Inc/utils/filter.h ****         Filter &operator=(const Filter &) = default;
  25:Core/Inc/utils/filter.h ****         ~Filter() { }
  99              		.loc 3 25 0
 100              		.cfi_startproc
ARM GAS  C:\Users\Prashant\AppData\Local\Temp\ccIdreTb.s 			page 5


 101              		@ args = 0, pretend = 0, frame = 0
 102              		@ frame_needed = 0, uses_anonymous_args = 0
 103              		@ link register save eliminated.
 104              	.LVL3:
 105              		.loc 3 25 0
 106 0000 7047     		bx	lr
 107              		.cfi_endproc
 108              	.LFE450:
 110              		.weak	_ZN6FilterD1Ev
 111              		.thumb_set _ZN6FilterD1Ev,_ZN6FilterD2Ev
 112              		.section	.text._ZN4Vec3IfED2Ev,"axG",%progbits,_ZN4Vec3IfED5Ev,comdat
 113              		.align	1
 114              		.weak	_ZN4Vec3IfED2Ev
 115              		.syntax unified
 116              		.thumb
 117              		.thumb_func
 118              		.fpu fpv4-sp-d16
 120              	_ZN4Vec3IfED2Ev:
 121              	.LFB470:
 122              		.file 4 "Core/Inc\\utils/vec3.h"
   1:Core/Inc/utils/vec3.h **** /*
   2:Core/Inc/utils/vec3.h ****  * vec3.h
   3:Core/Inc/utils/vec3.h ****  * 
   4:Core/Inc/utils/vec3.h ****  * Created : 11/9/2018
   5:Core/Inc/utils/vec3.h ****  *  Author : n-is
   6:Core/Inc/utils/vec3.h ****  *   email : 073bex422.nischal@pcampus.edu.np
   7:Core/Inc/utils/vec3.h ****  */
   8:Core/Inc/utils/vec3.h **** 
   9:Core/Inc/utils/vec3.h **** #ifndef _VEC3_H_
  10:Core/Inc/utils/vec3.h **** #define _VEC3_H_
  11:Core/Inc/utils/vec3.h **** 
  12:Core/Inc/utils/vec3.h **** #include "stm32f4xx_hal.h"
  13:Core/Inc/utils/vec3.h **** 
  14:Core/Inc/utils/vec3.h **** template <typename T>
  15:Core/Inc/utils/vec3.h **** void swap_Element(T &first, T &second)
  16:Core/Inc/utils/vec3.h **** {
  17:Core/Inc/utils/vec3.h ****         T temp = first;
  18:Core/Inc/utils/vec3.h ****         first = second;
  19:Core/Inc/utils/vec3.h ****         second = temp;
  20:Core/Inc/utils/vec3.h **** }
  21:Core/Inc/utils/vec3.h **** 
  22:Core/Inc/utils/vec3.h **** template <class T>
  23:Core/Inc/utils/vec3.h **** class Vec3
  24:Core/Inc/utils/vec3.h **** {
  25:Core/Inc/utils/vec3.h **** public:
  26:Core/Inc/utils/vec3.h ****         Vec3() { set_Values(0,0,0); }
  27:Core/Inc/utils/vec3.h ****         Vec3(T x, T y, T z) { set_Values(x,y,z); }
  28:Core/Inc/utils/vec3.h ****         Vec3(Vec3 &&) = default;
  29:Core/Inc/utils/vec3.h ****         Vec3 &operator=(Vec3 &&) = default;
  30:Core/Inc/utils/vec3.h ****         ~Vec3();
  31:Core/Inc/utils/vec3.h **** 
  32:Core/Inc/utils/vec3.h ****         void set_Values(T x, T y, T z);
  33:Core/Inc/utils/vec3.h ****         T getX() const;
  34:Core/Inc/utils/vec3.h ****         T getY() const;
  35:Core/Inc/utils/vec3.h ****         T getZ() const;
  36:Core/Inc/utils/vec3.h ****         void setX(T x) { x_ = x; }
  37:Core/Inc/utils/vec3.h ****         void setY(T y) { y_ = y; }
ARM GAS  C:\Users\Prashant\AppData\Local\Temp\ccIdreTb.s 			page 6


  38:Core/Inc/utils/vec3.h ****         void setZ(T z) { z_ = z; }
  39:Core/Inc/utils/vec3.h **** 
  40:Core/Inc/utils/vec3.h ****         template <typename T1, typename T2>
  41:Core/Inc/utils/vec3.h ****         void divide(const Vec3<T1> &v, T2 num) {
  42:Core/Inc/utils/vec3.h ****                 x_ = v.getX() / num;
  43:Core/Inc/utils/vec3.h ****                 y_ = v.getY() / num;
  44:Core/Inc/utils/vec3.h ****                 z_ = v.getZ() / num;
  45:Core/Inc/utils/vec3.h ****         }
  46:Core/Inc/utils/vec3.h **** 
  47:Core/Inc/utils/vec3.h ****         Vec3 mult_EW(float num) {
  48:Core/Inc/utils/vec3.h ****                 Vec3 temp(*this);
  49:Core/Inc/utils/vec3.h ****                 temp.x_ *= num;
  50:Core/Inc/utils/vec3.h ****                 temp.y_ *= num;
  51:Core/Inc/utils/vec3.h ****                 temp.z_ *= num;
  52:Core/Inc/utils/vec3.h **** 
  53:Core/Inc/utils/vec3.h ****                 return temp;
  54:Core/Inc/utils/vec3.h ****         }
  55:Core/Inc/utils/vec3.h **** 
  56:Core/Inc/utils/vec3.h ****         Vec3 add_EW(float num) {
  57:Core/Inc/utils/vec3.h ****                 Vec3 temp(*this);
  58:Core/Inc/utils/vec3.h ****                 temp.x_ += num;
  59:Core/Inc/utils/vec3.h ****                 temp.y_ += num;
  60:Core/Inc/utils/vec3.h ****                 temp.z_ += num;
  61:Core/Inc/utils/vec3.h **** 
  62:Core/Inc/utils/vec3.h ****                 return temp;
  63:Core/Inc/utils/vec3.h ****         }
  64:Core/Inc/utils/vec3.h **** 
  65:Core/Inc/utils/vec3.h ****         Vec3 sub_EW(float num) {
  66:Core/Inc/utils/vec3.h ****                 Vec3 temp(*this);
  67:Core/Inc/utils/vec3.h ****                 temp.x_ -= num;
  68:Core/Inc/utils/vec3.h ****                 temp.y_ -= num;
  69:Core/Inc/utils/vec3.h ****                 temp.z_ -= num;
  70:Core/Inc/utils/vec3.h **** 
  71:Core/Inc/utils/vec3.h ****                 return temp;
  72:Core/Inc/utils/vec3.h ****         }
  73:Core/Inc/utils/vec3.h **** 
  74:Core/Inc/utils/vec3.h ****         template <typename T1>
  75:Core/Inc/utils/vec3.h ****         Vec3 div_EW(Vec3<T1> v) {
  76:Core/Inc/utils/vec3.h ****                 Vec3 temp(*this);
  77:Core/Inc/utils/vec3.h ****                 temp.x_ /= (float)v.x_;
  78:Core/Inc/utils/vec3.h ****                 temp.y_ /= (float)v.y_;
  79:Core/Inc/utils/vec3.h ****                 temp.z_ /= (float)v.z_;
  80:Core/Inc/utils/vec3.h **** 
  81:Core/Inc/utils/vec3.h ****                 return temp;
  82:Core/Inc/utils/vec3.h ****         }
  83:Core/Inc/utils/vec3.h **** 
  84:Core/Inc/utils/vec3.h ****         template <typename T1>
  85:Core/Inc/utils/vec3.h ****         Vec3 mult_EW(Vec3<T1> v) {
  86:Core/Inc/utils/vec3.h ****                 Vec3 temp(v);
  87:Core/Inc/utils/vec3.h ****                 temp.x_ *= x_;
  88:Core/Inc/utils/vec3.h ****                 temp.y_ *= y_;
  89:Core/Inc/utils/vec3.h ****                 temp.z_ *= z_;
  90:Core/Inc/utils/vec3.h **** 
  91:Core/Inc/utils/vec3.h ****                 return temp;
  92:Core/Inc/utils/vec3.h ****         }
  93:Core/Inc/utils/vec3.h **** 
  94:Core/Inc/utils/vec3.h ****         friend void swap(Vec3 &first, Vec3 &second) {
ARM GAS  C:\Users\Prashant\AppData\Local\Temp\ccIdreTb.s 			page 7


  95:Core/Inc/utils/vec3.h ****                 swap_Element(first.x_, second.x_);
  96:Core/Inc/utils/vec3.h ****                 swap_Element(first.y_, second.y_);
  97:Core/Inc/utils/vec3.h ****                 swap_Element(first.z_, second.z_);
  98:Core/Inc/utils/vec3.h ****         }
  99:Core/Inc/utils/vec3.h ****         
 100:Core/Inc/utils/vec3.h ****         Vec3(const Vec3 &v) {
 101:Core/Inc/utils/vec3.h ****                 x_ = v.x_;
 102:Core/Inc/utils/vec3.h ****                 y_ = v.y_;
 103:Core/Inc/utils/vec3.h ****                 z_ = v.z_;
 104:Core/Inc/utils/vec3.h ****         }
 105:Core/Inc/utils/vec3.h ****         
 106:Core/Inc/utils/vec3.h ****         Vec3 &operator=(const Vec3 &v) {
 107:Core/Inc/utils/vec3.h ****                 Vec3 temp(v);
 108:Core/Inc/utils/vec3.h ****                 swap(*this, temp);
 109:Core/Inc/utils/vec3.h **** 
 110:Core/Inc/utils/vec3.h ****                 return *this;
 111:Core/Inc/utils/vec3.h ****         }
 112:Core/Inc/utils/vec3.h **** 
 113:Core/Inc/utils/vec3.h ****         Vec3 &operator+=(const Vec3 &rhs) {
 114:Core/Inc/utils/vec3.h ****                 x_ += rhs.x_;
 115:Core/Inc/utils/vec3.h ****                 y_ += rhs.y_;
 116:Core/Inc/utils/vec3.h ****                 z_ += rhs.z_;
 117:Core/Inc/utils/vec3.h **** 
 118:Core/Inc/utils/vec3.h ****                 return *this;
 119:Core/Inc/utils/vec3.h ****         }
 120:Core/Inc/utils/vec3.h ****         
 121:Core/Inc/utils/vec3.h ****         Vec3 &operator-=(const Vec3 &rhs) {
 122:Core/Inc/utils/vec3.h ****                 x_ -= rhs.x_;
 123:Core/Inc/utils/vec3.h ****                 y_ -= rhs.y_;
 124:Core/Inc/utils/vec3.h ****                 z_ -= rhs.z_;
 125:Core/Inc/utils/vec3.h **** 
 126:Core/Inc/utils/vec3.h ****                 return *this;
 127:Core/Inc/utils/vec3.h ****         }
 128:Core/Inc/utils/vec3.h **** 
 129:Core/Inc/utils/vec3.h ****         friend Vec3 operator+(Vec3 lhs, const Vec3 &rhs) {
 130:Core/Inc/utils/vec3.h ****                 lhs += rhs;
 131:Core/Inc/utils/vec3.h ****                 return lhs;
 132:Core/Inc/utils/vec3.h ****         }
 133:Core/Inc/utils/vec3.h **** 
 134:Core/Inc/utils/vec3.h ****         friend Vec3 operator-(Vec3 lhs, const Vec3 &rhs) {
 135:Core/Inc/utils/vec3.h ****                 lhs -= rhs;
 136:Core/Inc/utils/vec3.h ****                 return lhs;
 137:Core/Inc/utils/vec3.h ****         }
 138:Core/Inc/utils/vec3.h **** 
 139:Core/Inc/utils/vec3.h ****         void print() const {
 140:Core/Inc/utils/vec3.h ****                 printf("%ld, %ld, %ld", (int32_t)x_, (int32_t)y_, (int32_t)z_);
 141:Core/Inc/utils/vec3.h ****         }
 142:Core/Inc/utils/vec3.h **** 
 143:Core/Inc/utils/vec3.h **** private:
 144:Core/Inc/utils/vec3.h ****         T x_,y_,z_;
 145:Core/Inc/utils/vec3.h **** };
 146:Core/Inc/utils/vec3.h **** 
 147:Core/Inc/utils/vec3.h **** template <class T>
 148:Core/Inc/utils/vec3.h **** Vec3<T>::~Vec3()
 123              		.loc 4 148 0
 124              		.cfi_startproc
 125              		@ args = 0, pretend = 0, frame = 0
ARM GAS  C:\Users\Prashant\AppData\Local\Temp\ccIdreTb.s 			page 8


 126              		@ frame_needed = 0, uses_anonymous_args = 0
 127              		@ link register save eliminated.
 128              	.LVL4:
 149:Core/Inc/utils/vec3.h **** {
 150:Core/Inc/utils/vec3.h **** }
 129              		.loc 4 150 0
 130 0000 7047     		bx	lr
 131              		.cfi_endproc
 132              	.LFE470:
 134              		.weak	_ZN4Vec3IfED1Ev
 135              		.thumb_set _ZN4Vec3IfED1Ev,_ZN4Vec3IfED2Ev
 136              		.section	.text._ZN11Kalman_VarsD2Ev,"axG",%progbits,_ZN11Kalman_VarsD5Ev,comdat
 137              		.align	1
 138              		.weak	_ZN11Kalman_VarsD2Ev
 139              		.syntax unified
 140              		.thumb
 141              		.thumb_func
 142              		.fpu fpv4-sp-d16
 144              	_ZN11Kalman_VarsD2Ev:
 145              	.LFB475:
  16:Core/Inc/utils/kalman.h **** {
 146              		.loc 2 16 0
 147              		.cfi_startproc
 148              		@ args = 0, pretend = 0, frame = 0
 149              		@ frame_needed = 0, uses_anonymous_args = 0
 150              		@ link register save eliminated.
 151              	.LVL5:
  16:Core/Inc/utils/kalman.h **** {
 152              		.loc 2 16 0
 153 0000 7047     		bx	lr
 154              		.cfi_endproc
 155              	.LFE475:
 157              		.weak	_ZN11Kalman_VarsD1Ev
 158              		.thumb_set _ZN11Kalman_VarsD1Ev,_ZN11Kalman_VarsD2Ev
 159              		.section	.text._ZN13Kalman_FilterD0Ev,"axG",%progbits,_ZN13Kalman_FilterD5Ev,comdat
 160              		.align	1
 161              		.weak	_ZN13Kalman_FilterD0Ev
 162              		.syntax unified
 163              		.thumb
 164              		.thumb_func
 165              		.fpu fpv4-sp-d16
 167              	_ZN13Kalman_FilterD0Ev:
 168              	.LFB441:
 169              		.loc 2 47 0
 170              		.cfi_startproc
 171              		@ args = 0, pretend = 0, frame = 0
 172              		@ frame_needed = 0, uses_anonymous_args = 0
 173              	.LVL6:
 174 0000 10B5     		push	{r4, lr}
 175              	.LCFI0:
 176              		.cfi_def_cfa_offset 8
 177              		.cfi_offset 4, -8
 178              		.cfi_offset 14, -4
 179 0002 0446     		mov	r4, r0
 180              		.loc 2 47 0
 181 0004 AC21     		movs	r1, #172
 182 0006 FFF7FEFF 		bl	_ZdlPvj
ARM GAS  C:\Users\Prashant\AppData\Local\Temp\ccIdreTb.s 			page 9


 183              	.LVL7:
 184 000a 2046     		mov	r0, r4
 185 000c 10BD     		pop	{r4, pc}
 186              		.cfi_endproc
 187              	.LFE441:
 189              		.global	__aeabi_f2d
 190              		.global	__aeabi_dcmplt
 191              		.global	__aeabi_ddiv
 192              		.global	__aeabi_d2f
 193              		.section	.text._ZN13Kalman_Filter6filterEffm,"axG",%progbits,_ZN13Kalman_Filter6filterEffm,comdat
 194              		.align	1
 195              		.weak	_ZN13Kalman_Filter6filterEffm
 196              		.syntax unified
 197              		.thumb
 198              		.thumb_func
 199              		.fpu fpv4-sp-d16
 201              	_ZN13Kalman_Filter6filterEffm:
 202              	.LFB442:
  48:Core/Inc/utils/kalman.h ****         
  49:Core/Inc/utils/kalman.h ****         float filter(float measured, float control_input, uint32_t dt_millis) {
 203              		.loc 2 49 0
 204              		.cfi_startproc
 205              		@ args = 0, pretend = 0, frame = 320
 206              		@ frame_needed = 0, uses_anonymous_args = 0
 207              	.LVL8:
 208 0000 2DE9F047 		push	{r4, r5, r6, r7, r8, r9, r10, lr}
 209              	.LCFI1:
 210              		.cfi_def_cfa_offset 32
 211              		.cfi_offset 4, -32
 212              		.cfi_offset 5, -28
 213              		.cfi_offset 6, -24
 214              		.cfi_offset 7, -20
 215              		.cfi_offset 8, -16
 216              		.cfi_offset 9, -12
 217              		.cfi_offset 10, -8
 218              		.cfi_offset 14, -4
 219 0004 2DED028B 		vpush.64	{d8}
 220              	.LCFI2:
 221              		.cfi_def_cfa_offset 40
 222              		.cfi_offset 80, -40
 223              		.cfi_offset 81, -36
 224 0008 D0B0     		sub	sp, sp, #320
 225              	.LCFI3:
 226              		.cfi_def_cfa_offset 360
 227 000a 0446     		mov	r4, r0
 228 000c B0EE408A 		vmov.f32	s16, s0
 229 0010 F0EE608A 		vmov.f32	s17, s1
  50:Core/Inc/utils/kalman.h ****                 // float dt = (float)dt_millis / 1000.0;
  51:Core/Inc/utils/kalman.h ****                 // For first element of vector
  52:Core/Inc/utils/kalman.h ****                 if (is_first_) {
 230              		.loc 2 52 0
 231 0014 0379     		ldrb	r3, [r0, #4]	@ zero_extendqisi2
 232 0016 53B3     		cbz	r3, .L10
  53:Core/Inc/utils/kalman.h ****                         is_first_ = false;
 233              		.loc 2 53 0
 234 0018 0023     		movs	r3, #0
 235 001a 0371     		strb	r3, [r0, #4]
ARM GAS  C:\Users\Prashant\AppData\Local\Temp\ccIdreTb.s 			page 10


 236              	.LVL9:
 237              	.LBB821:
 238              	.LBB822:
 239              		.file 5 "Core/Inc/utils/mat.h"
   1:Core/Inc/utils/mat.h **** /*
   2:Core/Inc/utils/mat.h ****  * mat.h
   3:Core/Inc/utils/mat.h ****  * 
   4:Core/Inc/utils/mat.h ****  * Created : 11/12/2018
   5:Core/Inc/utils/mat.h ****  *  Author : n-is
   6:Core/Inc/utils/mat.h ****  *   email : 073bex422.nischal@pcampus.edu.np
   7:Core/Inc/utils/mat.h ****  */
   8:Core/Inc/utils/mat.h **** 
   9:Core/Inc/utils/mat.h **** #ifndef _MAT_H_
  10:Core/Inc/utils/mat.h **** #define _MAT_H_
  11:Core/Inc/utils/mat.h **** 
  12:Core/Inc/utils/mat.h **** #include <math.h>
  13:Core/Inc/utils/mat.h **** #include "vec3.h"
  14:Core/Inc/utils/mat.h **** #include "main.h"
  15:Core/Inc/utils/mat.h **** 
  16:Core/Inc/utils/mat.h **** #define MAX_MATRIX_ROWS         3
  17:Core/Inc/utils/mat.h **** #define MAX_MATRIX_COLS         3
  18:Core/Inc/utils/mat.h **** 
  19:Core/Inc/utils/mat.h **** class Mat
  20:Core/Inc/utils/mat.h **** {
  21:Core/Inc/utils/mat.h **** public:
  22:Core/Inc/utils/mat.h ****         Mat() : Mat(0,0) { }
  23:Core/Inc/utils/mat.h ****         Mat(uint8_t rows, uint8_t columns) {
  24:Core/Inc/utils/mat.h ****                 if (!(rows < MAX_MATRIX_ROWS && columns < MAX_MATRIX_COLS)) {
  25:Core/Inc/utils/mat.h ****                         _Error_Handler(__FILE__, __LINE__);
  26:Core/Inc/utils/mat.h ****                 }
  27:Core/Inc/utils/mat.h ****                 rows_ = rows;
  28:Core/Inc/utils/mat.h ****                 cols_ = columns;
  29:Core/Inc/utils/mat.h **** 
  30:Core/Inc/utils/mat.h ****                 fill(0);
  31:Core/Inc/utils/mat.h ****         }
  32:Core/Inc/utils/mat.h ****         Mat(Mat &&) = default;
  33:Core/Inc/utils/mat.h ****         Mat &operator=(Mat &&) = default;
  34:Core/Inc/utils/mat.h ****         ~Mat() { }
  35:Core/Inc/utils/mat.h **** 
  36:Core/Inc/utils/mat.h ****         float &at(uint8_t i, uint8_t j) {
  37:Core/Inc/utils/mat.h ****                 if (!(i < rows_ && j < cols_)) {
 240              		.loc 5 37 0
 241 001c 90F83030 		ldrb	r3, [r0, #48]	@ zero_extendqisi2
 242 0020 13B1     		cbz	r3, .L11
 243 0022 90F83130 		ldrb	r3, [r0, #49]	@ zero_extendqisi2
 244 0026 1BB9     		cbnz	r3, .L12
 245              	.L11:
  38:Core/Inc/utils/mat.h ****                         _Error_Handler(__FILE__, __LINE__);
 246              		.loc 5 38 0
 247 0028 2621     		movs	r1, #38
 248              	.LVL10:
 249 002a C548     		ldr	r0, .L292
 250              	.LVL11:
 251 002c FFF7FEFF 		bl	_Error_Handler
 252              	.LVL12:
 253              	.L12:
 254              	.LBE822:
ARM GAS  C:\Users\Prashant\AppData\Local\Temp\ccIdreTb.s 			page 11


 255              	.LBE821:
  54:Core/Inc/utils/kalman.h ****                         x_.at(0,0) = measured;
 256              		.loc 2 54 0
 257 0030 84ED038A 		vstr.32	s16, [r4, #12]
 258              	.LVL13:
 259              	.LBB823:
 260              	.LBB824:
  37:Core/Inc/utils/mat.h ****                         _Error_Handler(__FILE__, __LINE__);
 261              		.loc 5 37 0
 262 0034 94F85830 		ldrb	r3, [r4, #88]	@ zero_extendqisi2
 263 0038 13B1     		cbz	r3, .L13
 264 003a 94F85930 		ldrb	r3, [r4, #89]	@ zero_extendqisi2
 265 003e 1BB9     		cbnz	r3, .L14
 266              	.L13:
 267              		.loc 5 38 0
 268 0040 2621     		movs	r1, #38
 269 0042 BF48     		ldr	r0, .L292
 270 0044 FFF7FEFF 		bl	_Error_Handler
 271              	.LVL14:
 272              	.L14:
 273              	.LBE824:
 274              	.LBE823:
  55:Core/Inc/utils/kalman.h ****                         u_.at(0,0) = control_input;
 275              		.loc 2 55 0
 276 0048 C4ED0D8A 		vstr.32	s17, [r4, #52]
 277              	.LVL15:
 278              	.L15:
 279              	.LBB825:
 280              	.LBB826:
  37:Core/Inc/utils/mat.h ****                         _Error_Handler(__FILE__, __LINE__);
 281              		.loc 5 37 0
 282 004c 94F83030 		ldrb	r3, [r4, #48]	@ zero_extendqisi2
 283 0050 13B1     		cbz	r3, .L248
 284 0052 94F83130 		ldrb	r3, [r4, #49]	@ zero_extendqisi2
 285 0056 1BB9     		cbnz	r3, .L249
 286              	.L248:
 287              		.loc 5 38 0
 288 0058 2621     		movs	r1, #38
 289 005a B948     		ldr	r0, .L292
 290 005c FFF7FEFF 		bl	_Error_Handler
 291              	.LVL16:
 292              	.L249:
 293              	.LBE826:
 294              	.LBE825:
  56:Core/Inc/utils/kalman.h ****                 }
  57:Core/Inc/utils/kalman.h ****                 else {
  58:Core/Inc/utils/kalman.h ****                         // Using Trapezoidal rule
  59:Core/Inc/utils/kalman.h ****                         u_.at(0,0) += control_input;
  60:Core/Inc/utils/kalman.h ****                         u_.at(0,0) /= 2.0;
  61:Core/Inc/utils/kalman.h **** 
  62:Core/Inc/utils/kalman.h ****                         // Predict
  63:Core/Inc/utils/kalman.h ****                         x_ = (kv_->F_).mult(x_) + (kv_->B_).mult(u_);
  64:Core/Inc/utils/kalman.h ****                         kv_->P_ = (kv_->F_).mult((kv_->P_).mult((kv_->F_).transpose())) + kv_->Q_;
  65:Core/Inc/utils/kalman.h **** 
  66:Core/Inc/utils/kalman.h ****                         // Update
  67:Core/Inc/utils/kalman.h ****                         z_.at(0,0) = measured;
  68:Core/Inc/utils/kalman.h ****                         K_ = kv_->P_.mult(kv_->H_.transpose()).mult((kv_->H_.mult(kv_->P_.mult(kv_-
ARM GAS  C:\Users\Prashant\AppData\Local\Temp\ccIdreTb.s 			page 12


  69:Core/Inc/utils/kalman.h ****                         x_ += K_.mult(z_ - kv_->H_.mult(x_));
  70:Core/Inc/utils/kalman.h ****                         kv_->P_ = (kv_->I_ - K_.mult(kv_->H_)).mult(kv_->P_);
  71:Core/Inc/utils/kalman.h ****                 }
  72:Core/Inc/utils/kalman.h **** 
  73:Core/Inc/utils/kalman.h ****                 return x_.at(0,0);
  74:Core/Inc/utils/kalman.h ****         }
 295              		.loc 2 74 0
 296 0060 94ED030A 		vldr.32	s0, [r4, #12]
 297 0064 50B0     		add	sp, sp, #320
 298              	.LCFI4:
 299              		.cfi_remember_state
 300              		.cfi_def_cfa_offset 40
 301              		@ sp needed
 302 0066 BDEC028B 		vldm	sp!, {d8}
 303              	.LCFI5:
 304              		.cfi_restore 80
 305              		.cfi_restore 81
 306              		.cfi_def_cfa_offset 32
 307 006a BDE8F087 		pop	{r4, r5, r6, r7, r8, r9, r10, pc}
 308              	.LVL17:
 309              	.L10:
 310              	.LCFI6:
 311              		.cfi_restore_state
 312              	.LBB827:
 313              	.LBB828:
  37:Core/Inc/utils/mat.h ****                         _Error_Handler(__FILE__, __LINE__);
 314              		.loc 5 37 0
 315 006e 90F85830 		ldrb	r3, [r0, #88]	@ zero_extendqisi2
 316 0072 13B1     		cbz	r3, .L16
 317 0074 90F85930 		ldrb	r3, [r0, #89]	@ zero_extendqisi2
 318 0078 1BB9     		cbnz	r3, .L17
 319              	.L16:
 320              		.loc 5 38 0
 321 007a 2621     		movs	r1, #38
 322              	.LVL18:
 323 007c B048     		ldr	r0, .L292
 324              	.LVL19:
 325 007e FFF7FEFF 		bl	_Error_Handler
 326              	.LVL20:
 327              	.L17:
 328              	.LBE828:
 329              	.LBE827:
  59:Core/Inc/utils/kalman.h ****                         u_.at(0,0) /= 2.0;
 330              		.loc 2 59 0
 331 0082 D4ED0D7A 		vldr.32	s15, [r4, #52]
 332 0086 77EEA88A 		vadd.f32	s17, s15, s17
 333              	.LVL21:
 334 008a C4ED0D8A 		vstr.32	s17, [r4, #52]
 335              	.LVL22:
 336              	.LBB829:
 337              	.LBB830:
  37:Core/Inc/utils/mat.h ****                         _Error_Handler(__FILE__, __LINE__);
 338              		.loc 5 37 0
 339 008e 94F85830 		ldrb	r3, [r4, #88]	@ zero_extendqisi2
 340 0092 13B1     		cbz	r3, .L18
 341 0094 94F85930 		ldrb	r3, [r4, #89]	@ zero_extendqisi2
 342 0098 1BB9     		cbnz	r3, .L19
ARM GAS  C:\Users\Prashant\AppData\Local\Temp\ccIdreTb.s 			page 13


 343              	.L18:
 344              		.loc 5 38 0
 345 009a 2621     		movs	r1, #38
 346 009c A848     		ldr	r0, .L292
 347 009e FFF7FEFF 		bl	_Error_Handler
 348              	.LVL23:
 349              	.L19:
 350              	.LBE830:
 351              	.LBE829:
  60:Core/Inc/utils/kalman.h **** 
 352              		.loc 2 60 0
 353 00a2 D4ED0D7A 		vldr.32	s15, [r4, #52]
 354 00a6 B6EE007A 		vmov.f32	s14, #5.0e-1
 355 00aa 67EE877A 		vmul.f32	s15, s15, s14
 356 00ae C4ED0D7A 		vstr.32	s15, [r4, #52]
  63:Core/Inc/utils/kalman.h ****                         kv_->P_ = (kv_->F_).mult((kv_->P_).mult((kv_->F_).transpose())) + kv_->Q_;
 357              		.loc 2 63 0
 358 00b2 A668     		ldr	r6, [r4, #8]
 359 00b4 04F10C05 		add	r5, r4, #12
 360              	.LVL24:
 361              	.LBB831:
 362              	.LBB832:
  39:Core/Inc/utils/mat.h ****                 }
  40:Core/Inc/utils/mat.h ****                 return matrix_[i][j];
  41:Core/Inc/utils/mat.h ****         }
  42:Core/Inc/utils/mat.h **** 
  43:Core/Inc/utils/mat.h ****         friend void swap(Mat &first, Mat &second) {
  44:Core/Inc/utils/mat.h ****                 swap_Element(first.rows_, second.rows_);
  45:Core/Inc/utils/mat.h ****                 swap_Element(first.cols_, second.cols_);
  46:Core/Inc/utils/mat.h ****                 for (uint8_t i = 0; i < MAX_MATRIX_ROWS; ++i) {
  47:Core/Inc/utils/mat.h ****                         for (uint8_t j = 0; j < MAX_MATRIX_COLS; ++j) {
  48:Core/Inc/utils/mat.h ****                                 swap_Element(first.matrix_[i][j], second.matrix_[i][j]);
  49:Core/Inc/utils/mat.h ****                         }
  50:Core/Inc/utils/mat.h ****                 }
  51:Core/Inc/utils/mat.h ****         }
  52:Core/Inc/utils/mat.h **** 
  53:Core/Inc/utils/mat.h ****         Mat(const Mat &m) {
  54:Core/Inc/utils/mat.h ****                 rows_ = m.rows_;
  55:Core/Inc/utils/mat.h ****                 cols_ = m.cols_;
  56:Core/Inc/utils/mat.h ****                 
  57:Core/Inc/utils/mat.h ****                 for (uint8_t i = 0; i < MAX_MATRIX_ROWS; ++i) {
  58:Core/Inc/utils/mat.h ****                         for (uint8_t j = 0; j < MAX_MATRIX_COLS; ++j) {
  59:Core/Inc/utils/mat.h ****                                 matrix_[i][j] = m.matrix_[i][j];
  60:Core/Inc/utils/mat.h ****                         }
  61:Core/Inc/utils/mat.h ****                 }
  62:Core/Inc/utils/mat.h ****         }
  63:Core/Inc/utils/mat.h **** 
  64:Core/Inc/utils/mat.h ****         Mat &operator=(const Mat &m) {
  65:Core/Inc/utils/mat.h ****                 Mat temp(m);
  66:Core/Inc/utils/mat.h ****                 swap(*this, temp);
  67:Core/Inc/utils/mat.h **** 
  68:Core/Inc/utils/mat.h ****                 return *this;
  69:Core/Inc/utils/mat.h ****         }
  70:Core/Inc/utils/mat.h **** 
  71:Core/Inc/utils/mat.h ****         Mat &operator+=(const Mat &rhs) {
  72:Core/Inc/utils/mat.h ****                 if (rhs.rows_ != rows_ || rhs.cols_ != cols_) {
  73:Core/Inc/utils/mat.h ****                         _Error_Handler(__FILE__, __LINE__);
ARM GAS  C:\Users\Prashant\AppData\Local\Temp\ccIdreTb.s 			page 14


  74:Core/Inc/utils/mat.h ****                 }
  75:Core/Inc/utils/mat.h **** 
  76:Core/Inc/utils/mat.h ****                 for (uint8_t i = 0; i < rows_; ++i) {
  77:Core/Inc/utils/mat.h ****                         for (uint8_t j = 0; j < cols_; ++j) {
  78:Core/Inc/utils/mat.h ****                                 matrix_[i][j] += rhs.matrix_[i][j];
  79:Core/Inc/utils/mat.h ****                         }
  80:Core/Inc/utils/mat.h ****                 }
  81:Core/Inc/utils/mat.h **** 
  82:Core/Inc/utils/mat.h ****                 return *this;
  83:Core/Inc/utils/mat.h ****         }
  84:Core/Inc/utils/mat.h **** 
  85:Core/Inc/utils/mat.h ****         Mat &operator-=(const Mat &rhs) {
  86:Core/Inc/utils/mat.h ****                 if (rhs.rows_ != rows_ || rhs.cols_ != cols_) {
  87:Core/Inc/utils/mat.h ****                         _Error_Handler(__FILE__, __LINE__);
  88:Core/Inc/utils/mat.h ****                 }
  89:Core/Inc/utils/mat.h **** 
  90:Core/Inc/utils/mat.h ****                 for (uint8_t i = 0; i < rows_; ++i) {
  91:Core/Inc/utils/mat.h ****                         for (uint8_t j = 0; j < cols_; ++j) {
  92:Core/Inc/utils/mat.h ****                                 matrix_[i][j] -= rhs.matrix_[i][j];
  93:Core/Inc/utils/mat.h ****                         }
  94:Core/Inc/utils/mat.h ****                 }
  95:Core/Inc/utils/mat.h **** 
  96:Core/Inc/utils/mat.h ****                 return *this;
  97:Core/Inc/utils/mat.h ****         }
  98:Core/Inc/utils/mat.h **** 
  99:Core/Inc/utils/mat.h ****         friend Mat operator+(Mat lhs, const Mat &rhs) {
 100:Core/Inc/utils/mat.h ****                 lhs += rhs;
 101:Core/Inc/utils/mat.h ****                 return lhs;
 102:Core/Inc/utils/mat.h ****         }
 103:Core/Inc/utils/mat.h **** 
 104:Core/Inc/utils/mat.h ****         friend Mat operator-(Mat lhs, const Mat &rhs) {
 105:Core/Inc/utils/mat.h ****                 lhs -= rhs;
 106:Core/Inc/utils/mat.h ****                 return lhs;
 107:Core/Inc/utils/mat.h ****         }
 108:Core/Inc/utils/mat.h **** 
 109:Core/Inc/utils/mat.h ****         Mat mult(const Mat &m) {
 110:Core/Inc/utils/mat.h ****                 if (cols_ != m.rows_) {
 363              		.loc 5 110 0
 364 00b8 96F82520 		ldrb	r2, [r6, #37]	@ zero_extendqisi2
 365 00bc 95F82430 		ldrb	r3, [r5, #36]	@ zero_extendqisi2
 366 00c0 9A42     		cmp	r2, r3
 367 00c2 12D1     		bne	.L269
 368              	.L20:
 111:Core/Inc/utils/mat.h ****                         _Error_Handler(__FILE__, __LINE__);
 112:Core/Inc/utils/mat.h ****                 }
 113:Core/Inc/utils/mat.h **** 
 114:Core/Inc/utils/mat.h ****                 Mat product(rows_, m.cols_);
 369              		.loc 5 114 0
 370 00c4 96F82480 		ldrb	r8, [r6, #36]	@ zero_extendqisi2
 371 00c8 95F82570 		ldrb	r7, [r5, #37]	@ zero_extendqisi2
 372              	.LVL25:
 373              	.LBB833:
 374              	.LBB834:
 375              	.LBB835:
  24:Core/Inc/utils/mat.h ****                         _Error_Handler(__FILE__, __LINE__);
 376              		.loc 5 24 0
 377 00cc B8F1020F 		cmp	r8, #2
ARM GAS  C:\Users\Prashant\AppData\Local\Temp\ccIdreTb.s 			page 15


 378 00d0 01D8     		bhi	.L21
 379 00d2 022F     		cmp	r7, #2
 380 00d4 03D9     		bls	.L22
 381              	.L21:
  25:Core/Inc/utils/mat.h ****                 }
 382              		.loc 5 25 0
 383 00d6 1921     		movs	r1, #25
 384 00d8 9948     		ldr	r0, .L292
 385 00da FFF7FEFF 		bl	_Error_Handler
 386              	.LVL26:
 387              	.L22:
  27:Core/Inc/utils/mat.h ****                 cols_ = columns;
 388              		.loc 5 27 0
 389 00de 8DF8EC80 		strb	r8, [sp, #236]
  28:Core/Inc/utils/mat.h **** 
 390              		.loc 5 28 0
 391 00e2 8DF8ED70 		strb	r7, [sp, #237]
 392              	.LVL27:
 393              	.LBB836:
 394              	.LBB837:
 115:Core/Inc/utils/mat.h ****                 float sum;
 116:Core/Inc/utils/mat.h ****                 for (uint8_t i = 0; i < rows_; ++i) {
 117:Core/Inc/utils/mat.h ****                         for (uint8_t j = 0; j < m.cols_; ++j) {
 118:Core/Inc/utils/mat.h ****                                 sum = 0;
 119:Core/Inc/utils/mat.h ****                                 for (uint8_t k = 0; k < cols_; ++k) {
 120:Core/Inc/utils/mat.h ****                                         sum += matrix_[i][k] * m.matrix_[k][j];
 121:Core/Inc/utils/mat.h ****                                 }
 122:Core/Inc/utils/mat.h ****                                 product.matrix_[i][j] = sum;
 123:Core/Inc/utils/mat.h ****                         }
 124:Core/Inc/utils/mat.h ****                 }
 125:Core/Inc/utils/mat.h **** 
 126:Core/Inc/utils/mat.h ****                 return product;
 127:Core/Inc/utils/mat.h ****         }
 128:Core/Inc/utils/mat.h **** 
 129:Core/Inc/utils/mat.h ****         Mat mult_EW(float num) {
 130:Core/Inc/utils/mat.h ****                 Mat temp(rows_, cols_);
 131:Core/Inc/utils/mat.h ****                 for (uint8_t i = 0; i < rows_; ++i) {
 132:Core/Inc/utils/mat.h ****                         for (uint8_t j = 0; j < cols_; ++j) {
 133:Core/Inc/utils/mat.h ****                                 temp.matrix_[i][j] *= num;
 134:Core/Inc/utils/mat.h ****                         }
 135:Core/Inc/utils/mat.h ****                 }
 136:Core/Inc/utils/mat.h **** 
 137:Core/Inc/utils/mat.h ****                 return temp;
 138:Core/Inc/utils/mat.h ****         }
 139:Core/Inc/utils/mat.h **** 
 140:Core/Inc/utils/mat.h ****         Mat inverse() {
 141:Core/Inc/utils/mat.h ****                 if (rows_ != cols_) {
 142:Core/Inc/utils/mat.h ****                         _Error_Handler(__FILE__, __LINE__);
 143:Core/Inc/utils/mat.h ****                 }
 144:Core/Inc/utils/mat.h ****                 
 145:Core/Inc/utils/mat.h ****                 Mat inv(rows_, cols_);
 146:Core/Inc/utils/mat.h ****                 if (rows_ == 1) {
 147:Core/Inc/utils/mat.h ****                         if (fabsf(matrix_[0][0]) < 0.000001) {
 148:Core/Inc/utils/mat.h ****                                 _Error_Handler(__FILE__, __LINE__);
 149:Core/Inc/utils/mat.h ****                         }
 150:Core/Inc/utils/mat.h **** 
 151:Core/Inc/utils/mat.h ****                         inv.matrix_[0][0] = 1.0 / (float)(matrix_[0][0]);
ARM GAS  C:\Users\Prashant\AppData\Local\Temp\ccIdreTb.s 			page 16


 152:Core/Inc/utils/mat.h ****                 }
 153:Core/Inc/utils/mat.h ****                 else if (rows_ == 2) {
 154:Core/Inc/utils/mat.h ****                         float d = matrix_[0][0] * matrix_[1][1] - matrix_[0][1] * matrix_[1][0];
 155:Core/Inc/utils/mat.h ****                         if (fabsf(d) < 0.000001) {
 156:Core/Inc/utils/mat.h ****                                 _Error_Handler(__FILE__, __LINE__);
 157:Core/Inc/utils/mat.h ****                         }
 158:Core/Inc/utils/mat.h ****                         else {
 159:Core/Inc/utils/mat.h ****                                 inv.matrix_[0][0] = matrix_[1][1] / d;
 160:Core/Inc/utils/mat.h ****                                 inv.matrix_[0][1] = matrix_[0][1] * (-1.0) / d;
 161:Core/Inc/utils/mat.h ****                                 inv.matrix_[1][0] = matrix_[1][0] * (-1.0) / d;
 162:Core/Inc/utils/mat.h ****                                 inv.matrix_[1][1] = matrix_[0][0] / d;
 163:Core/Inc/utils/mat.h ****                         }
 164:Core/Inc/utils/mat.h ****                 }
 165:Core/Inc/utils/mat.h **** 
 166:Core/Inc/utils/mat.h ****                 return inv;
 167:Core/Inc/utils/mat.h ****         }
 168:Core/Inc/utils/mat.h **** 
 169:Core/Inc/utils/mat.h ****         Mat transpose() {
 170:Core/Inc/utils/mat.h ****                 Mat trans(cols_, rows_);
 171:Core/Inc/utils/mat.h ****                 for (uint8_t i = 0; i < rows_; ++i) {
 172:Core/Inc/utils/mat.h ****                         for (uint8_t j = 0; j < cols_; ++j) {
 173:Core/Inc/utils/mat.h ****                                 trans.matrix_[i][j] = matrix_[j][i];
 174:Core/Inc/utils/mat.h ****                         }
 175:Core/Inc/utils/mat.h ****                 }
 176:Core/Inc/utils/mat.h ****                 return trans;
 177:Core/Inc/utils/mat.h ****         }
 178:Core/Inc/utils/mat.h **** 
 179:Core/Inc/utils/mat.h ****         void fill(float num) {
 180:Core/Inc/utils/mat.h ****                 for (uint8_t i = 0; i < rows_; ++i) {
 395              		.loc 5 180 0
 396 00e6 0021     		movs	r1, #0
 397 00e8 06E0     		b	.L26
 398              	.LVL28:
 399              	.L269:
 400              	.LBE837:
 401              	.LBE836:
 402              	.LBE835:
 403              	.LBE834:
 404              	.LBE833:
 111:Core/Inc/utils/mat.h ****                 }
 405              		.loc 5 111 0
 406 00ea 6F21     		movs	r1, #111
 407 00ec 9448     		ldr	r0, .L292
 408 00ee FFF7FEFF 		bl	_Error_Handler
 409              	.LVL29:
 410 00f2 E7E7     		b	.L20
 411              	.LVL30:
 412              	.L24:
 413              	.LBB843:
 414              	.LBB842:
 415              	.LBB841:
 416              	.LBB840:
 417              	.LBB839:
 418              		.loc 5 180 0
 419 00f4 0131     		adds	r1, r1, #1
 420              	.LVL31:
 421 00f6 C9B2     		uxtb	r1, r1
ARM GAS  C:\Users\Prashant\AppData\Local\Temp\ccIdreTb.s 			page 17


 422              	.LVL32:
 423              	.L26:
 424 00f8 8845     		cmp	r8, r1
 425 00fa 0ED9     		bls	.L250
 426              	.LBB838:
 181:Core/Inc/utils/mat.h ****                         for (uint8_t j = 0; j < cols_; ++j) {
 427              		.loc 5 181 0
 428 00fc 0023     		movs	r3, #0
 429              	.L25:
 430              	.LVL33:
 431 00fe 9F42     		cmp	r7, r3
 432 0100 F8D9     		bls	.L24
 182:Core/Inc/utils/mat.h ****                                 matrix_[i][j] = num;
 433              		.loc 5 182 0
 434 0102 01EB4102 		add	r2, r1, r1, lsl #1
 435 0106 1A44     		add	r2, r2, r3
 436 0108 50A8     		add	r0, sp, #320
 437 010a 00EB8202 		add	r2, r0, r2, lsl #2
 438 010e 0020     		movs	r0, #0
 439 0110 42F8780C 		str	r0, [r2, #-120]	@ float
 181:Core/Inc/utils/mat.h ****                         for (uint8_t j = 0; j < cols_; ++j) {
 440              		.loc 5 181 0
 441 0114 0133     		adds	r3, r3, #1
 442              	.LVL34:
 443 0116 DBB2     		uxtb	r3, r3
 444              	.LVL35:
 445 0118 F1E7     		b	.L25
 446              	.LVL36:
 447              	.L250:
 448              	.LBE838:
 449              	.LBE839:
 450              	.LBE840:
 451              	.LBE841:
 452              	.LBE842:
 453              	.LBE843:
 454              	.LBB844:
 116:Core/Inc/utils/mat.h ****                         for (uint8_t j = 0; j < m.cols_; ++j) {
 455              		.loc 5 116 0
 456 011a 0021     		movs	r1, #0
 457              	.LVL37:
 458 011c 2BE0     		b	.L23
 459              	.LVL38:
 460              	.L29:
 461              	.LBB845:
 462              	.LBB846:
 122:Core/Inc/utils/mat.h ****                         }
 463              		.loc 5 122 0
 464 011e 01EB4103 		add	r3, r1, r1, lsl #1
 465              	.LVL39:
 466 0122 0344     		add	r3, r3, r0
 467 0124 50AA     		add	r2, sp, #320
 468 0126 02EB8303 		add	r3, r2, r3, lsl #2
 469 012a 03ED1E7A 		vstr.32	s14, [r3, #-120]
 470              	.LBE846:
 117:Core/Inc/utils/mat.h ****                                 sum = 0;
 471              		.loc 5 117 0
 472 012e 0130     		adds	r0, r0, #1
ARM GAS  C:\Users\Prashant\AppData\Local\Temp\ccIdreTb.s 			page 18


 473              	.LVL40:
 474 0130 C0B2     		uxtb	r0, r0
 475              	.LVL41:
 476              	.L31:
 477 0132 95F82530 		ldrb	r3, [r5, #37]	@ zero_extendqisi2
 478 0136 8342     		cmp	r3, r0
 479 0138 1BD9     		bls	.L28
 480              	.LBB849:
 481              	.LBB847:
 119:Core/Inc/utils/mat.h ****                                         sum += matrix_[i][k] * m.matrix_[k][j];
 482              		.loc 5 119 0
 483 013a 0023     		movs	r3, #0
 484              	.LBE847:
 118:Core/Inc/utils/mat.h ****                                 for (uint8_t k = 0; k < cols_; ++k) {
 485              		.loc 5 118 0
 486 013c 9FED817A 		vldr.32	s14, .L292+4
 487              	.L30:
 488              	.LVL42:
 489              	.LBB848:
 119:Core/Inc/utils/mat.h ****                                         sum += matrix_[i][k] * m.matrix_[k][j];
 490              		.loc 5 119 0
 491 0140 96F82520 		ldrb	r2, [r6, #37]	@ zero_extendqisi2
 492 0144 9A42     		cmp	r2, r3
 493 0146 EAD9     		bls	.L29
 120:Core/Inc/utils/mat.h ****                                 }
 494              		.loc 5 120 0
 495 0148 01EB4102 		add	r2, r1, r1, lsl #1
 496 014c 1A44     		add	r2, r2, r3
 497 014e 06EB8202 		add	r2, r6, r2, lsl #2
 498 0152 D2ED007A 		vldr.32	s15, [r2]
 499 0156 03EB4302 		add	r2, r3, r3, lsl #1
 500 015a 0244     		add	r2, r2, r0
 501 015c 05EB8202 		add	r2, r5, r2, lsl #2
 502 0160 D2ED006A 		vldr.32	s13, [r2]
 503 0164 67EEA67A 		vmul.f32	s15, s15, s13
 504 0168 37EE277A 		vadd.f32	s14, s14, s15
 505              	.LVL43:
 119:Core/Inc/utils/mat.h ****                                         sum += matrix_[i][k] * m.matrix_[k][j];
 506              		.loc 5 119 0
 507 016c 0133     		adds	r3, r3, #1
 508              	.LVL44:
 509 016e DBB2     		uxtb	r3, r3
 510              	.LVL45:
 511 0170 E6E7     		b	.L30
 512              	.LVL46:
 513              	.L28:
 514              	.LBE848:
 515              	.LBE849:
 516              	.LBE845:
 116:Core/Inc/utils/mat.h ****                         for (uint8_t j = 0; j < m.cols_; ++j) {
 517              		.loc 5 116 0
 518 0172 0131     		adds	r1, r1, #1
 519              	.LVL47:
 520 0174 C9B2     		uxtb	r1, r1
 521              	.LVL48:
 522              	.L23:
 523 0176 96F82430 		ldrb	r3, [r6, #36]	@ zero_extendqisi2
ARM GAS  C:\Users\Prashant\AppData\Local\Temp\ccIdreTb.s 			page 19


 524 017a 8B42     		cmp	r3, r1
 525 017c 01D9     		bls	.L27
 526              	.LBB850:
 117:Core/Inc/utils/mat.h ****                                 sum = 0;
 527              		.loc 5 117 0
 528 017e 0020     		movs	r0, #0
 529 0180 D7E7     		b	.L31
 530              	.L27:
 531              	.LVL49:
 532              	.LBE850:
 533              	.LBE844:
 534              	.LBE832:
 535              	.LBE831:
  63:Core/Inc/utils/kalman.h ****                         kv_->P_ = (kv_->F_).mult((kv_->P_).mult((kv_->F_).transpose())) + kv_->Q_;
 536              		.loc 2 63 0
 537 0182 A668     		ldr	r6, [r4, #8]
 538 0184 2836     		adds	r6, r6, #40
 539 0186 04F13407 		add	r7, r4, #52
 540              	.LVL50:
 541              	.LBB851:
 542              	.LBB852:
 110:Core/Inc/utils/mat.h ****                         _Error_Handler(__FILE__, __LINE__);
 543              		.loc 5 110 0
 544 018a 96F82520 		ldrb	r2, [r6, #37]	@ zero_extendqisi2
 545 018e 97F82430 		ldrb	r3, [r7, #36]	@ zero_extendqisi2
 546 0192 9A42     		cmp	r2, r3
 547 0194 13D1     		bne	.L270
 548              	.L32:
 114:Core/Inc/utils/mat.h ****                 float sum;
 549              		.loc 5 114 0
 550 0196 96F82490 		ldrb	r9, [r6, #36]	@ zero_extendqisi2
 551 019a 97F82580 		ldrb	r8, [r7, #37]	@ zero_extendqisi2
 552              	.LVL51:
 553              	.LBB853:
 554              	.LBB854:
 555              	.LBB855:
  24:Core/Inc/utils/mat.h ****                         _Error_Handler(__FILE__, __LINE__);
 556              		.loc 5 24 0
 557 019e B9F1020F 		cmp	r9, #2
 558 01a2 02D8     		bhi	.L33
 559 01a4 B8F1020F 		cmp	r8, #2
 560 01a8 03D9     		bls	.L34
 561              	.L33:
  25:Core/Inc/utils/mat.h ****                 }
 562              		.loc 5 25 0
 563 01aa 1921     		movs	r1, #25
 564 01ac 6448     		ldr	r0, .L292
 565 01ae FFF7FEFF 		bl	_Error_Handler
 566              	.LVL52:
 567              	.L34:
  27:Core/Inc/utils/mat.h ****                 cols_ = columns;
 568              		.loc 5 27 0
 569 01b2 8DF81491 		strb	r9, [sp, #276]
  28:Core/Inc/utils/mat.h **** 
 570              		.loc 5 28 0
 571 01b6 8DF81581 		strb	r8, [sp, #277]
 572              	.LVL53:
ARM GAS  C:\Users\Prashant\AppData\Local\Temp\ccIdreTb.s 			page 20


 573              	.LBB856:
 574              	.LBB857:
 180:Core/Inc/utils/mat.h ****                         for (uint8_t j = 0; j < cols_; ++j) {
 575              		.loc 5 180 0
 576 01ba 0021     		movs	r1, #0
 577 01bc 06E0     		b	.L38
 578              	.LVL54:
 579              	.L270:
 580              	.LBE857:
 581              	.LBE856:
 582              	.LBE855:
 583              	.LBE854:
 584              	.LBE853:
 111:Core/Inc/utils/mat.h ****                 }
 585              		.loc 5 111 0
 586 01be 6F21     		movs	r1, #111
 587 01c0 5F48     		ldr	r0, .L292
 588 01c2 FFF7FEFF 		bl	_Error_Handler
 589              	.LVL55:
 590 01c6 E6E7     		b	.L32
 591              	.LVL56:
 592              	.L36:
 593              	.LBB863:
 594              	.LBB862:
 595              	.LBB861:
 596              	.LBB860:
 597              	.LBB859:
 180:Core/Inc/utils/mat.h ****                         for (uint8_t j = 0; j < cols_; ++j) {
 598              		.loc 5 180 0
 599 01c8 0131     		adds	r1, r1, #1
 600              	.LVL57:
 601 01ca C9B2     		uxtb	r1, r1
 602              	.LVL58:
 603              	.L38:
 604 01cc 8945     		cmp	r9, r1
 605 01ce 0ED9     		bls	.L251
 606              	.LBB858:
 181:Core/Inc/utils/mat.h ****                                 matrix_[i][j] = num;
 607              		.loc 5 181 0
 608 01d0 0023     		movs	r3, #0
 609              	.L37:
 610              	.LVL59:
 611 01d2 9845     		cmp	r8, r3
 612 01d4 F8D9     		bls	.L36
 613              		.loc 5 182 0
 614 01d6 01EB4102 		add	r2, r1, r1, lsl #1
 615 01da 1A44     		add	r2, r2, r3
 616 01dc 50A8     		add	r0, sp, #320
 617 01de 00EB8202 		add	r2, r0, r2, lsl #2
 618 01e2 0020     		movs	r0, #0
 619 01e4 42F8500C 		str	r0, [r2, #-80]	@ float
 181:Core/Inc/utils/mat.h ****                                 matrix_[i][j] = num;
 620              		.loc 5 181 0
 621 01e8 0133     		adds	r3, r3, #1
 622              	.LVL60:
 623 01ea DBB2     		uxtb	r3, r3
 624              	.LVL61:
ARM GAS  C:\Users\Prashant\AppData\Local\Temp\ccIdreTb.s 			page 21


 625 01ec F1E7     		b	.L37
 626              	.LVL62:
 627              	.L251:
 628              	.LBE858:
 629              	.LBE859:
 630              	.LBE860:
 631              	.LBE861:
 632              	.LBE862:
 633              	.LBE863:
 634              	.LBB864:
 116:Core/Inc/utils/mat.h ****                         for (uint8_t j = 0; j < m.cols_; ++j) {
 635              		.loc 5 116 0
 636 01ee 0021     		movs	r1, #0
 637              	.LVL63:
 638 01f0 2BE0     		b	.L35
 639              	.LVL64:
 640              	.L41:
 641              	.LBB865:
 642              	.LBB866:
 122:Core/Inc/utils/mat.h ****                         }
 643              		.loc 5 122 0
 644 01f2 01EB4103 		add	r3, r1, r1, lsl #1
 645              	.LVL65:
 646 01f6 0344     		add	r3, r3, r0
 647 01f8 50AA     		add	r2, sp, #320
 648 01fa 02EB8303 		add	r3, r2, r3, lsl #2
 649 01fe 03ED147A 		vstr.32	s14, [r3, #-80]
 650              	.LBE866:
 117:Core/Inc/utils/mat.h ****                                 sum = 0;
 651              		.loc 5 117 0
 652 0202 0130     		adds	r0, r0, #1
 653              	.LVL66:
 654 0204 C0B2     		uxtb	r0, r0
 655              	.LVL67:
 656              	.L43:
 657 0206 97F82530 		ldrb	r3, [r7, #37]	@ zero_extendqisi2
 658 020a 8342     		cmp	r3, r0
 659 020c 1BD9     		bls	.L40
 660              	.LBB869:
 661              	.LBB867:
 119:Core/Inc/utils/mat.h ****                                         sum += matrix_[i][k] * m.matrix_[k][j];
 662              		.loc 5 119 0
 663 020e 0023     		movs	r3, #0
 664              	.LBE867:
 118:Core/Inc/utils/mat.h ****                                 for (uint8_t k = 0; k < cols_; ++k) {
 665              		.loc 5 118 0
 666 0210 9FED4C7A 		vldr.32	s14, .L292+4
 667              	.L42:
 668              	.LVL68:
 669              	.LBB868:
 119:Core/Inc/utils/mat.h ****                                         sum += matrix_[i][k] * m.matrix_[k][j];
 670              		.loc 5 119 0
 671 0214 96F82520 		ldrb	r2, [r6, #37]	@ zero_extendqisi2
 672 0218 9A42     		cmp	r2, r3
 673 021a EAD9     		bls	.L41
 120:Core/Inc/utils/mat.h ****                                 }
 674              		.loc 5 120 0
ARM GAS  C:\Users\Prashant\AppData\Local\Temp\ccIdreTb.s 			page 22


 675 021c 01EB4102 		add	r2, r1, r1, lsl #1
 676 0220 1A44     		add	r2, r2, r3
 677 0222 06EB8202 		add	r2, r6, r2, lsl #2
 678 0226 D2ED007A 		vldr.32	s15, [r2]
 679 022a 03EB4302 		add	r2, r3, r3, lsl #1
 680 022e 0244     		add	r2, r2, r0
 681 0230 07EB8202 		add	r2, r7, r2, lsl #2
 682 0234 D2ED006A 		vldr.32	s13, [r2]
 683 0238 67EEA67A 		vmul.f32	s15, s15, s13
 684 023c 37EE277A 		vadd.f32	s14, s14, s15
 685              	.LVL69:
 119:Core/Inc/utils/mat.h ****                                         sum += matrix_[i][k] * m.matrix_[k][j];
 686              		.loc 5 119 0
 687 0240 0133     		adds	r3, r3, #1
 688              	.LVL70:
 689 0242 DBB2     		uxtb	r3, r3
 690              	.LVL71:
 691 0244 E6E7     		b	.L42
 692              	.LVL72:
 693              	.L40:
 694              	.LBE868:
 695              	.LBE869:
 696              	.LBE865:
 116:Core/Inc/utils/mat.h ****                         for (uint8_t j = 0; j < m.cols_; ++j) {
 697              		.loc 5 116 0
 698 0246 0131     		adds	r1, r1, #1
 699              	.LVL73:
 700 0248 C9B2     		uxtb	r1, r1
 701              	.LVL74:
 702              	.L35:
 703 024a 96F82430 		ldrb	r3, [r6, #36]	@ zero_extendqisi2
 704 024e 8B42     		cmp	r3, r1
 705 0250 01D9     		bls	.L39
 706              	.LBB871:
 117:Core/Inc/utils/mat.h ****                                 sum = 0;
 707              		.loc 5 117 0
 708 0252 0020     		movs	r0, #0
 709 0254 D7E7     		b	.L43
 710              	.L39:
 711              	.LVL75:
 712              	.LBE871:
 713              	.LBE864:
 714              	.LBE852:
 715              	.LBE851:
 716              	.LBB875:
 717              	.LBB876:
 718              	.LBB877:
 719              	.LBB878:
  72:Core/Inc/utils/mat.h ****                         _Error_Handler(__FILE__, __LINE__);
 720              		.loc 5 72 0
 721 0256 BDF81421 		ldrh	r2, [sp, #276]
 722 025a BDF8EC30 		ldrh	r3, [sp, #236]
 723 025e 9A42     		cmp	r2, r3
 724 0260 01D1     		bne	.L271
 725              	.L44:
 726              	.LBE878:
 727              	.LBE877:
ARM GAS  C:\Users\Prashant\AppData\Local\Temp\ccIdreTb.s 			page 23


 728              	.LBE876:
 729              	.LBE875:
 730              	.LBB884:
 731              	.LBB874:
 732              	.LBB873:
 733              	.LBB872:
 734              	.LBB870:
 118:Core/Inc/utils/mat.h ****                                 for (uint8_t k = 0; k < cols_; ++k) {
 735              		.loc 5 118 0
 736 0262 0021     		movs	r1, #0
 737 0264 06E0     		b	.L48
 738              	.L271:
 739              	.LBE870:
 740              	.LBE872:
 741              	.LBE873:
 742              	.LBE874:
 743              	.LBE884:
 744              	.LBB885:
 745              	.LBB883:
 746              	.LBB882:
 747              	.LBB881:
  73:Core/Inc/utils/mat.h ****                 }
 748              		.loc 5 73 0
 749 0266 4921     		movs	r1, #73
 750 0268 3548     		ldr	r0, .L292
 751 026a FFF7FEFF 		bl	_Error_Handler
 752              	.LVL76:
 753 026e F8E7     		b	.L44
 754              	.LVL77:
 755              	.L46:
 756              	.LBB879:
  76:Core/Inc/utils/mat.h ****                         for (uint8_t j = 0; j < cols_; ++j) {
 757              		.loc 5 76 0
 758 0270 0131     		adds	r1, r1, #1
 759              	.LVL78:
 760 0272 C9B2     		uxtb	r1, r1
 761              	.LVL79:
 762              	.L48:
 763 0274 9DF8EC30 		ldrb	r3, [sp, #236]	@ zero_extendqisi2
 764 0278 8B42     		cmp	r3, r1
 765 027a 15D9     		bls	.L45
 766              	.LBB880:
  77:Core/Inc/utils/mat.h ****                                 matrix_[i][j] += rhs.matrix_[i][j];
 767              		.loc 5 77 0
 768 027c 0022     		movs	r2, #0
 769              	.L47:
 770              	.LVL80:
 771 027e 9DF8ED30 		ldrb	r3, [sp, #237]	@ zero_extendqisi2
 772 0282 9342     		cmp	r3, r2
 773 0284 F4D9     		bls	.L46
  78:Core/Inc/utils/mat.h ****                         }
 774              		.loc 5 78 0
 775 0286 01EB4103 		add	r3, r1, r1, lsl #1
 776 028a 1344     		add	r3, r3, r2
 777 028c 50A8     		add	r0, sp, #320
 778 028e 00EB8303 		add	r3, r0, r3, lsl #2
 779 0292 13ED147A 		vldr.32	s14, [r3, #-80]
ARM GAS  C:\Users\Prashant\AppData\Local\Temp\ccIdreTb.s 			page 24


 780 0296 53ED1E7A 		vldr.32	s15, [r3, #-120]
 781 029a 77EE877A 		vadd.f32	s15, s15, s14
 782 029e 43ED1E7A 		vstr.32	s15, [r3, #-120]
  77:Core/Inc/utils/mat.h ****                                 matrix_[i][j] += rhs.matrix_[i][j];
 783              		.loc 5 77 0
 784 02a2 0132     		adds	r2, r2, #1
 785              	.LVL81:
 786 02a4 D2B2     		uxtb	r2, r2
 787              	.LVL82:
 788 02a6 EAE7     		b	.L47
 789              	.LVL83:
 790              	.L45:
 791              	.LBE880:
 792              	.LBE879:
 793              	.LBE881:
 794              	.LBE882:
 101:Core/Inc/utils/mat.h ****         }
 795              		.loc 5 101 0
 796 02a8 46AE     		add	r6, sp, #280
 797 02aa 32AF     		add	r7, sp, #200
 798              	.LVL84:
 799 02ac 0FCF     		ldmia	r7!, {r0, r1, r2, r3}
 800              	.LVL85:
 801 02ae 0FC6     		stmia	r6!, {r0, r1, r2, r3}
 802 02b0 0FCF     		ldmia	r7!, {r0, r1, r2, r3}
 803              	.LVL86:
 804 02b2 0FC6     		stmia	r6!, {r0, r1, r2, r3}
 805 02b4 97E80300 		ldm	r7, {r0, r1}
 806 02b8 86E80300 		stm	r6, {r0, r1}
 807              	.LVL87:
 808              	.LBE883:
 809              	.LBE885:
  63:Core/Inc/utils/kalman.h ****                         kv_->P_ = (kv_->F_).mult((kv_->P_).mult((kv_->F_).transpose())) + kv_->Q_;
 810              		.loc 2 63 0
 811 02bc 0DF58C7C 		add	ip, sp, #280
 812 02c0 04F10C06 		add	r6, r4, #12
 813 02c4 0DF59C7E 		add	lr, sp, #312
 814              	.LVL88:
 815              	.L49:
 816 02c8 6746     		mov	r7, ip
 817 02ca 0FCF     		ldmia	r7!, {r0, r1, r2, r3}
 818 02cc 3060     		str	r0, [r6]	@ unaligned
 819 02ce 7160     		str	r1, [r6, #4]	@ unaligned
 820 02d0 B260     		str	r2, [r6, #8]	@ unaligned
 821 02d2 F360     		str	r3, [r6, #12]	@ unaligned
 822 02d4 BC46     		mov	ip, r7
 823 02d6 1036     		adds	r6, r6, #16
 824 02d8 7745     		cmp	r7, lr
 825 02da F5D1     		bne	.L49
 826 02dc 3868     		ldr	r0, [r7]
 827 02de 3060     		str	r0, [r6]	@ unaligned
 828 02e0 BB88     		ldrh	r3, [r7, #4]	@ unaligned
 829 02e2 B380     		strh	r3, [r6, #4]	@ unaligned
  64:Core/Inc/utils/kalman.h **** 
 830              		.loc 2 64 0
 831 02e4 D4F80880 		ldr	r8, [r4, #8]
 832              	.LVL89:
ARM GAS  C:\Users\Prashant\AppData\Local\Temp\ccIdreTb.s 			page 25


 833 02e8 4646     		mov	r6, r8
 834 02ea 08F1A007 		add	r7, r8, #160
 835              	.LVL90:
 836              	.LBB886:
 837              	.LBB887:
 170:Core/Inc/utils/mat.h ****                 for (uint8_t i = 0; i < rows_; ++i) {
 838              		.loc 5 170 0
 839 02ee 98F825A0 		ldrb	r10, [r8, #37]	@ zero_extendqisi2
 840 02f2 98F82490 		ldrb	r9, [r8, #36]	@ zero_extendqisi2
 841              	.LVL91:
 842              	.LBB888:
 843              	.LBB889:
 844              	.LBB890:
  24:Core/Inc/utils/mat.h ****                         _Error_Handler(__FILE__, __LINE__);
 845              		.loc 5 24 0
 846 02f6 BAF1020F 		cmp	r10, #2
 847 02fa 02D8     		bhi	.L50
 848 02fc B9F1020F 		cmp	r9, #2
 849 0300 03D9     		bls	.L51
 850              	.L50:
  25:Core/Inc/utils/mat.h ****                 }
 851              		.loc 5 25 0
 852 0302 1921     		movs	r1, #25
 853 0304 0E48     		ldr	r0, .L292
 854 0306 FFF7FEFF 		bl	_Error_Handler
 855              	.LVL92:
 856              	.L51:
  27:Core/Inc/utils/mat.h ****                 cols_ = columns;
 857              		.loc 5 27 0
 858 030a 8DF8C4A0 		strb	r10, [sp, #196]
  28:Core/Inc/utils/mat.h **** 
 859              		.loc 5 28 0
 860 030e 8DF8C590 		strb	r9, [sp, #197]
 861              	.LVL93:
 862              	.LBB891:
 863              	.LBB892:
 180:Core/Inc/utils/mat.h ****                         for (uint8_t j = 0; j < cols_; ++j) {
 864              		.loc 5 180 0
 865 0312 0021     		movs	r1, #0
 866 0314 01E0     		b	.L55
 867              	.LVL94:
 868              	.L53:
 869 0316 0131     		adds	r1, r1, #1
 870              	.LVL95:
 871 0318 C9B2     		uxtb	r1, r1
 872              	.LVL96:
 873              	.L55:
 874 031a 8A45     		cmp	r10, r1
 875 031c 0ED9     		bls	.L252
 876              	.LBB893:
 181:Core/Inc/utils/mat.h ****                                 matrix_[i][j] = num;
 877              		.loc 5 181 0
 878 031e 0023     		movs	r3, #0
 879              	.L54:
 880              	.LVL97:
 881 0320 9945     		cmp	r9, r3
 882 0322 F8D9     		bls	.L53
ARM GAS  C:\Users\Prashant\AppData\Local\Temp\ccIdreTb.s 			page 26


 883              		.loc 5 182 0
 884 0324 01EB4102 		add	r2, r1, r1, lsl #1
 885 0328 1A44     		add	r2, r2, r3
 886 032a 50A8     		add	r0, sp, #320
 887 032c 00EB8202 		add	r2, r0, r2, lsl #2
 888 0330 0020     		movs	r0, #0
 889 0332 42F8A00C 		str	r0, [r2, #-160]	@ float
 181:Core/Inc/utils/mat.h ****                                 matrix_[i][j] = num;
 890              		.loc 5 181 0
 891 0336 0133     		adds	r3, r3, #1
 892              	.LVL98:
 893 0338 DBB2     		uxtb	r3, r3
 894              	.LVL99:
 895 033a F1E7     		b	.L54
 896              	.LVL100:
 897              	.L252:
 898              	.LBE893:
 899              	.LBE892:
 900              	.LBE891:
 901              	.LBE890:
 902              	.LBE889:
 903              	.LBE888:
 904              	.LBB894:
 171:Core/Inc/utils/mat.h ****                         for (uint8_t j = 0; j < cols_; ++j) {
 905              		.loc 5 171 0
 906 033c 0021     		movs	r1, #0
 907              	.LVL101:
 908 033e 05E0     		b	.L52
 909              	.L293:
 910              		.align	2
 911              	.L292:
 912 0340 00000000 		.word	.LC0
 913 0344 00000000 		.word	0
 914              	.LVL102:
 915              	.L57:
 916 0348 0131     		adds	r1, r1, #1
 917              	.LVL103:
 918 034a C9B2     		uxtb	r1, r1
 919              	.LVL104:
 920              	.L52:
 921 034c 98F82430 		ldrb	r3, [r8, #36]	@ zero_extendqisi2
 922 0350 8B42     		cmp	r3, r1
 923 0352 16D9     		bls	.L56
 924              	.LBB895:
 172:Core/Inc/utils/mat.h ****                                 trans.matrix_[i][j] = matrix_[j][i];
 925              		.loc 5 172 0
 926 0354 0023     		movs	r3, #0
 927              	.L58:
 928              	.LVL105:
 929 0356 98F82520 		ldrb	r2, [r8, #37]	@ zero_extendqisi2
 930 035a 9A42     		cmp	r2, r3
 931 035c F4D9     		bls	.L57
 173:Core/Inc/utils/mat.h ****                         }
 932              		.loc 5 173 0
 933 035e 03EB4302 		add	r2, r3, r3, lsl #1
 934 0362 0A44     		add	r2, r2, r1
 935 0364 08EB8202 		add	r2, r8, r2, lsl #2
ARM GAS  C:\Users\Prashant\AppData\Local\Temp\ccIdreTb.s 			page 27


 936 0368 1068     		ldr	r0, [r2]	@ float
 937 036a 01EB4102 		add	r2, r1, r1, lsl #1
 938 036e 1A44     		add	r2, r2, r3
 939 0370 0DF5A07C 		add	ip, sp, #320
 940 0374 0CEB8202 		add	r2, ip, r2, lsl #2
 941 0378 42F8A00C 		str	r0, [r2, #-160]	@ float
 172:Core/Inc/utils/mat.h ****                                 trans.matrix_[i][j] = matrix_[j][i];
 942              		.loc 5 172 0
 943 037c 0133     		adds	r3, r3, #1
 944              	.LVL106:
 945 037e DBB2     		uxtb	r3, r3
 946              	.LVL107:
 947 0380 E9E7     		b	.L58
 948              	.LVL108:
 949              	.L56:
 950              	.LBE895:
 951              	.LBE894:
 952              	.LBE887:
 953              	.LBE886:
 954              	.LBB896:
 955              	.LBB897:
 110:Core/Inc/utils/mat.h ****                         _Error_Handler(__FILE__, __LINE__);
 956              		.loc 5 110 0
 957 0382 97F82520 		ldrb	r2, [r7, #37]	@ zero_extendqisi2
 958 0386 9DF8C430 		ldrb	r3, [sp, #196]	@ zero_extendqisi2
 959 038a 9A42     		cmp	r2, r3
 960 038c 13D1     		bne	.L272
 961              	.L59:
 114:Core/Inc/utils/mat.h ****                 float sum;
 962              		.loc 5 114 0
 963 038e 97F824A0 		ldrb	r10, [r7, #36]	@ zero_extendqisi2
 964              	.LVL109:
 965 0392 9DF8C590 		ldrb	r9, [sp, #197]	@ zero_extendqisi2
 966              	.LVL110:
 967              	.LBB898:
 968              	.LBB899:
 969              	.LBB900:
  24:Core/Inc/utils/mat.h ****                         _Error_Handler(__FILE__, __LINE__);
 970              		.loc 5 24 0
 971 0396 BAF1020F 		cmp	r10, #2
 972 039a 02D8     		bhi	.L60
 973 039c B9F1020F 		cmp	r9, #2
 974 03a0 03D9     		bls	.L61
 975              	.L60:
  25:Core/Inc/utils/mat.h ****                 }
 976              		.loc 5 25 0
 977 03a2 1921     		movs	r1, #25
 978 03a4 C348     		ldr	r0, .L294
 979 03a6 FFF7FEFF 		bl	_Error_Handler
 980              	.LVL111:
 981              	.L61:
  27:Core/Inc/utils/mat.h ****                 cols_ = columns;
 982              		.loc 5 27 0
 983 03aa 8DF8ECA0 		strb	r10, [sp, #236]
  28:Core/Inc/utils/mat.h **** 
 984              		.loc 5 28 0
 985 03ae 8DF8ED90 		strb	r9, [sp, #237]
ARM GAS  C:\Users\Prashant\AppData\Local\Temp\ccIdreTb.s 			page 28


 986              	.LVL112:
 987              	.LBB901:
 988              	.LBB902:
 180:Core/Inc/utils/mat.h ****                         for (uint8_t j = 0; j < cols_; ++j) {
 989              		.loc 5 180 0
 990 03b2 0021     		movs	r1, #0
 991 03b4 06E0     		b	.L65
 992              	.LVL113:
 993              	.L272:
 994              	.LBE902:
 995              	.LBE901:
 996              	.LBE900:
 997              	.LBE899:
 998              	.LBE898:
 111:Core/Inc/utils/mat.h ****                 }
 999              		.loc 5 111 0
 1000 03b6 6F21     		movs	r1, #111
 1001 03b8 BE48     		ldr	r0, .L294
 1002 03ba FFF7FEFF 		bl	_Error_Handler
 1003              	.LVL114:
 1004 03be E6E7     		b	.L59
 1005              	.LVL115:
 1006              	.L63:
 1007              	.LBB908:
 1008              	.LBB907:
 1009              	.LBB906:
 1010              	.LBB905:
 1011              	.LBB904:
 180:Core/Inc/utils/mat.h ****                         for (uint8_t j = 0; j < cols_; ++j) {
 1012              		.loc 5 180 0
 1013 03c0 0131     		adds	r1, r1, #1
 1014              	.LVL116:
 1015 03c2 C9B2     		uxtb	r1, r1
 1016              	.LVL117:
 1017              	.L65:
 1018 03c4 8A45     		cmp	r10, r1
 1019 03c6 0ED9     		bls	.L253
 1020              	.LBB903:
 181:Core/Inc/utils/mat.h ****                                 matrix_[i][j] = num;
 1021              		.loc 5 181 0
 1022 03c8 0023     		movs	r3, #0
 1023              	.L64:
 1024              	.LVL118:
 1025 03ca 9945     		cmp	r9, r3
 1026 03cc F8D9     		bls	.L63
 1027              		.loc 5 182 0
 1028 03ce 01EB4102 		add	r2, r1, r1, lsl #1
 1029 03d2 1A44     		add	r2, r2, r3
 1030 03d4 50A8     		add	r0, sp, #320
 1031 03d6 00EB8202 		add	r2, r0, r2, lsl #2
 1032 03da 0020     		movs	r0, #0
 1033 03dc 42F8780C 		str	r0, [r2, #-120]	@ float
 181:Core/Inc/utils/mat.h ****                                 matrix_[i][j] = num;
 1034              		.loc 5 181 0
 1035 03e0 0133     		adds	r3, r3, #1
 1036              	.LVL119:
 1037 03e2 DBB2     		uxtb	r3, r3
ARM GAS  C:\Users\Prashant\AppData\Local\Temp\ccIdreTb.s 			page 29


 1038              	.LVL120:
 1039 03e4 F1E7     		b	.L64
 1040              	.LVL121:
 1041              	.L253:
 1042              	.LBE903:
 1043              	.LBE904:
 1044              	.LBE905:
 1045              	.LBE906:
 1046              	.LBE907:
 1047              	.LBE908:
 1048              	.LBB909:
 116:Core/Inc/utils/mat.h ****                         for (uint8_t j = 0; j < m.cols_; ++j) {
 1049              		.loc 5 116 0
 1050 03e6 0021     		movs	r1, #0
 1051              	.LVL122:
 1052 03e8 2DE0     		b	.L62
 1053              	.LVL123:
 1054              	.L68:
 1055              	.LBB910:
 1056              	.LBB911:
 122:Core/Inc/utils/mat.h ****                         }
 1057              		.loc 5 122 0
 1058 03ea 01EB4103 		add	r3, r1, r1, lsl #1
 1059              	.LVL124:
 1060 03ee 0344     		add	r3, r3, r0
 1061 03f0 50AA     		add	r2, sp, #320
 1062 03f2 02EB8303 		add	r3, r2, r3, lsl #2
 1063 03f6 03ED1E7A 		vstr.32	s14, [r3, #-120]
 1064              	.LBE911:
 117:Core/Inc/utils/mat.h ****                                 sum = 0;
 1065              		.loc 5 117 0
 1066 03fa 0130     		adds	r0, r0, #1
 1067              	.LVL125:
 1068 03fc C0B2     		uxtb	r0, r0
 1069              	.LVL126:
 1070              	.L70:
 1071 03fe 9DF8C530 		ldrb	r3, [sp, #197]	@ zero_extendqisi2
 1072 0402 8342     		cmp	r3, r0
 1073 0404 1DD9     		bls	.L67
 1074              	.LBB914:
 1075              	.LBB912:
 119:Core/Inc/utils/mat.h ****                                         sum += matrix_[i][k] * m.matrix_[k][j];
 1076              		.loc 5 119 0
 1077 0406 0023     		movs	r3, #0
 1078              	.LBE912:
 118:Core/Inc/utils/mat.h ****                                 for (uint8_t k = 0; k < cols_; ++k) {
 1079              		.loc 5 118 0
 1080 0408 9FEDAB7A 		vldr.32	s14, .L294+4
 1081              	.L69:
 1082              	.LVL127:
 1083              	.LBB913:
 119:Core/Inc/utils/mat.h ****                                         sum += matrix_[i][k] * m.matrix_[k][j];
 1084              		.loc 5 119 0
 1085 040c 97F82520 		ldrb	r2, [r7, #37]	@ zero_extendqisi2
 1086 0410 9A42     		cmp	r2, r3
 1087 0412 EAD9     		bls	.L68
 120:Core/Inc/utils/mat.h ****                                 }
ARM GAS  C:\Users\Prashant\AppData\Local\Temp\ccIdreTb.s 			page 30


 1088              		.loc 5 120 0
 1089 0414 01EB4102 		add	r2, r1, r1, lsl #1
 1090 0418 1A44     		add	r2, r2, r3
 1091 041a 07EB8202 		add	r2, r7, r2, lsl #2
 1092 041e D2ED007A 		vldr.32	s15, [r2]
 1093 0422 03EB4302 		add	r2, r3, r3, lsl #1
 1094 0426 0244     		add	r2, r2, r0
 1095 0428 0DF5A07C 		add	ip, sp, #320
 1096 042c 0CEB8202 		add	r2, ip, r2, lsl #2
 1097 0430 52ED286A 		vldr.32	s13, [r2, #-160]
 1098 0434 67EEA67A 		vmul.f32	s15, s15, s13
 1099 0438 37EE277A 		vadd.f32	s14, s14, s15
 1100              	.LVL128:
 119:Core/Inc/utils/mat.h ****                                         sum += matrix_[i][k] * m.matrix_[k][j];
 1101              		.loc 5 119 0
 1102 043c 0133     		adds	r3, r3, #1
 1103              	.LVL129:
 1104 043e DBB2     		uxtb	r3, r3
 1105              	.LVL130:
 1106 0440 E4E7     		b	.L69
 1107              	.LVL131:
 1108              	.L67:
 1109              	.LBE913:
 1110              	.LBE914:
 1111              	.LBE910:
 116:Core/Inc/utils/mat.h ****                         for (uint8_t j = 0; j < m.cols_; ++j) {
 1112              		.loc 5 116 0
 1113 0442 0131     		adds	r1, r1, #1
 1114              	.LVL132:
 1115 0444 C9B2     		uxtb	r1, r1
 1116              	.LVL133:
 1117              	.L62:
 1118 0446 97F82430 		ldrb	r3, [r7, #36]	@ zero_extendqisi2
 1119 044a 8B42     		cmp	r3, r1
 1120 044c 01D9     		bls	.L66
 1121              	.LBB915:
 117:Core/Inc/utils/mat.h ****                                 sum = 0;
 1122              		.loc 5 117 0
 1123 044e 0020     		movs	r0, #0
 1124 0450 D5E7     		b	.L70
 1125              	.L66:
 1126              	.LVL134:
 1127              	.LBE915:
 1128              	.LBE909:
 1129              	.LBE897:
 1130              	.LBE896:
 1131              	.LBB916:
 1132              	.LBB917:
 110:Core/Inc/utils/mat.h ****                         _Error_Handler(__FILE__, __LINE__);
 1133              		.loc 5 110 0
 1134 0452 98F82520 		ldrb	r2, [r8, #37]	@ zero_extendqisi2
 1135 0456 9DF8EC30 		ldrb	r3, [sp, #236]	@ zero_extendqisi2
 1136 045a 9A42     		cmp	r2, r3
 1137 045c 12D1     		bne	.L273
 1138              	.L71:
 114:Core/Inc/utils/mat.h ****                 float sum;
 1139              		.loc 5 114 0
ARM GAS  C:\Users\Prashant\AppData\Local\Temp\ccIdreTb.s 			page 31


 1140 045e 98F82480 		ldrb	r8, [r8, #36]	@ zero_extendqisi2
 1141 0462 9DF8ED70 		ldrb	r7, [sp, #237]	@ zero_extendqisi2
 1142              	.LVL135:
 1143              	.LBB918:
 1144              	.LBB919:
 1145              	.LBB920:
  24:Core/Inc/utils/mat.h ****                         _Error_Handler(__FILE__, __LINE__);
 1146              		.loc 5 24 0
 1147 0466 B8F1020F 		cmp	r8, #2
 1148 046a 01D8     		bhi	.L72
 1149 046c 022F     		cmp	r7, #2
 1150 046e 03D9     		bls	.L73
 1151              	.L72:
  25:Core/Inc/utils/mat.h ****                 }
 1152              		.loc 5 25 0
 1153 0470 1921     		movs	r1, #25
 1154 0472 9048     		ldr	r0, .L294
 1155 0474 FFF7FEFF 		bl	_Error_Handler
 1156              	.LVL136:
 1157              	.L73:
  27:Core/Inc/utils/mat.h ****                 cols_ = columns;
 1158              		.loc 5 27 0
 1159 0478 8DF81481 		strb	r8, [sp, #276]
  28:Core/Inc/utils/mat.h **** 
 1160              		.loc 5 28 0
 1161 047c 8DF81571 		strb	r7, [sp, #277]
 1162              	.LVL137:
 1163              	.LBB921:
 1164              	.LBB922:
 180:Core/Inc/utils/mat.h ****                         for (uint8_t j = 0; j < cols_; ++j) {
 1165              		.loc 5 180 0
 1166 0480 0021     		movs	r1, #0
 1167 0482 06E0     		b	.L77
 1168              	.LVL138:
 1169              	.L273:
 1170              	.LBE922:
 1171              	.LBE921:
 1172              	.LBE920:
 1173              	.LBE919:
 1174              	.LBE918:
 111:Core/Inc/utils/mat.h ****                 }
 1175              		.loc 5 111 0
 1176 0484 6F21     		movs	r1, #111
 1177 0486 8B48     		ldr	r0, .L294
 1178 0488 FFF7FEFF 		bl	_Error_Handler
 1179              	.LVL139:
 1180 048c E7E7     		b	.L71
 1181              	.LVL140:
 1182              	.L75:
 1183              	.LBB928:
 1184              	.LBB927:
 1185              	.LBB926:
 1186              	.LBB925:
 1187              	.LBB924:
 180:Core/Inc/utils/mat.h ****                         for (uint8_t j = 0; j < cols_; ++j) {
 1188              		.loc 5 180 0
 1189 048e 0131     		adds	r1, r1, #1
ARM GAS  C:\Users\Prashant\AppData\Local\Temp\ccIdreTb.s 			page 32


 1190              	.LVL141:
 1191 0490 C9B2     		uxtb	r1, r1
 1192              	.LVL142:
 1193              	.L77:
 1194 0492 8845     		cmp	r8, r1
 1195 0494 0ED9     		bls	.L254
 1196              	.LBB923:
 181:Core/Inc/utils/mat.h ****                                 matrix_[i][j] = num;
 1197              		.loc 5 181 0
 1198 0496 0023     		movs	r3, #0
 1199              	.L76:
 1200              	.LVL143:
 1201 0498 9F42     		cmp	r7, r3
 1202 049a F8D9     		bls	.L75
 1203              		.loc 5 182 0
 1204 049c 01EB4102 		add	r2, r1, r1, lsl #1
 1205 04a0 1A44     		add	r2, r2, r3
 1206 04a2 50A8     		add	r0, sp, #320
 1207 04a4 00EB8202 		add	r2, r0, r2, lsl #2
 1208 04a8 0020     		movs	r0, #0
 1209 04aa 42F8500C 		str	r0, [r2, #-80]	@ float
 181:Core/Inc/utils/mat.h ****                                 matrix_[i][j] = num;
 1210              		.loc 5 181 0
 1211 04ae 0133     		adds	r3, r3, #1
 1212              	.LVL144:
 1213 04b0 DBB2     		uxtb	r3, r3
 1214              	.LVL145:
 1215 04b2 F1E7     		b	.L76
 1216              	.LVL146:
 1217              	.L254:
 1218              	.LBE923:
 1219              	.LBE924:
 1220              	.LBE925:
 1221              	.LBE926:
 1222              	.LBE927:
 1223              	.LBE928:
 1224              	.LBB929:
 116:Core/Inc/utils/mat.h ****                         for (uint8_t j = 0; j < m.cols_; ++j) {
 1225              		.loc 5 116 0
 1226 04b4 0021     		movs	r1, #0
 1227              	.LVL147:
 1228 04b6 2CE0     		b	.L74
 1229              	.LVL148:
 1230              	.L80:
 1231              	.LBB930:
 1232              	.LBB931:
 122:Core/Inc/utils/mat.h ****                         }
 1233              		.loc 5 122 0
 1234 04b8 01EB4103 		add	r3, r1, r1, lsl #1
 1235              	.LVL149:
 1236 04bc 0344     		add	r3, r3, r0
 1237 04be 50AA     		add	r2, sp, #320
 1238 04c0 02EB8303 		add	r3, r2, r3, lsl #2
 1239 04c4 03ED147A 		vstr.32	s14, [r3, #-80]
 1240              	.LBE931:
 117:Core/Inc/utils/mat.h ****                                 sum = 0;
 1241              		.loc 5 117 0
ARM GAS  C:\Users\Prashant\AppData\Local\Temp\ccIdreTb.s 			page 33


 1242 04c8 0130     		adds	r0, r0, #1
 1243              	.LVL150:
 1244 04ca C0B2     		uxtb	r0, r0
 1245              	.LVL151:
 1246              	.L82:
 1247 04cc 9DF8ED30 		ldrb	r3, [sp, #237]	@ zero_extendqisi2
 1248 04d0 8342     		cmp	r3, r0
 1249 04d2 1CD9     		bls	.L79
 1250              	.LBB934:
 1251              	.LBB932:
 119:Core/Inc/utils/mat.h ****                                         sum += matrix_[i][k] * m.matrix_[k][j];
 1252              		.loc 5 119 0
 1253 04d4 0023     		movs	r3, #0
 1254              	.LBE932:
 118:Core/Inc/utils/mat.h ****                                 for (uint8_t k = 0; k < cols_; ++k) {
 1255              		.loc 5 118 0
 1256 04d6 9FED787A 		vldr.32	s14, .L294+4
 1257              	.L81:
 1258              	.LVL152:
 1259              	.LBB933:
 119:Core/Inc/utils/mat.h ****                                         sum += matrix_[i][k] * m.matrix_[k][j];
 1260              		.loc 5 119 0
 1261 04da 96F82520 		ldrb	r2, [r6, #37]	@ zero_extendqisi2
 1262 04de 9A42     		cmp	r2, r3
 1263 04e0 EAD9     		bls	.L80
 120:Core/Inc/utils/mat.h ****                                 }
 1264              		.loc 5 120 0
 1265 04e2 01EB4102 		add	r2, r1, r1, lsl #1
 1266 04e6 1A44     		add	r2, r2, r3
 1267 04e8 06EB8202 		add	r2, r6, r2, lsl #2
 1268 04ec D2ED007A 		vldr.32	s15, [r2]
 1269 04f0 03EB4302 		add	r2, r3, r3, lsl #1
 1270 04f4 0244     		add	r2, r2, r0
 1271 04f6 50AF     		add	r7, sp, #320
 1272 04f8 07EB8202 		add	r2, r7, r2, lsl #2
 1273 04fc 52ED1E6A 		vldr.32	s13, [r2, #-120]
 1274 0500 67EEA67A 		vmul.f32	s15, s15, s13
 1275 0504 37EE277A 		vadd.f32	s14, s14, s15
 1276              	.LVL153:
 119:Core/Inc/utils/mat.h ****                                         sum += matrix_[i][k] * m.matrix_[k][j];
 1277              		.loc 5 119 0
 1278 0508 0133     		adds	r3, r3, #1
 1279              	.LVL154:
 1280 050a DBB2     		uxtb	r3, r3
 1281              	.LVL155:
 1282 050c E5E7     		b	.L81
 1283              	.LVL156:
 1284              	.L79:
 1285              	.LBE933:
 1286              	.LBE934:
 1287              	.LBE930:
 116:Core/Inc/utils/mat.h ****                         for (uint8_t j = 0; j < m.cols_; ++j) {
 1288              		.loc 5 116 0
 1289 050e 0131     		adds	r1, r1, #1
 1290              	.LVL157:
 1291 0510 C9B2     		uxtb	r1, r1
 1292              	.LVL158:
ARM GAS  C:\Users\Prashant\AppData\Local\Temp\ccIdreTb.s 			page 34


 1293              	.L74:
 1294 0512 96F82430 		ldrb	r3, [r6, #36]	@ zero_extendqisi2
 1295 0516 8B42     		cmp	r3, r1
 1296 0518 01D9     		bls	.L78
 1297              	.LBB936:
 117:Core/Inc/utils/mat.h ****                                 sum = 0;
 1298              		.loc 5 117 0
 1299 051a 0020     		movs	r0, #0
 1300 051c D6E7     		b	.L82
 1301              	.L78:
 1302              	.LVL159:
 1303              	.LBE936:
 1304              	.LBE929:
 1305              	.LBE917:
 1306              	.LBE916:
  64:Core/Inc/utils/kalman.h **** 
 1307              		.loc 2 64 0
 1308 051e A668     		ldr	r6, [r4, #8]
 1309 0520 C836     		adds	r6, r6, #200
 1310              	.LVL160:
 1311              	.LBB940:
 1312              	.LBB941:
 1313              	.LBB942:
 1314              	.LBB943:
  72:Core/Inc/utils/mat.h ****                         _Error_Handler(__FILE__, __LINE__);
 1315              		.loc 5 72 0
 1316 0522 B28C     		ldrh	r2, [r6, #36]
 1317 0524 BDF81431 		ldrh	r3, [sp, #276]
 1318 0528 9A42     		cmp	r2, r3
 1319 052a 01D1     		bne	.L274
 1320              	.L83:
 1321              	.LBE943:
 1322              	.LBE942:
 1323              	.LBE941:
 1324              	.LBE940:
 1325              	.LBB949:
 1326              	.LBB939:
 1327              	.LBB938:
 1328              	.LBB937:
 1329              	.LBB935:
 118:Core/Inc/utils/mat.h ****                                 for (uint8_t k = 0; k < cols_; ++k) {
 1330              		.loc 5 118 0
 1331 052c 0021     		movs	r1, #0
 1332 052e 06E0     		b	.L87
 1333              	.L274:
 1334              	.LBE935:
 1335              	.LBE937:
 1336              	.LBE938:
 1337              	.LBE939:
 1338              	.LBE949:
 1339              	.LBB950:
 1340              	.LBB948:
 1341              	.LBB947:
 1342              	.LBB946:
  73:Core/Inc/utils/mat.h ****                 }
 1343              		.loc 5 73 0
 1344 0530 4921     		movs	r1, #73
ARM GAS  C:\Users\Prashant\AppData\Local\Temp\ccIdreTb.s 			page 35


 1345 0532 6048     		ldr	r0, .L294
 1346 0534 FFF7FEFF 		bl	_Error_Handler
 1347              	.LVL161:
 1348 0538 F8E7     		b	.L83
 1349              	.LVL162:
 1350              	.L85:
 1351              	.LBB944:
  76:Core/Inc/utils/mat.h ****                         for (uint8_t j = 0; j < cols_; ++j) {
 1352              		.loc 5 76 0
 1353 053a 0131     		adds	r1, r1, #1
 1354              	.LVL163:
 1355 053c C9B2     		uxtb	r1, r1
 1356              	.LVL164:
 1357              	.L87:
 1358 053e 9DF81431 		ldrb	r3, [sp, #276]	@ zero_extendqisi2
 1359 0542 8B42     		cmp	r3, r1
 1360 0544 16D9     		bls	.L84
 1361              	.LBB945:
  77:Core/Inc/utils/mat.h ****                                 matrix_[i][j] += rhs.matrix_[i][j];
 1362              		.loc 5 77 0
 1363 0546 0022     		movs	r2, #0
 1364              	.L86:
 1365              	.LVL165:
 1366 0548 9DF81531 		ldrb	r3, [sp, #277]	@ zero_extendqisi2
 1367 054c 9342     		cmp	r3, r2
 1368 054e F4D9     		bls	.L85
  78:Core/Inc/utils/mat.h ****                         }
 1369              		.loc 5 78 0
 1370 0550 01EB4103 		add	r3, r1, r1, lsl #1
 1371 0554 1344     		add	r3, r3, r2
 1372 0556 9B00     		lsls	r3, r3, #2
 1373 0558 F018     		adds	r0, r6, r3
 1374 055a 90ED007A 		vldr.32	s14, [r0]
 1375 055e 50A8     		add	r0, sp, #320
 1376 0560 0344     		add	r3, r3, r0
 1377 0562 53ED147A 		vldr.32	s15, [r3, #-80]
 1378 0566 77EE877A 		vadd.f32	s15, s15, s14
 1379 056a 43ED147A 		vstr.32	s15, [r3, #-80]
  77:Core/Inc/utils/mat.h ****                                 matrix_[i][j] += rhs.matrix_[i][j];
 1380              		.loc 5 77 0
 1381 056e 0132     		adds	r2, r2, #1
 1382              	.LVL166:
 1383 0570 D2B2     		uxtb	r2, r2
 1384              	.LVL167:
 1385 0572 E9E7     		b	.L86
 1386              	.LVL168:
 1387              	.L84:
 1388              	.LBE945:
 1389              	.LBE944:
 1390              	.LBE946:
 1391              	.LBE947:
 101:Core/Inc/utils/mat.h ****         }
 1392              		.loc 5 101 0
 1393 0574 46AE     		add	r6, sp, #280
 1394              	.LVL169:
 1395 0576 3CAF     		add	r7, sp, #240
 1396              	.LVL170:
ARM GAS  C:\Users\Prashant\AppData\Local\Temp\ccIdreTb.s 			page 36


 1397 0578 0FCF     		ldmia	r7!, {r0, r1, r2, r3}
 1398              	.LVL171:
 1399 057a 0FC6     		stmia	r6!, {r0, r1, r2, r3}
 1400 057c 0FCF     		ldmia	r7!, {r0, r1, r2, r3}
 1401              	.LVL172:
 1402 057e 0FC6     		stmia	r6!, {r0, r1, r2, r3}
 1403 0580 97E80300 		ldm	r7, {r0, r1}
 1404 0584 86E80300 		stm	r6, {r0, r1}
 1405              	.LVL173:
 1406              	.LBE948:
 1407              	.LBE950:
  64:Core/Inc/utils/kalman.h **** 
 1408              		.loc 2 64 0
 1409 0588 A668     		ldr	r6, [r4, #8]
 1410 058a 0DF58C7C 		add	ip, sp, #280
 1411 058e A036     		adds	r6, r6, #160
 1412 0590 0DF59C7E 		add	lr, sp, #312
 1413              	.LVL174:
 1414              	.L88:
 1415 0594 6746     		mov	r7, ip
 1416 0596 0FCF     		ldmia	r7!, {r0, r1, r2, r3}
 1417 0598 3060     		str	r0, [r6]	@ unaligned
 1418 059a 7160     		str	r1, [r6, #4]	@ unaligned
 1419 059c B260     		str	r2, [r6, #8]	@ unaligned
 1420 059e F360     		str	r3, [r6, #12]	@ unaligned
 1421 05a0 BC46     		mov	ip, r7
 1422 05a2 1036     		adds	r6, r6, #16
 1423 05a4 7745     		cmp	r7, lr
 1424 05a6 F5D1     		bne	.L88
 1425 05a8 3868     		ldr	r0, [r7]
 1426 05aa 3060     		str	r0, [r6]	@ unaligned
 1427 05ac BB88     		ldrh	r3, [r7, #4]	@ unaligned
 1428 05ae B380     		strh	r3, [r6, #4]	@ unaligned
 1429              	.LVL175:
 1430              	.LBB951:
 1431              	.LBB952:
  37:Core/Inc/utils/mat.h ****                         _Error_Handler(__FILE__, __LINE__);
 1432              		.loc 5 37 0
 1433 05b0 94F88030 		ldrb	r3, [r4, #128]	@ zero_extendqisi2
 1434 05b4 13B1     		cbz	r3, .L89
 1435 05b6 94F88130 		ldrb	r3, [r4, #129]	@ zero_extendqisi2
 1436 05ba 1BB9     		cbnz	r3, .L90
 1437              	.L89:
  38:Core/Inc/utils/mat.h ****                 }
 1438              		.loc 5 38 0
 1439 05bc 2621     		movs	r1, #38
 1440 05be 3D48     		ldr	r0, .L294
 1441 05c0 FFF7FEFF 		bl	_Error_Handler
 1442              	.LVL176:
 1443              	.L90:
 1444              	.LBE952:
 1445              	.LBE951:
  67:Core/Inc/utils/kalman.h ****                         K_ = kv_->P_.mult(kv_->H_.transpose()).mult((kv_->H_.mult(kv_->P_.mult(kv_-
 1446              		.loc 2 67 0
 1447 05c4 84ED178A 		vstr.32	s16, [r4, #92]
  68:Core/Inc/utils/kalman.h ****                         x_ += K_.mult(z_ - kv_->H_.mult(x_));
 1448              		.loc 2 68 0
ARM GAS  C:\Users\Prashant\AppData\Local\Temp\ccIdreTb.s 			page 37


 1449 05c8 A768     		ldr	r7, [r4, #8]
 1450 05ca 07F1A006 		add	r6, r7, #160
 1451              	.LVL177:
 1452              	.LBB953:
 1453              	.LBB954:
 170:Core/Inc/utils/mat.h ****                 for (uint8_t i = 0; i < rows_; ++i) {
 1454              		.loc 5 170 0
 1455 05ce 97F87590 		ldrb	r9, [r7, #117]	@ zero_extendqisi2
 1456              	.LVL178:
 1457 05d2 97F87480 		ldrb	r8, [r7, #116]	@ zero_extendqisi2
 1458              	.LVL179:
 1459              	.LBB955:
 1460              	.LBB956:
 1461              	.LBB957:
  24:Core/Inc/utils/mat.h ****                         _Error_Handler(__FILE__, __LINE__);
 1462              		.loc 5 24 0
 1463 05d6 B9F1020F 		cmp	r9, #2
 1464 05da 02D8     		bhi	.L91
 1465 05dc B8F1020F 		cmp	r8, #2
 1466 05e0 03D9     		bls	.L92
 1467              	.L91:
  25:Core/Inc/utils/mat.h ****                 }
 1468              		.loc 5 25 0
 1469 05e2 1921     		movs	r1, #25
 1470 05e4 3348     		ldr	r0, .L294
 1471 05e6 FFF7FEFF 		bl	_Error_Handler
 1472              	.LVL180:
 1473              	.L92:
  27:Core/Inc/utils/mat.h ****                 cols_ = columns;
 1474              		.loc 5 27 0
 1475 05ea 8DF82490 		strb	r9, [sp, #36]
  28:Core/Inc/utils/mat.h **** 
 1476              		.loc 5 28 0
 1477 05ee 8DF82580 		strb	r8, [sp, #37]
 1478              	.LVL181:
 1479              	.LBB958:
 1480              	.LBB959:
 180:Core/Inc/utils/mat.h ****                         for (uint8_t j = 0; j < cols_; ++j) {
 1481              		.loc 5 180 0
 1482 05f2 0021     		movs	r1, #0
 1483 05f4 01E0     		b	.L96
 1484              	.LVL182:
 1485              	.L94:
 1486 05f6 0131     		adds	r1, r1, #1
 1487              	.LVL183:
 1488 05f8 C9B2     		uxtb	r1, r1
 1489              	.LVL184:
 1490              	.L96:
 1491 05fa 8945     		cmp	r9, r1
 1492 05fc 0CD9     		bls	.L255
 1493              	.LBB960:
 181:Core/Inc/utils/mat.h ****                                 matrix_[i][j] = num;
 1494              		.loc 5 181 0
 1495 05fe 0023     		movs	r3, #0
 1496              	.L95:
 1497              	.LVL185:
 1498 0600 9845     		cmp	r8, r3
ARM GAS  C:\Users\Prashant\AppData\Local\Temp\ccIdreTb.s 			page 38


 1499 0602 F8D9     		bls	.L94
 1500              		.loc 5 182 0
 1501 0604 01EB4102 		add	r2, r1, r1, lsl #1
 1502 0608 1A44     		add	r2, r2, r3
 1503 060a 0DEB8202 		add	r2, sp, r2, lsl #2
 1504 060e 0020     		movs	r0, #0
 1505 0610 1060     		str	r0, [r2]	@ float
 181:Core/Inc/utils/mat.h ****                                 matrix_[i][j] = num;
 1506              		.loc 5 181 0
 1507 0612 0133     		adds	r3, r3, #1
 1508              	.LVL186:
 1509 0614 DBB2     		uxtb	r3, r3
 1510              	.LVL187:
 1511 0616 F3E7     		b	.L95
 1512              	.LVL188:
 1513              	.L255:
 1514              	.LBE960:
 1515              	.LBE959:
 1516              	.LBE958:
 1517              	.LBE957:
 1518              	.LBE956:
 1519              	.LBE955:
 1520              	.LBB961:
 171:Core/Inc/utils/mat.h ****                         for (uint8_t j = 0; j < cols_; ++j) {
 1521              		.loc 5 171 0
 1522 0618 0021     		movs	r1, #0
 1523              	.LVL189:
 1524 061a 01E0     		b	.L93
 1525              	.LVL190:
 1526              	.L98:
 1527 061c 0131     		adds	r1, r1, #1
 1528              	.LVL191:
 1529 061e C9B2     		uxtb	r1, r1
 1530              	.LVL192:
 1531              	.L93:
 1532 0620 97F87430 		ldrb	r3, [r7, #116]	@ zero_extendqisi2
 1533 0624 8B42     		cmp	r3, r1
 1534 0626 13D9     		bls	.L97
 1535              	.LBB962:
 172:Core/Inc/utils/mat.h ****                                 trans.matrix_[i][j] = matrix_[j][i];
 1536              		.loc 5 172 0
 1537 0628 0023     		movs	r3, #0
 1538              	.L99:
 1539              	.LVL193:
 1540 062a 97F87520 		ldrb	r2, [r7, #117]	@ zero_extendqisi2
 1541 062e 9A42     		cmp	r2, r3
 1542 0630 F4D9     		bls	.L98
 173:Core/Inc/utils/mat.h ****                         }
 1543              		.loc 5 173 0
 1544 0632 03EB4302 		add	r2, r3, r3, lsl #1
 1545 0636 0A44     		add	r2, r2, r1
 1546 0638 07EB8202 		add	r2, r7, r2, lsl #2
 1547 063c 106D     		ldr	r0, [r2, #80]	@ float
 1548 063e 01EB4102 		add	r2, r1, r1, lsl #1
 1549 0642 1A44     		add	r2, r2, r3
 1550 0644 0DEB8202 		add	r2, sp, r2, lsl #2
 1551 0648 1060     		str	r0, [r2]	@ float
ARM GAS  C:\Users\Prashant\AppData\Local\Temp\ccIdreTb.s 			page 39


 172:Core/Inc/utils/mat.h ****                                 trans.matrix_[i][j] = matrix_[j][i];
 1552              		.loc 5 172 0
 1553 064a 0133     		adds	r3, r3, #1
 1554              	.LVL194:
 1555 064c DBB2     		uxtb	r3, r3
 1556              	.LVL195:
 1557 064e ECE7     		b	.L99
 1558              	.LVL196:
 1559              	.L97:
 1560              	.LBE962:
 1561              	.LBE961:
 1562              	.LBE954:
 1563              	.LBE953:
 1564              	.LBB963:
 1565              	.LBB964:
 110:Core/Inc/utils/mat.h ****                         _Error_Handler(__FILE__, __LINE__);
 1566              		.loc 5 110 0
 1567 0650 96F82520 		ldrb	r2, [r6, #37]	@ zero_extendqisi2
 1568 0654 9DF82430 		ldrb	r3, [sp, #36]	@ zero_extendqisi2
 1569 0658 9A42     		cmp	r2, r3
 1570 065a 12D1     		bne	.L275
 1571              	.L100:
 114:Core/Inc/utils/mat.h ****                 float sum;
 1572              		.loc 5 114 0
 1573 065c 96F82480 		ldrb	r8, [r6, #36]	@ zero_extendqisi2
 1574              	.LVL197:
 1575 0660 9DF82570 		ldrb	r7, [sp, #37]	@ zero_extendqisi2
 1576              	.LVL198:
 1577              	.LBB965:
 1578              	.LBB966:
 1579              	.LBB967:
  24:Core/Inc/utils/mat.h ****                         _Error_Handler(__FILE__, __LINE__);
 1580              		.loc 5 24 0
 1581 0664 B8F1020F 		cmp	r8, #2
 1582 0668 01D8     		bhi	.L101
 1583 066a 022F     		cmp	r7, #2
 1584 066c 03D9     		bls	.L102
 1585              	.L101:
  25:Core/Inc/utils/mat.h ****                 }
 1586              		.loc 5 25 0
 1587 066e 1921     		movs	r1, #25
 1588 0670 1048     		ldr	r0, .L294
 1589 0672 FFF7FEFF 		bl	_Error_Handler
 1590              	.LVL199:
 1591              	.L102:
  27:Core/Inc/utils/mat.h ****                 cols_ = columns;
 1592              		.loc 5 27 0
 1593 0676 8DF84C80 		strb	r8, [sp, #76]
  28:Core/Inc/utils/mat.h **** 
 1594              		.loc 5 28 0
 1595 067a 8DF84D70 		strb	r7, [sp, #77]
 1596              	.LVL200:
 1597              	.LBB968:
 1598              	.LBB969:
 180:Core/Inc/utils/mat.h ****                         for (uint8_t j = 0; j < cols_; ++j) {
 1599              		.loc 5 180 0
 1600 067e 0021     		movs	r1, #0
ARM GAS  C:\Users\Prashant\AppData\Local\Temp\ccIdreTb.s 			page 40


 1601 0680 06E0     		b	.L106
 1602              	.LVL201:
 1603              	.L275:
 1604              	.LBE969:
 1605              	.LBE968:
 1606              	.LBE967:
 1607              	.LBE966:
 1608              	.LBE965:
 111:Core/Inc/utils/mat.h ****                 }
 1609              		.loc 5 111 0
 1610 0682 6F21     		movs	r1, #111
 1611 0684 0B48     		ldr	r0, .L294
 1612 0686 FFF7FEFF 		bl	_Error_Handler
 1613              	.LVL202:
 1614 068a E7E7     		b	.L100
 1615              	.LVL203:
 1616              	.L104:
 1617              	.LBB975:
 1618              	.LBB974:
 1619              	.LBB973:
 1620              	.LBB972:
 1621              	.LBB971:
 180:Core/Inc/utils/mat.h ****                         for (uint8_t j = 0; j < cols_; ++j) {
 1622              		.loc 5 180 0
 1623 068c 0131     		adds	r1, r1, #1
 1624              	.LVL204:
 1625 068e C9B2     		uxtb	r1, r1
 1626              	.LVL205:
 1627              	.L106:
 1628 0690 8845     		cmp	r8, r1
 1629 0692 0DD9     		bls	.L256
 1630              	.LBB970:
 181:Core/Inc/utils/mat.h ****                                 matrix_[i][j] = num;
 1631              		.loc 5 181 0
 1632 0694 0023     		movs	r3, #0
 1633              	.L105:
 1634              	.LVL206:
 1635 0696 9F42     		cmp	r7, r3
 1636 0698 F8D9     		bls	.L104
 1637              		.loc 5 182 0
 1638 069a 01EB4102 		add	r2, r1, r1, lsl #1
 1639 069e 1A44     		add	r2, r2, r3
 1640 06a0 0AA8     		add	r0, sp, #40
 1641              	.LVL207:
 1642 06a2 00EB8202 		add	r2, r0, r2, lsl #2
 1643 06a6 0020     		movs	r0, #0
 1644              	.LVL208:
 1645 06a8 1060     		str	r0, [r2]	@ float
 181:Core/Inc/utils/mat.h ****                                 matrix_[i][j] = num;
 1646              		.loc 5 181 0
 1647 06aa 0133     		adds	r3, r3, #1
 1648              	.LVL209:
 1649 06ac DBB2     		uxtb	r3, r3
 1650              	.LVL210:
 1651 06ae F2E7     		b	.L105
 1652              	.LVL211:
 1653              	.L256:
ARM GAS  C:\Users\Prashant\AppData\Local\Temp\ccIdreTb.s 			page 41


 1654              	.LBE970:
 1655              	.LBE971:
 1656              	.LBE972:
 1657              	.LBE973:
 1658              	.LBE974:
 1659              	.LBE975:
 1660              	.LBB976:
 116:Core/Inc/utils/mat.h ****                         for (uint8_t j = 0; j < m.cols_; ++j) {
 1661              		.loc 5 116 0
 1662 06b0 0021     		movs	r1, #0
 1663              	.LVL212:
 1664 06b2 2FE0     		b	.L103
 1665              	.L295:
 1666              		.align	2
 1667              	.L294:
 1668 06b4 00000000 		.word	.LC0
 1669 06b8 00000000 		.word	0
 1670              	.LVL213:
 1671              	.L109:
 1672              	.LBB977:
 1673              	.LBB978:
 122:Core/Inc/utils/mat.h ****                         }
 1674              		.loc 5 122 0
 1675 06bc 01EB4103 		add	r3, r1, r1, lsl #1
 1676              	.LVL214:
 1677 06c0 0344     		add	r3, r3, r0
 1678 06c2 0AAA     		add	r2, sp, #40
 1679              	.LVL215:
 1680 06c4 02EB8303 		add	r3, r2, r3, lsl #2
 1681 06c8 83ED007A 		vstr.32	s14, [r3]
 1682              	.LBE978:
 117:Core/Inc/utils/mat.h ****                                 sum = 0;
 1683              		.loc 5 117 0
 1684 06cc 0130     		adds	r0, r0, #1
 1685              	.LVL216:
 1686 06ce C0B2     		uxtb	r0, r0
 1687              	.LVL217:
 1688              	.L111:
 1689 06d0 9DF82530 		ldrb	r3, [sp, #37]	@ zero_extendqisi2
 1690 06d4 8342     		cmp	r3, r0
 1691 06d6 1BD9     		bls	.L108
 1692              	.LBB981:
 1693              	.LBB979:
 119:Core/Inc/utils/mat.h ****                                         sum += matrix_[i][k] * m.matrix_[k][j];
 1694              		.loc 5 119 0
 1695 06d8 0023     		movs	r3, #0
 1696              	.LBE979:
 118:Core/Inc/utils/mat.h ****                                 for (uint8_t k = 0; k < cols_; ++k) {
 1697              		.loc 5 118 0
 1698 06da 1FED097A 		vldr.32	s14, .L294+4
 1699              	.L110:
 1700              	.LVL218:
 1701              	.LBB980:
 119:Core/Inc/utils/mat.h ****                                         sum += matrix_[i][k] * m.matrix_[k][j];
 1702              		.loc 5 119 0
 1703 06de 96F82520 		ldrb	r2, [r6, #37]	@ zero_extendqisi2
 1704 06e2 9A42     		cmp	r2, r3
ARM GAS  C:\Users\Prashant\AppData\Local\Temp\ccIdreTb.s 			page 42


 1705 06e4 EAD9     		bls	.L109
 120:Core/Inc/utils/mat.h ****                                 }
 1706              		.loc 5 120 0
 1707 06e6 01EB4102 		add	r2, r1, r1, lsl #1
 1708 06ea 1A44     		add	r2, r2, r3
 1709 06ec 06EB8202 		add	r2, r6, r2, lsl #2
 1710 06f0 D2ED007A 		vldr.32	s15, [r2]
 1711 06f4 03EB4302 		add	r2, r3, r3, lsl #1
 1712 06f8 0244     		add	r2, r2, r0
 1713 06fa 0DEB8202 		add	r2, sp, r2, lsl #2
 1714 06fe D2ED006A 		vldr.32	s13, [r2]
 1715 0702 67EEA67A 		vmul.f32	s15, s15, s13
 1716 0706 37EE277A 		vadd.f32	s14, s14, s15
 1717              	.LVL219:
 119:Core/Inc/utils/mat.h ****                                         sum += matrix_[i][k] * m.matrix_[k][j];
 1718              		.loc 5 119 0
 1719 070a 0133     		adds	r3, r3, #1
 1720              	.LVL220:
 1721 070c DBB2     		uxtb	r3, r3
 1722              	.LVL221:
 1723 070e E6E7     		b	.L110
 1724              	.LVL222:
 1725              	.L108:
 1726              	.LBE980:
 1727              	.LBE981:
 1728              	.LBE977:
 116:Core/Inc/utils/mat.h ****                         for (uint8_t j = 0; j < m.cols_; ++j) {
 1729              		.loc 5 116 0
 1730 0710 0131     		adds	r1, r1, #1
 1731              	.LVL223:
 1732 0712 C9B2     		uxtb	r1, r1
 1733              	.LVL224:
 1734              	.L103:
 1735 0714 96F82430 		ldrb	r3, [r6, #36]	@ zero_extendqisi2
 1736 0718 8B42     		cmp	r3, r1
 1737 071a 01D9     		bls	.L107
 1738              	.LBB982:
 117:Core/Inc/utils/mat.h ****                                 sum = 0;
 1739              		.loc 5 117 0
 1740 071c 0020     		movs	r0, #0
 1741 071e D7E7     		b	.L111
 1742              	.L107:
 1743              	.LVL225:
 1744              	.LBE982:
 1745              	.LBE976:
 1746              	.LBE964:
 1747              	.LBE963:
  68:Core/Inc/utils/kalman.h ****                         x_ += K_.mult(z_ - kv_->H_.mult(x_));
 1748              		.loc 2 68 0
 1749 0720 D4F80880 		ldr	r8, [r4, #8]
 1750              	.LVL226:
 1751 0724 08F15006 		add	r6, r8, #80
 1752 0728 08F1A007 		add	r7, r8, #160
 1753              	.LVL227:
 1754              	.LBB983:
 1755              	.LBB984:
 170:Core/Inc/utils/mat.h ****                 for (uint8_t i = 0; i < rows_; ++i) {
ARM GAS  C:\Users\Prashant\AppData\Local\Temp\ccIdreTb.s 			page 43


 1756              		.loc 5 170 0
 1757 072c 98F875A0 		ldrb	r10, [r8, #117]	@ zero_extendqisi2
 1758              	.LVL228:
 1759 0730 98F87490 		ldrb	r9, [r8, #116]	@ zero_extendqisi2
 1760              	.LVL229:
 1761              	.LBB985:
 1762              	.LBB986:
 1763              	.LBB987:
  24:Core/Inc/utils/mat.h ****                         _Error_Handler(__FILE__, __LINE__);
 1764              		.loc 5 24 0
 1765 0734 BAF1020F 		cmp	r10, #2
 1766 0738 02D8     		bhi	.L112
 1767 073a B9F1020F 		cmp	r9, #2
 1768 073e 03D9     		bls	.L113
 1769              	.L112:
  25:Core/Inc/utils/mat.h ****                 }
 1770              		.loc 5 25 0
 1771 0740 1921     		movs	r1, #25
 1772 0742 C648     		ldr	r0, .L296
 1773 0744 FFF7FEFF 		bl	_Error_Handler
 1774              	.LVL230:
 1775              	.L113:
  27:Core/Inc/utils/mat.h ****                 cols_ = columns;
 1776              		.loc 5 27 0
 1777 0748 8DF874A0 		strb	r10, [sp, #116]
  28:Core/Inc/utils/mat.h **** 
 1778              		.loc 5 28 0
 1779 074c 8DF87590 		strb	r9, [sp, #117]
 1780              	.LVL231:
 1781              	.LBB988:
 1782              	.LBB989:
 180:Core/Inc/utils/mat.h ****                         for (uint8_t j = 0; j < cols_; ++j) {
 1783              		.loc 5 180 0
 1784 0750 0021     		movs	r1, #0
 1785 0752 01E0     		b	.L117
 1786              	.LVL232:
 1787              	.L115:
 1788 0754 0131     		adds	r1, r1, #1
 1789              	.LVL233:
 1790 0756 C9B2     		uxtb	r1, r1
 1791              	.LVL234:
 1792              	.L117:
 1793 0758 8A45     		cmp	r10, r1
 1794 075a 0ED9     		bls	.L257
 1795              	.LBB990:
 181:Core/Inc/utils/mat.h ****                                 matrix_[i][j] = num;
 1796              		.loc 5 181 0
 1797 075c 0023     		movs	r3, #0
 1798              	.L116:
 1799              	.LVL235:
 1800 075e 9945     		cmp	r9, r3
 1801 0760 F8D9     		bls	.L115
 1802              		.loc 5 182 0
 1803 0762 01EB4102 		add	r2, r1, r1, lsl #1
 1804 0766 1A44     		add	r2, r2, r3
 1805 0768 50A8     		add	r0, sp, #320
 1806 076a 00EB8202 		add	r2, r0, r2, lsl #2
ARM GAS  C:\Users\Prashant\AppData\Local\Temp\ccIdreTb.s 			page 44


 1807 076e 0020     		movs	r0, #0
 1808 0770 42F8F00C 		str	r0, [r2, #-240]	@ float
 181:Core/Inc/utils/mat.h ****                                 matrix_[i][j] = num;
 1809              		.loc 5 181 0
 1810 0774 0133     		adds	r3, r3, #1
 1811              	.LVL236:
 1812 0776 DBB2     		uxtb	r3, r3
 1813              	.LVL237:
 1814 0778 F1E7     		b	.L116
 1815              	.LVL238:
 1816              	.L257:
 1817              	.LBE990:
 1818              	.LBE989:
 1819              	.LBE988:
 1820              	.LBE987:
 1821              	.LBE986:
 1822              	.LBE985:
 1823              	.LBB991:
 171:Core/Inc/utils/mat.h ****                         for (uint8_t j = 0; j < cols_; ++j) {
 1824              		.loc 5 171 0
 1825 077a 0021     		movs	r1, #0
 1826              	.LVL239:
 1827 077c 01E0     		b	.L114
 1828              	.LVL240:
 1829              	.L119:
 1830 077e 0131     		adds	r1, r1, #1
 1831              	.LVL241:
 1832 0780 C9B2     		uxtb	r1, r1
 1833              	.LVL242:
 1834              	.L114:
 1835 0782 98F87430 		ldrb	r3, [r8, #116]	@ zero_extendqisi2
 1836 0786 8B42     		cmp	r3, r1
 1837 0788 16D9     		bls	.L118
 1838              	.LBB992:
 172:Core/Inc/utils/mat.h ****                                 trans.matrix_[i][j] = matrix_[j][i];
 1839              		.loc 5 172 0
 1840 078a 0023     		movs	r3, #0
 1841              	.L120:
 1842              	.LVL243:
 1843 078c 98F87520 		ldrb	r2, [r8, #117]	@ zero_extendqisi2
 1844 0790 9A42     		cmp	r2, r3
 1845 0792 F4D9     		bls	.L119
 173:Core/Inc/utils/mat.h ****                         }
 1846              		.loc 5 173 0
 1847 0794 03EB4302 		add	r2, r3, r3, lsl #1
 1848 0798 0A44     		add	r2, r2, r1
 1849 079a 08EB8202 		add	r2, r8, r2, lsl #2
 1850 079e 106D     		ldr	r0, [r2, #80]	@ float
 1851 07a0 01EB4102 		add	r2, r1, r1, lsl #1
 1852 07a4 1A44     		add	r2, r2, r3
 1853 07a6 0DF5A07C 		add	ip, sp, #320
 1854 07aa 0CEB8202 		add	r2, ip, r2, lsl #2
 1855 07ae 42F8F00C 		str	r0, [r2, #-240]	@ float
 172:Core/Inc/utils/mat.h ****                                 trans.matrix_[i][j] = matrix_[j][i];
 1856              		.loc 5 172 0
 1857 07b2 0133     		adds	r3, r3, #1
 1858              	.LVL244:
ARM GAS  C:\Users\Prashant\AppData\Local\Temp\ccIdreTb.s 			page 45


 1859 07b4 DBB2     		uxtb	r3, r3
 1860              	.LVL245:
 1861 07b6 E9E7     		b	.L120
 1862              	.LVL246:
 1863              	.L118:
 1864              	.LBE992:
 1865              	.LBE991:
 1866              	.LBE984:
 1867              	.LBE983:
 1868              	.LBB993:
 1869              	.LBB994:
 110:Core/Inc/utils/mat.h ****                         _Error_Handler(__FILE__, __LINE__);
 1870              		.loc 5 110 0
 1871 07b8 97F82520 		ldrb	r2, [r7, #37]	@ zero_extendqisi2
 1872 07bc 9DF87430 		ldrb	r3, [sp, #116]	@ zero_extendqisi2
 1873 07c0 9A42     		cmp	r2, r3
 1874 07c2 13D1     		bne	.L276
 1875              	.L121:
 114:Core/Inc/utils/mat.h ****                 float sum;
 1876              		.loc 5 114 0
 1877 07c4 97F82490 		ldrb	r9, [r7, #36]	@ zero_extendqisi2
 1878              	.LVL247:
 1879 07c8 9DF87580 		ldrb	r8, [sp, #117]	@ zero_extendqisi2
 1880              	.LVL248:
 1881              	.LBB995:
 1882              	.LBB996:
 1883              	.LBB997:
  24:Core/Inc/utils/mat.h ****                         _Error_Handler(__FILE__, __LINE__);
 1884              		.loc 5 24 0
 1885 07cc B9F1020F 		cmp	r9, #2
 1886 07d0 02D8     		bhi	.L122
 1887 07d2 B8F1020F 		cmp	r8, #2
 1888 07d6 03D9     		bls	.L123
 1889              	.L122:
  25:Core/Inc/utils/mat.h ****                 }
 1890              		.loc 5 25 0
 1891 07d8 1921     		movs	r1, #25
 1892 07da A048     		ldr	r0, .L296
 1893 07dc FFF7FEFF 		bl	_Error_Handler
 1894              	.LVL249:
 1895              	.L123:
  27:Core/Inc/utils/mat.h ****                 cols_ = columns;
 1896              		.loc 5 27 0
 1897 07e0 8DF89C90 		strb	r9, [sp, #156]
  28:Core/Inc/utils/mat.h **** 
 1898              		.loc 5 28 0
 1899 07e4 8DF89D80 		strb	r8, [sp, #157]
 1900              	.LVL250:
 1901              	.LBB998:
 1902              	.LBB999:
 180:Core/Inc/utils/mat.h ****                         for (uint8_t j = 0; j < cols_; ++j) {
 1903              		.loc 5 180 0
 1904 07e8 0021     		movs	r1, #0
 1905 07ea 06E0     		b	.L127
 1906              	.LVL251:
 1907              	.L276:
 1908              	.LBE999:
ARM GAS  C:\Users\Prashant\AppData\Local\Temp\ccIdreTb.s 			page 46


 1909              	.LBE998:
 1910              	.LBE997:
 1911              	.LBE996:
 1912              	.LBE995:
 111:Core/Inc/utils/mat.h ****                 }
 1913              		.loc 5 111 0
 1914 07ec 6F21     		movs	r1, #111
 1915 07ee 9B48     		ldr	r0, .L296
 1916 07f0 FFF7FEFF 		bl	_Error_Handler
 1917              	.LVL252:
 1918 07f4 E6E7     		b	.L121
 1919              	.LVL253:
 1920              	.L125:
 1921              	.LBB1005:
 1922              	.LBB1004:
 1923              	.LBB1003:
 1924              	.LBB1002:
 1925              	.LBB1001:
 180:Core/Inc/utils/mat.h ****                         for (uint8_t j = 0; j < cols_; ++j) {
 1926              		.loc 5 180 0
 1927 07f6 0131     		adds	r1, r1, #1
 1928              	.LVL254:
 1929 07f8 C9B2     		uxtb	r1, r1
 1930              	.LVL255:
 1931              	.L127:
 1932 07fa 8945     		cmp	r9, r1
 1933 07fc 0ED9     		bls	.L258
 1934              	.LBB1000:
 181:Core/Inc/utils/mat.h ****                                 matrix_[i][j] = num;
 1935              		.loc 5 181 0
 1936 07fe 0023     		movs	r3, #0
 1937              	.L126:
 1938              	.LVL256:
 1939 0800 9845     		cmp	r8, r3
 1940 0802 F8D9     		bls	.L125
 1941              		.loc 5 182 0
 1942 0804 01EB4102 		add	r2, r1, r1, lsl #1
 1943 0808 1A44     		add	r2, r2, r3
 1944 080a 50A8     		add	r0, sp, #320
 1945 080c 00EB8202 		add	r2, r0, r2, lsl #2
 1946 0810 0020     		movs	r0, #0
 1947 0812 42F8C80C 		str	r0, [r2, #-200]	@ float
 181:Core/Inc/utils/mat.h ****                                 matrix_[i][j] = num;
 1948              		.loc 5 181 0
 1949 0816 0133     		adds	r3, r3, #1
 1950              	.LVL257:
 1951 0818 DBB2     		uxtb	r3, r3
 1952              	.LVL258:
 1953 081a F1E7     		b	.L126
 1954              	.LVL259:
 1955              	.L258:
 1956              	.LBE1000:
 1957              	.LBE1001:
 1958              	.LBE1002:
 1959              	.LBE1003:
 1960              	.LBE1004:
 1961              	.LBE1005:
ARM GAS  C:\Users\Prashant\AppData\Local\Temp\ccIdreTb.s 			page 47


 1962              	.LBB1006:
 116:Core/Inc/utils/mat.h ****                         for (uint8_t j = 0; j < m.cols_; ++j) {
 1963              		.loc 5 116 0
 1964 081c 0021     		movs	r1, #0
 1965              	.LVL260:
 1966 081e 2DE0     		b	.L124
 1967              	.LVL261:
 1968              	.L130:
 1969              	.LBB1007:
 1970              	.LBB1008:
 122:Core/Inc/utils/mat.h ****                         }
 1971              		.loc 5 122 0
 1972 0820 01EB4103 		add	r3, r1, r1, lsl #1
 1973              	.LVL262:
 1974 0824 0344     		add	r3, r3, r0
 1975 0826 50AA     		add	r2, sp, #320
 1976 0828 02EB8303 		add	r3, r2, r3, lsl #2
 1977 082c 03ED327A 		vstr.32	s14, [r3, #-200]
 1978              	.LBE1008:
 117:Core/Inc/utils/mat.h ****                                 sum = 0;
 1979              		.loc 5 117 0
 1980 0830 0130     		adds	r0, r0, #1
 1981              	.LVL263:
 1982 0832 C0B2     		uxtb	r0, r0
 1983              	.LVL264:
 1984              	.L132:
 1985 0834 9DF87530 		ldrb	r3, [sp, #117]	@ zero_extendqisi2
 1986 0838 8342     		cmp	r3, r0
 1987 083a 1DD9     		bls	.L129
 1988              	.LBB1011:
 1989              	.LBB1009:
 119:Core/Inc/utils/mat.h ****                                         sum += matrix_[i][k] * m.matrix_[k][j];
 1990              		.loc 5 119 0
 1991 083c 0023     		movs	r3, #0
 1992              	.LBE1009:
 118:Core/Inc/utils/mat.h ****                                 for (uint8_t k = 0; k < cols_; ++k) {
 1993              		.loc 5 118 0
 1994 083e 9FED887A 		vldr.32	s14, .L296+4
 1995              	.L131:
 1996              	.LVL265:
 1997              	.LBB1010:
 119:Core/Inc/utils/mat.h ****                                         sum += matrix_[i][k] * m.matrix_[k][j];
 1998              		.loc 5 119 0
 1999 0842 97F82520 		ldrb	r2, [r7, #37]	@ zero_extendqisi2
 2000 0846 9A42     		cmp	r2, r3
 2001 0848 EAD9     		bls	.L130
 120:Core/Inc/utils/mat.h ****                                 }
 2002              		.loc 5 120 0
 2003 084a 01EB4102 		add	r2, r1, r1, lsl #1
 2004 084e 1A44     		add	r2, r2, r3
 2005 0850 07EB8202 		add	r2, r7, r2, lsl #2
 2006 0854 D2ED007A 		vldr.32	s15, [r2]
 2007 0858 03EB4302 		add	r2, r3, r3, lsl #1
 2008 085c 0244     		add	r2, r2, r0
 2009 085e 0DF5A07C 		add	ip, sp, #320
 2010 0862 0CEB8202 		add	r2, ip, r2, lsl #2
 2011 0866 52ED3C6A 		vldr.32	s13, [r2, #-240]
ARM GAS  C:\Users\Prashant\AppData\Local\Temp\ccIdreTb.s 			page 48


 2012 086a 67EEA67A 		vmul.f32	s15, s15, s13
 2013 086e 37EE277A 		vadd.f32	s14, s14, s15
 2014              	.LVL266:
 119:Core/Inc/utils/mat.h ****                                         sum += matrix_[i][k] * m.matrix_[k][j];
 2015              		.loc 5 119 0
 2016 0872 0133     		adds	r3, r3, #1
 2017              	.LVL267:
 2018 0874 DBB2     		uxtb	r3, r3
 2019              	.LVL268:
 2020 0876 E4E7     		b	.L131
 2021              	.LVL269:
 2022              	.L129:
 2023              	.LBE1010:
 2024              	.LBE1011:
 2025              	.LBE1007:
 116:Core/Inc/utils/mat.h ****                         for (uint8_t j = 0; j < m.cols_; ++j) {
 2026              		.loc 5 116 0
 2027 0878 0131     		adds	r1, r1, #1
 2028              	.LVL270:
 2029 087a C9B2     		uxtb	r1, r1
 2030              	.LVL271:
 2031              	.L124:
 2032 087c 97F82430 		ldrb	r3, [r7, #36]	@ zero_extendqisi2
 2033 0880 8B42     		cmp	r3, r1
 2034 0882 01D9     		bls	.L128
 2035              	.LBB1012:
 117:Core/Inc/utils/mat.h ****                                 sum = 0;
 2036              		.loc 5 117 0
 2037 0884 0020     		movs	r0, #0
 2038 0886 D5E7     		b	.L132
 2039              	.L128:
 2040              	.LVL272:
 2041              	.LBE1012:
 2042              	.LBE1006:
 2043              	.LBE994:
 2044              	.LBE993:
 2045              	.LBB1013:
 2046              	.LBB1014:
 110:Core/Inc/utils/mat.h ****                         _Error_Handler(__FILE__, __LINE__);
 2047              		.loc 5 110 0
 2048 0888 96F82520 		ldrb	r2, [r6, #37]	@ zero_extendqisi2
 2049 088c 9DF89C30 		ldrb	r3, [sp, #156]	@ zero_extendqisi2
 2050 0890 9A42     		cmp	r2, r3
 2051 0892 12D1     		bne	.L277
 2052              	.L133:
 114:Core/Inc/utils/mat.h ****                 float sum;
 2053              		.loc 5 114 0
 2054 0894 96F82480 		ldrb	r8, [r6, #36]	@ zero_extendqisi2
 2055              	.LVL273:
 2056 0898 9DF89D70 		ldrb	r7, [sp, #157]	@ zero_extendqisi2
 2057              	.LVL274:
 2058              	.LBB1015:
 2059              	.LBB1016:
 2060              	.LBB1017:
  24:Core/Inc/utils/mat.h ****                         _Error_Handler(__FILE__, __LINE__);
 2061              		.loc 5 24 0
 2062 089c B8F1020F 		cmp	r8, #2
ARM GAS  C:\Users\Prashant\AppData\Local\Temp\ccIdreTb.s 			page 49


 2063 08a0 01D8     		bhi	.L134
 2064 08a2 022F     		cmp	r7, #2
 2065 08a4 03D9     		bls	.L135
 2066              	.L134:
  25:Core/Inc/utils/mat.h ****                 }
 2067              		.loc 5 25 0
 2068 08a6 1921     		movs	r1, #25
 2069 08a8 6C48     		ldr	r0, .L296
 2070 08aa FFF7FEFF 		bl	_Error_Handler
 2071              	.LVL275:
 2072              	.L135:
  27:Core/Inc/utils/mat.h ****                 cols_ = columns;
 2073              		.loc 5 27 0
 2074 08ae 8DF8C480 		strb	r8, [sp, #196]
  28:Core/Inc/utils/mat.h **** 
 2075              		.loc 5 28 0
 2076 08b2 8DF8C570 		strb	r7, [sp, #197]
 2077              	.LVL276:
 2078              	.LBB1018:
 2079              	.LBB1019:
 180:Core/Inc/utils/mat.h ****                         for (uint8_t j = 0; j < cols_; ++j) {
 2080              		.loc 5 180 0
 2081 08b6 0021     		movs	r1, #0
 2082 08b8 06E0     		b	.L139
 2083              	.LVL277:
 2084              	.L277:
 2085              	.LBE1019:
 2086              	.LBE1018:
 2087              	.LBE1017:
 2088              	.LBE1016:
 2089              	.LBE1015:
 111:Core/Inc/utils/mat.h ****                 }
 2090              		.loc 5 111 0
 2091 08ba 6F21     		movs	r1, #111
 2092 08bc 6748     		ldr	r0, .L296
 2093 08be FFF7FEFF 		bl	_Error_Handler
 2094              	.LVL278:
 2095 08c2 E7E7     		b	.L133
 2096              	.LVL279:
 2097              	.L137:
 2098              	.LBB1025:
 2099              	.LBB1024:
 2100              	.LBB1023:
 2101              	.LBB1022:
 2102              	.LBB1021:
 180:Core/Inc/utils/mat.h ****                         for (uint8_t j = 0; j < cols_; ++j) {
 2103              		.loc 5 180 0
 2104 08c4 0131     		adds	r1, r1, #1
 2105              	.LVL280:
 2106 08c6 C9B2     		uxtb	r1, r1
 2107              	.LVL281:
 2108              	.L139:
 2109 08c8 8845     		cmp	r8, r1
 2110 08ca 0ED9     		bls	.L259
 2111              	.LBB1020:
 181:Core/Inc/utils/mat.h ****                                 matrix_[i][j] = num;
 2112              		.loc 5 181 0
ARM GAS  C:\Users\Prashant\AppData\Local\Temp\ccIdreTb.s 			page 50


 2113 08cc 0023     		movs	r3, #0
 2114              	.L138:
 2115              	.LVL282:
 2116 08ce 9F42     		cmp	r7, r3
 2117 08d0 F8D9     		bls	.L137
 2118              		.loc 5 182 0
 2119 08d2 01EB4102 		add	r2, r1, r1, lsl #1
 2120 08d6 1A44     		add	r2, r2, r3
 2121 08d8 50A8     		add	r0, sp, #320
 2122 08da 00EB8202 		add	r2, r0, r2, lsl #2
 2123 08de 0020     		movs	r0, #0
 2124 08e0 42F8A00C 		str	r0, [r2, #-160]	@ float
 181:Core/Inc/utils/mat.h ****                                 matrix_[i][j] = num;
 2125              		.loc 5 181 0
 2126 08e4 0133     		adds	r3, r3, #1
 2127              	.LVL283:
 2128 08e6 DBB2     		uxtb	r3, r3
 2129              	.LVL284:
 2130 08e8 F1E7     		b	.L138
 2131              	.LVL285:
 2132              	.L259:
 2133              	.LBE1020:
 2134              	.LBE1021:
 2135              	.LBE1022:
 2136              	.LBE1023:
 2137              	.LBE1024:
 2138              	.LBE1025:
 2139              	.LBB1026:
 116:Core/Inc/utils/mat.h ****                         for (uint8_t j = 0; j < m.cols_; ++j) {
 2140              		.loc 5 116 0
 2141 08ea 0021     		movs	r1, #0
 2142              	.LVL286:
 2143 08ec 2CE0     		b	.L136
 2144              	.LVL287:
 2145              	.L142:
 2146              	.LBB1027:
 2147              	.LBB1028:
 122:Core/Inc/utils/mat.h ****                         }
 2148              		.loc 5 122 0
 2149 08ee 01EB4103 		add	r3, r1, r1, lsl #1
 2150              	.LVL288:
 2151 08f2 0344     		add	r3, r3, r0
 2152 08f4 50AA     		add	r2, sp, #320
 2153 08f6 02EB8303 		add	r3, r2, r3, lsl #2
 2154 08fa 03ED287A 		vstr.32	s14, [r3, #-160]
 2155              	.LBE1028:
 117:Core/Inc/utils/mat.h ****                                 sum = 0;
 2156              		.loc 5 117 0
 2157 08fe 0130     		adds	r0, r0, #1
 2158              	.LVL289:
 2159 0900 C0B2     		uxtb	r0, r0
 2160              	.LVL290:
 2161              	.L144:
 2162 0902 9DF89D30 		ldrb	r3, [sp, #157]	@ zero_extendqisi2
 2163 0906 8342     		cmp	r3, r0
 2164 0908 1CD9     		bls	.L141
 2165              	.LBB1031:
ARM GAS  C:\Users\Prashant\AppData\Local\Temp\ccIdreTb.s 			page 51


 2166              	.LBB1029:
 119:Core/Inc/utils/mat.h ****                                         sum += matrix_[i][k] * m.matrix_[k][j];
 2167              		.loc 5 119 0
 2168 090a 0023     		movs	r3, #0
 2169              	.LBE1029:
 118:Core/Inc/utils/mat.h ****                                 for (uint8_t k = 0; k < cols_; ++k) {
 2170              		.loc 5 118 0
 2171 090c 9FED547A 		vldr.32	s14, .L296+4
 2172              	.L143:
 2173              	.LVL291:
 2174              	.LBB1030:
 119:Core/Inc/utils/mat.h ****                                         sum += matrix_[i][k] * m.matrix_[k][j];
 2175              		.loc 5 119 0
 2176 0910 96F82520 		ldrb	r2, [r6, #37]	@ zero_extendqisi2
 2177 0914 9A42     		cmp	r2, r3
 2178 0916 EAD9     		bls	.L142
 120:Core/Inc/utils/mat.h ****                                 }
 2179              		.loc 5 120 0
 2180 0918 01EB4102 		add	r2, r1, r1, lsl #1
 2181 091c 1A44     		add	r2, r2, r3
 2182 091e 06EB8202 		add	r2, r6, r2, lsl #2
 2183 0922 D2ED007A 		vldr.32	s15, [r2]
 2184 0926 03EB4302 		add	r2, r3, r3, lsl #1
 2185 092a 0244     		add	r2, r2, r0
 2186 092c 50AF     		add	r7, sp, #320
 2187 092e 07EB8202 		add	r2, r7, r2, lsl #2
 2188 0932 52ED326A 		vldr.32	s13, [r2, #-200]
 2189 0936 67EEA67A 		vmul.f32	s15, s15, s13
 2190 093a 37EE277A 		vadd.f32	s14, s14, s15
 2191              	.LVL292:
 119:Core/Inc/utils/mat.h ****                                         sum += matrix_[i][k] * m.matrix_[k][j];
 2192              		.loc 5 119 0
 2193 093e 0133     		adds	r3, r3, #1
 2194              	.LVL293:
 2195 0940 DBB2     		uxtb	r3, r3
 2196              	.LVL294:
 2197 0942 E5E7     		b	.L143
 2198              	.LVL295:
 2199              	.L141:
 2200              	.LBE1030:
 2201              	.LBE1031:
 2202              	.LBE1027:
 116:Core/Inc/utils/mat.h ****                         for (uint8_t j = 0; j < m.cols_; ++j) {
 2203              		.loc 5 116 0
 2204 0944 0131     		adds	r1, r1, #1
 2205              	.LVL296:
 2206 0946 C9B2     		uxtb	r1, r1
 2207              	.LVL297:
 2208              	.L136:
 2209 0948 96F82430 		ldrb	r3, [r6, #36]	@ zero_extendqisi2
 2210 094c 8B42     		cmp	r3, r1
 2211 094e 01D9     		bls	.L140
 2212              	.LBB1033:
 117:Core/Inc/utils/mat.h ****                                 sum = 0;
 2213              		.loc 5 117 0
 2214 0950 0020     		movs	r0, #0
 2215 0952 D6E7     		b	.L144
ARM GAS  C:\Users\Prashant\AppData\Local\Temp\ccIdreTb.s 			page 52


 2216              	.L140:
 2217              	.LVL298:
 2218              	.LBE1033:
 2219              	.LBE1026:
 2220              	.LBE1014:
 2221              	.LBE1013:
  68:Core/Inc/utils/kalman.h ****                         x_ += K_.mult(z_ - kv_->H_.mult(x_));
 2222              		.loc 2 68 0
 2223 0954 A668     		ldr	r6, [r4, #8]
 2224 0956 F036     		adds	r6, r6, #240
 2225              	.LVL299:
 2226              	.LBB1037:
 2227              	.LBB1038:
 2228              	.LBB1039:
 2229              	.LBB1040:
  72:Core/Inc/utils/mat.h ****                         _Error_Handler(__FILE__, __LINE__);
 2230              		.loc 5 72 0
 2231 0958 B28C     		ldrh	r2, [r6, #36]
 2232 095a BDF8C430 		ldrh	r3, [sp, #196]
 2233 095e 9A42     		cmp	r2, r3
 2234 0960 01D1     		bne	.L278
 2235              	.L145:
 2236              	.LBE1040:
 2237              	.LBE1039:
 2238              	.LBE1038:
 2239              	.LBE1037:
 2240              	.LBB1046:
 2241              	.LBB1036:
 2242              	.LBB1035:
 2243              	.LBB1034:
 2244              	.LBB1032:
 118:Core/Inc/utils/mat.h ****                                 for (uint8_t k = 0; k < cols_; ++k) {
 2245              		.loc 5 118 0
 2246 0962 0021     		movs	r1, #0
 2247 0964 06E0     		b	.L149
 2248              	.L278:
 2249              	.LBE1032:
 2250              	.LBE1034:
 2251              	.LBE1035:
 2252              	.LBE1036:
 2253              	.LBE1046:
 2254              	.LBB1047:
 2255              	.LBB1045:
 2256              	.LBB1044:
 2257              	.LBB1043:
  73:Core/Inc/utils/mat.h ****                 }
 2258              		.loc 5 73 0
 2259 0966 4921     		movs	r1, #73
 2260 0968 3C48     		ldr	r0, .L296
 2261 096a FFF7FEFF 		bl	_Error_Handler
 2262              	.LVL300:
 2263 096e F8E7     		b	.L145
 2264              	.LVL301:
 2265              	.L147:
 2266              	.LBB1041:
  76:Core/Inc/utils/mat.h ****                         for (uint8_t j = 0; j < cols_; ++j) {
 2267              		.loc 5 76 0
ARM GAS  C:\Users\Prashant\AppData\Local\Temp\ccIdreTb.s 			page 53


 2268 0970 0131     		adds	r1, r1, #1
 2269              	.LVL302:
 2270 0972 C9B2     		uxtb	r1, r1
 2271              	.LVL303:
 2272              	.L149:
 2273 0974 9DF8C430 		ldrb	r3, [sp, #196]	@ zero_extendqisi2
 2274 0978 8B42     		cmp	r3, r1
 2275 097a 16D9     		bls	.L146
 2276              	.LBB1042:
  77:Core/Inc/utils/mat.h ****                                 matrix_[i][j] += rhs.matrix_[i][j];
 2277              		.loc 5 77 0
 2278 097c 0022     		movs	r2, #0
 2279              	.L148:
 2280              	.LVL304:
 2281 097e 9DF8C530 		ldrb	r3, [sp, #197]	@ zero_extendqisi2
 2282 0982 9342     		cmp	r3, r2
 2283 0984 F4D9     		bls	.L147
  78:Core/Inc/utils/mat.h ****                         }
 2284              		.loc 5 78 0
 2285 0986 01EB4103 		add	r3, r1, r1, lsl #1
 2286 098a 1344     		add	r3, r3, r2
 2287 098c 9B00     		lsls	r3, r3, #2
 2288 098e F018     		adds	r0, r6, r3
 2289 0990 90ED007A 		vldr.32	s14, [r0]
 2290 0994 50A8     		add	r0, sp, #320
 2291 0996 0344     		add	r3, r3, r0
 2292 0998 53ED287A 		vldr.32	s15, [r3, #-160]
 2293 099c 77EE877A 		vadd.f32	s15, s15, s14
 2294 09a0 43ED287A 		vstr.32	s15, [r3, #-160]
  77:Core/Inc/utils/mat.h ****                                 matrix_[i][j] += rhs.matrix_[i][j];
 2295              		.loc 5 77 0
 2296 09a4 0132     		adds	r2, r2, #1
 2297              	.LVL305:
 2298 09a6 D2B2     		uxtb	r2, r2
 2299              	.LVL306:
 2300 09a8 E9E7     		b	.L148
 2301              	.LVL307:
 2302              	.L146:
 2303              	.LBE1042:
 2304              	.LBE1041:
 2305              	.LBE1043:
 2306              	.LBE1044:
 101:Core/Inc/utils/mat.h ****         }
 2307              		.loc 5 101 0
 2308 09aa 32AE     		add	r6, sp, #200
 2309              	.LVL308:
 2310 09ac 28AF     		add	r7, sp, #160
 2311              	.LVL309:
 2312 09ae 0FCF     		ldmia	r7!, {r0, r1, r2, r3}
 2313              	.LVL310:
 2314 09b0 0FC6     		stmia	r6!, {r0, r1, r2, r3}
 2315              	.LVL311:
 2316 09b2 0FCF     		ldmia	r7!, {r0, r1, r2, r3}
 2317              	.LVL312:
 2318 09b4 0FC6     		stmia	r6!, {r0, r1, r2, r3}
 2319              	.LVL313:
 2320 09b6 97E80300 		ldm	r7, {r0, r1}
ARM GAS  C:\Users\Prashant\AppData\Local\Temp\ccIdreTb.s 			page 54


 2321 09ba 86E80300 		stm	r6, {r0, r1}
 2322              	.LVL314:
 2323              	.LBE1045:
 2324              	.LBE1047:
 2325              	.LBB1048:
 2326              	.LBB1049:
 141:Core/Inc/utils/mat.h ****                         _Error_Handler(__FILE__, __LINE__);
 2327              		.loc 5 141 0
 2328 09be 9DF8EC20 		ldrb	r2, [sp, #236]	@ zero_extendqisi2
 2329 09c2 9DF8ED30 		ldrb	r3, [sp, #237]	@ zero_extendqisi2
 2330 09c6 9A42     		cmp	r2, r3
 2331 09c8 11D1     		bne	.L279
 2332              	.L150:
 145:Core/Inc/utils/mat.h ****                 if (rows_ == 1) {
 2333              		.loc 5 145 0
 2334 09ca 9DF8EC70 		ldrb	r7, [sp, #236]	@ zero_extendqisi2
 2335              	.LVL315:
 2336 09ce 9DF8ED60 		ldrb	r6, [sp, #237]	@ zero_extendqisi2
 2337              	.LVL316:
 2338              	.LBB1050:
 2339              	.LBB1051:
 2340              	.LBB1052:
  24:Core/Inc/utils/mat.h ****                         _Error_Handler(__FILE__, __LINE__);
 2341              		.loc 5 24 0
 2342 09d2 022F     		cmp	r7, #2
 2343 09d4 01D8     		bhi	.L151
 2344 09d6 022E     		cmp	r6, #2
 2345 09d8 03D9     		bls	.L152
 2346              	.L151:
  25:Core/Inc/utils/mat.h ****                 }
 2347              		.loc 5 25 0
 2348 09da 1921     		movs	r1, #25
 2349 09dc 1F48     		ldr	r0, .L296
 2350 09de FFF7FEFF 		bl	_Error_Handler
 2351              	.LVL317:
 2352              	.L152:
  27:Core/Inc/utils/mat.h ****                 cols_ = columns;
 2353              		.loc 5 27 0
 2354 09e2 8DF81471 		strb	r7, [sp, #276]
  28:Core/Inc/utils/mat.h **** 
 2355              		.loc 5 28 0
 2356 09e6 8DF81561 		strb	r6, [sp, #277]
 2357              	.LVL318:
 2358              	.LBB1053:
 2359              	.LBB1054:
 180:Core/Inc/utils/mat.h ****                         for (uint8_t j = 0; j < cols_; ++j) {
 2360              		.loc 5 180 0
 2361 09ea 0021     		movs	r1, #0
 2362 09ec 06E0     		b	.L156
 2363              	.LVL319:
 2364              	.L279:
 2365              	.LBE1054:
 2366              	.LBE1053:
 2367              	.LBE1052:
 2368              	.LBE1051:
 2369              	.LBE1050:
 142:Core/Inc/utils/mat.h ****                 }
ARM GAS  C:\Users\Prashant\AppData\Local\Temp\ccIdreTb.s 			page 55


 2370              		.loc 5 142 0
 2371 09ee 8E21     		movs	r1, #142
 2372 09f0 1A48     		ldr	r0, .L296
 2373 09f2 FFF7FEFF 		bl	_Error_Handler
 2374              	.LVL320:
 2375 09f6 E8E7     		b	.L150
 2376              	.LVL321:
 2377              	.L154:
 2378              	.LBB1060:
 2379              	.LBB1059:
 2380              	.LBB1058:
 2381              	.LBB1057:
 2382              	.LBB1056:
 180:Core/Inc/utils/mat.h ****                         for (uint8_t j = 0; j < cols_; ++j) {
 2383              		.loc 5 180 0
 2384 09f8 0131     		adds	r1, r1, #1
 2385              	.LVL322:
 2386 09fa C9B2     		uxtb	r1, r1
 2387              	.LVL323:
 2388              	.L156:
 2389 09fc 8F42     		cmp	r7, r1
 2390 09fe 0ED9     		bls	.L153
 2391              	.LBB1055:
 181:Core/Inc/utils/mat.h ****                                 matrix_[i][j] = num;
 2392              		.loc 5 181 0
 2393 0a00 0023     		movs	r3, #0
 2394              	.L155:
 2395              	.LVL324:
 2396 0a02 9E42     		cmp	r6, r3
 2397 0a04 F8D9     		bls	.L154
 2398              		.loc 5 182 0
 2399 0a06 01EB4102 		add	r2, r1, r1, lsl #1
 2400 0a0a 1A44     		add	r2, r2, r3
 2401 0a0c 50A8     		add	r0, sp, #320
 2402 0a0e 00EB8202 		add	r2, r0, r2, lsl #2
 2403 0a12 0020     		movs	r0, #0
 2404 0a14 42F8500C 		str	r0, [r2, #-80]	@ float
 181:Core/Inc/utils/mat.h ****                                 matrix_[i][j] = num;
 2405              		.loc 5 181 0
 2406 0a18 0133     		adds	r3, r3, #1
 2407              	.LVL325:
 2408 0a1a DBB2     		uxtb	r3, r3
 2409              	.LVL326:
 2410 0a1c F1E7     		b	.L155
 2411              	.LVL327:
 2412              	.L153:
 2413              	.LBE1055:
 2414              	.LBE1056:
 2415              	.LBE1057:
 2416              	.LBE1058:
 2417              	.LBE1059:
 2418              	.LBE1060:
 2419              	.LBB1061:
 146:Core/Inc/utils/mat.h ****                         if (fabsf(matrix_[0][0]) < 0.000001) {
 2420              		.loc 5 146 0
 2421 0a1e 9DF8EC30 		ldrb	r3, [sp, #236]	@ zero_extendqisi2
 2422 0a22 012B     		cmp	r3, #1
ARM GAS  C:\Users\Prashant\AppData\Local\Temp\ccIdreTb.s 			page 56


 2423 0a24 1ED0     		beq	.L280
 2424              	.LBB1062:
 153:Core/Inc/utils/mat.h ****                         float d = matrix_[0][0] * matrix_[1][1] - matrix_[0][1] * matrix_[1][0];
 2425              		.loc 5 153 0
 2426 0a26 022B     		cmp	r3, #2
 2427 0a28 38D0     		beq	.L281
 2428              	.LVL328:
 2429              	.L160:
 2430              	.LBE1062:
 2431              	.LBE1061:
 2432              	.LBE1049:
 2433              	.LBE1048:
 2434              	.LBB1067:
 2435              	.LBB1068:
 110:Core/Inc/utils/mat.h ****                         _Error_Handler(__FILE__, __LINE__);
 2436              		.loc 5 110 0
 2437 0a2a 9DF84D20 		ldrb	r2, [sp, #77]	@ zero_extendqisi2
 2438 0a2e 9DF81431 		ldrb	r3, [sp, #276]	@ zero_extendqisi2
 2439 0a32 9A42     		cmp	r2, r3
 2440 0a34 40F08080 		bne	.L282
 2441              	.L163:
 114:Core/Inc/utils/mat.h ****                 float sum;
 2442              		.loc 5 114 0
 2443 0a38 9DF84C70 		ldrb	r7, [sp, #76]	@ zero_extendqisi2
 2444 0a3c 9DF81561 		ldrb	r6, [sp, #277]	@ zero_extendqisi2
 2445              	.LVL329:
 2446              	.LBB1069:
 2447              	.LBB1070:
 2448              	.LBB1071:
  24:Core/Inc/utils/mat.h ****                         _Error_Handler(__FILE__, __LINE__);
 2449              		.loc 5 24 0
 2450 0a40 022F     		cmp	r7, #2
 2451 0a42 01D8     		bhi	.L164
 2452 0a44 022E     		cmp	r6, #2
 2453 0a46 03D9     		bls	.L165
 2454              	.L164:
  25:Core/Inc/utils/mat.h ****                 }
 2455              		.loc 5 25 0
 2456 0a48 1921     		movs	r1, #25
 2457 0a4a 0448     		ldr	r0, .L296
 2458 0a4c FFF7FEFF 		bl	_Error_Handler
 2459              	.LVL330:
 2460              	.L165:
  27:Core/Inc/utils/mat.h ****                 cols_ = columns;
 2461              		.loc 5 27 0
 2462 0a50 8DF83C71 		strb	r7, [sp, #316]
  28:Core/Inc/utils/mat.h **** 
 2463              		.loc 5 28 0
 2464 0a54 8DF83D61 		strb	r6, [sp, #317]
 2465              	.LVL331:
 2466              	.LBB1072:
 2467              	.LBB1073:
 180:Core/Inc/utils/mat.h ****                         for (uint8_t j = 0; j < cols_; ++j) {
 2468              		.loc 5 180 0
 2469 0a58 0021     		movs	r1, #0
 2470 0a5a 74E0     		b	.L169
 2471              	.L297:
ARM GAS  C:\Users\Prashant\AppData\Local\Temp\ccIdreTb.s 			page 57


 2472              		.align	2
 2473              	.L296:
 2474 0a5c 00000000 		.word	.LC0
 2475 0a60 00000000 		.word	0
 2476              	.LVL332:
 2477              	.L280:
 2478              	.LBE1073:
 2479              	.LBE1072:
 2480              	.LBE1071:
 2481              	.LBE1070:
 2482              	.LBE1069:
 2483              	.LBE1068:
 2484              	.LBE1067:
 2485              	.LBB1088:
 2486              	.LBB1066:
 2487              	.LBB1065:
 147:Core/Inc/utils/mat.h ****                                 _Error_Handler(__FILE__, __LINE__);
 2488              		.loc 5 147 0
 2489 0a64 DDED327A 		vldr.32	s15, [sp, #200]
 2490 0a68 F0EEE77A 		vabs.f32	s15, s15
 2491 0a6c 17EE900A 		vmov	r0, s15
 2492 0a70 FFF7FEFF 		bl	__aeabi_f2d
 2493              	.LVL333:
 2494 0a74 D0A3     		adr	r3, .L298
 2495 0a76 D3E90023 		ldrd	r2, [r3]
 2496 0a7a FFF7FEFF 		bl	__aeabi_dcmplt
 2497              	.LVL334:
 2498 0a7e 40B9     		cbnz	r0, .L283
 2499              	.L158:
 151:Core/Inc/utils/mat.h ****                 }
 2500              		.loc 5 151 0
 2501 0a80 9DED327A 		vldr.32	s14, [sp, #200]
 2502 0a84 F7EE006A 		vmov.f32	s13, #1.0e+0
 2503 0a88 C6EE877A 		vdiv.f32	s15, s13, s14
 2504 0a8c CDED3C7A 		vstr.32	s15, [sp, #240]
 2505 0a90 CBE7     		b	.L160
 2506              	.L283:
 148:Core/Inc/utils/mat.h ****                         }
 2507              		.loc 5 148 0
 2508 0a92 9421     		movs	r1, #148
 2509 0a94 CA48     		ldr	r0, .L298+8
 2510 0a96 FFF7FEFF 		bl	_Error_Handler
 2511              	.LVL335:
 2512 0a9a F1E7     		b	.L158
 2513              	.L281:
 2514              	.LBB1064:
 2515              	.LBB1063:
 154:Core/Inc/utils/mat.h ****                         if (fabsf(d) < 0.000001) {
 2516              		.loc 5 154 0
 2517 0a9c DDED368A 		vldr.32	s17, [sp, #216]
 2518 0aa0 9DED328A 		vldr.32	s16, [sp, #200]
 2519              	.LVL336:
 2520 0aa4 28EE288A 		vmul.f32	s16, s16, s17
 2521 0aa8 DDED337A 		vldr.32	s15, [sp, #204]
 2522 0aac 9DED357A 		vldr.32	s14, [sp, #212]
 2523 0ab0 67EE877A 		vmul.f32	s15, s15, s14
 2524 0ab4 38EE678A 		vsub.f32	s16, s16, s15
ARM GAS  C:\Users\Prashant\AppData\Local\Temp\ccIdreTb.s 			page 58


 2525              	.LVL337:
 155:Core/Inc/utils/mat.h ****                                 _Error_Handler(__FILE__, __LINE__);
 2526              		.loc 5 155 0
 2527 0ab8 F0EEC87A 		vabs.f32	s15, s16
 2528 0abc 17EE900A 		vmov	r0, s15
 2529 0ac0 FFF7FEFF 		bl	__aeabi_f2d
 2530              	.LVL338:
 2531 0ac4 BCA3     		adr	r3, .L298
 2532 0ac6 D3E90023 		ldrd	r2, [r3]
 2533 0aca FFF7FEFF 		bl	__aeabi_dcmplt
 2534              	.LVL339:
 2535 0ace 70BB     		cbnz	r0, .L284
 159:Core/Inc/utils/mat.h ****                                 inv.matrix_[0][1] = matrix_[0][1] * (-1.0) / d;
 2536              		.loc 5 159 0
 2537 0ad0 C8EE887A 		vdiv.f32	s15, s17, s16
 2538 0ad4 CDED3C7A 		vstr.32	s15, [sp, #240]
 160:Core/Inc/utils/mat.h ****                                 inv.matrix_[1][0] = matrix_[1][0] * (-1.0) / d;
 2539              		.loc 5 160 0
 2540 0ad8 3398     		ldr	r0, [sp, #204]	@ float
 2541 0ada FFF7FEFF 		bl	__aeabi_f2d
 2542              	.LVL340:
 2543 0ade 0646     		mov	r6, r0
 2544 0ae0 01F10047 		add	r7, r1, #-2147483648
 2545 0ae4 18EE100A 		vmov	r0, s16
 2546 0ae8 FFF7FEFF 		bl	__aeabi_f2d
 2547              	.LVL341:
 2548 0aec 8046     		mov	r8, r0
 2549              	.LVL342:
 2550 0aee 8946     		mov	r9, r1
 2551              	.LVL343:
 2552 0af0 0246     		mov	r2, r0
 2553 0af2 0B46     		mov	r3, r1
 2554 0af4 3046     		mov	r0, r6
 2555 0af6 3946     		mov	r1, r7
 2556 0af8 FFF7FEFF 		bl	__aeabi_ddiv
 2557              	.LVL344:
 2558 0afc FFF7FEFF 		bl	__aeabi_d2f
 2559              	.LVL345:
 2560 0b00 3D90     		str	r0, [sp, #244]	@ float
 161:Core/Inc/utils/mat.h ****                                 inv.matrix_[1][1] = matrix_[0][0] / d;
 2561              		.loc 5 161 0
 2562 0b02 3598     		ldr	r0, [sp, #212]	@ float
 2563 0b04 FFF7FEFF 		bl	__aeabi_f2d
 2564              	.LVL346:
 2565 0b08 0246     		mov	r2, r0
 2566 0b0a 0B46     		mov	r3, r1
 2567 0b0c 1046     		mov	r0, r2
 2568 0b0e 03F10041 		add	r1, r3, #-2147483648
 2569 0b12 4246     		mov	r2, r8
 2570 0b14 4B46     		mov	r3, r9
 2571 0b16 FFF7FEFF 		bl	__aeabi_ddiv
 2572              	.LVL347:
 2573 0b1a FFF7FEFF 		bl	__aeabi_d2f
 2574              	.LVL348:
 2575 0b1e 3F90     		str	r0, [sp, #252]	@ float
 162:Core/Inc/utils/mat.h ****                         }
 2576              		.loc 5 162 0
ARM GAS  C:\Users\Prashant\AppData\Local\Temp\ccIdreTb.s 			page 59


 2577 0b20 9DED327A 		vldr.32	s14, [sp, #200]
 2578 0b24 C7EE087A 		vdiv.f32	s15, s14, s16
 2579 0b28 CDED407A 		vstr.32	s15, [sp, #256]
 2580 0b2c 7DE7     		b	.L160
 2581              	.LVL349:
 2582              	.L284:
 156:Core/Inc/utils/mat.h ****                         }
 2583              		.loc 5 156 0
 2584 0b2e 9C21     		movs	r1, #156
 2585 0b30 A348     		ldr	r0, .L298+8
 2586 0b32 FFF7FEFF 		bl	_Error_Handler
 2587              	.LVL350:
 2588 0b36 78E7     		b	.L160
 2589              	.LVL351:
 2590              	.L282:
 2591              	.LBE1063:
 2592              	.LBE1064:
 2593              	.LBE1065:
 2594              	.LBE1066:
 2595              	.LBE1088:
 2596              	.LBB1089:
 2597              	.LBB1087:
 111:Core/Inc/utils/mat.h ****                 }
 2598              		.loc 5 111 0
 2599 0b38 6F21     		movs	r1, #111
 2600 0b3a A148     		ldr	r0, .L298+8
 2601 0b3c FFF7FEFF 		bl	_Error_Handler
 2602              	.LVL352:
 2603 0b40 7AE7     		b	.L163
 2604              	.LVL353:
 2605              	.L167:
 2606              	.LBB1079:
 2607              	.LBB1078:
 2608              	.LBB1077:
 2609              	.LBB1076:
 2610              	.LBB1075:
 180:Core/Inc/utils/mat.h ****                         for (uint8_t j = 0; j < cols_; ++j) {
 2611              		.loc 5 180 0
 2612 0b42 0131     		adds	r1, r1, #1
 2613              	.LVL354:
 2614 0b44 C9B2     		uxtb	r1, r1
 2615              	.LVL355:
 2616              	.L169:
 2617 0b46 8F42     		cmp	r7, r1
 2618 0b48 0ED9     		bls	.L260
 2619              	.LBB1074:
 181:Core/Inc/utils/mat.h ****                                 matrix_[i][j] = num;
 2620              		.loc 5 181 0
 2621 0b4a 0023     		movs	r3, #0
 2622              	.L168:
 2623              	.LVL356:
 2624 0b4c 9E42     		cmp	r6, r3
 2625 0b4e F8D9     		bls	.L167
 2626              		.loc 5 182 0
 2627 0b50 01EB4102 		add	r2, r1, r1, lsl #1
 2628 0b54 1A44     		add	r2, r2, r3
 2629 0b56 50A8     		add	r0, sp, #320
ARM GAS  C:\Users\Prashant\AppData\Local\Temp\ccIdreTb.s 			page 60


 2630 0b58 00EB8202 		add	r2, r0, r2, lsl #2
 2631 0b5c 0020     		movs	r0, #0
 2632 0b5e 42F8280C 		str	r0, [r2, #-40]	@ float
 181:Core/Inc/utils/mat.h ****                                 matrix_[i][j] = num;
 2633              		.loc 5 181 0
 2634 0b62 0133     		adds	r3, r3, #1
 2635              	.LVL357:
 2636 0b64 DBB2     		uxtb	r3, r3
 2637              	.LVL358:
 2638 0b66 F1E7     		b	.L168
 2639              	.LVL359:
 2640              	.L260:
 2641              	.LBE1074:
 2642              	.LBE1075:
 2643              	.LBE1076:
 2644              	.LBE1077:
 2645              	.LBE1078:
 2646              	.LBE1079:
 2647              	.LBB1080:
 116:Core/Inc/utils/mat.h ****                         for (uint8_t j = 0; j < m.cols_; ++j) {
 2648              		.loc 5 116 0
 2649 0b68 0021     		movs	r1, #0
 2650              	.LVL360:
 2651 0b6a 2DE0     		b	.L166
 2652              	.LVL361:
 2653              	.L172:
 2654              	.LBB1081:
 2655              	.LBB1082:
 122:Core/Inc/utils/mat.h ****                         }
 2656              		.loc 5 122 0
 2657 0b6c 01EB4103 		add	r3, r1, r1, lsl #1
 2658              	.LVL362:
 2659 0b70 0344     		add	r3, r3, r0
 2660 0b72 50AA     		add	r2, sp, #320
 2661 0b74 02EB8303 		add	r3, r2, r3, lsl #2
 2662 0b78 03ED0A7A 		vstr.32	s14, [r3, #-40]
 2663              	.LBE1082:
 117:Core/Inc/utils/mat.h ****                                 sum = 0;
 2664              		.loc 5 117 0
 2665 0b7c 0130     		adds	r0, r0, #1
 2666              	.LVL363:
 2667 0b7e C0B2     		uxtb	r0, r0
 2668              	.LVL364:
 2669              	.L174:
 2670 0b80 9DF81531 		ldrb	r3, [sp, #277]	@ zero_extendqisi2
 2671 0b84 8342     		cmp	r3, r0
 2672 0b86 1DD9     		bls	.L171
 2673              	.LBB1085:
 2674              	.LBB1083:
 119:Core/Inc/utils/mat.h ****                                         sum += matrix_[i][k] * m.matrix_[k][j];
 2675              		.loc 5 119 0
 2676 0b88 0023     		movs	r3, #0
 2677              	.LBE1083:
 118:Core/Inc/utils/mat.h ****                                 for (uint8_t k = 0; k < cols_; ++k) {
 2678              		.loc 5 118 0
 2679 0b8a 9FED8E7A 		vldr.32	s14, .L298+12
 2680              	.L173:
ARM GAS  C:\Users\Prashant\AppData\Local\Temp\ccIdreTb.s 			page 61


 2681              	.LVL365:
 2682              	.LBB1084:
 119:Core/Inc/utils/mat.h ****                                         sum += matrix_[i][k] * m.matrix_[k][j];
 2683              		.loc 5 119 0
 2684 0b8e 9DF84D20 		ldrb	r2, [sp, #77]	@ zero_extendqisi2
 2685 0b92 9A42     		cmp	r2, r3
 2686 0b94 EAD9     		bls	.L172
 120:Core/Inc/utils/mat.h ****                                 }
 2687              		.loc 5 120 0
 2688 0b96 01EB4102 		add	r2, r1, r1, lsl #1
 2689 0b9a 1A44     		add	r2, r2, r3
 2690 0b9c 0AAE     		add	r6, sp, #40
 2691              	.LVL366:
 2692 0b9e 06EB8202 		add	r2, r6, r2, lsl #2
 2693 0ba2 D2ED007A 		vldr.32	s15, [r2]
 2694 0ba6 03EB4302 		add	r2, r3, r3, lsl #1
 2695 0baa 0244     		add	r2, r2, r0
 2696 0bac 50AE     		add	r6, sp, #320
 2697              	.LVL367:
 2698 0bae 06EB8202 		add	r2, r6, r2, lsl #2
 2699 0bb2 52ED146A 		vldr.32	s13, [r2, #-80]
 2700 0bb6 67EEA67A 		vmul.f32	s15, s15, s13
 2701 0bba 37EE277A 		vadd.f32	s14, s14, s15
 2702              	.LVL368:
 119:Core/Inc/utils/mat.h ****                                         sum += matrix_[i][k] * m.matrix_[k][j];
 2703              		.loc 5 119 0
 2704 0bbe 0133     		adds	r3, r3, #1
 2705              	.LVL369:
 2706 0bc0 DBB2     		uxtb	r3, r3
 2707              	.LVL370:
 2708 0bc2 E4E7     		b	.L173
 2709              	.LVL371:
 2710              	.L171:
 2711              	.LBE1084:
 2712              	.LBE1085:
 2713              	.LBE1081:
 116:Core/Inc/utils/mat.h ****                         for (uint8_t j = 0; j < m.cols_; ++j) {
 2714              		.loc 5 116 0
 2715 0bc4 0131     		adds	r1, r1, #1
 2716              	.LVL372:
 2717 0bc6 C9B2     		uxtb	r1, r1
 2718              	.LVL373:
 2719              	.L166:
 2720 0bc8 9DF84C30 		ldrb	r3, [sp, #76]	@ zero_extendqisi2
 2721 0bcc 8B42     		cmp	r3, r1
 2722 0bce 01D9     		bls	.L170
 2723              	.LBB1086:
 117:Core/Inc/utils/mat.h ****                                 sum = 0;
 2724              		.loc 5 117 0
 2725 0bd0 0020     		movs	r0, #0
 2726 0bd2 D5E7     		b	.L174
 2727              	.L170:
 2728              	.LVL374:
 2729              	.LBE1086:
 2730              	.LBE1080:
 2731              	.LBE1087:
 2732              	.LBE1089:
ARM GAS  C:\Users\Prashant\AppData\Local\Temp\ccIdreTb.s 			page 62


  68:Core/Inc/utils/kalman.h ****                         x_ += K_.mult(z_ - kv_->H_.mult(x_));
 2733              		.loc 2 68 0
 2734 0bd4 0DF58C7C 		add	ip, sp, #280
 2735              	.LVL375:
 2736 0bd8 04F18406 		add	r6, r4, #132
 2737 0bdc 0DF59C7E 		add	lr, sp, #312
 2738              	.LVL376:
 2739              	.L175:
 2740 0be0 6746     		mov	r7, ip
 2741 0be2 0FCF     		ldmia	r7!, {r0, r1, r2, r3}
 2742 0be4 3060     		str	r0, [r6]	@ unaligned
 2743 0be6 7160     		str	r1, [r6, #4]	@ unaligned
 2744 0be8 B260     		str	r2, [r6, #8]	@ unaligned
 2745 0bea F360     		str	r3, [r6, #12]	@ unaligned
 2746 0bec BC46     		mov	ip, r7
 2747 0bee 1036     		adds	r6, r6, #16
 2748 0bf0 7745     		cmp	r7, lr
 2749 0bf2 F5D1     		bne	.L175
 2750 0bf4 3868     		ldr	r0, [r7]
 2751 0bf6 3060     		str	r0, [r6]	@ unaligned
 2752 0bf8 BB88     		ldrh	r3, [r7, #4]	@ unaligned
 2753 0bfa B380     		strh	r3, [r6, #4]	@ unaligned
  69:Core/Inc/utils/kalman.h ****                         kv_->P_ = (kv_->I_ - K_.mult(kv_->H_)).mult(kv_->P_);
 2754              		.loc 2 69 0
 2755 0bfc 04F18406 		add	r6, r4, #132
 2756              	.LVL377:
 2757              	.LBB1090:
 2758              	.LBB1091:
 2759              	.LBB1092:
  54:Core/Inc/utils/mat.h ****                 cols_ = m.cols_;
 2760              		.loc 5 54 0
 2761 0c00 94F88030 		ldrb	r3, [r4, #128]	@ zero_extendqisi2
 2762 0c04 8DF8EC30 		strb	r3, [sp, #236]
  55:Core/Inc/utils/mat.h ****                 
 2763              		.loc 5 55 0
 2764 0c08 94F88130 		ldrb	r3, [r4, #129]	@ zero_extendqisi2
 2765 0c0c 8DF8ED30 		strb	r3, [sp, #237]
 2766              	.LVL378:
 2767              	.LBB1093:
  57:Core/Inc/utils/mat.h ****                         for (uint8_t j = 0; j < MAX_MATRIX_COLS; ++j) {
 2768              		.loc 5 57 0
 2769 0c10 0021     		movs	r1, #0
 2770 0c12 01E0     		b	.L179
 2771              	.LVL379:
 2772              	.L177:
 2773 0c14 0131     		adds	r1, r1, #1
 2774              	.LVL380:
 2775 0c16 C9B2     		uxtb	r1, r1
 2776              	.LVL381:
 2777              	.L179:
 2778 0c18 0229     		cmp	r1, #2
 2779 0c1a 0FD8     		bhi	.L176
 2780              	.LBB1094:
  58:Core/Inc/utils/mat.h ****                                 matrix_[i][j] = m.matrix_[i][j];
 2781              		.loc 5 58 0
 2782 0c1c 0022     		movs	r2, #0
 2783              	.L178:
ARM GAS  C:\Users\Prashant\AppData\Local\Temp\ccIdreTb.s 			page 63


 2784              	.LVL382:
 2785 0c1e 022A     		cmp	r2, #2
 2786 0c20 F8D8     		bhi	.L177
  59:Core/Inc/utils/mat.h ****                         }
 2787              		.loc 5 59 0
 2788 0c22 01EB4103 		add	r3, r1, r1, lsl #1
 2789 0c26 1344     		add	r3, r3, r2
 2790 0c28 9B00     		lsls	r3, r3, #2
 2791 0c2a E018     		adds	r0, r4, r3
 2792 0c2c C06D     		ldr	r0, [r0, #92]	@ float
 2793 0c2e 50AF     		add	r7, sp, #320
 2794 0c30 3B44     		add	r3, r3, r7
 2795 0c32 43F8780C 		str	r0, [r3, #-120]	@ float
  58:Core/Inc/utils/mat.h ****                                 matrix_[i][j] = m.matrix_[i][j];
 2796              		.loc 5 58 0
 2797 0c36 0132     		adds	r2, r2, #1
 2798              	.LVL383:
 2799 0c38 D2B2     		uxtb	r2, r2
 2800              	.LVL384:
 2801 0c3a F0E7     		b	.L178
 2802              	.LVL385:
 2803              	.L176:
 2804              	.LBE1094:
 2805              	.LBE1093:
 2806              	.LBE1092:
 2807              	.LBE1091:
 2808              	.LBE1090:
  69:Core/Inc/utils/kalman.h ****                         kv_->P_ = (kv_->I_ - K_.mult(kv_->H_)).mult(kv_->P_);
 2809              		.loc 2 69 0
 2810 0c3c A768     		ldr	r7, [r4, #8]
 2811 0c3e 5037     		adds	r7, r7, #80
 2812              	.LVL386:
 2813              	.LBB1095:
 2814              	.LBB1096:
 110:Core/Inc/utils/mat.h ****                         _Error_Handler(__FILE__, __LINE__);
 2815              		.loc 5 110 0
 2816 0c40 97F82520 		ldrb	r2, [r7, #37]	@ zero_extendqisi2
 2817 0c44 95F82430 		ldrb	r3, [r5, #36]	@ zero_extendqisi2
 2818 0c48 9A42     		cmp	r2, r3
 2819 0c4a 13D1     		bne	.L285
 2820              	.L180:
 114:Core/Inc/utils/mat.h ****                 float sum;
 2821              		.loc 5 114 0
 2822 0c4c 97F82490 		ldrb	r9, [r7, #36]	@ zero_extendqisi2
 2823 0c50 95F82580 		ldrb	r8, [r5, #37]	@ zero_extendqisi2
 2824              	.LVL387:
 2825              	.LBB1097:
 2826              	.LBB1098:
 2827              	.LBB1099:
  24:Core/Inc/utils/mat.h ****                         _Error_Handler(__FILE__, __LINE__);
 2828              		.loc 5 24 0
 2829 0c54 B9F1020F 		cmp	r9, #2
 2830 0c58 02D8     		bhi	.L181
 2831 0c5a B8F1020F 		cmp	r8, #2
 2832 0c5e 03D9     		bls	.L182
 2833              	.L181:
  25:Core/Inc/utils/mat.h ****                 }
ARM GAS  C:\Users\Prashant\AppData\Local\Temp\ccIdreTb.s 			page 64


 2834              		.loc 5 25 0
 2835 0c60 1921     		movs	r1, #25
 2836 0c62 5748     		ldr	r0, .L298+8
 2837 0c64 FFF7FEFF 		bl	_Error_Handler
 2838              	.LVL388:
 2839              	.L182:
  27:Core/Inc/utils/mat.h ****                 cols_ = columns;
 2840              		.loc 5 27 0
 2841 0c68 8DF8C490 		strb	r9, [sp, #196]
  28:Core/Inc/utils/mat.h **** 
 2842              		.loc 5 28 0
 2843 0c6c 8DF8C580 		strb	r8, [sp, #197]
 2844              	.LVL389:
 2845              	.LBB1100:
 2846              	.LBB1101:
 180:Core/Inc/utils/mat.h ****                         for (uint8_t j = 0; j < cols_; ++j) {
 2847              		.loc 5 180 0
 2848 0c70 0021     		movs	r1, #0
 2849 0c72 06E0     		b	.L186
 2850              	.LVL390:
 2851              	.L285:
 2852              	.LBE1101:
 2853              	.LBE1100:
 2854              	.LBE1099:
 2855              	.LBE1098:
 2856              	.LBE1097:
 111:Core/Inc/utils/mat.h ****                 }
 2857              		.loc 5 111 0
 2858 0c74 6F21     		movs	r1, #111
 2859 0c76 5248     		ldr	r0, .L298+8
 2860 0c78 FFF7FEFF 		bl	_Error_Handler
 2861              	.LVL391:
 2862 0c7c E6E7     		b	.L180
 2863              	.LVL392:
 2864              	.L184:
 2865              	.LBB1107:
 2866              	.LBB1106:
 2867              	.LBB1105:
 2868              	.LBB1104:
 2869              	.LBB1103:
 180:Core/Inc/utils/mat.h ****                         for (uint8_t j = 0; j < cols_; ++j) {
 2870              		.loc 5 180 0
 2871 0c7e 0131     		adds	r1, r1, #1
 2872              	.LVL393:
 2873 0c80 C9B2     		uxtb	r1, r1
 2874              	.LVL394:
 2875              	.L186:
 2876 0c82 8945     		cmp	r9, r1
 2877 0c84 0ED9     		bls	.L261
 2878              	.LBB1102:
 181:Core/Inc/utils/mat.h ****                                 matrix_[i][j] = num;
 2879              		.loc 5 181 0
 2880 0c86 0023     		movs	r3, #0
 2881              	.L185:
 2882              	.LVL395:
 2883 0c88 9845     		cmp	r8, r3
 2884 0c8a F8D9     		bls	.L184
ARM GAS  C:\Users\Prashant\AppData\Local\Temp\ccIdreTb.s 			page 65


 2885              		.loc 5 182 0
 2886 0c8c 01EB4102 		add	r2, r1, r1, lsl #1
 2887 0c90 1A44     		add	r2, r2, r3
 2888 0c92 50A8     		add	r0, sp, #320
 2889 0c94 00EB8202 		add	r2, r0, r2, lsl #2
 2890 0c98 0020     		movs	r0, #0
 2891 0c9a 42F8A00C 		str	r0, [r2, #-160]	@ float
 181:Core/Inc/utils/mat.h ****                                 matrix_[i][j] = num;
 2892              		.loc 5 181 0
 2893 0c9e 0133     		adds	r3, r3, #1
 2894              	.LVL396:
 2895 0ca0 DBB2     		uxtb	r3, r3
 2896              	.LVL397:
 2897 0ca2 F1E7     		b	.L185
 2898              	.LVL398:
 2899              	.L261:
 2900              	.LBE1102:
 2901              	.LBE1103:
 2902              	.LBE1104:
 2903              	.LBE1105:
 2904              	.LBE1106:
 2905              	.LBE1107:
 2906              	.LBB1108:
 116:Core/Inc/utils/mat.h ****                         for (uint8_t j = 0; j < m.cols_; ++j) {
 2907              		.loc 5 116 0
 2908 0ca4 0021     		movs	r1, #0
 2909              	.LVL399:
 2910 0ca6 2BE0     		b	.L183
 2911              	.LVL400:
 2912              	.L189:
 2913              	.LBB1109:
 2914              	.LBB1110:
 122:Core/Inc/utils/mat.h ****                         }
 2915              		.loc 5 122 0
 2916 0ca8 01EB4103 		add	r3, r1, r1, lsl #1
 2917              	.LVL401:
 2918 0cac 0344     		add	r3, r3, r0
 2919 0cae 50AA     		add	r2, sp, #320
 2920 0cb0 02EB8303 		add	r3, r2, r3, lsl #2
 2921 0cb4 03ED287A 		vstr.32	s14, [r3, #-160]
 2922              	.LBE1110:
 117:Core/Inc/utils/mat.h ****                                 sum = 0;
 2923              		.loc 5 117 0
 2924 0cb8 0130     		adds	r0, r0, #1
 2925              	.LVL402:
 2926 0cba C0B2     		uxtb	r0, r0
 2927              	.LVL403:
 2928              	.L191:
 2929 0cbc 95F82530 		ldrb	r3, [r5, #37]	@ zero_extendqisi2
 2930 0cc0 8342     		cmp	r3, r0
 2931 0cc2 1BD9     		bls	.L188
 2932              	.LBB1113:
 2933              	.LBB1111:
 119:Core/Inc/utils/mat.h ****                                         sum += matrix_[i][k] * m.matrix_[k][j];
 2934              		.loc 5 119 0
 2935 0cc4 0023     		movs	r3, #0
 2936              	.LBE1111:
ARM GAS  C:\Users\Prashant\AppData\Local\Temp\ccIdreTb.s 			page 66


 118:Core/Inc/utils/mat.h ****                                 for (uint8_t k = 0; k < cols_; ++k) {
 2937              		.loc 5 118 0
 2938 0cc6 9FED3F7A 		vldr.32	s14, .L298+12
 2939              	.L190:
 2940              	.LVL404:
 2941              	.LBB1112:
 119:Core/Inc/utils/mat.h ****                                         sum += matrix_[i][k] * m.matrix_[k][j];
 2942              		.loc 5 119 0
 2943 0cca 97F82520 		ldrb	r2, [r7, #37]	@ zero_extendqisi2
 2944 0cce 9A42     		cmp	r2, r3
 2945 0cd0 EAD9     		bls	.L189
 120:Core/Inc/utils/mat.h ****                                 }
 2946              		.loc 5 120 0
 2947 0cd2 01EB4102 		add	r2, r1, r1, lsl #1
 2948 0cd6 1A44     		add	r2, r2, r3
 2949 0cd8 07EB8202 		add	r2, r7, r2, lsl #2
 2950 0cdc D2ED007A 		vldr.32	s15, [r2]
 2951 0ce0 03EB4302 		add	r2, r3, r3, lsl #1
 2952 0ce4 0244     		add	r2, r2, r0
 2953 0ce6 05EB8202 		add	r2, r5, r2, lsl #2
 2954 0cea D2ED006A 		vldr.32	s13, [r2]
 2955 0cee 67EEA67A 		vmul.f32	s15, s15, s13
 2956 0cf2 37EE277A 		vadd.f32	s14, s14, s15
 2957              	.LVL405:
 119:Core/Inc/utils/mat.h ****                                         sum += matrix_[i][k] * m.matrix_[k][j];
 2958              		.loc 5 119 0
 2959 0cf6 0133     		adds	r3, r3, #1
 2960              	.LVL406:
 2961 0cf8 DBB2     		uxtb	r3, r3
 2962              	.LVL407:
 2963 0cfa E6E7     		b	.L190
 2964              	.LVL408:
 2965              	.L188:
 2966              	.LBE1112:
 2967              	.LBE1113:
 2968              	.LBE1109:
 116:Core/Inc/utils/mat.h ****                         for (uint8_t j = 0; j < m.cols_; ++j) {
 2969              		.loc 5 116 0
 2970 0cfc 0131     		adds	r1, r1, #1
 2971              	.LVL409:
 2972 0cfe C9B2     		uxtb	r1, r1
 2973              	.LVL410:
 2974              	.L183:
 2975 0d00 97F82430 		ldrb	r3, [r7, #36]	@ zero_extendqisi2
 2976 0d04 8B42     		cmp	r3, r1
 2977 0d06 01D9     		bls	.L187
 2978              	.LBB1115:
 117:Core/Inc/utils/mat.h ****                                 sum = 0;
 2979              		.loc 5 117 0
 2980 0d08 0020     		movs	r0, #0
 2981 0d0a D7E7     		b	.L191
 2982              	.L187:
 2983              	.LVL411:
 2984              	.LBE1115:
 2985              	.LBE1108:
 2986              	.LBE1096:
 2987              	.LBE1095:
ARM GAS  C:\Users\Prashant\AppData\Local\Temp\ccIdreTb.s 			page 67


 2988              	.LBB1119:
 2989              	.LBB1120:
 2990              	.LBB1121:
 2991              	.LBB1122:
  86:Core/Inc/utils/mat.h ****                         _Error_Handler(__FILE__, __LINE__);
 2992              		.loc 5 86 0
 2993 0d0c BDF8C420 		ldrh	r2, [sp, #196]
 2994 0d10 BDF8EC30 		ldrh	r3, [sp, #236]
 2995 0d14 9A42     		cmp	r2, r3
 2996 0d16 01D1     		bne	.L286
 2997              	.L192:
 2998              	.LBE1122:
 2999              	.LBE1121:
 3000              	.LBE1120:
 3001              	.LBE1119:
 3002              	.LBB1128:
 3003              	.LBB1118:
 3004              	.LBB1117:
 3005              	.LBB1116:
 3006              	.LBB1114:
 118:Core/Inc/utils/mat.h ****                                 for (uint8_t k = 0; k < cols_; ++k) {
 3007              		.loc 5 118 0
 3008 0d18 0021     		movs	r1, #0
 3009 0d1a 06E0     		b	.L196
 3010              	.L286:
 3011              	.LBE1114:
 3012              	.LBE1116:
 3013              	.LBE1117:
 3014              	.LBE1118:
 3015              	.LBE1128:
 3016              	.LBB1129:
 3017              	.LBB1127:
 3018              	.LBB1126:
 3019              	.LBB1125:
  87:Core/Inc/utils/mat.h ****                 }
 3020              		.loc 5 87 0
 3021 0d1c 5721     		movs	r1, #87
 3022 0d1e 2848     		ldr	r0, .L298+8
 3023 0d20 FFF7FEFF 		bl	_Error_Handler
 3024              	.LVL412:
 3025 0d24 F8E7     		b	.L192
 3026              	.LVL413:
 3027              	.L194:
 3028              	.LBB1123:
  90:Core/Inc/utils/mat.h ****                         for (uint8_t j = 0; j < cols_; ++j) {
 3029              		.loc 5 90 0
 3030 0d26 0131     		adds	r1, r1, #1
 3031              	.LVL414:
 3032 0d28 C9B2     		uxtb	r1, r1
 3033              	.LVL415:
 3034              	.L196:
 3035 0d2a 9DF8EC30 		ldrb	r3, [sp, #236]	@ zero_extendqisi2
 3036 0d2e 8B42     		cmp	r3, r1
 3037 0d30 15D9     		bls	.L193
 3038              	.LBB1124:
  91:Core/Inc/utils/mat.h ****                                 matrix_[i][j] -= rhs.matrix_[i][j];
 3039              		.loc 5 91 0
ARM GAS  C:\Users\Prashant\AppData\Local\Temp\ccIdreTb.s 			page 68


 3040 0d32 0022     		movs	r2, #0
 3041              	.L195:
 3042              	.LVL416:
 3043 0d34 9DF8ED30 		ldrb	r3, [sp, #237]	@ zero_extendqisi2
 3044 0d38 9342     		cmp	r3, r2
 3045 0d3a F4D9     		bls	.L194
  92:Core/Inc/utils/mat.h ****                         }
 3046              		.loc 5 92 0
 3047 0d3c 01EB4103 		add	r3, r1, r1, lsl #1
 3048 0d40 1344     		add	r3, r3, r2
 3049 0d42 50A8     		add	r0, sp, #320
 3050 0d44 00EB8303 		add	r3, r0, r3, lsl #2
 3051 0d48 13ED287A 		vldr.32	s14, [r3, #-160]
 3052 0d4c 53ED1E7A 		vldr.32	s15, [r3, #-120]
 3053 0d50 77EEC77A 		vsub.f32	s15, s15, s14
 3054 0d54 43ED1E7A 		vstr.32	s15, [r3, #-120]
  91:Core/Inc/utils/mat.h ****                                 matrix_[i][j] -= rhs.matrix_[i][j];
 3055              		.loc 5 91 0
 3056 0d58 0132     		adds	r2, r2, #1
 3057              	.LVL417:
 3058 0d5a D2B2     		uxtb	r2, r2
 3059              	.LVL418:
 3060 0d5c EAE7     		b	.L195
 3061              	.LVL419:
 3062              	.L193:
 3063              	.LBE1124:
 3064              	.LBE1123:
 3065              	.LBE1125:
 3066              	.LBE1126:
 106:Core/Inc/utils/mat.h ****         }
 3067              		.loc 5 106 0
 3068 0d5e 3CAF     		add	r7, sp, #240
 3069              	.LVL420:
 3070 0d60 0DF1C80C 		add	ip, sp, #200
 3071              	.LVL421:
 3072 0d64 BCE80F00 		ldmia	ip!, {r0, r1, r2, r3}
 3073              	.LVL422:
 3074 0d68 0FC7     		stmia	r7!, {r0, r1, r2, r3}
 3075              	.LVL423:
 3076 0d6a BCE80F00 		ldmia	ip!, {r0, r1, r2, r3}
 3077              	.LVL424:
 3078 0d6e 0FC7     		stmia	r7!, {r0, r1, r2, r3}
 3079              	.LVL425:
 3080 0d70 9CE80300 		ldm	ip, {r0, r1}
 3081 0d74 87E80300 		stm	r7, {r0, r1}
 3082              	.LVL426:
 3083              	.LBE1127:
 3084              	.LBE1129:
 3085              	.LBB1130:
 3086              	.LBB1131:
 110:Core/Inc/utils/mat.h ****                         _Error_Handler(__FILE__, __LINE__);
 3087              		.loc 5 110 0
 3088 0d78 96F82520 		ldrb	r2, [r6, #37]	@ zero_extendqisi2
 3089 0d7c 9DF81431 		ldrb	r3, [sp, #276]	@ zero_extendqisi2
 3090 0d80 9A42     		cmp	r2, r3
 3091 0d82 12D1     		bne	.L287
 3092              	.LVL427:
ARM GAS  C:\Users\Prashant\AppData\Local\Temp\ccIdreTb.s 			page 69


 3093              	.L197:
 114:Core/Inc/utils/mat.h ****                 float sum;
 3094              		.loc 5 114 0
 3095 0d84 96F82480 		ldrb	r8, [r6, #36]	@ zero_extendqisi2
 3096              	.LVL428:
 3097 0d88 9DF81571 		ldrb	r7, [sp, #277]	@ zero_extendqisi2
 3098              	.LVL429:
 3099              	.LBB1132:
 3100              	.LBB1133:
 3101              	.LBB1134:
  24:Core/Inc/utils/mat.h ****                         _Error_Handler(__FILE__, __LINE__);
 3102              		.loc 5 24 0
 3103 0d8c B8F1020F 		cmp	r8, #2
 3104 0d90 01D8     		bhi	.L198
 3105 0d92 022F     		cmp	r7, #2
 3106 0d94 03D9     		bls	.L199
 3107              	.L198:
  25:Core/Inc/utils/mat.h ****                 }
 3108              		.loc 5 25 0
 3109 0d96 1921     		movs	r1, #25
 3110 0d98 0948     		ldr	r0, .L298+8
 3111 0d9a FFF7FEFF 		bl	_Error_Handler
 3112              	.LVL430:
 3113              	.L199:
  27:Core/Inc/utils/mat.h ****                 cols_ = columns;
 3114              		.loc 5 27 0
 3115 0d9e 8DF83C81 		strb	r8, [sp, #316]
  28:Core/Inc/utils/mat.h **** 
 3116              		.loc 5 28 0
 3117 0da2 8DF83D71 		strb	r7, [sp, #317]
 3118              	.LVL431:
 3119              	.LBB1135:
 3120              	.LBB1136:
 180:Core/Inc/utils/mat.h ****                         for (uint8_t j = 0; j < cols_; ++j) {
 3121              		.loc 5 180 0
 3122 0da6 0021     		movs	r1, #0
 3123 0da8 10E0     		b	.L203
 3124              	.LVL432:
 3125              	.L287:
 3126              	.LBE1136:
 3127              	.LBE1135:
 3128              	.LBE1134:
 3129              	.LBE1133:
 3130              	.LBE1132:
 111:Core/Inc/utils/mat.h ****                 }
 3131              		.loc 5 111 0
 3132 0daa 6F21     		movs	r1, #111
 3133 0dac 0448     		ldr	r0, .L298+8
 3134 0dae FFF7FEFF 		bl	_Error_Handler
 3135              	.LVL433:
 3136 0db2 E7E7     		b	.L197
 3137              	.L299:
 3138 0db4 AFF30080 		.align	3
 3139              	.L298:
 3140 0db8 8DEDB5A0 		.word	-1598689907
 3141 0dbc F7C6B03E 		.word	1051772663
 3142 0dc0 00000000 		.word	.LC0
ARM GAS  C:\Users\Prashant\AppData\Local\Temp\ccIdreTb.s 			page 70


 3143 0dc4 00000000 		.word	0
 3144              	.LVL434:
 3145              	.L201:
 3146              	.LBB1142:
 3147              	.LBB1141:
 3148              	.LBB1140:
 3149              	.LBB1139:
 3150              	.LBB1138:
 180:Core/Inc/utils/mat.h ****                         for (uint8_t j = 0; j < cols_; ++j) {
 3151              		.loc 5 180 0
 3152 0dc8 0131     		adds	r1, r1, #1
 3153              	.LVL435:
 3154 0dca C9B2     		uxtb	r1, r1
 3155              	.LVL436:
 3156              	.L203:
 3157 0dcc 8845     		cmp	r8, r1
 3158 0dce 0ED9     		bls	.L262
 3159              	.LBB1137:
 181:Core/Inc/utils/mat.h ****                                 matrix_[i][j] = num;
 3160              		.loc 5 181 0
 3161 0dd0 0023     		movs	r3, #0
 3162              	.L202:
 3163              	.LVL437:
 3164 0dd2 9F42     		cmp	r7, r3
 3165 0dd4 F8D9     		bls	.L201
 3166              		.loc 5 182 0
 3167 0dd6 01EB4102 		add	r2, r1, r1, lsl #1
 3168 0dda 1A44     		add	r2, r2, r3
 3169 0ddc 50A8     		add	r0, sp, #320
 3170 0dde 00EB8202 		add	r2, r0, r2, lsl #2
 3171 0de2 0020     		movs	r0, #0
 3172 0de4 42F8280C 		str	r0, [r2, #-40]	@ float
 181:Core/Inc/utils/mat.h ****                                 matrix_[i][j] = num;
 3173              		.loc 5 181 0
 3174 0de8 0133     		adds	r3, r3, #1
 3175              	.LVL438:
 3176 0dea DBB2     		uxtb	r3, r3
 3177              	.LVL439:
 3178 0dec F1E7     		b	.L202
 3179              	.LVL440:
 3180              	.L262:
 3181              	.LBE1137:
 3182              	.LBE1138:
 3183              	.LBE1139:
 3184              	.LBE1140:
 3185              	.LBE1141:
 3186              	.LBE1142:
 3187              	.LBB1143:
 116:Core/Inc/utils/mat.h ****                         for (uint8_t j = 0; j < m.cols_; ++j) {
 3188              		.loc 5 116 0
 3189 0dee 0021     		movs	r1, #0
 3190              	.LVL441:
 3191 0df0 2CE0     		b	.L200
 3192              	.LVL442:
 3193              	.L206:
 3194              	.LBB1144:
 3195              	.LBB1145:
ARM GAS  C:\Users\Prashant\AppData\Local\Temp\ccIdreTb.s 			page 71


 122:Core/Inc/utils/mat.h ****                         }
 3196              		.loc 5 122 0
 3197 0df2 01EB4103 		add	r3, r1, r1, lsl #1
 3198              	.LVL443:
 3199 0df6 0344     		add	r3, r3, r0
 3200 0df8 50AA     		add	r2, sp, #320
 3201 0dfa 02EB8303 		add	r3, r2, r3, lsl #2
 3202 0dfe 03ED0A7A 		vstr.32	s14, [r3, #-40]
 3203              	.LBE1145:
 117:Core/Inc/utils/mat.h ****                                 sum = 0;
 3204              		.loc 5 117 0
 3205 0e02 0130     		adds	r0, r0, #1
 3206              	.LVL444:
 3207 0e04 C0B2     		uxtb	r0, r0
 3208              	.LVL445:
 3209              	.L208:
 3210 0e06 9DF81531 		ldrb	r3, [sp, #277]	@ zero_extendqisi2
 3211 0e0a 8342     		cmp	r3, r0
 3212 0e0c 1CD9     		bls	.L205
 3213              	.LBB1148:
 3214              	.LBB1146:
 119:Core/Inc/utils/mat.h ****                                         sum += matrix_[i][k] * m.matrix_[k][j];
 3215              		.loc 5 119 0
 3216 0e0e 0023     		movs	r3, #0
 3217              	.LBE1146:
 118:Core/Inc/utils/mat.h ****                                 for (uint8_t k = 0; k < cols_; ++k) {
 3218              		.loc 5 118 0
 3219 0e10 1FED147A 		vldr.32	s14, .L298+12
 3220              	.L207:
 3221              	.LVL446:
 3222              	.LBB1147:
 119:Core/Inc/utils/mat.h ****                                         sum += matrix_[i][k] * m.matrix_[k][j];
 3223              		.loc 5 119 0
 3224 0e14 96F82520 		ldrb	r2, [r6, #37]	@ zero_extendqisi2
 3225 0e18 9A42     		cmp	r2, r3
 3226 0e1a EAD9     		bls	.L206
 120:Core/Inc/utils/mat.h ****                                 }
 3227              		.loc 5 120 0
 3228 0e1c 01EB4102 		add	r2, r1, r1, lsl #1
 3229 0e20 1A44     		add	r2, r2, r3
 3230 0e22 06EB8202 		add	r2, r6, r2, lsl #2
 3231 0e26 D2ED007A 		vldr.32	s15, [r2]
 3232 0e2a 03EB4302 		add	r2, r3, r3, lsl #1
 3233 0e2e 0244     		add	r2, r2, r0
 3234 0e30 50AF     		add	r7, sp, #320
 3235 0e32 07EB8202 		add	r2, r7, r2, lsl #2
 3236 0e36 52ED146A 		vldr.32	s13, [r2, #-80]
 3237 0e3a 67EEA67A 		vmul.f32	s15, s15, s13
 3238 0e3e 37EE277A 		vadd.f32	s14, s14, s15
 3239              	.LVL447:
 119:Core/Inc/utils/mat.h ****                                         sum += matrix_[i][k] * m.matrix_[k][j];
 3240              		.loc 5 119 0
 3241 0e42 0133     		adds	r3, r3, #1
 3242              	.LVL448:
 3243 0e44 DBB2     		uxtb	r3, r3
 3244              	.LVL449:
 3245 0e46 E5E7     		b	.L207
ARM GAS  C:\Users\Prashant\AppData\Local\Temp\ccIdreTb.s 			page 72


 3246              	.LVL450:
 3247              	.L205:
 3248              	.LBE1147:
 3249              	.LBE1148:
 3250              	.LBE1144:
 116:Core/Inc/utils/mat.h ****                         for (uint8_t j = 0; j < m.cols_; ++j) {
 3251              		.loc 5 116 0
 3252 0e48 0131     		adds	r1, r1, #1
 3253              	.LVL451:
 3254 0e4a C9B2     		uxtb	r1, r1
 3255              	.LVL452:
 3256              	.L200:
 3257 0e4c 96F82430 		ldrb	r3, [r6, #36]	@ zero_extendqisi2
 3258 0e50 8B42     		cmp	r3, r1
 3259 0e52 01D9     		bls	.L204
 3260              	.LBB1150:
 117:Core/Inc/utils/mat.h ****                                 sum = 0;
 3261              		.loc 5 117 0
 3262 0e54 0020     		movs	r0, #0
 3263 0e56 D6E7     		b	.L208
 3264              	.L204:
 3265              	.LVL453:
 3266              	.LBE1150:
 3267              	.LBE1143:
 3268              	.LBE1131:
 3269              	.LBE1130:
 3270              	.LBB1154:
 3271              	.LBB1155:
  72:Core/Inc/utils/mat.h ****                         _Error_Handler(__FILE__, __LINE__);
 3272              		.loc 5 72 0
 3273 0e58 BDF83C21 		ldrh	r2, [sp, #316]
 3274 0e5c AB8C     		ldrh	r3, [r5, #36]
 3275 0e5e 9A42     		cmp	r2, r3
 3276 0e60 01D1     		bne	.L288
 3277              	.L209:
 3278              	.LBE1155:
 3279              	.LBE1154:
 3280              	.LBB1159:
 3281              	.LBB1153:
 3282              	.LBB1152:
 3283              	.LBB1151:
 3284              	.LBB1149:
 118:Core/Inc/utils/mat.h ****                                 for (uint8_t k = 0; k < cols_; ++k) {
 3285              		.loc 5 118 0
 3286 0e62 0021     		movs	r1, #0
 3287 0e64 06E0     		b	.L213
 3288              	.L288:
 3289              	.LBE1149:
 3290              	.LBE1151:
 3291              	.LBE1152:
 3292              	.LBE1153:
 3293              	.LBE1159:
 3294              	.LBB1160:
 3295              	.LBB1158:
  73:Core/Inc/utils/mat.h ****                 }
 3296              		.loc 5 73 0
 3297 0e66 4921     		movs	r1, #73
ARM GAS  C:\Users\Prashant\AppData\Local\Temp\ccIdreTb.s 			page 73


 3298 0e68 AA48     		ldr	r0, .L300
 3299 0e6a FFF7FEFF 		bl	_Error_Handler
 3300              	.LVL454:
 3301 0e6e F8E7     		b	.L209
 3302              	.LVL455:
 3303              	.L211:
 3304              	.LBB1156:
  76:Core/Inc/utils/mat.h ****                         for (uint8_t j = 0; j < cols_; ++j) {
 3305              		.loc 5 76 0
 3306 0e70 0131     		adds	r1, r1, #1
 3307              	.LVL456:
 3308 0e72 C9B2     		uxtb	r1, r1
 3309              	.LVL457:
 3310              	.L213:
 3311 0e74 95F82430 		ldrb	r3, [r5, #36]	@ zero_extendqisi2
 3312 0e78 8B42     		cmp	r3, r1
 3313 0e7a 16D9     		bls	.L210
 3314              	.LBB1157:
  77:Core/Inc/utils/mat.h ****                                 matrix_[i][j] += rhs.matrix_[i][j];
 3315              		.loc 5 77 0
 3316 0e7c 0022     		movs	r2, #0
 3317              	.L212:
 3318              	.LVL458:
 3319 0e7e 95F82530 		ldrb	r3, [r5, #37]	@ zero_extendqisi2
 3320 0e82 9342     		cmp	r3, r2
 3321 0e84 F4D9     		bls	.L211
  78:Core/Inc/utils/mat.h ****                         }
 3322              		.loc 5 78 0
 3323 0e86 01EB4103 		add	r3, r1, r1, lsl #1
 3324 0e8a 1344     		add	r3, r3, r2
 3325 0e8c 9B00     		lsls	r3, r3, #2
 3326 0e8e 50A8     		add	r0, sp, #320
 3327 0e90 1844     		add	r0, r0, r3
 3328 0e92 10ED0A7A 		vldr.32	s14, [r0, #-40]
 3329 0e96 2B44     		add	r3, r3, r5
 3330 0e98 D3ED007A 		vldr.32	s15, [r3]
 3331 0e9c 77EE877A 		vadd.f32	s15, s15, s14
 3332 0ea0 C3ED007A 		vstr.32	s15, [r3]
  77:Core/Inc/utils/mat.h ****                                 matrix_[i][j] += rhs.matrix_[i][j];
 3333              		.loc 5 77 0
 3334 0ea4 0132     		adds	r2, r2, #1
 3335              	.LVL459:
 3336 0ea6 D2B2     		uxtb	r2, r2
 3337              	.LVL460:
 3338 0ea8 E9E7     		b	.L212
 3339              	.LVL461:
 3340              	.L210:
 3341              	.LBE1157:
 3342              	.LBE1156:
 3343              	.LBE1158:
 3344              	.LBE1160:
  70:Core/Inc/utils/kalman.h ****                 }
 3345              		.loc 2 70 0
 3346 0eaa A568     		ldr	r5, [r4, #8]
 3347              	.LVL462:
 3348              	.LBB1161:
 3349              	.LBB1162:
ARM GAS  C:\Users\Prashant\AppData\Local\Temp\ccIdreTb.s 			page 74


 3350              	.LBB1163:
  54:Core/Inc/utils/mat.h ****                 cols_ = m.cols_;
 3351              		.loc 5 54 0
 3352 0eac 95F89C30 		ldrb	r3, [r5, #156]	@ zero_extendqisi2
 3353 0eb0 8DF8EC30 		strb	r3, [sp, #236]
  55:Core/Inc/utils/mat.h ****                 
 3354              		.loc 5 55 0
 3355 0eb4 95F89D30 		ldrb	r3, [r5, #157]	@ zero_extendqisi2
 3356 0eb8 8DF8ED30 		strb	r3, [sp, #237]
 3357              	.LVL463:
 3358              	.LBB1164:
  57:Core/Inc/utils/mat.h ****                         for (uint8_t j = 0; j < MAX_MATRIX_COLS; ++j) {
 3359              		.loc 5 57 0
 3360 0ebc 0021     		movs	r1, #0
 3361 0ebe 01E0     		b	.L217
 3362              	.LVL464:
 3363              	.L215:
 3364 0ec0 0131     		adds	r1, r1, #1
 3365              	.LVL465:
 3366 0ec2 C9B2     		uxtb	r1, r1
 3367              	.LVL466:
 3368              	.L217:
 3369 0ec4 0229     		cmp	r1, #2
 3370 0ec6 0FD8     		bhi	.L214
 3371              	.LBB1165:
  58:Core/Inc/utils/mat.h ****                                 matrix_[i][j] = m.matrix_[i][j];
 3372              		.loc 5 58 0
 3373 0ec8 0022     		movs	r2, #0
 3374              	.L216:
 3375              	.LVL467:
 3376 0eca 022A     		cmp	r2, #2
 3377 0ecc F8D8     		bhi	.L215
  59:Core/Inc/utils/mat.h ****                         }
 3378              		.loc 5 59 0
 3379 0ece 01EB4103 		add	r3, r1, r1, lsl #1
 3380 0ed2 1344     		add	r3, r3, r2
 3381 0ed4 9B00     		lsls	r3, r3, #2
 3382 0ed6 E818     		adds	r0, r5, r3
 3383 0ed8 806F     		ldr	r0, [r0, #120]	@ float
 3384 0eda 50AF     		add	r7, sp, #320
 3385 0edc 3B44     		add	r3, r3, r7
 3386 0ede 43F8780C 		str	r0, [r3, #-120]	@ float
  58:Core/Inc/utils/mat.h ****                                 matrix_[i][j] = m.matrix_[i][j];
 3387              		.loc 5 58 0
 3388 0ee2 0132     		adds	r2, r2, #1
 3389              	.LVL468:
 3390 0ee4 D2B2     		uxtb	r2, r2
 3391              	.LVL469:
 3392 0ee6 F0E7     		b	.L216
 3393              	.LVL470:
 3394              	.L214:
 3395              	.LBE1165:
 3396              	.LBE1164:
 3397              	.LBE1163:
 3398              	.LBE1162:
 3399              	.LBE1161:
  70:Core/Inc/utils/kalman.h ****                 }
ARM GAS  C:\Users\Prashant\AppData\Local\Temp\ccIdreTb.s 			page 75


 3400              		.loc 2 70 0
 3401 0ee8 A568     		ldr	r5, [r4, #8]
 3402 0eea 5035     		adds	r5, r5, #80
 3403              	.LVL471:
 3404              	.LBB1166:
 3405              	.LBB1167:
 110:Core/Inc/utils/mat.h ****                         _Error_Handler(__FILE__, __LINE__);
 3406              		.loc 5 110 0
 3407 0eec 96F82520 		ldrb	r2, [r6, #37]	@ zero_extendqisi2
 3408 0ef0 95F82430 		ldrb	r3, [r5, #36]	@ zero_extendqisi2
 3409 0ef4 9A42     		cmp	r2, r3
 3410 0ef6 12D1     		bne	.L289
 3411              	.L218:
 114:Core/Inc/utils/mat.h ****                 float sum;
 3412              		.loc 5 114 0
 3413 0ef8 96F82480 		ldrb	r8, [r6, #36]	@ zero_extendqisi2
 3414              	.LVL472:
 3415 0efc 95F82570 		ldrb	r7, [r5, #37]	@ zero_extendqisi2
 3416              	.LVL473:
 3417              	.LBB1168:
 3418              	.LBB1169:
 3419              	.LBB1170:
  24:Core/Inc/utils/mat.h ****                         _Error_Handler(__FILE__, __LINE__);
 3420              		.loc 5 24 0
 3421 0f00 B8F1020F 		cmp	r8, #2
 3422 0f04 01D8     		bhi	.L219
 3423 0f06 022F     		cmp	r7, #2
 3424 0f08 03D9     		bls	.L220
 3425              	.L219:
  25:Core/Inc/utils/mat.h ****                 }
 3426              		.loc 5 25 0
 3427 0f0a 1921     		movs	r1, #25
 3428 0f0c 8148     		ldr	r0, .L300
 3429 0f0e FFF7FEFF 		bl	_Error_Handler
 3430              	.LVL474:
 3431              	.L220:
  27:Core/Inc/utils/mat.h ****                 cols_ = columns;
 3432              		.loc 5 27 0
 3433 0f12 8DF8C480 		strb	r8, [sp, #196]
  28:Core/Inc/utils/mat.h **** 
 3434              		.loc 5 28 0
 3435 0f16 8DF8C570 		strb	r7, [sp, #197]
 3436              	.LVL475:
 3437              	.LBB1171:
 3438              	.LBB1172:
 180:Core/Inc/utils/mat.h ****                         for (uint8_t j = 0; j < cols_; ++j) {
 3439              		.loc 5 180 0
 3440 0f1a 0021     		movs	r1, #0
 3441 0f1c 06E0     		b	.L224
 3442              	.LVL476:
 3443              	.L289:
 3444              	.LBE1172:
 3445              	.LBE1171:
 3446              	.LBE1170:
 3447              	.LBE1169:
 3448              	.LBE1168:
 111:Core/Inc/utils/mat.h ****                 }
ARM GAS  C:\Users\Prashant\AppData\Local\Temp\ccIdreTb.s 			page 76


 3449              		.loc 5 111 0
 3450 0f1e 6F21     		movs	r1, #111
 3451 0f20 7C48     		ldr	r0, .L300
 3452 0f22 FFF7FEFF 		bl	_Error_Handler
 3453              	.LVL477:
 3454 0f26 E7E7     		b	.L218
 3455              	.LVL478:
 3456              	.L222:
 3457              	.LBB1178:
 3458              	.LBB1177:
 3459              	.LBB1176:
 3460              	.LBB1175:
 3461              	.LBB1174:
 180:Core/Inc/utils/mat.h ****                         for (uint8_t j = 0; j < cols_; ++j) {
 3462              		.loc 5 180 0
 3463 0f28 0131     		adds	r1, r1, #1
 3464              	.LVL479:
 3465 0f2a C9B2     		uxtb	r1, r1
 3466              	.LVL480:
 3467              	.L224:
 3468 0f2c 8845     		cmp	r8, r1
 3469 0f2e 0ED9     		bls	.L263
 3470              	.LBB1173:
 181:Core/Inc/utils/mat.h ****                                 matrix_[i][j] = num;
 3471              		.loc 5 181 0
 3472 0f30 0023     		movs	r3, #0
 3473              	.L223:
 3474              	.LVL481:
 3475 0f32 9F42     		cmp	r7, r3
 3476 0f34 F8D9     		bls	.L222
 3477              		.loc 5 182 0
 3478 0f36 01EB4102 		add	r2, r1, r1, lsl #1
 3479 0f3a 1A44     		add	r2, r2, r3
 3480 0f3c 50A8     		add	r0, sp, #320
 3481 0f3e 00EB8202 		add	r2, r0, r2, lsl #2
 3482 0f42 0020     		movs	r0, #0
 3483 0f44 42F8A00C 		str	r0, [r2, #-160]	@ float
 181:Core/Inc/utils/mat.h ****                                 matrix_[i][j] = num;
 3484              		.loc 5 181 0
 3485 0f48 0133     		adds	r3, r3, #1
 3486              	.LVL482:
 3487 0f4a DBB2     		uxtb	r3, r3
 3488              	.LVL483:
 3489 0f4c F1E7     		b	.L223
 3490              	.LVL484:
 3491              	.L263:
 3492              	.LBE1173:
 3493              	.LBE1174:
 3494              	.LBE1175:
 3495              	.LBE1176:
 3496              	.LBE1177:
 3497              	.LBE1178:
 3498              	.LBB1179:
 116:Core/Inc/utils/mat.h ****                         for (uint8_t j = 0; j < m.cols_; ++j) {
 3499              		.loc 5 116 0
 3500 0f4e 0021     		movs	r1, #0
 3501              	.LVL485:
ARM GAS  C:\Users\Prashant\AppData\Local\Temp\ccIdreTb.s 			page 77


 3502 0f50 2BE0     		b	.L221
 3503              	.LVL486:
 3504              	.L227:
 3505              	.LBB1180:
 3506              	.LBB1181:
 122:Core/Inc/utils/mat.h ****                         }
 3507              		.loc 5 122 0
 3508 0f52 01EB4103 		add	r3, r1, r1, lsl #1
 3509              	.LVL487:
 3510 0f56 0344     		add	r3, r3, r0
 3511 0f58 50AA     		add	r2, sp, #320
 3512 0f5a 02EB8303 		add	r3, r2, r3, lsl #2
 3513 0f5e 03ED287A 		vstr.32	s14, [r3, #-160]
 3514              	.LBE1181:
 117:Core/Inc/utils/mat.h ****                                 sum = 0;
 3515              		.loc 5 117 0
 3516 0f62 0130     		adds	r0, r0, #1
 3517              	.LVL488:
 3518 0f64 C0B2     		uxtb	r0, r0
 3519              	.LVL489:
 3520              	.L229:
 3521 0f66 95F82530 		ldrb	r3, [r5, #37]	@ zero_extendqisi2
 3522 0f6a 8342     		cmp	r3, r0
 3523 0f6c 1BD9     		bls	.L226
 3524              	.LBB1184:
 3525              	.LBB1182:
 119:Core/Inc/utils/mat.h ****                                         sum += matrix_[i][k] * m.matrix_[k][j];
 3526              		.loc 5 119 0
 3527 0f6e 0023     		movs	r3, #0
 3528              	.LBE1182:
 118:Core/Inc/utils/mat.h ****                                 for (uint8_t k = 0; k < cols_; ++k) {
 3529              		.loc 5 118 0
 3530 0f70 9FED697A 		vldr.32	s14, .L300+4
 3531              	.L228:
 3532              	.LVL490:
 3533              	.LBB1183:
 119:Core/Inc/utils/mat.h ****                                         sum += matrix_[i][k] * m.matrix_[k][j];
 3534              		.loc 5 119 0
 3535 0f74 96F82520 		ldrb	r2, [r6, #37]	@ zero_extendqisi2
 3536 0f78 9A42     		cmp	r2, r3
 3537 0f7a EAD9     		bls	.L227
 120:Core/Inc/utils/mat.h ****                                 }
 3538              		.loc 5 120 0
 3539 0f7c 01EB4102 		add	r2, r1, r1, lsl #1
 3540 0f80 1A44     		add	r2, r2, r3
 3541 0f82 06EB8202 		add	r2, r6, r2, lsl #2
 3542 0f86 D2ED007A 		vldr.32	s15, [r2]
 3543 0f8a 03EB4302 		add	r2, r3, r3, lsl #1
 3544 0f8e 0244     		add	r2, r2, r0
 3545 0f90 05EB8202 		add	r2, r5, r2, lsl #2
 3546 0f94 D2ED006A 		vldr.32	s13, [r2]
 3547 0f98 67EEA67A 		vmul.f32	s15, s15, s13
 3548 0f9c 37EE277A 		vadd.f32	s14, s14, s15
 3549              	.LVL491:
 119:Core/Inc/utils/mat.h ****                                         sum += matrix_[i][k] * m.matrix_[k][j];
 3550              		.loc 5 119 0
 3551 0fa0 0133     		adds	r3, r3, #1
ARM GAS  C:\Users\Prashant\AppData\Local\Temp\ccIdreTb.s 			page 78


 3552              	.LVL492:
 3553 0fa2 DBB2     		uxtb	r3, r3
 3554              	.LVL493:
 3555 0fa4 E6E7     		b	.L228
 3556              	.LVL494:
 3557              	.L226:
 3558              	.LBE1183:
 3559              	.LBE1184:
 3560              	.LBE1180:
 116:Core/Inc/utils/mat.h ****                         for (uint8_t j = 0; j < m.cols_; ++j) {
 3561              		.loc 5 116 0
 3562 0fa6 0131     		adds	r1, r1, #1
 3563              	.LVL495:
 3564 0fa8 C9B2     		uxtb	r1, r1
 3565              	.LVL496:
 3566              	.L221:
 3567 0faa 96F82430 		ldrb	r3, [r6, #36]	@ zero_extendqisi2
 3568 0fae 8B42     		cmp	r3, r1
 3569 0fb0 01D9     		bls	.L225
 3570              	.LBB1186:
 117:Core/Inc/utils/mat.h ****                                 sum = 0;
 3571              		.loc 5 117 0
 3572 0fb2 0020     		movs	r0, #0
 3573 0fb4 D7E7     		b	.L229
 3574              	.L225:
 3575              	.LVL497:
 3576              	.LBE1186:
 3577              	.LBE1179:
 3578              	.LBE1167:
 3579              	.LBE1166:
 3580              	.LBB1190:
 3581              	.LBB1191:
 3582              	.LBB1192:
 3583              	.LBB1193:
  86:Core/Inc/utils/mat.h ****                         _Error_Handler(__FILE__, __LINE__);
 3584              		.loc 5 86 0
 3585 0fb6 BDF8C420 		ldrh	r2, [sp, #196]
 3586 0fba BDF8EC30 		ldrh	r3, [sp, #236]
 3587 0fbe 9A42     		cmp	r2, r3
 3588 0fc0 01D1     		bne	.L290
 3589              	.L230:
 3590              	.LBE1193:
 3591              	.LBE1192:
 3592              	.LBE1191:
 3593              	.LBE1190:
 3594              	.LBB1199:
 3595              	.LBB1189:
 3596              	.LBB1188:
 3597              	.LBB1187:
 3598              	.LBB1185:
 118:Core/Inc/utils/mat.h ****                                 for (uint8_t k = 0; k < cols_; ++k) {
 3599              		.loc 5 118 0
 3600 0fc2 0021     		movs	r1, #0
 3601 0fc4 06E0     		b	.L234
 3602              	.L290:
 3603              	.LBE1185:
 3604              	.LBE1187:
ARM GAS  C:\Users\Prashant\AppData\Local\Temp\ccIdreTb.s 			page 79


 3605              	.LBE1188:
 3606              	.LBE1189:
 3607              	.LBE1199:
 3608              	.LBB1200:
 3609              	.LBB1198:
 3610              	.LBB1197:
 3611              	.LBB1196:
  87:Core/Inc/utils/mat.h ****                 }
 3612              		.loc 5 87 0
 3613 0fc6 5721     		movs	r1, #87
 3614 0fc8 5248     		ldr	r0, .L300
 3615 0fca FFF7FEFF 		bl	_Error_Handler
 3616              	.LVL498:
 3617 0fce F8E7     		b	.L230
 3618              	.LVL499:
 3619              	.L232:
 3620              	.LBB1194:
  90:Core/Inc/utils/mat.h ****                         for (uint8_t j = 0; j < cols_; ++j) {
 3621              		.loc 5 90 0
 3622 0fd0 0131     		adds	r1, r1, #1
 3623              	.LVL500:
 3624 0fd2 C9B2     		uxtb	r1, r1
 3625              	.LVL501:
 3626              	.L234:
 3627 0fd4 9DF8EC30 		ldrb	r3, [sp, #236]	@ zero_extendqisi2
 3628 0fd8 8B42     		cmp	r3, r1
 3629 0fda 15D9     		bls	.L231
 3630              	.LBB1195:
  91:Core/Inc/utils/mat.h ****                                 matrix_[i][j] -= rhs.matrix_[i][j];
 3631              		.loc 5 91 0
 3632 0fdc 0022     		movs	r2, #0
 3633              	.L233:
 3634              	.LVL502:
 3635 0fde 9DF8ED30 		ldrb	r3, [sp, #237]	@ zero_extendqisi2
 3636 0fe2 9342     		cmp	r3, r2
 3637 0fe4 F4D9     		bls	.L232
  92:Core/Inc/utils/mat.h ****                         }
 3638              		.loc 5 92 0
 3639 0fe6 01EB4103 		add	r3, r1, r1, lsl #1
 3640 0fea 1344     		add	r3, r3, r2
 3641 0fec 50A8     		add	r0, sp, #320
 3642 0fee 00EB8303 		add	r3, r0, r3, lsl #2
 3643 0ff2 13ED287A 		vldr.32	s14, [r3, #-160]
 3644 0ff6 53ED1E7A 		vldr.32	s15, [r3, #-120]
 3645 0ffa 77EEC77A 		vsub.f32	s15, s15, s14
 3646 0ffe 43ED1E7A 		vstr.32	s15, [r3, #-120]
  91:Core/Inc/utils/mat.h ****                                 matrix_[i][j] -= rhs.matrix_[i][j];
 3647              		.loc 5 91 0
 3648 1002 0132     		adds	r2, r2, #1
 3649              	.LVL503:
 3650 1004 D2B2     		uxtb	r2, r2
 3651              	.LVL504:
 3652 1006 EAE7     		b	.L233
 3653              	.LVL505:
 3654              	.L231:
 3655              	.LBE1195:
 3656              	.LBE1194:
ARM GAS  C:\Users\Prashant\AppData\Local\Temp\ccIdreTb.s 			page 80


 3657              	.LBE1196:
 3658              	.LBE1197:
 106:Core/Inc/utils/mat.h ****         }
 3659              		.loc 5 106 0
 3660 1008 3CAD     		add	r5, sp, #240
 3661              	.LVL506:
 3662 100a 32AE     		add	r6, sp, #200
 3663              	.LVL507:
 3664 100c 0FCE     		ldmia	r6!, {r0, r1, r2, r3}
 3665              	.LVL508:
 3666 100e 0FC5     		stmia	r5!, {r0, r1, r2, r3}
 3667              	.LVL509:
 3668 1010 0FCE     		ldmia	r6!, {r0, r1, r2, r3}
 3669              	.LVL510:
 3670 1012 0FC5     		stmia	r5!, {r0, r1, r2, r3}
 3671              	.LVL511:
 3672 1014 96E80300 		ldm	r6, {r0, r1}
 3673 1018 85E80300 		stm	r5, {r0, r1}
 3674              	.LVL512:
 3675              	.LBE1198:
 3676              	.LBE1200:
  70:Core/Inc/utils/kalman.h ****                 }
 3677              		.loc 2 70 0
 3678 101c A568     		ldr	r5, [r4, #8]
 3679              	.LVL513:
 3680 101e A035     		adds	r5, r5, #160
 3681              	.LVL514:
 3682              	.LBB1201:
 3683              	.LBB1202:
 110:Core/Inc/utils/mat.h ****                         _Error_Handler(__FILE__, __LINE__);
 3684              		.loc 5 110 0
 3685 1020 9DF81521 		ldrb	r2, [sp, #277]	@ zero_extendqisi2
 3686 1024 95F82430 		ldrb	r3, [r5, #36]	@ zero_extendqisi2
 3687 1028 9A42     		cmp	r2, r3
 3688 102a 11D1     		bne	.L291
 3689              	.L235:
 114:Core/Inc/utils/mat.h ****                 float sum;
 3690              		.loc 5 114 0
 3691 102c 9DF81471 		ldrb	r7, [sp, #276]	@ zero_extendqisi2
 3692              	.LVL515:
 3693 1030 95F82560 		ldrb	r6, [r5, #37]	@ zero_extendqisi2
 3694              	.LVL516:
 3695              	.LBB1203:
 3696              	.LBB1204:
 3697              	.LBB1205:
  24:Core/Inc/utils/mat.h ****                         _Error_Handler(__FILE__, __LINE__);
 3698              		.loc 5 24 0
 3699 1034 022F     		cmp	r7, #2
 3700 1036 01D8     		bhi	.L236
 3701 1038 022E     		cmp	r6, #2
 3702 103a 03D9     		bls	.L237
 3703              	.L236:
  25:Core/Inc/utils/mat.h ****                 }
 3704              		.loc 5 25 0
 3705 103c 1921     		movs	r1, #25
 3706 103e 3548     		ldr	r0, .L300
 3707 1040 FFF7FEFF 		bl	_Error_Handler
ARM GAS  C:\Users\Prashant\AppData\Local\Temp\ccIdreTb.s 			page 81


 3708              	.LVL517:
 3709              	.L237:
  27:Core/Inc/utils/mat.h ****                 cols_ = columns;
 3710              		.loc 5 27 0
 3711 1044 8DF83C71 		strb	r7, [sp, #316]
  28:Core/Inc/utils/mat.h **** 
 3712              		.loc 5 28 0
 3713 1048 8DF83D61 		strb	r6, [sp, #317]
 3714              	.LVL518:
 3715              	.LBB1206:
 3716              	.LBB1207:
 180:Core/Inc/utils/mat.h ****                         for (uint8_t j = 0; j < cols_; ++j) {
 3717              		.loc 5 180 0
 3718 104c 0021     		movs	r1, #0
 3719 104e 06E0     		b	.L241
 3720              	.LVL519:
 3721              	.L291:
 3722              	.LBE1207:
 3723              	.LBE1206:
 3724              	.LBE1205:
 3725              	.LBE1204:
 3726              	.LBE1203:
 111:Core/Inc/utils/mat.h ****                 }
 3727              		.loc 5 111 0
 3728 1050 6F21     		movs	r1, #111
 3729 1052 3048     		ldr	r0, .L300
 3730 1054 FFF7FEFF 		bl	_Error_Handler
 3731              	.LVL520:
 3732 1058 E8E7     		b	.L235
 3733              	.LVL521:
 3734              	.L239:
 3735              	.LBB1213:
 3736              	.LBB1212:
 3737              	.LBB1211:
 3738              	.LBB1210:
 3739              	.LBB1209:
 180:Core/Inc/utils/mat.h ****                         for (uint8_t j = 0; j < cols_; ++j) {
 3740              		.loc 5 180 0
 3741 105a 0131     		adds	r1, r1, #1
 3742              	.LVL522:
 3743 105c C9B2     		uxtb	r1, r1
 3744              	.LVL523:
 3745              	.L241:
 3746 105e 8F42     		cmp	r7, r1
 3747 1060 0ED9     		bls	.L264
 3748              	.LBB1208:
 181:Core/Inc/utils/mat.h ****                                 matrix_[i][j] = num;
 3749              		.loc 5 181 0
 3750 1062 0023     		movs	r3, #0
 3751              	.L240:
 3752              	.LVL524:
 3753 1064 9E42     		cmp	r6, r3
 3754 1066 F8D9     		bls	.L239
 3755              		.loc 5 182 0
 3756 1068 01EB4102 		add	r2, r1, r1, lsl #1
 3757 106c 1A44     		add	r2, r2, r3
 3758 106e 50A8     		add	r0, sp, #320
ARM GAS  C:\Users\Prashant\AppData\Local\Temp\ccIdreTb.s 			page 82


 3759 1070 00EB8202 		add	r2, r0, r2, lsl #2
 3760 1074 0020     		movs	r0, #0
 3761 1076 42F8280C 		str	r0, [r2, #-40]	@ float
 181:Core/Inc/utils/mat.h ****                                 matrix_[i][j] = num;
 3762              		.loc 5 181 0
 3763 107a 0133     		adds	r3, r3, #1
 3764              	.LVL525:
 3765 107c DBB2     		uxtb	r3, r3
 3766              	.LVL526:
 3767 107e F1E7     		b	.L240
 3768              	.LVL527:
 3769              	.L264:
 3770              	.LBE1208:
 3771              	.LBE1209:
 3772              	.LBE1210:
 3773              	.LBE1211:
 3774              	.LBE1212:
 3775              	.LBE1213:
 3776              	.LBB1214:
 116:Core/Inc/utils/mat.h ****                         for (uint8_t j = 0; j < m.cols_; ++j) {
 3777              		.loc 5 116 0
 3778 1080 0021     		movs	r1, #0
 3779              	.LVL528:
 3780 1082 2CE0     		b	.L238
 3781              	.LVL529:
 3782              	.L244:
 3783              	.LBB1215:
 3784              	.LBB1216:
 122:Core/Inc/utils/mat.h ****                         }
 3785              		.loc 5 122 0
 3786 1084 01EB4103 		add	r3, r1, r1, lsl #1
 3787              	.LVL530:
 3788 1088 0344     		add	r3, r3, r0
 3789 108a 50AA     		add	r2, sp, #320
 3790 108c 02EB8303 		add	r3, r2, r3, lsl #2
 3791 1090 03ED0A7A 		vstr.32	s14, [r3, #-40]
 3792              	.LBE1216:
 117:Core/Inc/utils/mat.h ****                                 sum = 0;
 3793              		.loc 5 117 0
 3794 1094 0130     		adds	r0, r0, #1
 3795              	.LVL531:
 3796 1096 C0B2     		uxtb	r0, r0
 3797              	.LVL532:
 3798              	.L246:
 3799 1098 95F82530 		ldrb	r3, [r5, #37]	@ zero_extendqisi2
 3800 109c 8342     		cmp	r3, r0
 3801 109e 1CD9     		bls	.L243
 3802              	.LBB1219:
 3803              	.LBB1217:
 119:Core/Inc/utils/mat.h ****                                         sum += matrix_[i][k] * m.matrix_[k][j];
 3804              		.loc 5 119 0
 3805 10a0 0023     		movs	r3, #0
 3806              	.LBE1217:
 118:Core/Inc/utils/mat.h ****                                 for (uint8_t k = 0; k < cols_; ++k) {
 3807              		.loc 5 118 0
 3808 10a2 9FED1D7A 		vldr.32	s14, .L300+4
 3809              	.L245:
ARM GAS  C:\Users\Prashant\AppData\Local\Temp\ccIdreTb.s 			page 83


 3810              	.LVL533:
 3811              	.LBB1218:
 119:Core/Inc/utils/mat.h ****                                         sum += matrix_[i][k] * m.matrix_[k][j];
 3812              		.loc 5 119 0
 3813 10a6 9DF81521 		ldrb	r2, [sp, #277]	@ zero_extendqisi2
 3814 10aa 9A42     		cmp	r2, r3
 3815 10ac EAD9     		bls	.L244
 120:Core/Inc/utils/mat.h ****                                 }
 3816              		.loc 5 120 0
 3817 10ae 01EB4102 		add	r2, r1, r1, lsl #1
 3818 10b2 1A44     		add	r2, r2, r3
 3819 10b4 50AE     		add	r6, sp, #320
 3820 10b6 06EB8202 		add	r2, r6, r2, lsl #2
 3821 10ba 52ED147A 		vldr.32	s15, [r2, #-80]
 3822 10be 03EB4302 		add	r2, r3, r3, lsl #1
 3823 10c2 0244     		add	r2, r2, r0
 3824 10c4 05EB8202 		add	r2, r5, r2, lsl #2
 3825 10c8 D2ED006A 		vldr.32	s13, [r2]
 3826 10cc 67EEA67A 		vmul.f32	s15, s15, s13
 3827 10d0 37EE277A 		vadd.f32	s14, s14, s15
 3828              	.LVL534:
 119:Core/Inc/utils/mat.h ****                                         sum += matrix_[i][k] * m.matrix_[k][j];
 3829              		.loc 5 119 0
 3830 10d4 0133     		adds	r3, r3, #1
 3831              	.LVL535:
 3832 10d6 DBB2     		uxtb	r3, r3
 3833              	.LVL536:
 3834 10d8 E5E7     		b	.L245
 3835              	.LVL537:
 3836              	.L243:
 3837              	.LBE1218:
 3838              	.LBE1219:
 3839              	.LBE1215:
 116:Core/Inc/utils/mat.h ****                         for (uint8_t j = 0; j < m.cols_; ++j) {
 3840              		.loc 5 116 0
 3841 10da 0131     		adds	r1, r1, #1
 3842              	.LVL538:
 3843 10dc C9B2     		uxtb	r1, r1
 3844              	.LVL539:
 3845              	.L238:
 3846 10de 9DF81431 		ldrb	r3, [sp, #276]	@ zero_extendqisi2
 3847 10e2 8B42     		cmp	r3, r1
 3848 10e4 01D9     		bls	.L242
 3849              	.LBB1220:
 117:Core/Inc/utils/mat.h ****                                 sum = 0;
 3850              		.loc 5 117 0
 3851 10e6 0020     		movs	r0, #0
 3852 10e8 D6E7     		b	.L246
 3853              	.L242:
 3854              	.LVL540:
 3855              	.LBE1220:
 3856              	.LBE1214:
 3857              	.LBE1202:
 3858              	.LBE1201:
  70:Core/Inc/utils/kalman.h ****                 }
 3859              		.loc 2 70 0
 3860 10ea A568     		ldr	r5, [r4, #8]
ARM GAS  C:\Users\Prashant\AppData\Local\Temp\ccIdreTb.s 			page 84


 3861 10ec 46AF     		add	r7, sp, #280
 3862              	.LVL541:
 3863 10ee A035     		adds	r5, r5, #160
 3864 10f0 0DF59C7C 		add	ip, sp, #312
 3865              	.LVL542:
 3866              	.L247:
 3867 10f4 3E46     		mov	r6, r7
 3868 10f6 0FCE     		ldmia	r6!, {r0, r1, r2, r3}
 3869 10f8 2860     		str	r0, [r5]	@ unaligned
 3870 10fa 6960     		str	r1, [r5, #4]	@ unaligned
 3871 10fc AA60     		str	r2, [r5, #8]	@ unaligned
 3872 10fe EB60     		str	r3, [r5, #12]	@ unaligned
 3873 1100 3746     		mov	r7, r6
 3874 1102 1035     		adds	r5, r5, #16
 3875 1104 6645     		cmp	r6, ip
 3876 1106 F5D1     		bne	.L247
 3877 1108 3068     		ldr	r0, [r6]
 3878 110a 2860     		str	r0, [r5]	@ unaligned
 3879 110c B388     		ldrh	r3, [r6, #4]	@ unaligned
 3880 110e AB80     		strh	r3, [r5, #4]	@ unaligned
 3881 1110 FEF79CBF 		b	.L15
 3882              	.L301:
 3883              		.align	2
 3884              	.L300:
 3885 1114 00000000 		.word	.LC0
 3886 1118 00000000 		.word	0
 3887              		.cfi_endproc
 3888              	.LFE442:
 3890              		.section	.text._ZN20Complementary_FilterD0Ev,"axG",%progbits,_ZN20Complementary_FilterD5Ev,comdat
 3891              		.align	1
 3892              		.weak	_ZN20Complementary_FilterD0Ev
 3893              		.syntax unified
 3894              		.thumb
 3895              		.thumb_func
 3896              		.fpu fpv4-sp-d16
 3898              	_ZN20Complementary_FilterD0Ev:
 3899              	.LFB415:
  37:Core/Inc/utils/filter_algorithm.h **** 
 3900              		.loc 1 37 0
 3901              		.cfi_startproc
 3902              		@ args = 0, pretend = 0, frame = 0
 3903              		@ frame_needed = 0, uses_anonymous_args = 0
 3904              	.LVL543:
 3905 0000 10B5     		push	{r4, lr}
 3906              	.LCFI7:
 3907              		.cfi_def_cfa_offset 8
 3908              		.cfi_offset 4, -8
 3909              		.cfi_offset 14, -4
 3910 0002 0446     		mov	r4, r0
  37:Core/Inc/utils/filter_algorithm.h **** 
 3911              		.loc 1 37 0
 3912 0004 0C21     		movs	r1, #12
 3913 0006 FFF7FEFF 		bl	_ZdlPvj
 3914              	.LVL544:
 3915 000a 2046     		mov	r0, r4
 3916 000c 10BD     		pop	{r4, pc}
 3917              		.cfi_endproc
ARM GAS  C:\Users\Prashant\AppData\Local\Temp\ccIdreTb.s 			page 85


 3918              	.LFE415:
 3920              		.section	.text._ZN21Complementary_Filter2D0Ev,"axG",%progbits,_ZN21Complementary_Filter2D5Ev,comda
 3921              		.align	1
 3922              		.weak	_ZN21Complementary_Filter2D0Ev
 3923              		.syntax unified
 3924              		.thumb
 3925              		.thumb_func
 3926              		.fpu fpv4-sp-d16
 3928              	_ZN21Complementary_Filter2D0Ev:
 3929              	.LFB426:
 3930              		.loc 1 63 0
 3931              		.cfi_startproc
 3932              		@ args = 0, pretend = 0, frame = 0
 3933              		@ frame_needed = 0, uses_anonymous_args = 0
 3934              	.LVL545:
 3935 0000 10B5     		push	{r4, lr}
 3936              	.LCFI8:
 3937              		.cfi_def_cfa_offset 8
 3938              		.cfi_offset 4, -8
 3939              		.cfi_offset 14, -4
 3940 0002 0446     		mov	r4, r0
 3941              		.loc 1 63 0
 3942 0004 1021     		movs	r1, #16
 3943 0006 FFF7FEFF 		bl	_ZdlPvj
 3944              	.LVL546:
 3945 000a 2046     		mov	r0, r4
 3946 000c 10BD     		pop	{r4, pc}
 3947              		.cfi_endproc
 3948              	.LFE426:
 3950              		.section	.text._ZN13Kalman_FilterC2EP11Kalman_Vars,"axG",%progbits,_ZN13Kalman_FilterC5EP11Kalman_
 3951              		.align	1
 3952              		.weak	_ZN13Kalman_FilterC2EP11Kalman_Vars
 3953              		.syntax unified
 3954              		.thumb
 3955              		.thumb_func
 3956              		.fpu fpv4-sp-d16
 3958              	_ZN13Kalman_FilterC2EP11Kalman_Vars:
 3959              	.LFB436:
  37:Core/Inc/utils/kalman.h ****         x_(2,1), u_(1,1), z_(1,1), K_(2,1)
 3960              		.loc 2 37 0
 3961              		.cfi_startproc
 3962              		@ args = 0, pretend = 0, frame = 0
 3963              		@ frame_needed = 0, uses_anonymous_args = 0
 3964              		@ link register save eliminated.
 3965              	.LVL547:
 3966 0000 30B4     		push	{r4, r5}
 3967              	.LCFI9:
 3968              		.cfi_def_cfa_offset 8
 3969              		.cfi_offset 4, -8
 3970              		.cfi_offset 5, -4
 3971              	.LBB1221:
  38:Core/Inc/utils/kalman.h ****         {
 3972              		.loc 2 38 0
 3973 0002 334B     		ldr	r3, .L324
 3974 0004 0360     		str	r3, [r0]
 3975              	.LVL548:
 3976              	.LBB1222:
ARM GAS  C:\Users\Prashant\AppData\Local\Temp\ccIdreTb.s 			page 86


 3977              	.LBB1223:
  27:Core/Inc/utils/mat.h ****                 cols_ = columns;
 3978              		.loc 5 27 0
 3979 0006 0223     		movs	r3, #2
 3980 0008 80F83030 		strb	r3, [r0, #48]
  28:Core/Inc/utils/mat.h **** 
 3981              		.loc 5 28 0
 3982 000c 0123     		movs	r3, #1
 3983 000e 80F83130 		strb	r3, [r0, #49]
 3984              	.LVL549:
 3985              	.LBB1224:
 3986              	.LBB1225:
 180:Core/Inc/utils/mat.h ****                         for (uint8_t j = 0; j < cols_; ++j) {
 3987              		.loc 5 180 0
 3988 0012 0023     		movs	r3, #0
 3989 0014 01E0     		b	.L310
 3990              	.LVL550:
 3991              	.L308:
 3992 0016 0133     		adds	r3, r3, #1
 3993              	.LVL551:
 3994 0018 DBB2     		uxtb	r3, r3
 3995              	.LVL552:
 3996              	.L310:
 3997 001a 012B     		cmp	r3, #1
 3998 001c 0CD8     		bhi	.L307
 3999              	.LBB1226:
 181:Core/Inc/utils/mat.h ****                                 matrix_[i][j] = num;
 4000              		.loc 5 181 0
 4001 001e 0022     		movs	r2, #0
 4002              	.L309:
 4003              	.LVL553:
 4004 0020 002A     		cmp	r2, #0
 4005 0022 F8D1     		bne	.L308
 4006              		.loc 5 182 0
 4007 0024 03EB4304 		add	r4, r3, r3, lsl #1
 4008 0028 1444     		add	r4, r4, r2
 4009 002a 00EB8404 		add	r4, r0, r4, lsl #2
 4010 002e 0025     		movs	r5, #0
 4011 0030 E560     		str	r5, [r4, #12]	@ float
 181:Core/Inc/utils/mat.h ****                                 matrix_[i][j] = num;
 4012              		.loc 5 181 0
 4013 0032 0132     		adds	r2, r2, #1
 4014              	.LVL554:
 4015 0034 D2B2     		uxtb	r2, r2
 4016              	.LVL555:
 4017 0036 F3E7     		b	.L309
 4018              	.LVL556:
 4019              	.L307:
 4020              	.LBE1226:
 4021              	.LBE1225:
 4022              	.LBE1224:
 4023              	.LBE1223:
 4024              	.LBE1222:
 4025              	.LBB1227:
 4026              	.LBB1228:
  27:Core/Inc/utils/mat.h ****                 cols_ = columns;
 4027              		.loc 5 27 0
ARM GAS  C:\Users\Prashant\AppData\Local\Temp\ccIdreTb.s 			page 87


 4028 0038 0123     		movs	r3, #1
 4029 003a 80F85830 		strb	r3, [r0, #88]
  28:Core/Inc/utils/mat.h **** 
 4030              		.loc 5 28 0
 4031 003e 80F85930 		strb	r3, [r0, #89]
 4032              	.LVL557:
 4033              	.LBB1229:
 4034              	.LBB1230:
 180:Core/Inc/utils/mat.h ****                         for (uint8_t j = 0; j < cols_; ++j) {
 4035              		.loc 5 180 0
 4036 0042 0023     		movs	r3, #0
 4037              	.LVL558:
 4038              	.L314:
 4039 0044 73B9     		cbnz	r3, .L311
 4040              	.LBB1231:
 181:Core/Inc/utils/mat.h ****                                 matrix_[i][j] = num;
 4041              		.loc 5 181 0
 4042 0046 1A46     		mov	r2, r3
 4043              	.L313:
 4044              	.LVL559:
 4045 0048 4AB9     		cbnz	r2, .L312
 4046              		.loc 5 182 0
 4047 004a 03EB4304 		add	r4, r3, r3, lsl #1
 4048 004e 1444     		add	r4, r4, r2
 4049 0050 00EB8404 		add	r4, r0, r4, lsl #2
 4050 0054 0025     		movs	r5, #0
 4051 0056 6563     		str	r5, [r4, #52]	@ float
 181:Core/Inc/utils/mat.h ****                                 matrix_[i][j] = num;
 4052              		.loc 5 181 0
 4053 0058 0132     		adds	r2, r2, #1
 4054              	.LVL560:
 4055 005a D2B2     		uxtb	r2, r2
 4056              	.LVL561:
 4057 005c F4E7     		b	.L313
 4058              	.L312:
 4059              	.LBE1231:
 180:Core/Inc/utils/mat.h ****                         for (uint8_t j = 0; j < cols_; ++j) {
 4060              		.loc 5 180 0
 4061 005e 0133     		adds	r3, r3, #1
 4062              	.LVL562:
 4063 0060 DBB2     		uxtb	r3, r3
 4064              	.LVL563:
 4065 0062 EFE7     		b	.L314
 4066              	.LVL564:
 4067              	.L311:
 4068              	.LBE1230:
 4069              	.LBE1229:
 4070              	.LBE1228:
 4071              	.LBE1227:
 4072              	.LBB1232:
 4073              	.LBB1233:
  27:Core/Inc/utils/mat.h ****                 cols_ = columns;
 4074              		.loc 5 27 0
 4075 0064 0123     		movs	r3, #1
 4076 0066 80F88030 		strb	r3, [r0, #128]
  28:Core/Inc/utils/mat.h **** 
 4077              		.loc 5 28 0
ARM GAS  C:\Users\Prashant\AppData\Local\Temp\ccIdreTb.s 			page 88


 4078 006a 80F88130 		strb	r3, [r0, #129]
 4079              	.LVL565:
 4080              	.LBB1234:
 4081              	.LBB1235:
 180:Core/Inc/utils/mat.h ****                         for (uint8_t j = 0; j < cols_; ++j) {
 4082              		.loc 5 180 0
 4083 006e 0023     		movs	r3, #0
 4084 0070 01E0     		b	.L318
 4085              	.LVL566:
 4086              	.L316:
 4087 0072 0133     		adds	r3, r3, #1
 4088              	.LVL567:
 4089 0074 DBB2     		uxtb	r3, r3
 4090              	.LVL568:
 4091              	.L318:
 4092 0076 63B9     		cbnz	r3, .L315
 4093              	.LBB1236:
 181:Core/Inc/utils/mat.h ****                                 matrix_[i][j] = num;
 4094              		.loc 5 181 0
 4095 0078 1A46     		mov	r2, r3
 4096              	.L317:
 4097              	.LVL569:
 4098 007a 002A     		cmp	r2, #0
 4099 007c F9D1     		bne	.L316
 4100              		.loc 5 182 0
 4101 007e 03EB4304 		add	r4, r3, r3, lsl #1
 4102 0082 1444     		add	r4, r4, r2
 4103 0084 00EB8404 		add	r4, r0, r4, lsl #2
 4104 0088 0025     		movs	r5, #0
 4105 008a E565     		str	r5, [r4, #92]	@ float
 181:Core/Inc/utils/mat.h ****                                 matrix_[i][j] = num;
 4106              		.loc 5 181 0
 4107 008c 0132     		adds	r2, r2, #1
 4108              	.LVL570:
 4109 008e D2B2     		uxtb	r2, r2
 4110              	.LVL571:
 4111 0090 F3E7     		b	.L317
 4112              	.LVL572:
 4113              	.L315:
 4114              	.LBE1236:
 4115              	.LBE1235:
 4116              	.LBE1234:
 4117              	.LBE1233:
 4118              	.LBE1232:
 4119              	.LBB1237:
 4120              	.LBB1238:
  27:Core/Inc/utils/mat.h ****                 cols_ = columns;
 4121              		.loc 5 27 0
 4122 0092 0223     		movs	r3, #2
 4123 0094 80F8A830 		strb	r3, [r0, #168]
  28:Core/Inc/utils/mat.h **** 
 4124              		.loc 5 28 0
 4125 0098 0123     		movs	r3, #1
 4126 009a 80F8A930 		strb	r3, [r0, #169]
 4127              	.LVL573:
 4128              	.LBB1239:
 4129              	.LBB1240:
ARM GAS  C:\Users\Prashant\AppData\Local\Temp\ccIdreTb.s 			page 89


 180:Core/Inc/utils/mat.h ****                         for (uint8_t j = 0; j < cols_; ++j) {
 4130              		.loc 5 180 0
 4131 009e 0023     		movs	r3, #0
 4132 00a0 01E0     		b	.L322
 4133              	.LVL574:
 4134              	.L320:
 4135 00a2 0133     		adds	r3, r3, #1
 4136              	.LVL575:
 4137 00a4 DBB2     		uxtb	r3, r3
 4138              	.LVL576:
 4139              	.L322:
 4140 00a6 012B     		cmp	r3, #1
 4141 00a8 0DD8     		bhi	.L319
 4142              	.LBB1241:
 181:Core/Inc/utils/mat.h ****                                 matrix_[i][j] = num;
 4143              		.loc 5 181 0
 4144 00aa 0022     		movs	r2, #0
 4145              	.L321:
 4146              	.LVL577:
 4147 00ac 002A     		cmp	r2, #0
 4148 00ae F8D1     		bne	.L320
 4149              		.loc 5 182 0
 4150 00b0 03EB4304 		add	r4, r3, r3, lsl #1
 4151 00b4 1444     		add	r4, r4, r2
 4152 00b6 00EB8404 		add	r4, r0, r4, lsl #2
 4153 00ba 0025     		movs	r5, #0
 4154 00bc C4F88450 		str	r5, [r4, #132]	@ float
 181:Core/Inc/utils/mat.h ****                                 matrix_[i][j] = num;
 4155              		.loc 5 181 0
 4156 00c0 0132     		adds	r2, r2, #1
 4157              	.LVL578:
 4158 00c2 D2B2     		uxtb	r2, r2
 4159              	.LVL579:
 4160 00c4 F2E7     		b	.L321
 4161              	.LVL580:
 4162              	.L319:
 4163              	.LBE1241:
 4164              	.LBE1240:
 4165              	.LBE1239:
 4166              	.LBE1238:
 4167              	.LBE1237:
  40:Core/Inc/utils/kalman.h ****                 kv_ = kv;
 4168              		.loc 2 40 0
 4169 00c6 0123     		movs	r3, #1
 4170 00c8 0371     		strb	r3, [r0, #4]
  41:Core/Inc/utils/kalman.h ****         }
 4171              		.loc 2 41 0
 4172 00ca 8160     		str	r1, [r0, #8]
 4173              	.LBE1221:
  42:Core/Inc/utils/kalman.h ****         Kalman_Filter(Kalman_Filter &&) = default;
 4174              		.loc 2 42 0
 4175 00cc 30BC     		pop	{r4, r5}
 4176              	.LCFI10:
 4177              		.cfi_restore 5
 4178              		.cfi_restore 4
 4179              		.cfi_def_cfa_offset 0
 4180 00ce 7047     		bx	lr
ARM GAS  C:\Users\Prashant\AppData\Local\Temp\ccIdreTb.s 			page 90


 4181              	.L325:
 4182              		.align	2
 4183              	.L324:
 4184 00d0 08000000 		.word	_ZTV13Kalman_Filter+8
 4185              		.cfi_endproc
 4186              	.LFE436:
 4188              		.weak	_ZN13Kalman_FilterC1EP11Kalman_Vars
 4189              		.thumb_set _ZN13Kalman_FilterC1EP11Kalman_Vars,_ZN13Kalman_FilterC2EP11Kalman_Vars
 4190              		.section	.text._Z12swap_ElementIhEvRT_S1_,"axG",%progbits,_Z12swap_ElementIhEvRT_S1_,comdat
 4191              		.align	1
 4192              		.weak	_Z12swap_ElementIhEvRT_S1_
 4193              		.syntax unified
 4194              		.thumb
 4195              		.thumb_func
 4196              		.fpu fpv4-sp-d16
 4198              	_Z12swap_ElementIhEvRT_S1_:
 4199              	.LFB464:
  15:Core/Inc/utils/vec3.h **** {
 4200              		.loc 4 15 0
 4201              		.cfi_startproc
 4202              		@ args = 0, pretend = 0, frame = 0
 4203              		@ frame_needed = 0, uses_anonymous_args = 0
 4204              		@ link register save eliminated.
 4205              	.LVL581:
  17:Core/Inc/utils/vec3.h ****         first = second;
 4206              		.loc 4 17 0
 4207 0000 0378     		ldrb	r3, [r0]	@ zero_extendqisi2
 4208              	.LVL582:
  18:Core/Inc/utils/vec3.h ****         second = temp;
 4209              		.loc 4 18 0
 4210 0002 0A78     		ldrb	r2, [r1]	@ zero_extendqisi2
 4211 0004 0270     		strb	r2, [r0]
  19:Core/Inc/utils/vec3.h **** }
 4212              		.loc 4 19 0
 4213 0006 0B70     		strb	r3, [r1]
  20:Core/Inc/utils/vec3.h **** 
 4214              		.loc 4 20 0
 4215 0008 7047     		bx	lr
 4216              		.cfi_endproc
 4217              	.LFE464:
 4219              		.section	.text._Z12swap_ElementIfEvRT_S1_,"axG",%progbits,_Z12swap_ElementIfEvRT_S1_,comdat
 4220              		.align	1
 4221              		.weak	_Z12swap_ElementIfEvRT_S1_
 4222              		.syntax unified
 4223              		.thumb
 4224              		.thumb_func
 4225              		.fpu fpv4-sp-d16
 4227              	_Z12swap_ElementIfEvRT_S1_:
 4228              	.LFB465:
  15:Core/Inc/utils/vec3.h **** {
 4229              		.loc 4 15 0
 4230              		.cfi_startproc
 4231              		@ args = 0, pretend = 0, frame = 0
 4232              		@ frame_needed = 0, uses_anonymous_args = 0
 4233              		@ link register save eliminated.
 4234              	.LVL583:
  17:Core/Inc/utils/vec3.h ****         first = second;
ARM GAS  C:\Users\Prashant\AppData\Local\Temp\ccIdreTb.s 			page 91


 4235              		.loc 4 17 0
 4236 0000 0368     		ldr	r3, [r0]	@ float
 4237              	.LVL584:
  18:Core/Inc/utils/vec3.h ****         second = temp;
 4238              		.loc 4 18 0
 4239 0002 0A68     		ldr	r2, [r1]	@ float
 4240 0004 0260     		str	r2, [r0]	@ float
  19:Core/Inc/utils/vec3.h **** }
 4241              		.loc 4 19 0
 4242 0006 0B60     		str	r3, [r1]	@ float
  20:Core/Inc/utils/vec3.h **** 
 4243              		.loc 4 20 0
 4244 0008 7047     		bx	lr
 4245              		.cfi_endproc
 4246              	.LFE465:
 4248              		.section	.text._ZL7KF_Initm,"ax",%progbits
 4249              		.align	1
 4250              		.syntax unified
 4251              		.thumb
 4252              		.thumb_func
 4253              		.fpu fpv4-sp-d16
 4255              	_ZL7KF_Initm:
 4256              	.LFB463:
 4257              		.file 6 "Core/Src/robot/robo_init.cpp"
   1:Core/Src/robot/robo_init.cpp **** /*
   2:Core/Src/robot/robo_init.cpp ****  * robo_init.cpp
   3:Core/Src/robot/robo_init.cpp ****  * 
   4:Core/Src/robot/robo_init.cpp ****  * Created : 11/26/2018
   5:Core/Src/robot/robo_init.cpp ****  *  Author : n-is
   6:Core/Src/robot/robo_init.cpp ****  *   email : 073bex422.nischal@pcampus.edu.np
   7:Core/Src/robot/robo_init.cpp ****  */
   8:Core/Src/robot/robo_init.cpp **** 
   9:Core/Src/robot/robo_init.cpp **** #include "robot/robo_init.h"
  10:Core/Src/robot/robo_init.cpp **** 
  11:Core/Src/robot/robo_init.cpp **** #define ENCODER_WHEEL_RADIUS    (35)
  12:Core/Src/robot/robo_init.cpp **** #define ENCODER_PPR             (250)
  13:Core/Src/robot/robo_init.cpp **** 
  14:Core/Src/robot/robo_init.cpp **** Vec3<float> gOmega_Bias;
  15:Core/Src/robot/robo_init.cpp **** 
  16:Core/Src/robot/robo_init.cpp **** Complementary_Filter gHigh_Lambda(0.85);
  17:Core/Src/robot/robo_init.cpp **** Complementary_Filter2 gDefault_K(7);
  18:Core/Src/robot/robo_init.cpp **** 
  19:Core/Src/robot/robo_init.cpp **** Kalman_Vars gAccel_Gyro;
  20:Core/Src/robot/robo_init.cpp **** Kalman_Vars gLidar_Encoder;
  21:Core/Src/robot/robo_init.cpp **** // Kalman_Vars gMag_Gyro;
  22:Core/Src/robot/robo_init.cpp **** 
  23:Core/Src/robot/robo_init.cpp **** Kalman_Filter gRoll_Filter(&gAccel_Gyro);
  24:Core/Src/robot/robo_init.cpp **** Kalman_Filter gPitch_Filter(&gAccel_Gyro);
  25:Core/Src/robot/robo_init.cpp **** Kalman_Filter gYaw_Filter(&gAccel_Gyro);
  26:Core/Src/robot/robo_init.cpp **** Kalman_Filter gXDist_Filter(&gLidar_Encoder);
  27:Core/Src/robot/robo_init.cpp **** Filter Second_Pass;
  28:Core/Src/robot/robo_init.cpp **** 
  29:Core/Src/robot/robo_init.cpp **** static void KF_Init(uint32_t dt_millis);
  30:Core/Src/robot/robo_init.cpp **** 
  31:Core/Src/robot/robo_init.cpp **** void robo_Init(uint32_t dt_millis)
  32:Core/Src/robot/robo_init.cpp **** {
  33:Core/Src/robot/robo_init.cpp ****         KF_Init(dt_millis);
ARM GAS  C:\Users\Prashant\AppData\Local\Temp\ccIdreTb.s 			page 92


  34:Core/Src/robot/robo_init.cpp **** 
  35:Core/Src/robot/robo_init.cpp ****         IMU_Init();
  36:Core/Src/robot/robo_init.cpp ****         Stepper_Init();
  37:Core/Src/robot/robo_init.cpp ****         Encoders_Init();
  38:Core/Src/robot/robo_init.cpp ****         LIDAR_Init();
  39:Core/Src/robot/robo_init.cpp **** 
  40:Core/Src/robot/robo_init.cpp ****         Wheeler_Init();
  41:Core/Src/robot/robo_init.cpp ****         gOmega_Bias = calc_OmegaMean(&Body_IMU, 1000);
  42:Core/Src/robot/robo_init.cpp ****         
  43:Core/Src/robot/robo_init.cpp ****         // Compass Calibration Code
  44:Core/Src/robot/robo_init.cpp ****         // HMC5883_Calibrate(&Body_HMC, &IMU_Stepper, 200);
  45:Core/Src/robot/robo_init.cpp **** }
  46:Core/Src/robot/robo_init.cpp **** 
  47:Core/Src/robot/robo_init.cpp **** static void KF_Init(uint32_t dt_millis)
  48:Core/Src/robot/robo_init.cpp **** {
 4258              		.loc 6 48 0
 4259              		.cfi_startproc
 4260              		@ args = 0, pretend = 0, frame = 320
 4261              		@ frame_needed = 0, uses_anonymous_args = 0
 4262              	.LVL585:
 4263 0000 30B5     		push	{r4, r5, lr}
 4264              	.LCFI11:
 4265              		.cfi_def_cfa_offset 12
 4266              		.cfi_offset 4, -12
 4267              		.cfi_offset 5, -8
 4268              		.cfi_offset 14, -4
 4269 0002 D1B0     		sub	sp, sp, #324
 4270              	.LCFI12:
 4271              		.cfi_def_cfa_offset 336
  49:Core/Src/robot/robo_init.cpp ****         float dt = (float)dt_millis / 1000.0;
 4272              		.loc 6 49 0
 4273 0004 07EE900A 		vmov	s15, r0	@ int
 4274 0008 F8EE676A 		vcvt.f32.u32	s13, s15
 4275 000c 9FEDBF7A 		vldr.32	s14, .L510
 4276 0010 C6EE877A 		vdiv.f32	s15, s13, s14
 4277              	.LVL586:
 4278              	.LBB1527:
 4279              	.LBB1528:
 4280              	.LBB1529:
  27:Core/Inc/utils/mat.h ****                 cols_ = columns;
 4281              		.loc 5 27 0
 4282 0014 0223     		movs	r3, #2
 4283 0016 8DF83C31 		strb	r3, [sp, #316]
  28:Core/Inc/utils/mat.h **** 
 4284              		.loc 5 28 0
 4285 001a 8DF83D31 		strb	r3, [sp, #317]
 4286              	.LVL587:
 4287              	.LBB1530:
 4288              	.LBB1531:
 180:Core/Inc/utils/mat.h ****                         for (uint8_t j = 0; j < cols_; ++j) {
 4289              		.loc 5 180 0
 4290 001e 0021     		movs	r1, #0
 4291 0020 01E0     		b	.L332
 4292              	.LVL588:
 4293              	.L330:
 4294 0022 0131     		adds	r1, r1, #1
 4295              	.LVL589:
ARM GAS  C:\Users\Prashant\AppData\Local\Temp\ccIdreTb.s 			page 93


 4296 0024 C9B2     		uxtb	r1, r1
 4297              	.LVL590:
 4298              	.L332:
 4299 0026 0129     		cmp	r1, #1
 4300 0028 0ED8     		bhi	.L329
 4301              	.LBB1532:
 181:Core/Inc/utils/mat.h ****                                 matrix_[i][j] = num;
 4302              		.loc 5 181 0
 4303 002a 0023     		movs	r3, #0
 4304              	.L331:
 4305              	.LVL591:
 4306 002c 012B     		cmp	r3, #1
 4307 002e F8D8     		bhi	.L330
 4308              		.loc 5 182 0
 4309 0030 01EB4102 		add	r2, r1, r1, lsl #1
 4310 0034 1A44     		add	r2, r2, r3
 4311 0036 50A8     		add	r0, sp, #320
 4312 0038 00EB8202 		add	r2, r0, r2, lsl #2
 4313 003c 0020     		movs	r0, #0
 4314 003e 42F8280C 		str	r0, [r2, #-40]	@ float
 181:Core/Inc/utils/mat.h ****                                 matrix_[i][j] = num;
 4315              		.loc 5 181 0
 4316 0042 0133     		adds	r3, r3, #1
 4317              	.LVL592:
 4318 0044 DBB2     		uxtb	r3, r3
 4319              	.LVL593:
 4320 0046 F1E7     		b	.L331
 4321              	.LVL594:
 4322              	.L329:
 4323              	.LBE1532:
 4324              	.LBE1531:
 4325              	.LBE1530:
 4326              	.LBE1529:
 4327              	.LBE1528:
 4328              	.LBE1527:
  50:Core/Src/robot/robo_init.cpp **** 
  51:Core/Src/robot/robo_init.cpp ****         // For Orientation Purpose
  52:Core/Src/robot/robo_init.cpp ****         Mat state_model(2,2);
  53:Core/Src/robot/robo_init.cpp ****         state_model.at(0,0) = 1;
 4329              		.loc 6 53 0
 4330 0048 4FF07E53 		mov	r3, #1065353216
 4331 004c 4693     		str	r3, [sp, #280]	@ float
  54:Core/Src/robot/robo_init.cpp ****         state_model.at(0,1) = -dt;
 4332              		.loc 6 54 0
 4333 004e B1EE677A 		vneg.f32	s14, s15
 4334 0052 8DED477A 		vstr.32	s14, [sp, #284]
  55:Core/Src/robot/robo_init.cpp ****         state_model.at(1,0) = 0;
 4335              		.loc 6 55 0
 4336 0056 0022     		movs	r2, #0
 4337 0058 4992     		str	r2, [sp, #292]	@ float
  56:Core/Src/robot/robo_init.cpp ****         state_model.at(1,1) = 1;
 4338              		.loc 6 56 0
 4339 005a 4A93     		str	r3, [sp, #296]	@ float
 4340              	.LVL595:
 4341              	.LBB1533:
 4342              	.LBB1534:
 4343              	.LBB1535:
ARM GAS  C:\Users\Prashant\AppData\Local\Temp\ccIdreTb.s 			page 94


  27:Core/Inc/utils/mat.h ****                 cols_ = columns;
 4344              		.loc 5 27 0
 4345 005c 0223     		movs	r3, #2
 4346 005e 8DF81431 		strb	r3, [sp, #276]
  28:Core/Inc/utils/mat.h **** 
 4347              		.loc 5 28 0
 4348 0062 0123     		movs	r3, #1
 4349 0064 8DF81531 		strb	r3, [sp, #277]
 4350              	.LVL596:
 4351              	.LBB1536:
 4352              	.LBB1537:
 180:Core/Inc/utils/mat.h ****                         for (uint8_t j = 0; j < cols_; ++j) {
 4353              		.loc 5 180 0
 4354 0068 0023     		movs	r3, #0
 4355 006a 01E0     		b	.L336
 4356              	.LVL597:
 4357              	.L334:
 4358 006c 0133     		adds	r3, r3, #1
 4359              	.LVL598:
 4360 006e DBB2     		uxtb	r3, r3
 4361              	.LVL599:
 4362              	.L336:
 4363 0070 012B     		cmp	r3, #1
 4364 0072 0ED8     		bhi	.L333
 4365              	.LBB1538:
 181:Core/Inc/utils/mat.h ****                                 matrix_[i][j] = num;
 4366              		.loc 5 181 0
 4367 0074 0022     		movs	r2, #0
 4368              	.L335:
 4369              	.LVL600:
 4370 0076 002A     		cmp	r2, #0
 4371 0078 F8D1     		bne	.L334
 4372              		.loc 5 182 0
 4373 007a 03EB4301 		add	r1, r3, r3, lsl #1
 4374 007e 1144     		add	r1, r1, r2
 4375 0080 50A8     		add	r0, sp, #320
 4376 0082 00EB8101 		add	r1, r0, r1, lsl #2
 4377 0086 0020     		movs	r0, #0
 4378 0088 41F8500C 		str	r0, [r1, #-80]	@ float
 181:Core/Inc/utils/mat.h ****                                 matrix_[i][j] = num;
 4379              		.loc 5 181 0
 4380 008c 0132     		adds	r2, r2, #1
 4381              	.LVL601:
 4382 008e D2B2     		uxtb	r2, r2
 4383              	.LVL602:
 4384 0090 F1E7     		b	.L335
 4385              	.LVL603:
 4386              	.L333:
 4387              	.LBE1538:
 4388              	.LBE1537:
 4389              	.LBE1536:
 4390              	.LBE1535:
 4391              	.LBE1534:
 4392              	.LBE1533:
  57:Core/Src/robot/robo_init.cpp **** 
  58:Core/Src/robot/robo_init.cpp ****         Mat control_model(2,1);
  59:Core/Src/robot/robo_init.cpp ****         control_model.at(0,0) = dt;
ARM GAS  C:\Users\Prashant\AppData\Local\Temp\ccIdreTb.s 			page 95


 4393              		.loc 6 59 0
 4394 0092 CDED3C7A 		vstr.32	s15, [sp, #240]
  60:Core/Src/robot/robo_init.cpp ****         control_model.at(1,0) = 0;
 4395              		.loc 6 60 0
 4396 0096 0023     		movs	r3, #0
 4397 0098 3F93     		str	r3, [sp, #252]	@ float
 4398              	.LVL604:
 4399              	.LBB1539:
 4400              	.LBB1540:
 4401              	.LBB1541:
  27:Core/Inc/utils/mat.h ****                 cols_ = columns;
 4402              		.loc 5 27 0
 4403 009a 0123     		movs	r3, #1
 4404 009c 8DF8EC30 		strb	r3, [sp, #236]
  28:Core/Inc/utils/mat.h **** 
 4405              		.loc 5 28 0
 4406 00a0 0223     		movs	r3, #2
 4407 00a2 8DF8ED30 		strb	r3, [sp, #237]
 4408              	.LVL605:
 4409              	.LBB1542:
 4410              	.LBB1543:
 180:Core/Inc/utils/mat.h ****                         for (uint8_t j = 0; j < cols_; ++j) {
 4411              		.loc 5 180 0
 4412 00a6 0022     		movs	r2, #0
 4413              	.LVL606:
 4414              	.L340:
 4415 00a8 8AB9     		cbnz	r2, .L337
 4416              	.LBB1544:
 181:Core/Inc/utils/mat.h ****                                 matrix_[i][j] = num;
 4417              		.loc 5 181 0
 4418 00aa 1346     		mov	r3, r2
 4419              	.L339:
 4420              	.LVL607:
 4421 00ac 012B     		cmp	r3, #1
 4422 00ae 0BD8     		bhi	.L338
 4423              		.loc 5 182 0
 4424 00b0 02EB4201 		add	r1, r2, r2, lsl #1
 4425 00b4 1944     		add	r1, r1, r3
 4426 00b6 50A8     		add	r0, sp, #320
 4427 00b8 00EB8101 		add	r1, r0, r1, lsl #2
 4428 00bc 0020     		movs	r0, #0
 4429 00be 41F8780C 		str	r0, [r1, #-120]	@ float
 181:Core/Inc/utils/mat.h ****                                 matrix_[i][j] = num;
 4430              		.loc 5 181 0
 4431 00c2 0133     		adds	r3, r3, #1
 4432              	.LVL608:
 4433 00c4 DBB2     		uxtb	r3, r3
 4434              	.LVL609:
 4435 00c6 F1E7     		b	.L339
 4436              	.L338:
 4437              	.LBE1544:
 180:Core/Inc/utils/mat.h ****                         for (uint8_t j = 0; j < cols_; ++j) {
 4438              		.loc 5 180 0
 4439 00c8 0132     		adds	r2, r2, #1
 4440              	.LVL610:
 4441 00ca D2B2     		uxtb	r2, r2
 4442              	.LVL611:
ARM GAS  C:\Users\Prashant\AppData\Local\Temp\ccIdreTb.s 			page 96


 4443 00cc ECE7     		b	.L340
 4444              	.LVL612:
 4445              	.L337:
 4446              	.LBE1543:
 4447              	.LBE1542:
 4448              	.LBE1541:
 4449              	.LBE1540:
 4450              	.LBE1539:
  61:Core/Src/robot/robo_init.cpp **** 
  62:Core/Src/robot/robo_init.cpp ****         Mat obs_model(1,2);
  63:Core/Src/robot/robo_init.cpp ****         obs_model.at(0,0) = 1;
 4451              		.loc 6 63 0
 4452 00ce 4FF07E53 		mov	r3, #1065353216
 4453 00d2 3293     		str	r3, [sp, #200]	@ float
  64:Core/Src/robot/robo_init.cpp ****         obs_model.at(0,1) = 0;
 4454              		.loc 6 64 0
 4455 00d4 0023     		movs	r3, #0
 4456 00d6 3393     		str	r3, [sp, #204]	@ float
 4457              	.LVL613:
 4458              	.LBB1545:
 4459              	.LBB1546:
 4460              	.LBB1547:
 4461              	.LBB1548:
 4462              	.LBB1549:
  27:Core/Inc/utils/mat.h ****                 cols_ = columns;
 4463              		.loc 5 27 0
 4464 00d8 0223     		movs	r3, #2
 4465 00da 8DF8C430 		strb	r3, [sp, #196]
  28:Core/Inc/utils/mat.h **** 
 4466              		.loc 5 28 0
 4467 00de 8DF8C530 		strb	r3, [sp, #197]
 4468              	.LVL614:
 4469              	.LBB1550:
 4470              	.LBB1551:
 180:Core/Inc/utils/mat.h ****                         for (uint8_t j = 0; j < cols_; ++j) {
 4471              		.loc 5 180 0
 4472 00e2 0021     		movs	r1, #0
 4473 00e4 01E0     		b	.L344
 4474              	.LVL615:
 4475              	.L342:
 4476 00e6 0131     		adds	r1, r1, #1
 4477              	.LVL616:
 4478 00e8 C9B2     		uxtb	r1, r1
 4479              	.LVL617:
 4480              	.L344:
 4481 00ea 0129     		cmp	r1, #1
 4482 00ec 0ED8     		bhi	.L507
 4483              	.LBB1552:
 181:Core/Inc/utils/mat.h ****                                 matrix_[i][j] = num;
 4484              		.loc 5 181 0
 4485 00ee 0023     		movs	r3, #0
 4486              	.L343:
 4487              	.LVL618:
 4488 00f0 012B     		cmp	r3, #1
 4489 00f2 F8D8     		bhi	.L342
 4490              		.loc 5 182 0
 4491 00f4 01EB4102 		add	r2, r1, r1, lsl #1
ARM GAS  C:\Users\Prashant\AppData\Local\Temp\ccIdreTb.s 			page 97


 4492 00f8 1A44     		add	r2, r2, r3
 4493 00fa 50A8     		add	r0, sp, #320
 4494 00fc 00EB8202 		add	r2, r0, r2, lsl #2
 4495 0100 0020     		movs	r0, #0
 4496 0102 42F8A00C 		str	r0, [r2, #-160]	@ float
 181:Core/Inc/utils/mat.h ****                                 matrix_[i][j] = num;
 4497              		.loc 5 181 0
 4498 0106 0133     		adds	r3, r3, #1
 4499              	.LVL619:
 4500 0108 DBB2     		uxtb	r3, r3
 4501              	.LVL620:
 4502 010a F1E7     		b	.L343
 4503              	.LVL621:
 4504              	.L507:
 4505              	.LBE1552:
 4506              	.LBE1551:
 4507              	.LBE1550:
 4508              	.LBE1549:
 4509              	.LBE1548:
 4510              	.LBE1547:
 4511              	.LBB1553:
 4512              	.LBB1554:
 180:Core/Inc/utils/mat.h ****                         for (uint8_t j = 0; j < cols_; ++j) {
 4513              		.loc 5 180 0
 4514 010c 0021     		movs	r1, #0
 4515              	.LVL622:
 4516 010e 01E0     		b	.L341
 4517              	.LVL623:
 4518              	.L346:
 4519 0110 0131     		adds	r1, r1, #1
 4520              	.LVL624:
 4521 0112 C9B2     		uxtb	r1, r1
 4522              	.LVL625:
 4523              	.L341:
 4524 0114 9DF8C430 		ldrb	r3, [sp, #196]	@ zero_extendqisi2
 4525 0118 8B42     		cmp	r3, r1
 4526 011a 10D9     		bls	.L508
 4527              	.LBB1555:
 181:Core/Inc/utils/mat.h ****                                 matrix_[i][j] = num;
 4528              		.loc 5 181 0
 4529 011c 0023     		movs	r3, #0
 4530              	.L347:
 4531              	.LVL626:
 4532 011e 9DF8C520 		ldrb	r2, [sp, #197]	@ zero_extendqisi2
 4533 0122 9A42     		cmp	r2, r3
 4534 0124 F4D9     		bls	.L346
 4535              		.loc 5 182 0
 4536 0126 01EB4102 		add	r2, r1, r1, lsl #1
 4537 012a 1A44     		add	r2, r2, r3
 4538 012c 50A8     		add	r0, sp, #320
 4539 012e 00EB8202 		add	r2, r0, r2, lsl #2
 4540 0132 0020     		movs	r0, #0
 4541 0134 42F8A00C 		str	r0, [r2, #-160]	@ float
 181:Core/Inc/utils/mat.h ****                                 matrix_[i][j] = num;
 4542              		.loc 5 181 0
 4543 0138 0133     		adds	r3, r3, #1
 4544              	.LVL627:
ARM GAS  C:\Users\Prashant\AppData\Local\Temp\ccIdreTb.s 			page 98


 4545 013a DBB2     		uxtb	r3, r3
 4546              	.LVL628:
 4547 013c EFE7     		b	.L347
 4548              	.LVL629:
 4549              	.L508:
 4550              	.LBE1555:
 4551              	.LBE1554:
 4552              	.LBE1553:
 4553              	.LBB1556:
 183:Core/Inc/utils/mat.h ****                         }
 184:Core/Inc/utils/mat.h ****                 }
 185:Core/Inc/utils/mat.h ****         }
 186:Core/Inc/utils/mat.h **** 
 187:Core/Inc/utils/mat.h ****         static Mat ident(uint8_t n) {
 188:Core/Inc/utils/mat.h ****                 Mat I(n,n);
 189:Core/Inc/utils/mat.h ****                 I.fill(0);
 190:Core/Inc/utils/mat.h ****                 for (uint8_t i = 0; i < n; ++i) {
 4554              		.loc 5 190 0
 4555 013e 0023     		movs	r3, #0
 4556              	.LVL630:
 4557              	.L345:
 4558 0140 012B     		cmp	r3, #1
 4559 0142 09D8     		bhi	.L348
 191:Core/Inc/utils/mat.h ****                         I.matrix_[i][i] = 1;
 4560              		.loc 5 191 0
 4561 0144 50AA     		add	r2, sp, #320
 4562 0146 02EB0312 		add	r2, r2, r3, lsl #4
 4563 014a 4FF07E51 		mov	r1, #1065353216
 4564 014e 42F8A01C 		str	r1, [r2, #-160]	@ float
 190:Core/Inc/utils/mat.h ****                         I.matrix_[i][i] = 1;
 4565              		.loc 5 190 0
 4566 0152 0133     		adds	r3, r3, #1
 4567              	.LVL631:
 4568 0154 DBB2     		uxtb	r3, r3
 4569              	.LVL632:
 4570 0156 F3E7     		b	.L345
 4571              	.L348:
 4572              	.LVL633:
 4573              	.LBE1556:
 4574              	.LBE1546:
 4575              	.LBE1545:
 4576              	.LBB1557:
 4577              	.LBB1558:
 4578              	.LBB1559:
  27:Core/Inc/utils/mat.h ****                 cols_ = columns;
 4579              		.loc 5 27 0
 4580 0158 0223     		movs	r3, #2
 4581 015a 8DF89C30 		strb	r3, [sp, #156]
  28:Core/Inc/utils/mat.h **** 
 4582              		.loc 5 28 0
 4583 015e 8DF89D30 		strb	r3, [sp, #157]
 4584              	.LVL634:
 4585              	.LBB1560:
 4586              	.LBB1561:
 180:Core/Inc/utils/mat.h ****                         for (uint8_t j = 0; j < cols_; ++j) {
 4587              		.loc 5 180 0
 4588 0162 0021     		movs	r1, #0
ARM GAS  C:\Users\Prashant\AppData\Local\Temp\ccIdreTb.s 			page 99


 4589 0164 01E0     		b	.L352
 4590              	.LVL635:
 4591              	.L350:
 4592 0166 0131     		adds	r1, r1, #1
 4593              	.LVL636:
 4594 0168 C9B2     		uxtb	r1, r1
 4595              	.LVL637:
 4596              	.L352:
 4597 016a 0129     		cmp	r1, #1
 4598 016c 0ED8     		bhi	.L349
 4599              	.LBB1562:
 181:Core/Inc/utils/mat.h ****                                 matrix_[i][j] = num;
 4600              		.loc 5 181 0
 4601 016e 0023     		movs	r3, #0
 4602              	.L351:
 4603              	.LVL638:
 4604 0170 012B     		cmp	r3, #1
 4605 0172 F8D8     		bhi	.L350
 182:Core/Inc/utils/mat.h ****                         }
 4606              		.loc 5 182 0
 4607 0174 01EB4102 		add	r2, r1, r1, lsl #1
 4608 0178 1A44     		add	r2, r2, r3
 4609 017a 50A8     		add	r0, sp, #320
 4610 017c 00EB8202 		add	r2, r0, r2, lsl #2
 4611 0180 0020     		movs	r0, #0
 4612 0182 42F8C80C 		str	r0, [r2, #-200]	@ float
 181:Core/Inc/utils/mat.h ****                                 matrix_[i][j] = num;
 4613              		.loc 5 181 0
 4614 0186 0133     		adds	r3, r3, #1
 4615              	.LVL639:
 4616 0188 DBB2     		uxtb	r3, r3
 4617              	.LVL640:
 4618 018a F1E7     		b	.L351
 4619              	.LVL641:
 4620              	.L349:
 4621              	.LBE1562:
 4622              	.LBE1561:
 4623              	.LBE1560:
 4624              	.LBE1559:
 4625              	.LBE1558:
 4626              	.LBE1557:
  65:Core/Src/robot/robo_init.cpp **** 
  66:Core/Src/robot/robo_init.cpp ****         Mat eye(Mat::ident(2));
  67:Core/Src/robot/robo_init.cpp **** 
  68:Core/Src/robot/robo_init.cpp ****         Mat priori_error(2,2);
  69:Core/Src/robot/robo_init.cpp ****         priori_error.at(0,0) = 10;
 4627              		.loc 6 69 0
 4628 018c 604B     		ldr	r3, .L510+4
 4629 018e 1E93     		str	r3, [sp, #120]	@ float
  70:Core/Src/robot/robo_init.cpp ****         priori_error.at(0,1) = 0;
 4630              		.loc 6 70 0
 4631 0190 0022     		movs	r2, #0
 4632 0192 1F92     		str	r2, [sp, #124]	@ float
  71:Core/Src/robot/robo_init.cpp ****         priori_error.at(1,0) = 0;
 4633              		.loc 6 71 0
 4634 0194 2192     		str	r2, [sp, #132]	@ float
  72:Core/Src/robot/robo_init.cpp ****         priori_error.at(1,1) = 10;
ARM GAS  C:\Users\Prashant\AppData\Local\Temp\ccIdreTb.s 			page 100


 4635              		.loc 6 72 0
 4636 0196 2293     		str	r3, [sp, #136]	@ float
 4637              	.LVL642:
 4638              	.LBB1563:
 4639              	.LBB1564:
 4640              	.LBB1565:
  27:Core/Inc/utils/mat.h ****                 cols_ = columns;
 4641              		.loc 5 27 0
 4642 0198 0223     		movs	r3, #2
 4643 019a 8DF87430 		strb	r3, [sp, #116]
  28:Core/Inc/utils/mat.h **** 
 4644              		.loc 5 28 0
 4645 019e 8DF87530 		strb	r3, [sp, #117]
 4646              	.LVL643:
 4647              	.LBB1566:
 4648              	.LBB1567:
 180:Core/Inc/utils/mat.h ****                         for (uint8_t j = 0; j < cols_; ++j) {
 4649              		.loc 5 180 0
 4650 01a2 0021     		movs	r1, #0
 4651 01a4 01E0     		b	.L356
 4652              	.LVL644:
 4653              	.L354:
 4654 01a6 0131     		adds	r1, r1, #1
 4655              	.LVL645:
 4656 01a8 C9B2     		uxtb	r1, r1
 4657              	.LVL646:
 4658              	.L356:
 4659 01aa 0129     		cmp	r1, #1
 4660 01ac 0ED8     		bhi	.L353
 4661              	.LBB1568:
 181:Core/Inc/utils/mat.h ****                                 matrix_[i][j] = num;
 4662              		.loc 5 181 0
 4663 01ae 0023     		movs	r3, #0
 4664              	.L355:
 4665              	.LVL647:
 4666 01b0 012B     		cmp	r3, #1
 4667 01b2 F8D8     		bhi	.L354
 182:Core/Inc/utils/mat.h ****                         }
 4668              		.loc 5 182 0
 4669 01b4 01EB4102 		add	r2, r1, r1, lsl #1
 4670 01b8 1A44     		add	r2, r2, r3
 4671 01ba 50A8     		add	r0, sp, #320
 4672 01bc 00EB8202 		add	r2, r0, r2, lsl #2
 4673 01c0 0020     		movs	r0, #0
 4674 01c2 42F8F00C 		str	r0, [r2, #-240]	@ float
 181:Core/Inc/utils/mat.h ****                                 matrix_[i][j] = num;
 4675              		.loc 5 181 0
 4676 01c6 0133     		adds	r3, r3, #1
 4677              	.LVL648:
 4678 01c8 DBB2     		uxtb	r3, r3
 4679              	.LVL649:
 4680 01ca F1E7     		b	.L355
 4681              	.LVL650:
 4682              	.L353:
 4683              	.LBE1568:
 4684              	.LBE1567:
 4685              	.LBE1566:
ARM GAS  C:\Users\Prashant\AppData\Local\Temp\ccIdreTb.s 			page 101


 4686              	.LBE1565:
 4687              	.LBE1564:
 4688              	.LBE1563:
  73:Core/Src/robot/robo_init.cpp **** 
  74:Core/Src/robot/robo_init.cpp ****         Mat process_error(2,2);
  75:Core/Src/robot/robo_init.cpp ****         process_error.at(0,0) = 0.001;
 4689              		.loc 6 75 0
 4690 01cc 514B     		ldr	r3, .L510+8
 4691 01ce 1493     		str	r3, [sp, #80]	@ float
  76:Core/Src/robot/robo_init.cpp ****         process_error.at(0,1) = 0;
 4692              		.loc 6 76 0
 4693 01d0 0023     		movs	r3, #0
 4694 01d2 1593     		str	r3, [sp, #84]	@ float
  77:Core/Src/robot/robo_init.cpp ****         process_error.at(1,0) = 0;
 4695              		.loc 6 77 0
 4696 01d4 1793     		str	r3, [sp, #92]	@ float
  78:Core/Src/robot/robo_init.cpp ****         process_error.at(1,1) = 0.003;
 4697              		.loc 6 78 0
 4698 01d6 504B     		ldr	r3, .L510+12
 4699 01d8 1893     		str	r3, [sp, #96]	@ float
 4700              	.LVL651:
 4701              	.LBB1569:
 4702              	.LBB1570:
 4703              	.LBB1571:
  27:Core/Inc/utils/mat.h ****                 cols_ = columns;
 4704              		.loc 5 27 0
 4705 01da 0123     		movs	r3, #1
 4706 01dc 8DF84C30 		strb	r3, [sp, #76]
  28:Core/Inc/utils/mat.h **** 
 4707              		.loc 5 28 0
 4708 01e0 8DF84D30 		strb	r3, [sp, #77]
 4709              	.LVL652:
 4710              	.LBB1572:
 4711              	.LBB1573:
 180:Core/Inc/utils/mat.h ****                         for (uint8_t j = 0; j < cols_; ++j) {
 4712              		.loc 5 180 0
 4713 01e4 0023     		movs	r3, #0
 4714              	.LVL653:
 4715              	.L360:
 4716 01e6 7BB9     		cbnz	r3, .L357
 4717              	.LBB1574:
 181:Core/Inc/utils/mat.h ****                                 matrix_[i][j] = num;
 4718              		.loc 5 181 0
 4719 01e8 1A46     		mov	r2, r3
 4720              	.L359:
 4721              	.LVL654:
 4722 01ea 52B9     		cbnz	r2, .L358
 182:Core/Inc/utils/mat.h ****                         }
 4723              		.loc 5 182 0
 4724 01ec 03EB4301 		add	r1, r3, r3, lsl #1
 4725 01f0 1144     		add	r1, r1, r2
 4726 01f2 0AA8     		add	r0, sp, #40
 4727              	.LVL655:
 4728 01f4 00EB8101 		add	r1, r0, r1, lsl #2
 4729 01f8 0020     		movs	r0, #0
 4730              	.LVL656:
 4731 01fa 0860     		str	r0, [r1]	@ float
ARM GAS  C:\Users\Prashant\AppData\Local\Temp\ccIdreTb.s 			page 102


 181:Core/Inc/utils/mat.h ****                                 matrix_[i][j] = num;
 4732              		.loc 5 181 0
 4733 01fc 0132     		adds	r2, r2, #1
 4734              	.LVL657:
 4735 01fe D2B2     		uxtb	r2, r2
 4736              	.LVL658:
 4737 0200 F3E7     		b	.L359
 4738              	.L358:
 4739              	.LBE1574:
 180:Core/Inc/utils/mat.h ****                         for (uint8_t j = 0; j < cols_; ++j) {
 4740              		.loc 5 180 0
 4741 0202 0133     		adds	r3, r3, #1
 4742              	.LVL659:
 4743 0204 DBB2     		uxtb	r3, r3
 4744              	.LVL660:
 4745 0206 EEE7     		b	.L360
 4746              	.LVL661:
 4747              	.L357:
 4748              	.LBE1573:
 4749              	.LBE1572:
 4750              	.LBE1571:
 4751              	.LBE1570:
 4752              	.LBE1569:
  79:Core/Src/robot/robo_init.cpp ****         
  80:Core/Src/robot/robo_init.cpp ****         Mat measure_error(1,1);
  81:Core/Src/robot/robo_init.cpp ****         measure_error.at(0,0) = 0.04;
 4753              		.loc 6 81 0
 4754 0208 444B     		ldr	r3, .L510+16
 4755 020a 0A93     		str	r3, [sp, #40]	@ float
 4756              	.LVL662:
 4757              	.LBB1575:
 4758              	.LBB1576:
 4759              	.LBB1577:
 4760              	.LBB1578:
 4761              	.LBB1579:
 4762              	.LBB1580:
  54:Core/Inc/utils/mat.h ****                 cols_ = m.cols_;
 4763              		.loc 5 54 0
 4764 020c 9DF83C31 		ldrb	r3, [sp, #316]	@ zero_extendqisi2
 4765 0210 8DF82430 		strb	r3, [sp, #36]
  55:Core/Inc/utils/mat.h ****                 
 4766              		.loc 5 55 0
 4767 0214 9DF83D31 		ldrb	r3, [sp, #317]	@ zero_extendqisi2
 4768 0218 8DF82530 		strb	r3, [sp, #37]
 4769              	.LVL663:
 4770              	.LBB1581:
  57:Core/Inc/utils/mat.h ****                         for (uint8_t j = 0; j < MAX_MATRIX_COLS; ++j) {
 4771              		.loc 5 57 0
 4772 021c 0021     		movs	r1, #0
 4773 021e 01E0     		b	.L364
 4774              	.LVL664:
 4775              	.L362:
 4776 0220 0131     		adds	r1, r1, #1
 4777              	.LVL665:
 4778 0222 C9B2     		uxtb	r1, r1
 4779              	.LVL666:
 4780              	.L364:
ARM GAS  C:\Users\Prashant\AppData\Local\Temp\ccIdreTb.s 			page 103


 4781 0224 0229     		cmp	r1, #2
 4782 0226 0FD8     		bhi	.L361
 4783              	.LBB1582:
  58:Core/Inc/utils/mat.h ****                                 matrix_[i][j] = m.matrix_[i][j];
 4784              		.loc 5 58 0
 4785 0228 0022     		movs	r2, #0
 4786              	.L363:
 4787              	.LVL667:
 4788 022a 022A     		cmp	r2, #2
 4789 022c F8D8     		bhi	.L362
  59:Core/Inc/utils/mat.h ****                         }
 4790              		.loc 5 59 0
 4791 022e 01EB4103 		add	r3, r1, r1, lsl #1
 4792 0232 1344     		add	r3, r3, r2
 4793 0234 9B00     		lsls	r3, r3, #2
 4794 0236 50A8     		add	r0, sp, #320
 4795 0238 1844     		add	r0, r0, r3
 4796 023a 50F8280C 		ldr	r0, [r0, #-40]	@ float
 4797 023e 6B44     		add	r3, r3, sp
 4798 0240 1860     		str	r0, [r3]	@ float
  58:Core/Inc/utils/mat.h ****                                 matrix_[i][j] = m.matrix_[i][j];
 4799              		.loc 5 58 0
 4800 0242 0132     		adds	r2, r2, #1
 4801              	.LVL668:
 4802 0244 D2B2     		uxtb	r2, r2
 4803              	.LVL669:
 4804 0246 F0E7     		b	.L363
 4805              	.LVL670:
 4806              	.L361:
 4807              	.LBE1582:
 4808              	.LBE1581:
 4809              	.LBE1580:
 4810              	.LBE1579:
 4811              	.LBE1578:
 4812              	.LBB1583:
 4813              	.LBB1584:
  44:Core/Inc/utils/mat.h ****                 swap_Element(first.cols_, second.cols_);
 4814              		.loc 5 44 0
 4815 0248 354C     		ldr	r4, .L510+20
 4816 024a 09A9     		add	r1, sp, #36
 4817 024c 04F12400 		add	r0, r4, #36
 4818 0250 FFF7FEFF 		bl	_Z12swap_ElementIhEvRT_S1_
 4819              	.LVL671:
  45:Core/Inc/utils/mat.h ****                 for (uint8_t i = 0; i < MAX_MATRIX_ROWS; ++i) {
 4820              		.loc 5 45 0
 4821 0254 0DF12501 		add	r1, sp, #37
 4822 0258 04F12500 		add	r0, r4, #37
 4823 025c FFF7FEFF 		bl	_Z12swap_ElementIhEvRT_S1_
 4824              	.LVL672:
 4825              	.LBB1585:
  46:Core/Inc/utils/mat.h ****                         for (uint8_t j = 0; j < MAX_MATRIX_COLS; ++j) {
 4826              		.loc 5 46 0
 4827 0260 0025     		movs	r5, #0
 4828 0262 01E0     		b	.L368
 4829              	.LVL673:
 4830              	.L366:
 4831 0264 0135     		adds	r5, r5, #1
ARM GAS  C:\Users\Prashant\AppData\Local\Temp\ccIdreTb.s 			page 104


 4832              	.LVL674:
 4833 0266 EDB2     		uxtb	r5, r5
 4834              	.LVL675:
 4835              	.L368:
 4836 0268 022D     		cmp	r5, #2
 4837 026a 0FD8     		bhi	.L365
 4838              	.LBB1586:
  47:Core/Inc/utils/mat.h ****                                 swap_Element(first.matrix_[i][j], second.matrix_[i][j]);
 4839              		.loc 5 47 0
 4840 026c 0024     		movs	r4, #0
 4841              	.L367:
 4842              	.LVL676:
 4843 026e 022C     		cmp	r4, #2
 4844 0270 F8D8     		bhi	.L366
  48:Core/Inc/utils/mat.h ****                         }
 4845              		.loc 5 48 0
 4846 0272 05EB4503 		add	r3, r5, r5, lsl #1
 4847 0276 2344     		add	r3, r3, r4
 4848 0278 9B00     		lsls	r3, r3, #2
 4849 027a 0DEB0301 		add	r1, sp, r3
 4850 027e 2848     		ldr	r0, .L510+20
 4851 0280 1844     		add	r0, r0, r3
 4852 0282 FFF7FEFF 		bl	_Z12swap_ElementIfEvRT_S1_
 4853              	.LVL677:
  47:Core/Inc/utils/mat.h ****                                 swap_Element(first.matrix_[i][j], second.matrix_[i][j]);
 4854              		.loc 5 47 0
 4855 0286 0134     		adds	r4, r4, #1
 4856              	.LVL678:
 4857 0288 E4B2     		uxtb	r4, r4
 4858              	.LVL679:
 4859 028a F0E7     		b	.L367
 4860              	.LVL680:
 4861              	.L365:
 4862              	.LBE1586:
 4863              	.LBE1585:
 4864              	.LBE1584:
 4865              	.LBE1583:
 4866              	.LBE1577:
 4867              	.LBE1576:
 4868              	.LBE1575:
 4869              	.LBB1587:
 4870              	.LBB1588:
 4871              	.LBB1589:
 4872              	.LBB1590:
 4873              	.LBB1591:
 4874              	.LBB1592:
  54:Core/Inc/utils/mat.h ****                 cols_ = m.cols_;
 4875              		.loc 5 54 0
 4876 028c 9DF81431 		ldrb	r3, [sp, #276]	@ zero_extendqisi2
 4877 0290 8DF82430 		strb	r3, [sp, #36]
  55:Core/Inc/utils/mat.h ****                 
 4878              		.loc 5 55 0
 4879 0294 9DF81531 		ldrb	r3, [sp, #277]	@ zero_extendqisi2
 4880 0298 8DF82530 		strb	r3, [sp, #37]
 4881              	.LVL681:
 4882              	.LBB1593:
  57:Core/Inc/utils/mat.h ****                         for (uint8_t j = 0; j < MAX_MATRIX_COLS; ++j) {
ARM GAS  C:\Users\Prashant\AppData\Local\Temp\ccIdreTb.s 			page 105


 4883              		.loc 5 57 0
 4884 029c 0021     		movs	r1, #0
 4885 029e 01E0     		b	.L372
 4886              	.LVL682:
 4887              	.L370:
 4888 02a0 0131     		adds	r1, r1, #1
 4889              	.LVL683:
 4890 02a2 C9B2     		uxtb	r1, r1
 4891              	.LVL684:
 4892              	.L372:
 4893 02a4 0229     		cmp	r1, #2
 4894 02a6 0FD8     		bhi	.L369
 4895              	.LBB1594:
  58:Core/Inc/utils/mat.h ****                                 matrix_[i][j] = m.matrix_[i][j];
 4896              		.loc 5 58 0
 4897 02a8 0022     		movs	r2, #0
 4898              	.L371:
 4899              	.LVL685:
 4900 02aa 022A     		cmp	r2, #2
 4901 02ac F8D8     		bhi	.L370
  59:Core/Inc/utils/mat.h ****                         }
 4902              		.loc 5 59 0
 4903 02ae 01EB4103 		add	r3, r1, r1, lsl #1
 4904 02b2 1344     		add	r3, r3, r2
 4905 02b4 9B00     		lsls	r3, r3, #2
 4906 02b6 50A8     		add	r0, sp, #320
 4907 02b8 1844     		add	r0, r0, r3
 4908 02ba 50F8500C 		ldr	r0, [r0, #-80]	@ float
 4909 02be 6B44     		add	r3, r3, sp
 4910 02c0 1860     		str	r0, [r3]	@ float
  58:Core/Inc/utils/mat.h ****                                 matrix_[i][j] = m.matrix_[i][j];
 4911              		.loc 5 58 0
 4912 02c2 0132     		adds	r2, r2, #1
 4913              	.LVL686:
 4914 02c4 D2B2     		uxtb	r2, r2
 4915              	.LVL687:
 4916 02c6 F0E7     		b	.L371
 4917              	.LVL688:
 4918              	.L369:
 4919              	.LBE1594:
 4920              	.LBE1593:
 4921              	.LBE1592:
 4922              	.LBE1591:
 4923              	.LBE1590:
 4924              	.LBB1595:
 4925              	.LBB1596:
  44:Core/Inc/utils/mat.h ****                 swap_Element(first.cols_, second.cols_);
 4926              		.loc 5 44 0
 4927 02c8 154C     		ldr	r4, .L510+20
 4928 02ca 09A9     		add	r1, sp, #36
 4929 02cc 04F14C00 		add	r0, r4, #76
 4930 02d0 FFF7FEFF 		bl	_Z12swap_ElementIhEvRT_S1_
 4931              	.LVL689:
  45:Core/Inc/utils/mat.h ****                 for (uint8_t i = 0; i < MAX_MATRIX_ROWS; ++i) {
 4932              		.loc 5 45 0
 4933 02d4 0DF12501 		add	r1, sp, #37
 4934 02d8 04F14D00 		add	r0, r4, #77
ARM GAS  C:\Users\Prashant\AppData\Local\Temp\ccIdreTb.s 			page 106


 4935 02dc FFF7FEFF 		bl	_Z12swap_ElementIhEvRT_S1_
 4936              	.LVL690:
 4937              	.LBB1597:
  46:Core/Inc/utils/mat.h ****                         for (uint8_t j = 0; j < MAX_MATRIX_COLS; ++j) {
 4938              		.loc 5 46 0
 4939 02e0 0025     		movs	r5, #0
 4940 02e2 01E0     		b	.L376
 4941              	.LVL691:
 4942              	.L374:
 4943 02e4 0135     		adds	r5, r5, #1
 4944              	.LVL692:
 4945 02e6 EDB2     		uxtb	r5, r5
 4946              	.LVL693:
 4947              	.L376:
 4948 02e8 022D     		cmp	r5, #2
 4949 02ea 1BD8     		bhi	.L373
 4950              	.LBB1598:
  47:Core/Inc/utils/mat.h ****                                 swap_Element(first.matrix_[i][j], second.matrix_[i][j]);
 4951              		.loc 5 47 0
 4952 02ec 0024     		movs	r4, #0
 4953              	.L375:
 4954              	.LVL694:
 4955 02ee 022C     		cmp	r4, #2
 4956 02f0 F8D8     		bhi	.L374
  48:Core/Inc/utils/mat.h ****                         }
 4957              		.loc 5 48 0
 4958 02f2 05EB4501 		add	r1, r5, r5, lsl #1
 4959 02f6 2144     		add	r1, r1, r4
 4960 02f8 8900     		lsls	r1, r1, #2
 4961 02fa 0948     		ldr	r0, .L510+20
 4962 02fc 0844     		add	r0, r0, r1
 4963 02fe 6944     		add	r1, r1, sp
 4964 0300 2830     		adds	r0, r0, #40
 4965 0302 FFF7FEFF 		bl	_Z12swap_ElementIfEvRT_S1_
 4966              	.LVL695:
  47:Core/Inc/utils/mat.h ****                                 swap_Element(first.matrix_[i][j], second.matrix_[i][j]);
 4967              		.loc 5 47 0
 4968 0306 0134     		adds	r4, r4, #1
 4969              	.LVL696:
 4970 0308 E4B2     		uxtb	r4, r4
 4971              	.LVL697:
 4972 030a F0E7     		b	.L375
 4973              	.L511:
 4974              		.align	2
 4975              	.L510:
 4976 030c 00007A44 		.word	1148846080
 4977 0310 00002041 		.word	1092616192
 4978 0314 6F12833A 		.word	981668463
 4979 0318 A69B443B 		.word	994352038
 4980 031c 0AD7233D 		.word	1025758986
 4981 0320 00000000 		.word	.LANCHOR0
 4982              	.LVL698:
 4983              	.L373:
 4984              	.LBE1598:
 4985              	.LBE1597:
 4986              	.LBE1596:
 4987              	.LBE1595:
ARM GAS  C:\Users\Prashant\AppData\Local\Temp\ccIdreTb.s 			page 107


 4988              	.LBE1589:
 4989              	.LBE1588:
 4990              	.LBE1587:
 4991              	.LBB1599:
 4992              	.LBB1600:
 4993              	.LBB1601:
 4994              	.LBB1602:
 4995              	.LBB1603:
 4996              	.LBB1604:
  54:Core/Inc/utils/mat.h ****                 cols_ = m.cols_;
 4997              		.loc 5 54 0
 4998 0324 9DF8EC30 		ldrb	r3, [sp, #236]	@ zero_extendqisi2
 4999 0328 8DF82430 		strb	r3, [sp, #36]
  55:Core/Inc/utils/mat.h ****                 
 5000              		.loc 5 55 0
 5001 032c 9DF8ED30 		ldrb	r3, [sp, #237]	@ zero_extendqisi2
 5002 0330 8DF82530 		strb	r3, [sp, #37]
 5003              	.LVL699:
 5004              	.LBB1605:
  57:Core/Inc/utils/mat.h ****                         for (uint8_t j = 0; j < MAX_MATRIX_COLS; ++j) {
 5005              		.loc 5 57 0
 5006 0334 0021     		movs	r1, #0
 5007 0336 01E0     		b	.L380
 5008              	.LVL700:
 5009              	.L378:
 5010 0338 0131     		adds	r1, r1, #1
 5011              	.LVL701:
 5012 033a C9B2     		uxtb	r1, r1
 5013              	.LVL702:
 5014              	.L380:
 5015 033c 0229     		cmp	r1, #2
 5016 033e 0FD8     		bhi	.L377
 5017              	.LBB1606:
  58:Core/Inc/utils/mat.h ****                                 matrix_[i][j] = m.matrix_[i][j];
 5018              		.loc 5 58 0
 5019 0340 0022     		movs	r2, #0
 5020              	.L379:
 5021              	.LVL703:
 5022 0342 022A     		cmp	r2, #2
 5023 0344 F8D8     		bhi	.L378
  59:Core/Inc/utils/mat.h ****                         }
 5024              		.loc 5 59 0
 5025 0346 01EB4103 		add	r3, r1, r1, lsl #1
 5026 034a 1344     		add	r3, r3, r2
 5027 034c 9B00     		lsls	r3, r3, #2
 5028 034e 50A8     		add	r0, sp, #320
 5029 0350 1844     		add	r0, r0, r3
 5030 0352 50F8780C 		ldr	r0, [r0, #-120]	@ float
 5031 0356 6B44     		add	r3, r3, sp
 5032 0358 1860     		str	r0, [r3]	@ float
  58:Core/Inc/utils/mat.h ****                                 matrix_[i][j] = m.matrix_[i][j];
 5033              		.loc 5 58 0
 5034 035a 0132     		adds	r2, r2, #1
 5035              	.LVL704:
 5036 035c D2B2     		uxtb	r2, r2
 5037              	.LVL705:
 5038 035e F0E7     		b	.L379
ARM GAS  C:\Users\Prashant\AppData\Local\Temp\ccIdreTb.s 			page 108


 5039              	.LVL706:
 5040              	.L377:
 5041              	.LBE1606:
 5042              	.LBE1605:
 5043              	.LBE1604:
 5044              	.LBE1603:
 5045              	.LBE1602:
 5046              	.LBB1607:
 5047              	.LBB1608:
  44:Core/Inc/utils/mat.h ****                 swap_Element(first.cols_, second.cols_);
 5048              		.loc 5 44 0
 5049 0360 904C     		ldr	r4, .L512
 5050 0362 09A9     		add	r1, sp, #36
 5051 0364 04F17400 		add	r0, r4, #116
 5052 0368 FFF7FEFF 		bl	_Z12swap_ElementIhEvRT_S1_
 5053              	.LVL707:
  45:Core/Inc/utils/mat.h ****                 for (uint8_t i = 0; i < MAX_MATRIX_ROWS; ++i) {
 5054              		.loc 5 45 0
 5055 036c 0DF12501 		add	r1, sp, #37
 5056 0370 04F17500 		add	r0, r4, #117
 5057 0374 FFF7FEFF 		bl	_Z12swap_ElementIhEvRT_S1_
 5058              	.LVL708:
 5059              	.LBB1609:
  46:Core/Inc/utils/mat.h ****                         for (uint8_t j = 0; j < MAX_MATRIX_COLS; ++j) {
 5060              		.loc 5 46 0
 5061 0378 0025     		movs	r5, #0
 5062 037a 01E0     		b	.L384
 5063              	.LVL709:
 5064              	.L382:
 5065 037c 0135     		adds	r5, r5, #1
 5066              	.LVL710:
 5067 037e EDB2     		uxtb	r5, r5
 5068              	.LVL711:
 5069              	.L384:
 5070 0380 022D     		cmp	r5, #2
 5071 0382 0FD8     		bhi	.L381
 5072              	.LBB1610:
  47:Core/Inc/utils/mat.h ****                                 swap_Element(first.matrix_[i][j], second.matrix_[i][j]);
 5073              		.loc 5 47 0
 5074 0384 0024     		movs	r4, #0
 5075              	.L383:
 5076              	.LVL712:
 5077 0386 022C     		cmp	r4, #2
 5078 0388 F8D8     		bhi	.L382
  48:Core/Inc/utils/mat.h ****                         }
 5079              		.loc 5 48 0
 5080 038a 05EB4501 		add	r1, r5, r5, lsl #1
 5081 038e 2144     		add	r1, r1, r4
 5082 0390 8900     		lsls	r1, r1, #2
 5083 0392 8448     		ldr	r0, .L512
 5084 0394 0844     		add	r0, r0, r1
 5085 0396 6944     		add	r1, r1, sp
 5086 0398 5030     		adds	r0, r0, #80
 5087 039a FFF7FEFF 		bl	_Z12swap_ElementIfEvRT_S1_
 5088              	.LVL713:
  47:Core/Inc/utils/mat.h ****                                 swap_Element(first.matrix_[i][j], second.matrix_[i][j]);
 5089              		.loc 5 47 0
ARM GAS  C:\Users\Prashant\AppData\Local\Temp\ccIdreTb.s 			page 109


 5090 039e 0134     		adds	r4, r4, #1
 5091              	.LVL714:
 5092 03a0 E4B2     		uxtb	r4, r4
 5093              	.LVL715:
 5094 03a2 F0E7     		b	.L383
 5095              	.LVL716:
 5096              	.L381:
 5097              	.LBE1610:
 5098              	.LBE1609:
 5099              	.LBE1608:
 5100              	.LBE1607:
 5101              	.LBE1601:
 5102              	.LBE1600:
 5103              	.LBE1599:
 5104              	.LBB1611:
 5105              	.LBB1612:
 5106              	.LBB1613:
 5107              	.LBB1614:
 5108              	.LBB1615:
 5109              	.LBB1616:
  54:Core/Inc/utils/mat.h ****                 cols_ = m.cols_;
 5110              		.loc 5 54 0
 5111 03a4 9DF8C430 		ldrb	r3, [sp, #196]	@ zero_extendqisi2
 5112 03a8 8DF82430 		strb	r3, [sp, #36]
  55:Core/Inc/utils/mat.h ****                 
 5113              		.loc 5 55 0
 5114 03ac 9DF8C530 		ldrb	r3, [sp, #197]	@ zero_extendqisi2
 5115 03b0 8DF82530 		strb	r3, [sp, #37]
 5116              	.LVL717:
 5117              	.LBB1617:
  57:Core/Inc/utils/mat.h ****                         for (uint8_t j = 0; j < MAX_MATRIX_COLS; ++j) {
 5118              		.loc 5 57 0
 5119 03b4 0021     		movs	r1, #0
 5120 03b6 01E0     		b	.L388
 5121              	.LVL718:
 5122              	.L386:
 5123 03b8 0131     		adds	r1, r1, #1
 5124              	.LVL719:
 5125 03ba C9B2     		uxtb	r1, r1
 5126              	.LVL720:
 5127              	.L388:
 5128 03bc 0229     		cmp	r1, #2
 5129 03be 0FD8     		bhi	.L385
 5130              	.LBB1618:
  58:Core/Inc/utils/mat.h ****                                 matrix_[i][j] = m.matrix_[i][j];
 5131              		.loc 5 58 0
 5132 03c0 0022     		movs	r2, #0
 5133              	.L387:
 5134              	.LVL721:
 5135 03c2 022A     		cmp	r2, #2
 5136 03c4 F8D8     		bhi	.L386
  59:Core/Inc/utils/mat.h ****                         }
 5137              		.loc 5 59 0
 5138 03c6 01EB4103 		add	r3, r1, r1, lsl #1
 5139 03ca 1344     		add	r3, r3, r2
 5140 03cc 9B00     		lsls	r3, r3, #2
 5141 03ce 50A8     		add	r0, sp, #320
ARM GAS  C:\Users\Prashant\AppData\Local\Temp\ccIdreTb.s 			page 110


 5142 03d0 1844     		add	r0, r0, r3
 5143 03d2 50F8A00C 		ldr	r0, [r0, #-160]	@ float
 5144 03d6 6B44     		add	r3, r3, sp
 5145 03d8 1860     		str	r0, [r3]	@ float
  58:Core/Inc/utils/mat.h ****                                 matrix_[i][j] = m.matrix_[i][j];
 5146              		.loc 5 58 0
 5147 03da 0132     		adds	r2, r2, #1
 5148              	.LVL722:
 5149 03dc D2B2     		uxtb	r2, r2
 5150              	.LVL723:
 5151 03de F0E7     		b	.L387
 5152              	.LVL724:
 5153              	.L385:
 5154              	.LBE1618:
 5155              	.LBE1617:
 5156              	.LBE1616:
 5157              	.LBE1615:
 5158              	.LBE1614:
 5159              	.LBB1619:
 5160              	.LBB1620:
  44:Core/Inc/utils/mat.h ****                 swap_Element(first.cols_, second.cols_);
 5161              		.loc 5 44 0
 5162 03e0 704C     		ldr	r4, .L512
 5163 03e2 09A9     		add	r1, sp, #36
 5164 03e4 04F19C00 		add	r0, r4, #156
 5165 03e8 FFF7FEFF 		bl	_Z12swap_ElementIhEvRT_S1_
 5166              	.LVL725:
  45:Core/Inc/utils/mat.h ****                 for (uint8_t i = 0; i < MAX_MATRIX_ROWS; ++i) {
 5167              		.loc 5 45 0
 5168 03ec 0DF12501 		add	r1, sp, #37
 5169 03f0 04F19D00 		add	r0, r4, #157
 5170 03f4 FFF7FEFF 		bl	_Z12swap_ElementIhEvRT_S1_
 5171              	.LVL726:
 5172              	.LBB1621:
  46:Core/Inc/utils/mat.h ****                         for (uint8_t j = 0; j < MAX_MATRIX_COLS; ++j) {
 5173              		.loc 5 46 0
 5174 03f8 0025     		movs	r5, #0
 5175 03fa 01E0     		b	.L392
 5176              	.LVL727:
 5177              	.L390:
 5178 03fc 0135     		adds	r5, r5, #1
 5179              	.LVL728:
 5180 03fe EDB2     		uxtb	r5, r5
 5181              	.LVL729:
 5182              	.L392:
 5183 0400 022D     		cmp	r5, #2
 5184 0402 0FD8     		bhi	.L389
 5185              	.LBB1622:
  47:Core/Inc/utils/mat.h ****                                 swap_Element(first.matrix_[i][j], second.matrix_[i][j]);
 5186              		.loc 5 47 0
 5187 0404 0024     		movs	r4, #0
 5188              	.L391:
 5189              	.LVL730:
 5190 0406 022C     		cmp	r4, #2
 5191 0408 F8D8     		bhi	.L390
  48:Core/Inc/utils/mat.h ****                         }
 5192              		.loc 5 48 0
ARM GAS  C:\Users\Prashant\AppData\Local\Temp\ccIdreTb.s 			page 111


 5193 040a 05EB4501 		add	r1, r5, r5, lsl #1
 5194 040e 2144     		add	r1, r1, r4
 5195 0410 8900     		lsls	r1, r1, #2
 5196 0412 6448     		ldr	r0, .L512
 5197 0414 0844     		add	r0, r0, r1
 5198 0416 6944     		add	r1, r1, sp
 5199 0418 7830     		adds	r0, r0, #120
 5200 041a FFF7FEFF 		bl	_Z12swap_ElementIfEvRT_S1_
 5201              	.LVL731:
  47:Core/Inc/utils/mat.h ****                                 swap_Element(first.matrix_[i][j], second.matrix_[i][j]);
 5202              		.loc 5 47 0
 5203 041e 0134     		adds	r4, r4, #1
 5204              	.LVL732:
 5205 0420 E4B2     		uxtb	r4, r4
 5206              	.LVL733:
 5207 0422 F0E7     		b	.L391
 5208              	.LVL734:
 5209              	.L389:
 5210              	.LBE1622:
 5211              	.LBE1621:
 5212              	.LBE1620:
 5213              	.LBE1619:
 5214              	.LBE1613:
 5215              	.LBE1612:
 5216              	.LBE1611:
 5217              	.LBB1623:
 5218              	.LBB1624:
 5219              	.LBB1625:
 5220              	.LBB1626:
 5221              	.LBB1627:
 5222              	.LBB1628:
  54:Core/Inc/utils/mat.h ****                 cols_ = m.cols_;
 5223              		.loc 5 54 0
 5224 0424 9DF89C30 		ldrb	r3, [sp, #156]	@ zero_extendqisi2
 5225 0428 8DF82430 		strb	r3, [sp, #36]
  55:Core/Inc/utils/mat.h ****                 
 5226              		.loc 5 55 0
 5227 042c 9DF89D30 		ldrb	r3, [sp, #157]	@ zero_extendqisi2
 5228 0430 8DF82530 		strb	r3, [sp, #37]
 5229              	.LVL735:
 5230              	.LBB1629:
  57:Core/Inc/utils/mat.h ****                         for (uint8_t j = 0; j < MAX_MATRIX_COLS; ++j) {
 5231              		.loc 5 57 0
 5232 0434 0021     		movs	r1, #0
 5233 0436 01E0     		b	.L396
 5234              	.LVL736:
 5235              	.L394:
 5236 0438 0131     		adds	r1, r1, #1
 5237              	.LVL737:
 5238 043a C9B2     		uxtb	r1, r1
 5239              	.LVL738:
 5240              	.L396:
 5241 043c 0229     		cmp	r1, #2
 5242 043e 0FD8     		bhi	.L393
 5243              	.LBB1630:
  58:Core/Inc/utils/mat.h ****                                 matrix_[i][j] = m.matrix_[i][j];
 5244              		.loc 5 58 0
ARM GAS  C:\Users\Prashant\AppData\Local\Temp\ccIdreTb.s 			page 112


 5245 0440 0022     		movs	r2, #0
 5246              	.L395:
 5247              	.LVL739:
 5248 0442 022A     		cmp	r2, #2
 5249 0444 F8D8     		bhi	.L394
  59:Core/Inc/utils/mat.h ****                         }
 5250              		.loc 5 59 0
 5251 0446 01EB4103 		add	r3, r1, r1, lsl #1
 5252 044a 1344     		add	r3, r3, r2
 5253 044c 9B00     		lsls	r3, r3, #2
 5254 044e 50A8     		add	r0, sp, #320
 5255 0450 1844     		add	r0, r0, r3
 5256 0452 50F8C80C 		ldr	r0, [r0, #-200]	@ float
 5257 0456 6B44     		add	r3, r3, sp
 5258 0458 1860     		str	r0, [r3]	@ float
  58:Core/Inc/utils/mat.h ****                                 matrix_[i][j] = m.matrix_[i][j];
 5259              		.loc 5 58 0
 5260 045a 0132     		adds	r2, r2, #1
 5261              	.LVL740:
 5262 045c D2B2     		uxtb	r2, r2
 5263              	.LVL741:
 5264 045e F0E7     		b	.L395
 5265              	.LVL742:
 5266              	.L393:
 5267              	.LBE1630:
 5268              	.LBE1629:
 5269              	.LBE1628:
 5270              	.LBE1627:
 5271              	.LBE1626:
 5272              	.LBB1631:
 5273              	.LBB1632:
  44:Core/Inc/utils/mat.h ****                 swap_Element(first.cols_, second.cols_);
 5274              		.loc 5 44 0
 5275 0460 504C     		ldr	r4, .L512
 5276 0462 09A9     		add	r1, sp, #36
 5277 0464 04F1C400 		add	r0, r4, #196
 5278 0468 FFF7FEFF 		bl	_Z12swap_ElementIhEvRT_S1_
 5279              	.LVL743:
  45:Core/Inc/utils/mat.h ****                 for (uint8_t i = 0; i < MAX_MATRIX_ROWS; ++i) {
 5280              		.loc 5 45 0
 5281 046c 0DF12501 		add	r1, sp, #37
 5282 0470 04F1C500 		add	r0, r4, #197
 5283 0474 FFF7FEFF 		bl	_Z12swap_ElementIhEvRT_S1_
 5284              	.LVL744:
 5285              	.LBB1633:
  46:Core/Inc/utils/mat.h ****                         for (uint8_t j = 0; j < MAX_MATRIX_COLS; ++j) {
 5286              		.loc 5 46 0
 5287 0478 0025     		movs	r5, #0
 5288 047a 01E0     		b	.L400
 5289              	.LVL745:
 5290              	.L398:
 5291 047c 0135     		adds	r5, r5, #1
 5292              	.LVL746:
 5293 047e EDB2     		uxtb	r5, r5
 5294              	.LVL747:
 5295              	.L400:
 5296 0480 022D     		cmp	r5, #2
ARM GAS  C:\Users\Prashant\AppData\Local\Temp\ccIdreTb.s 			page 113


 5297 0482 0FD8     		bhi	.L397
 5298              	.LBB1634:
  47:Core/Inc/utils/mat.h ****                                 swap_Element(first.matrix_[i][j], second.matrix_[i][j]);
 5299              		.loc 5 47 0
 5300 0484 0024     		movs	r4, #0
 5301              	.L399:
 5302              	.LVL748:
 5303 0486 022C     		cmp	r4, #2
 5304 0488 F8D8     		bhi	.L398
  48:Core/Inc/utils/mat.h ****                         }
 5305              		.loc 5 48 0
 5306 048a 05EB4501 		add	r1, r5, r5, lsl #1
 5307 048e 2144     		add	r1, r1, r4
 5308 0490 8900     		lsls	r1, r1, #2
 5309 0492 4448     		ldr	r0, .L512
 5310 0494 0844     		add	r0, r0, r1
 5311 0496 6944     		add	r1, r1, sp
 5312 0498 A030     		adds	r0, r0, #160
 5313 049a FFF7FEFF 		bl	_Z12swap_ElementIfEvRT_S1_
 5314              	.LVL749:
  47:Core/Inc/utils/mat.h ****                                 swap_Element(first.matrix_[i][j], second.matrix_[i][j]);
 5315              		.loc 5 47 0
 5316 049e 0134     		adds	r4, r4, #1
 5317              	.LVL750:
 5318 04a0 E4B2     		uxtb	r4, r4
 5319              	.LVL751:
 5320 04a2 F0E7     		b	.L399
 5321              	.LVL752:
 5322              	.L397:
 5323              	.LBE1634:
 5324              	.LBE1633:
 5325              	.LBE1632:
 5326              	.LBE1631:
 5327              	.LBE1625:
 5328              	.LBE1624:
 5329              	.LBE1623:
 5330              	.LBB1635:
 5331              	.LBB1636:
 5332              	.LBB1637:
 5333              	.LBB1638:
 5334              	.LBB1639:
 5335              	.LBB1640:
  54:Core/Inc/utils/mat.h ****                 cols_ = m.cols_;
 5336              		.loc 5 54 0
 5337 04a4 9DF87430 		ldrb	r3, [sp, #116]	@ zero_extendqisi2
 5338 04a8 8DF82430 		strb	r3, [sp, #36]
  55:Core/Inc/utils/mat.h ****                 
 5339              		.loc 5 55 0
 5340 04ac 9DF87530 		ldrb	r3, [sp, #117]	@ zero_extendqisi2
 5341 04b0 8DF82530 		strb	r3, [sp, #37]
 5342              	.LVL753:
 5343              	.LBB1641:
  57:Core/Inc/utils/mat.h ****                         for (uint8_t j = 0; j < MAX_MATRIX_COLS; ++j) {
 5344              		.loc 5 57 0
 5345 04b4 0021     		movs	r1, #0
 5346 04b6 01E0     		b	.L404
 5347              	.LVL754:
ARM GAS  C:\Users\Prashant\AppData\Local\Temp\ccIdreTb.s 			page 114


 5348              	.L402:
 5349 04b8 0131     		adds	r1, r1, #1
 5350              	.LVL755:
 5351 04ba C9B2     		uxtb	r1, r1
 5352              	.LVL756:
 5353              	.L404:
 5354 04bc 0229     		cmp	r1, #2
 5355 04be 0FD8     		bhi	.L401
 5356              	.LBB1642:
  58:Core/Inc/utils/mat.h ****                                 matrix_[i][j] = m.matrix_[i][j];
 5357              		.loc 5 58 0
 5358 04c0 0022     		movs	r2, #0
 5359              	.L403:
 5360              	.LVL757:
 5361 04c2 022A     		cmp	r2, #2
 5362 04c4 F8D8     		bhi	.L402
  59:Core/Inc/utils/mat.h ****                         }
 5363              		.loc 5 59 0
 5364 04c6 01EB4103 		add	r3, r1, r1, lsl #1
 5365 04ca 1344     		add	r3, r3, r2
 5366 04cc 9B00     		lsls	r3, r3, #2
 5367 04ce 50A8     		add	r0, sp, #320
 5368 04d0 1844     		add	r0, r0, r3
 5369 04d2 50F8F00C 		ldr	r0, [r0, #-240]	@ float
 5370 04d6 6B44     		add	r3, r3, sp
 5371 04d8 1860     		str	r0, [r3]	@ float
  58:Core/Inc/utils/mat.h ****                                 matrix_[i][j] = m.matrix_[i][j];
 5372              		.loc 5 58 0
 5373 04da 0132     		adds	r2, r2, #1
 5374              	.LVL758:
 5375 04dc D2B2     		uxtb	r2, r2
 5376              	.LVL759:
 5377 04de F0E7     		b	.L403
 5378              	.LVL760:
 5379              	.L401:
 5380              	.LBE1642:
 5381              	.LBE1641:
 5382              	.LBE1640:
 5383              	.LBE1639:
 5384              	.LBE1638:
 5385              	.LBB1643:
 5386              	.LBB1644:
  44:Core/Inc/utils/mat.h ****                 swap_Element(first.cols_, second.cols_);
 5387              		.loc 5 44 0
 5388 04e0 304C     		ldr	r4, .L512
 5389 04e2 09A9     		add	r1, sp, #36
 5390 04e4 04F1EC00 		add	r0, r4, #236
 5391 04e8 FFF7FEFF 		bl	_Z12swap_ElementIhEvRT_S1_
 5392              	.LVL761:
  45:Core/Inc/utils/mat.h ****                 for (uint8_t i = 0; i < MAX_MATRIX_ROWS; ++i) {
 5393              		.loc 5 45 0
 5394 04ec 0DF12501 		add	r1, sp, #37
 5395 04f0 04F1ED00 		add	r0, r4, #237
 5396 04f4 FFF7FEFF 		bl	_Z12swap_ElementIhEvRT_S1_
 5397              	.LVL762:
 5398              	.LBB1645:
  46:Core/Inc/utils/mat.h ****                         for (uint8_t j = 0; j < MAX_MATRIX_COLS; ++j) {
ARM GAS  C:\Users\Prashant\AppData\Local\Temp\ccIdreTb.s 			page 115


 5399              		.loc 5 46 0
 5400 04f8 0025     		movs	r5, #0
 5401 04fa 01E0     		b	.L408
 5402              	.LVL763:
 5403              	.L406:
 5404 04fc 0135     		adds	r5, r5, #1
 5405              	.LVL764:
 5406 04fe EDB2     		uxtb	r5, r5
 5407              	.LVL765:
 5408              	.L408:
 5409 0500 022D     		cmp	r5, #2
 5410 0502 0FD8     		bhi	.L405
 5411              	.LBB1646:
  47:Core/Inc/utils/mat.h ****                                 swap_Element(first.matrix_[i][j], second.matrix_[i][j]);
 5412              		.loc 5 47 0
 5413 0504 0024     		movs	r4, #0
 5414              	.L407:
 5415              	.LVL766:
 5416 0506 022C     		cmp	r4, #2
 5417 0508 F8D8     		bhi	.L406
  48:Core/Inc/utils/mat.h ****                         }
 5418              		.loc 5 48 0
 5419 050a 05EB4501 		add	r1, r5, r5, lsl #1
 5420 050e 2144     		add	r1, r1, r4
 5421 0510 8900     		lsls	r1, r1, #2
 5422 0512 2448     		ldr	r0, .L512
 5423 0514 0844     		add	r0, r0, r1
 5424 0516 6944     		add	r1, r1, sp
 5425 0518 C830     		adds	r0, r0, #200
 5426 051a FFF7FEFF 		bl	_Z12swap_ElementIfEvRT_S1_
 5427              	.LVL767:
  47:Core/Inc/utils/mat.h ****                                 swap_Element(first.matrix_[i][j], second.matrix_[i][j]);
 5428              		.loc 5 47 0
 5429 051e 0134     		adds	r4, r4, #1
 5430              	.LVL768:
 5431 0520 E4B2     		uxtb	r4, r4
 5432              	.LVL769:
 5433 0522 F0E7     		b	.L407
 5434              	.LVL770:
 5435              	.L405:
 5436              	.LBE1646:
 5437              	.LBE1645:
 5438              	.LBE1644:
 5439              	.LBE1643:
 5440              	.LBE1637:
 5441              	.LBE1636:
 5442              	.LBE1635:
 5443              	.LBB1647:
 5444              	.LBB1648:
 5445              	.LBB1649:
 5446              	.LBB1650:
 5447              	.LBB1651:
 5448              	.LBB1652:
  54:Core/Inc/utils/mat.h ****                 cols_ = m.cols_;
 5449              		.loc 5 54 0
 5450 0524 9DF84C30 		ldrb	r3, [sp, #76]	@ zero_extendqisi2
 5451 0528 8DF82430 		strb	r3, [sp, #36]
ARM GAS  C:\Users\Prashant\AppData\Local\Temp\ccIdreTb.s 			page 116


  55:Core/Inc/utils/mat.h ****                 
 5452              		.loc 5 55 0
 5453 052c 9DF84D30 		ldrb	r3, [sp, #77]	@ zero_extendqisi2
 5454 0530 8DF82530 		strb	r3, [sp, #37]
 5455              	.LVL771:
 5456              	.LBB1653:
  57:Core/Inc/utils/mat.h ****                         for (uint8_t j = 0; j < MAX_MATRIX_COLS; ++j) {
 5457              		.loc 5 57 0
 5458 0534 0020     		movs	r0, #0
 5459 0536 01E0     		b	.L412
 5460              	.LVL772:
 5461              	.L410:
 5462 0538 0130     		adds	r0, r0, #1
 5463              	.LVL773:
 5464 053a C0B2     		uxtb	r0, r0
 5465              	.LVL774:
 5466              	.L412:
 5467 053c 0228     		cmp	r0, #2
 5468 053e 0ED8     		bhi	.L409
 5469              	.LBB1654:
  58:Core/Inc/utils/mat.h ****                                 matrix_[i][j] = m.matrix_[i][j];
 5470              		.loc 5 58 0
 5471 0540 0022     		movs	r2, #0
 5472              	.L411:
 5473              	.LVL775:
 5474 0542 022A     		cmp	r2, #2
 5475 0544 F8D8     		bhi	.L410
  59:Core/Inc/utils/mat.h ****                         }
 5476              		.loc 5 59 0
 5477 0546 00EB4003 		add	r3, r0, r0, lsl #1
 5478 054a 1344     		add	r3, r3, r2
 5479 054c 9B00     		lsls	r3, r3, #2
 5480 054e 0AA9     		add	r1, sp, #40
 5481              	.LVL776:
 5482 0550 1944     		add	r1, r1, r3
 5483              	.LVL777:
 5484 0552 0968     		ldr	r1, [r1]	@ float
 5485 0554 6B44     		add	r3, r3, sp
 5486 0556 1960     		str	r1, [r3]	@ float
  58:Core/Inc/utils/mat.h ****                                 matrix_[i][j] = m.matrix_[i][j];
 5487              		.loc 5 58 0
 5488 0558 0132     		adds	r2, r2, #1
 5489              	.LVL778:
 5490 055a D2B2     		uxtb	r2, r2
 5491              	.LVL779:
 5492 055c F1E7     		b	.L411
 5493              	.LVL780:
 5494              	.L409:
 5495              	.LBE1654:
 5496              	.LBE1653:
 5497              	.LBE1652:
 5498              	.LBE1651:
 5499              	.LBE1650:
 5500              	.LBB1655:
 5501              	.LBB1656:
  44:Core/Inc/utils/mat.h ****                 swap_Element(first.cols_, second.cols_);
 5502              		.loc 5 44 0
ARM GAS  C:\Users\Prashant\AppData\Local\Temp\ccIdreTb.s 			page 117


 5503 055e 114C     		ldr	r4, .L512
 5504 0560 09A9     		add	r1, sp, #36
 5505 0562 04F58A70 		add	r0, r4, #276
 5506 0566 FFF7FEFF 		bl	_Z12swap_ElementIhEvRT_S1_
 5507              	.LVL781:
  45:Core/Inc/utils/mat.h ****                 for (uint8_t i = 0; i < MAX_MATRIX_ROWS; ++i) {
 5508              		.loc 5 45 0
 5509 056a 0DF12501 		add	r1, sp, #37
 5510 056e 04F21510 		addw	r0, r4, #277
 5511 0572 FFF7FEFF 		bl	_Z12swap_ElementIhEvRT_S1_
 5512              	.LVL782:
 5513              	.LBB1657:
  46:Core/Inc/utils/mat.h ****                         for (uint8_t j = 0; j < MAX_MATRIX_COLS; ++j) {
 5514              		.loc 5 46 0
 5515 0576 0025     		movs	r5, #0
 5516 0578 01E0     		b	.L416
 5517              	.LVL783:
 5518              	.L414:
 5519 057a 0135     		adds	r5, r5, #1
 5520              	.LVL784:
 5521 057c EDB2     		uxtb	r5, r5
 5522              	.LVL785:
 5523              	.L416:
 5524 057e 022D     		cmp	r5, #2
 5525 0580 12D8     		bhi	.L413
 5526              	.LBB1658:
  47:Core/Inc/utils/mat.h ****                                 swap_Element(first.matrix_[i][j], second.matrix_[i][j]);
 5527              		.loc 5 47 0
 5528 0582 0024     		movs	r4, #0
 5529              	.L415:
 5530              	.LVL786:
 5531 0584 022C     		cmp	r4, #2
 5532 0586 F8D8     		bhi	.L414
  48:Core/Inc/utils/mat.h ****                         }
 5533              		.loc 5 48 0
 5534 0588 05EB4501 		add	r1, r5, r5, lsl #1
 5535 058c 2144     		add	r1, r1, r4
 5536 058e 8900     		lsls	r1, r1, #2
 5537 0590 0448     		ldr	r0, .L512
 5538 0592 0844     		add	r0, r0, r1
 5539 0594 6944     		add	r1, r1, sp
 5540 0596 F030     		adds	r0, r0, #240
 5541 0598 FFF7FEFF 		bl	_Z12swap_ElementIfEvRT_S1_
 5542              	.LVL787:
  47:Core/Inc/utils/mat.h ****                                 swap_Element(first.matrix_[i][j], second.matrix_[i][j]);
 5543              		.loc 5 47 0
 5544 059c 0134     		adds	r4, r4, #1
 5545              	.LVL788:
 5546 059e E4B2     		uxtb	r4, r4
 5547              	.LVL789:
 5548 05a0 F0E7     		b	.L415
 5549              	.L513:
 5550 05a2 00BF     		.align	2
 5551              	.L512:
 5552 05a4 00000000 		.word	.LANCHOR0
 5553              	.LVL790:
 5554              	.L413:
ARM GAS  C:\Users\Prashant\AppData\Local\Temp\ccIdreTb.s 			page 118


 5555              	.LBE1658:
 5556              	.LBE1657:
 5557              	.LBE1656:
 5558              	.LBE1655:
 5559              	.LBE1649:
 5560              	.LBE1648:
 5561              	.LBE1647:
 5562              	.LBB1659:
 5563              	.LBB1660:
  37:Core/Inc/utils/mat.h ****                         _Error_Handler(__FILE__, __LINE__);
 5564              		.loc 5 37 0
 5565 05a8 9DF83C31 		ldrb	r3, [sp, #316]	@ zero_extendqisi2
 5566 05ac 13B1     		cbz	r3, .L417
 5567 05ae 9DF83D31 		ldrb	r3, [sp, #317]	@ zero_extendqisi2
 5568 05b2 1BB9     		cbnz	r3, .L418
 5569              	.L417:
  38:Core/Inc/utils/mat.h ****                 }
 5570              		.loc 5 38 0
 5571 05b4 2621     		movs	r1, #38
 5572 05b6 B248     		ldr	r0, .L514
 5573 05b8 FFF7FEFF 		bl	_Error_Handler
 5574              	.LVL791:
 5575              	.L418:
 5576              	.LBE1660:
 5577              	.LBE1659:
  82:Core/Src/robot/robo_init.cpp **** 
  83:Core/Src/robot/robo_init.cpp ****         gAccel_Gyro.set_F(state_model);
  84:Core/Src/robot/robo_init.cpp ****         gAccel_Gyro.set_B(control_model);
  85:Core/Src/robot/robo_init.cpp ****         gAccel_Gyro.set_H(obs_model);
  86:Core/Src/robot/robo_init.cpp ****         gAccel_Gyro.set_I(eye);
  87:Core/Src/robot/robo_init.cpp ****         gAccel_Gyro.set_P(priori_error);
  88:Core/Src/robot/robo_init.cpp ****         gAccel_Gyro.set_Q(process_error);
  89:Core/Src/robot/robo_init.cpp ****         gAccel_Gyro.set_R(measure_error);
  90:Core/Src/robot/robo_init.cpp **** 
  91:Core/Src/robot/robo_init.cpp ****         // For Positioning Purpose
  92:Core/Src/robot/robo_init.cpp ****         float dpc = 2 * 3.1415 * (float)(ENCODER_WHEEL_RADIUS) / (float)(ENCODER_PPR);
  93:Core/Src/robot/robo_init.cpp **** 
  94:Core/Src/robot/robo_init.cpp ****         state_model.at(0,0) = 1;
 5578              		.loc 6 94 0
 5579 05bc 4FF07E53 		mov	r3, #1065353216
 5580 05c0 4693     		str	r3, [sp, #280]	@ float
 5581              	.LVL792:
 5582              	.LBB1661:
 5583              	.LBB1662:
  37:Core/Inc/utils/mat.h ****                         _Error_Handler(__FILE__, __LINE__);
 5584              		.loc 5 37 0
 5585 05c2 9DF83C31 		ldrb	r3, [sp, #316]	@ zero_extendqisi2
 5586 05c6 1BB1     		cbz	r3, .L419
 5587 05c8 9DF83D31 		ldrb	r3, [sp, #317]	@ zero_extendqisi2
 5588 05cc 012B     		cmp	r3, #1
 5589 05ce 03D8     		bhi	.L420
 5590              	.L419:
  38:Core/Inc/utils/mat.h ****                 }
 5591              		.loc 5 38 0
 5592 05d0 2621     		movs	r1, #38
 5593 05d2 AB48     		ldr	r0, .L514
 5594 05d4 FFF7FEFF 		bl	_Error_Handler
ARM GAS  C:\Users\Prashant\AppData\Local\Temp\ccIdreTb.s 			page 119


 5595              	.LVL793:
 5596              	.L420:
 5597              	.LBE1662:
 5598              	.LBE1661:
  95:Core/Src/robot/robo_init.cpp ****         state_model.at(0,1) = dpc;
 5599              		.loc 6 95 0
 5600 05d8 AA4B     		ldr	r3, .L514+4
 5601 05da 4793     		str	r3, [sp, #284]	@ float
 5602              	.LVL794:
 5603              	.LBB1663:
 5604              	.LBB1664:
  37:Core/Inc/utils/mat.h ****                         _Error_Handler(__FILE__, __LINE__);
 5605              		.loc 5 37 0
 5606 05dc 9DF83C31 		ldrb	r3, [sp, #316]	@ zero_extendqisi2
 5607 05e0 012B     		cmp	r3, #1
 5608 05e2 02D9     		bls	.L421
 5609 05e4 9DF83D31 		ldrb	r3, [sp, #317]	@ zero_extendqisi2
 5610 05e8 1BB9     		cbnz	r3, .L422
 5611              	.L421:
  38:Core/Inc/utils/mat.h ****                 }
 5612              		.loc 5 38 0
 5613 05ea 2621     		movs	r1, #38
 5614 05ec A448     		ldr	r0, .L514
 5615 05ee FFF7FEFF 		bl	_Error_Handler
 5616              	.LVL795:
 5617              	.L422:
 5618              	.LBE1664:
 5619              	.LBE1663:
  96:Core/Src/robot/robo_init.cpp ****         state_model.at(1,0) = 0;
 5620              		.loc 6 96 0
 5621 05f2 0023     		movs	r3, #0
 5622 05f4 4993     		str	r3, [sp, #292]	@ float
 5623              	.LVL796:
 5624              	.LBB1665:
 5625              	.LBB1666:
  37:Core/Inc/utils/mat.h ****                         _Error_Handler(__FILE__, __LINE__);
 5626              		.loc 5 37 0
 5627 05f6 9DF83C31 		ldrb	r3, [sp, #316]	@ zero_extendqisi2
 5628 05fa 012B     		cmp	r3, #1
 5629 05fc 40F2B180 		bls	.L423
 5630 0600 9DF83D31 		ldrb	r3, [sp, #317]	@ zero_extendqisi2
 5631 0604 012B     		cmp	r3, #1
 5632 0606 40F2AC80 		bls	.L423
 5633              	.L424:
 5634              	.LVL797:
 5635              	.LBE1666:
 5636              	.LBE1665:
  97:Core/Src/robot/robo_init.cpp ****         state_model.at(1,1) = 1;
 5637              		.loc 6 97 0
 5638 060a 4FF07E53 		mov	r3, #1065353216
 5639 060e 4A93     		str	r3, [sp, #296]	@ float
 5640              	.LVL798:
 5641              	.LBB1668:
 5642              	.LBB1669:
  37:Core/Inc/utils/mat.h ****                         _Error_Handler(__FILE__, __LINE__);
 5643              		.loc 5 37 0
 5644 0610 9DF81431 		ldrb	r3, [sp, #276]	@ zero_extendqisi2
ARM GAS  C:\Users\Prashant\AppData\Local\Temp\ccIdreTb.s 			page 120


 5645 0614 13B1     		cbz	r3, .L425
 5646 0616 9DF81531 		ldrb	r3, [sp, #277]	@ zero_extendqisi2
 5647 061a 1BB9     		cbnz	r3, .L426
 5648              	.L425:
  38:Core/Inc/utils/mat.h ****                 }
 5649              		.loc 5 38 0
 5650 061c 2621     		movs	r1, #38
 5651 061e 9848     		ldr	r0, .L514
 5652 0620 FFF7FEFF 		bl	_Error_Handler
 5653              	.LVL799:
 5654              	.L426:
 5655              	.LBE1669:
 5656              	.LBE1668:
  98:Core/Src/robot/robo_init.cpp **** 
  99:Core/Src/robot/robo_init.cpp ****         control_model.at(0,0) = dpc;
 5657              		.loc 6 99 0
 5658 0624 974B     		ldr	r3, .L514+4
 5659 0626 3C93     		str	r3, [sp, #240]	@ float
 5660              	.LVL800:
 5661              	.LBB1670:
 5662              	.LBB1671:
  37:Core/Inc/utils/mat.h ****                         _Error_Handler(__FILE__, __LINE__);
 5663              		.loc 5 37 0
 5664 0628 9DF81431 		ldrb	r3, [sp, #276]	@ zero_extendqisi2
 5665 062c 012B     		cmp	r3, #1
 5666 062e 02D9     		bls	.L427
 5667 0630 9DF81531 		ldrb	r3, [sp, #277]	@ zero_extendqisi2
 5668 0634 1BB9     		cbnz	r3, .L428
 5669              	.L427:
  38:Core/Inc/utils/mat.h ****                 }
 5670              		.loc 5 38 0
 5671 0636 2621     		movs	r1, #38
 5672 0638 9148     		ldr	r0, .L514
 5673 063a FFF7FEFF 		bl	_Error_Handler
 5674              	.LVL801:
 5675              	.L428:
 5676              	.LBE1671:
 5677              	.LBE1670:
 100:Core/Src/robot/robo_init.cpp ****         control_model.at(1,0) = 0;
 5678              		.loc 6 100 0
 5679 063e 0023     		movs	r3, #0
 5680 0640 3F93     		str	r3, [sp, #252]	@ float
 5681              	.LVL802:
 5682              	.LBB1672:
 5683              	.LBB1673:
  37:Core/Inc/utils/mat.h ****                         _Error_Handler(__FILE__, __LINE__);
 5684              		.loc 5 37 0
 5685 0642 9DF8EC30 		ldrb	r3, [sp, #236]	@ zero_extendqisi2
 5686 0646 13B1     		cbz	r3, .L429
 5687 0648 9DF8ED30 		ldrb	r3, [sp, #237]	@ zero_extendqisi2
 5688 064c 1BB9     		cbnz	r3, .L430
 5689              	.L429:
  38:Core/Inc/utils/mat.h ****                 }
 5690              		.loc 5 38 0
 5691 064e 2621     		movs	r1, #38
 5692 0650 8B48     		ldr	r0, .L514
 5693 0652 FFF7FEFF 		bl	_Error_Handler
ARM GAS  C:\Users\Prashant\AppData\Local\Temp\ccIdreTb.s 			page 121


 5694              	.LVL803:
 5695              	.L430:
 5696              	.LBE1673:
 5697              	.LBE1672:
 101:Core/Src/robot/robo_init.cpp **** 
 102:Core/Src/robot/robo_init.cpp ****         obs_model.at(0,0) = 1;
 5698              		.loc 6 102 0
 5699 0656 4FF07E53 		mov	r3, #1065353216
 5700 065a 3293     		str	r3, [sp, #200]	@ float
 5701              	.LVL804:
 5702              	.LBB1674:
 5703              	.LBB1675:
  37:Core/Inc/utils/mat.h ****                         _Error_Handler(__FILE__, __LINE__);
 5704              		.loc 5 37 0
 5705 065c 9DF8EC30 		ldrb	r3, [sp, #236]	@ zero_extendqisi2
 5706 0660 1BB1     		cbz	r3, .L431
 5707 0662 9DF8ED30 		ldrb	r3, [sp, #237]	@ zero_extendqisi2
 5708 0666 012B     		cmp	r3, #1
 5709 0668 03D8     		bhi	.L432
 5710              	.L431:
  38:Core/Inc/utils/mat.h ****                 }
 5711              		.loc 5 38 0
 5712 066a 2621     		movs	r1, #38
 5713 066c 8448     		ldr	r0, .L514
 5714 066e FFF7FEFF 		bl	_Error_Handler
 5715              	.LVL805:
 5716              	.L432:
 5717              	.LBE1675:
 5718              	.LBE1674:
 103:Core/Src/robot/robo_init.cpp ****         obs_model.at(0,1) = 0;
 5719              		.loc 6 103 0
 5720 0672 0023     		movs	r3, #0
 5721 0674 3393     		str	r3, [sp, #204]	@ float
 5722              	.LVL806:
 5723              	.LBB1676:
 5724              	.LBB1677:
  37:Core/Inc/utils/mat.h ****                         _Error_Handler(__FILE__, __LINE__);
 5725              		.loc 5 37 0
 5726 0676 9DF89C30 		ldrb	r3, [sp, #156]	@ zero_extendqisi2
 5727 067a 13B1     		cbz	r3, .L433
 5728 067c 9DF89D30 		ldrb	r3, [sp, #157]	@ zero_extendqisi2
 5729 0680 1BB9     		cbnz	r3, .L434
 5730              	.L433:
  38:Core/Inc/utils/mat.h ****                 }
 5731              		.loc 5 38 0
 5732 0682 2621     		movs	r1, #38
 5733 0684 7E48     		ldr	r0, .L514
 5734 0686 FFF7FEFF 		bl	_Error_Handler
 5735              	.LVL807:
 5736              	.L434:
 5737              	.LBE1677:
 5738              	.LBE1676:
 104:Core/Src/robot/robo_init.cpp **** 
 105:Core/Src/robot/robo_init.cpp ****         priori_error.at(0,0) = 1000;
 5739              		.loc 6 105 0
 5740 068a 7F4B     		ldr	r3, .L514+8
 5741 068c 1E93     		str	r3, [sp, #120]	@ float
ARM GAS  C:\Users\Prashant\AppData\Local\Temp\ccIdreTb.s 			page 122


 5742              	.LVL808:
 5743              	.LBB1678:
 5744              	.LBB1679:
  37:Core/Inc/utils/mat.h ****                         _Error_Handler(__FILE__, __LINE__);
 5745              		.loc 5 37 0
 5746 068e 9DF89C30 		ldrb	r3, [sp, #156]	@ zero_extendqisi2
 5747 0692 1BB1     		cbz	r3, .L435
 5748 0694 9DF89D30 		ldrb	r3, [sp, #157]	@ zero_extendqisi2
 5749 0698 012B     		cmp	r3, #1
 5750 069a 03D8     		bhi	.L436
 5751              	.L435:
  38:Core/Inc/utils/mat.h ****                 }
 5752              		.loc 5 38 0
 5753 069c 2621     		movs	r1, #38
 5754 069e 7848     		ldr	r0, .L514
 5755 06a0 FFF7FEFF 		bl	_Error_Handler
 5756              	.LVL809:
 5757              	.L436:
 5758              	.LBE1679:
 5759              	.LBE1678:
 106:Core/Src/robot/robo_init.cpp ****         priori_error.at(0,1) = 0;
 5760              		.loc 6 106 0
 5761 06a4 0023     		movs	r3, #0
 5762 06a6 1F93     		str	r3, [sp, #124]	@ float
 5763              	.LVL810:
 5764              	.LBB1680:
 5765              	.LBB1681:
  37:Core/Inc/utils/mat.h ****                         _Error_Handler(__FILE__, __LINE__);
 5766              		.loc 5 37 0
 5767 06a8 9DF89C30 		ldrb	r3, [sp, #156]	@ zero_extendqisi2
 5768 06ac 012B     		cmp	r3, #1
 5769 06ae 02D9     		bls	.L437
 5770 06b0 9DF89D30 		ldrb	r3, [sp, #157]	@ zero_extendqisi2
 5771 06b4 1BB9     		cbnz	r3, .L438
 5772              	.L437:
  38:Core/Inc/utils/mat.h ****                 }
 5773              		.loc 5 38 0
 5774 06b6 2621     		movs	r1, #38
 5775 06b8 7148     		ldr	r0, .L514
 5776 06ba FFF7FEFF 		bl	_Error_Handler
 5777              	.LVL811:
 5778              	.L438:
 5779              	.LBE1681:
 5780              	.LBE1680:
 107:Core/Src/robot/robo_init.cpp ****         priori_error.at(1,0) = 0;
 5781              		.loc 6 107 0
 5782 06be 0023     		movs	r3, #0
 5783 06c0 2193     		str	r3, [sp, #132]	@ float
 5784              	.LVL812:
 5785              	.LBB1682:
 5786              	.LBB1683:
  37:Core/Inc/utils/mat.h ****                         _Error_Handler(__FILE__, __LINE__);
 5787              		.loc 5 37 0
 5788 06c2 9DF89C30 		ldrb	r3, [sp, #156]	@ zero_extendqisi2
 5789 06c6 012B     		cmp	r3, #1
 5790 06c8 50D9     		bls	.L439
 5791 06ca 9DF89D30 		ldrb	r3, [sp, #157]	@ zero_extendqisi2
ARM GAS  C:\Users\Prashant\AppData\Local\Temp\ccIdreTb.s 			page 123


 5792 06ce 012B     		cmp	r3, #1
 5793 06d0 4CD9     		bls	.L439
 5794              	.L440:
 5795              	.LVL813:
 5796              	.LBE1683:
 5797              	.LBE1682:
 108:Core/Src/robot/robo_init.cpp ****         priori_error.at(1,1) = 1000;
 5798              		.loc 6 108 0
 5799 06d2 6D4B     		ldr	r3, .L514+8
 5800 06d4 2293     		str	r3, [sp, #136]	@ float
 5801              	.LVL814:
 5802              	.LBB1685:
 5803              	.LBB1686:
  37:Core/Inc/utils/mat.h ****                         _Error_Handler(__FILE__, __LINE__);
 5804              		.loc 5 37 0
 5805 06d6 9DF87430 		ldrb	r3, [sp, #116]	@ zero_extendqisi2
 5806 06da 13B1     		cbz	r3, .L441
 5807 06dc 9DF87530 		ldrb	r3, [sp, #117]	@ zero_extendqisi2
 5808 06e0 1BB9     		cbnz	r3, .L442
 5809              	.L441:
  38:Core/Inc/utils/mat.h ****                 }
 5810              		.loc 5 38 0
 5811 06e2 2621     		movs	r1, #38
 5812 06e4 6648     		ldr	r0, .L514
 5813 06e6 FFF7FEFF 		bl	_Error_Handler
 5814              	.LVL815:
 5815              	.L442:
 5816              	.LBE1686:
 5817              	.LBE1685:
 109:Core/Src/robot/robo_init.cpp **** 
 110:Core/Src/robot/robo_init.cpp ****         process_error.at(0,0) = 0.0001;
 5818              		.loc 6 110 0
 5819 06ea 684B     		ldr	r3, .L514+12
 5820 06ec 1493     		str	r3, [sp, #80]	@ float
 5821              	.LVL816:
 5822              	.LBB1687:
 5823              	.LBB1688:
  37:Core/Inc/utils/mat.h ****                         _Error_Handler(__FILE__, __LINE__);
 5824              		.loc 5 37 0
 5825 06ee 9DF87430 		ldrb	r3, [sp, #116]	@ zero_extendqisi2
 5826 06f2 1BB1     		cbz	r3, .L443
 5827 06f4 9DF87530 		ldrb	r3, [sp, #117]	@ zero_extendqisi2
 5828 06f8 012B     		cmp	r3, #1
 5829 06fa 03D8     		bhi	.L444
 5830              	.L443:
  38:Core/Inc/utils/mat.h ****                 }
 5831              		.loc 5 38 0
 5832 06fc 2621     		movs	r1, #38
 5833 06fe 6048     		ldr	r0, .L514
 5834 0700 FFF7FEFF 		bl	_Error_Handler
 5835              	.LVL817:
 5836              	.L444:
 5837              	.LBE1688:
 5838              	.LBE1687:
 111:Core/Src/robot/robo_init.cpp ****         process_error.at(0,1) = 0;
 5839              		.loc 6 111 0
 5840 0704 0023     		movs	r3, #0
ARM GAS  C:\Users\Prashant\AppData\Local\Temp\ccIdreTb.s 			page 124


 5841 0706 1593     		str	r3, [sp, #84]	@ float
 5842              	.LVL818:
 5843              	.LBB1689:
 5844              	.LBB1690:
  37:Core/Inc/utils/mat.h ****                         _Error_Handler(__FILE__, __LINE__);
 5845              		.loc 5 37 0
 5846 0708 9DF87430 		ldrb	r3, [sp, #116]	@ zero_extendqisi2
 5847 070c 012B     		cmp	r3, #1
 5848 070e 02D9     		bls	.L445
 5849 0710 9DF87530 		ldrb	r3, [sp, #117]	@ zero_extendqisi2
 5850 0714 1BB9     		cbnz	r3, .L446
 5851              	.L445:
  38:Core/Inc/utils/mat.h ****                 }
 5852              		.loc 5 38 0
 5853 0716 2621     		movs	r1, #38
 5854 0718 5948     		ldr	r0, .L514
 5855 071a FFF7FEFF 		bl	_Error_Handler
 5856              	.LVL819:
 5857              	.L446:
 5858              	.LBE1690:
 5859              	.LBE1689:
 112:Core/Src/robot/robo_init.cpp ****         process_error.at(1,0) = 0;
 5860              		.loc 6 112 0
 5861 071e 0023     		movs	r3, #0
 5862 0720 1793     		str	r3, [sp, #92]	@ float
 5863              	.LVL820:
 5864              	.LBB1691:
 5865              	.LBB1692:
  37:Core/Inc/utils/mat.h ****                         _Error_Handler(__FILE__, __LINE__);
 5866              		.loc 5 37 0
 5867 0722 9DF87430 		ldrb	r3, [sp, #116]	@ zero_extendqisi2
 5868 0726 012B     		cmp	r3, #1
 5869 0728 25D9     		bls	.L447
 5870 072a 9DF87530 		ldrb	r3, [sp, #117]	@ zero_extendqisi2
 5871 072e 012B     		cmp	r3, #1
 5872 0730 21D9     		bls	.L447
 5873              	.L448:
 5874              	.LVL821:
 5875              	.LBE1692:
 5876              	.LBE1691:
 113:Core/Src/robot/robo_init.cpp ****         process_error.at(1,1) = 0.0003;
 5877              		.loc 6 113 0
 5878 0732 574B     		ldr	r3, .L514+16
 5879 0734 1893     		str	r3, [sp, #96]	@ float
 5880              	.LVL822:
 5881              	.LBB1694:
 5882              	.LBB1695:
  37:Core/Inc/utils/mat.h ****                         _Error_Handler(__FILE__, __LINE__);
 5883              		.loc 5 37 0
 5884 0736 9DF84C30 		ldrb	r3, [sp, #76]	@ zero_extendqisi2
 5885 073a 13B1     		cbz	r3, .L449
 5886 073c 9DF84D30 		ldrb	r3, [sp, #77]	@ zero_extendqisi2
 5887 0740 1BB9     		cbnz	r3, .L450
 5888              	.L449:
  38:Core/Inc/utils/mat.h ****                 }
 5889              		.loc 5 38 0
 5890 0742 2621     		movs	r1, #38
ARM GAS  C:\Users\Prashant\AppData\Local\Temp\ccIdreTb.s 			page 125


 5891 0744 4E48     		ldr	r0, .L514
 5892 0746 FFF7FEFF 		bl	_Error_Handler
 5893              	.LVL823:
 5894              	.L450:
 5895              	.LBE1695:
 5896              	.LBE1694:
 114:Core/Src/robot/robo_init.cpp **** 
 115:Core/Src/robot/robo_init.cpp ****         measure_error.at(0,0) = 50;
 5897              		.loc 6 115 0
 5898 074a 524B     		ldr	r3, .L514+20
 5899 074c 0A93     		str	r3, [sp, #40]	@ float
 5900              	.LVL824:
 5901              	.LBB1696:
 5902              	.LBB1697:
 5903              	.LBB1698:
 5904              	.LBB1699:
 5905              	.LBB1700:
 5906              	.LBB1701:
  54:Core/Inc/utils/mat.h ****                 cols_ = m.cols_;
 5907              		.loc 5 54 0
 5908 074e 9DF83C31 		ldrb	r3, [sp, #316]	@ zero_extendqisi2
 5909 0752 8DF82430 		strb	r3, [sp, #36]
  55:Core/Inc/utils/mat.h ****                 
 5910              		.loc 5 55 0
 5911 0756 9DF83D31 		ldrb	r3, [sp, #317]	@ zero_extendqisi2
 5912 075a 8DF82530 		strb	r3, [sp, #37]
 5913              	.LVL825:
 5914              	.LBB1702:
  57:Core/Inc/utils/mat.h ****                         for (uint8_t j = 0; j < MAX_MATRIX_COLS; ++j) {
 5915              		.loc 5 57 0
 5916 075e 0021     		movs	r1, #0
 5917 0760 10E0     		b	.L454
 5918              	.LVL826:
 5919              	.L423:
 5920              	.LBE1702:
 5921              	.LBE1701:
 5922              	.LBE1700:
 5923              	.LBE1699:
 5924              	.LBE1698:
 5925              	.LBE1697:
 5926              	.LBE1696:
 5927              	.LBB1714:
 5928              	.LBB1667:
  38:Core/Inc/utils/mat.h ****                 }
 5929              		.loc 5 38 0
 5930 0762 2621     		movs	r1, #38
 5931 0764 4648     		ldr	r0, .L514
 5932 0766 FFF7FEFF 		bl	_Error_Handler
 5933              	.LVL827:
 5934 076a 4EE7     		b	.L424
 5935              	.LVL828:
 5936              	.L439:
 5937              	.LBE1667:
 5938              	.LBE1714:
 5939              	.LBB1715:
 5940              	.LBB1684:
 5941 076c 2621     		movs	r1, #38
ARM GAS  C:\Users\Prashant\AppData\Local\Temp\ccIdreTb.s 			page 126


 5942 076e 4448     		ldr	r0, .L514
 5943 0770 FFF7FEFF 		bl	_Error_Handler
 5944              	.LVL829:
 5945 0774 ADE7     		b	.L440
 5946              	.LVL830:
 5947              	.L447:
 5948              	.LBE1684:
 5949              	.LBE1715:
 5950              	.LBB1716:
 5951              	.LBB1693:
 5952 0776 2621     		movs	r1, #38
 5953 0778 4148     		ldr	r0, .L514
 5954 077a FFF7FEFF 		bl	_Error_Handler
 5955              	.LVL831:
 5956 077e D8E7     		b	.L448
 5957              	.LVL832:
 5958              	.L452:
 5959              	.LBE1693:
 5960              	.LBE1716:
 5961              	.LBB1717:
 5962              	.LBB1713:
 5963              	.LBB1712:
 5964              	.LBB1707:
 5965              	.LBB1706:
 5966              	.LBB1705:
 5967              	.LBB1704:
  57:Core/Inc/utils/mat.h ****                         for (uint8_t j = 0; j < MAX_MATRIX_COLS; ++j) {
 5968              		.loc 5 57 0
 5969 0780 0131     		adds	r1, r1, #1
 5970              	.LVL833:
 5971 0782 C9B2     		uxtb	r1, r1
 5972              	.LVL834:
 5973              	.L454:
 5974 0784 0229     		cmp	r1, #2
 5975 0786 0FD8     		bhi	.L451
 5976              	.LBB1703:
  58:Core/Inc/utils/mat.h ****                                 matrix_[i][j] = m.matrix_[i][j];
 5977              		.loc 5 58 0
 5978 0788 0022     		movs	r2, #0
 5979              	.L453:
 5980              	.LVL835:
 5981 078a 022A     		cmp	r2, #2
 5982 078c F8D8     		bhi	.L452
  59:Core/Inc/utils/mat.h ****                         }
 5983              		.loc 5 59 0
 5984 078e 01EB4103 		add	r3, r1, r1, lsl #1
 5985 0792 1344     		add	r3, r3, r2
 5986 0794 9B00     		lsls	r3, r3, #2
 5987 0796 50A8     		add	r0, sp, #320
 5988 0798 1844     		add	r0, r0, r3
 5989 079a 50F8280C 		ldr	r0, [r0, #-40]	@ float
 5990 079e 6B44     		add	r3, r3, sp
 5991 07a0 1860     		str	r0, [r3]	@ float
  58:Core/Inc/utils/mat.h ****                                 matrix_[i][j] = m.matrix_[i][j];
 5992              		.loc 5 58 0
 5993 07a2 0132     		adds	r2, r2, #1
 5994              	.LVL836:
ARM GAS  C:\Users\Prashant\AppData\Local\Temp\ccIdreTb.s 			page 127


 5995 07a4 D2B2     		uxtb	r2, r2
 5996              	.LVL837:
 5997 07a6 F0E7     		b	.L453
 5998              	.LVL838:
 5999              	.L451:
 6000              	.LBE1703:
 6001              	.LBE1704:
 6002              	.LBE1705:
 6003              	.LBE1706:
 6004              	.LBE1707:
 6005              	.LBB1708:
 6006              	.LBB1709:
  44:Core/Inc/utils/mat.h ****                 swap_Element(first.cols_, second.cols_);
 6007              		.loc 5 44 0
 6008 07a8 3B4C     		ldr	r4, .L514+24
 6009 07aa 09A9     		add	r1, sp, #36
 6010 07ac 04F12400 		add	r0, r4, #36
 6011 07b0 FFF7FEFF 		bl	_Z12swap_ElementIhEvRT_S1_
 6012              	.LVL839:
  45:Core/Inc/utils/mat.h ****                 for (uint8_t i = 0; i < MAX_MATRIX_ROWS; ++i) {
 6013              		.loc 5 45 0
 6014 07b4 0DF12501 		add	r1, sp, #37
 6015 07b8 04F12500 		add	r0, r4, #37
 6016 07bc FFF7FEFF 		bl	_Z12swap_ElementIhEvRT_S1_
 6017              	.LVL840:
 6018              	.LBB1710:
  46:Core/Inc/utils/mat.h ****                         for (uint8_t j = 0; j < MAX_MATRIX_COLS; ++j) {
 6019              		.loc 5 46 0
 6020 07c0 0025     		movs	r5, #0
 6021 07c2 01E0     		b	.L458
 6022              	.LVL841:
 6023              	.L456:
 6024 07c4 0135     		adds	r5, r5, #1
 6025              	.LVL842:
 6026 07c6 EDB2     		uxtb	r5, r5
 6027              	.LVL843:
 6028              	.L458:
 6029 07c8 022D     		cmp	r5, #2
 6030 07ca 0FD8     		bhi	.L455
 6031              	.LBB1711:
  47:Core/Inc/utils/mat.h ****                                 swap_Element(first.matrix_[i][j], second.matrix_[i][j]);
 6032              		.loc 5 47 0
 6033 07cc 0024     		movs	r4, #0
 6034              	.L457:
 6035              	.LVL844:
 6036 07ce 022C     		cmp	r4, #2
 6037 07d0 F8D8     		bhi	.L456
  48:Core/Inc/utils/mat.h ****                         }
 6038              		.loc 5 48 0
 6039 07d2 05EB4503 		add	r3, r5, r5, lsl #1
 6040 07d6 2344     		add	r3, r3, r4
 6041 07d8 9B00     		lsls	r3, r3, #2
 6042 07da 0DEB0301 		add	r1, sp, r3
 6043 07de 2E48     		ldr	r0, .L514+24
 6044 07e0 1844     		add	r0, r0, r3
 6045 07e2 FFF7FEFF 		bl	_Z12swap_ElementIfEvRT_S1_
 6046              	.LVL845:
ARM GAS  C:\Users\Prashant\AppData\Local\Temp\ccIdreTb.s 			page 128


  47:Core/Inc/utils/mat.h ****                                 swap_Element(first.matrix_[i][j], second.matrix_[i][j]);
 6047              		.loc 5 47 0
 6048 07e6 0134     		adds	r4, r4, #1
 6049              	.LVL846:
 6050 07e8 E4B2     		uxtb	r4, r4
 6051              	.LVL847:
 6052 07ea F0E7     		b	.L457
 6053              	.LVL848:
 6054              	.L455:
 6055              	.LBE1711:
 6056              	.LBE1710:
 6057              	.LBE1709:
 6058              	.LBE1708:
 6059              	.LBE1712:
 6060              	.LBE1713:
 6061              	.LBE1717:
 6062              	.LBB1718:
 6063              	.LBB1719:
 6064              	.LBB1720:
 6065              	.LBB1721:
 6066              	.LBB1722:
 6067              	.LBB1723:
  54:Core/Inc/utils/mat.h ****                 cols_ = m.cols_;
 6068              		.loc 5 54 0
 6069 07ec 9DF81431 		ldrb	r3, [sp, #276]	@ zero_extendqisi2
 6070 07f0 8DF82430 		strb	r3, [sp, #36]
  55:Core/Inc/utils/mat.h ****                 
 6071              		.loc 5 55 0
 6072 07f4 9DF81531 		ldrb	r3, [sp, #277]	@ zero_extendqisi2
 6073 07f8 8DF82530 		strb	r3, [sp, #37]
 6074              	.LVL849:
 6075              	.LBB1724:
  57:Core/Inc/utils/mat.h ****                         for (uint8_t j = 0; j < MAX_MATRIX_COLS; ++j) {
 6076              		.loc 5 57 0
 6077 07fc 0021     		movs	r1, #0
 6078 07fe 01E0     		b	.L462
 6079              	.LVL850:
 6080              	.L460:
 6081 0800 0131     		adds	r1, r1, #1
 6082              	.LVL851:
 6083 0802 C9B2     		uxtb	r1, r1
 6084              	.LVL852:
 6085              	.L462:
 6086 0804 0229     		cmp	r1, #2
 6087 0806 0FD8     		bhi	.L459
 6088              	.LBB1725:
  58:Core/Inc/utils/mat.h ****                                 matrix_[i][j] = m.matrix_[i][j];
 6089              		.loc 5 58 0
 6090 0808 0022     		movs	r2, #0
 6091              	.L461:
 6092              	.LVL853:
 6093 080a 022A     		cmp	r2, #2
 6094 080c F8D8     		bhi	.L460
  59:Core/Inc/utils/mat.h ****                         }
 6095              		.loc 5 59 0
 6096 080e 01EB4103 		add	r3, r1, r1, lsl #1
 6097 0812 1344     		add	r3, r3, r2
ARM GAS  C:\Users\Prashant\AppData\Local\Temp\ccIdreTb.s 			page 129


 6098 0814 9B00     		lsls	r3, r3, #2
 6099 0816 50A8     		add	r0, sp, #320
 6100 0818 1844     		add	r0, r0, r3
 6101 081a 50F8500C 		ldr	r0, [r0, #-80]	@ float
 6102 081e 6B44     		add	r3, r3, sp
 6103 0820 1860     		str	r0, [r3]	@ float
  58:Core/Inc/utils/mat.h ****                                 matrix_[i][j] = m.matrix_[i][j];
 6104              		.loc 5 58 0
 6105 0822 0132     		adds	r2, r2, #1
 6106              	.LVL854:
 6107 0824 D2B2     		uxtb	r2, r2
 6108              	.LVL855:
 6109 0826 F0E7     		b	.L461
 6110              	.LVL856:
 6111              	.L459:
 6112              	.LBE1725:
 6113              	.LBE1724:
 6114              	.LBE1723:
 6115              	.LBE1722:
 6116              	.LBE1721:
 6117              	.LBB1726:
 6118              	.LBB1727:
  44:Core/Inc/utils/mat.h ****                 swap_Element(first.cols_, second.cols_);
 6119              		.loc 5 44 0
 6120 0828 1B4C     		ldr	r4, .L514+24
 6121 082a 09A9     		add	r1, sp, #36
 6122 082c 04F14C00 		add	r0, r4, #76
 6123 0830 FFF7FEFF 		bl	_Z12swap_ElementIhEvRT_S1_
 6124              	.LVL857:
  45:Core/Inc/utils/mat.h ****                 for (uint8_t i = 0; i < MAX_MATRIX_ROWS; ++i) {
 6125              		.loc 5 45 0
 6126 0834 0DF12501 		add	r1, sp, #37
 6127 0838 04F14D00 		add	r0, r4, #77
 6128 083c FFF7FEFF 		bl	_Z12swap_ElementIhEvRT_S1_
 6129              	.LVL858:
 6130              	.LBB1728:
  46:Core/Inc/utils/mat.h ****                         for (uint8_t j = 0; j < MAX_MATRIX_COLS; ++j) {
 6131              		.loc 5 46 0
 6132 0840 0025     		movs	r5, #0
 6133 0842 01E0     		b	.L466
 6134              	.LVL859:
 6135              	.L464:
 6136 0844 0135     		adds	r5, r5, #1
 6137              	.LVL860:
 6138 0846 EDB2     		uxtb	r5, r5
 6139              	.LVL861:
 6140              	.L466:
 6141 0848 022D     		cmp	r5, #2
 6142 084a 0FD8     		bhi	.L463
 6143              	.LBB1729:
  47:Core/Inc/utils/mat.h ****                                 swap_Element(first.matrix_[i][j], second.matrix_[i][j]);
 6144              		.loc 5 47 0
 6145 084c 0024     		movs	r4, #0
 6146              	.L465:
 6147              	.LVL862:
 6148 084e 022C     		cmp	r4, #2
 6149 0850 F8D8     		bhi	.L464
ARM GAS  C:\Users\Prashant\AppData\Local\Temp\ccIdreTb.s 			page 130


  48:Core/Inc/utils/mat.h ****                         }
 6150              		.loc 5 48 0
 6151 0852 05EB4501 		add	r1, r5, r5, lsl #1
 6152 0856 2144     		add	r1, r1, r4
 6153 0858 8900     		lsls	r1, r1, #2
 6154 085a 0F48     		ldr	r0, .L514+24
 6155 085c 0844     		add	r0, r0, r1
 6156 085e 6944     		add	r1, r1, sp
 6157 0860 2830     		adds	r0, r0, #40
 6158 0862 FFF7FEFF 		bl	_Z12swap_ElementIfEvRT_S1_
 6159              	.LVL863:
  47:Core/Inc/utils/mat.h ****                                 swap_Element(first.matrix_[i][j], second.matrix_[i][j]);
 6160              		.loc 5 47 0
 6161 0866 0134     		adds	r4, r4, #1
 6162              	.LVL864:
 6163 0868 E4B2     		uxtb	r4, r4
 6164              	.LVL865:
 6165 086a F0E7     		b	.L465
 6166              	.LVL866:
 6167              	.L463:
 6168              	.LBE1729:
 6169              	.LBE1728:
 6170              	.LBE1727:
 6171              	.LBE1726:
 6172              	.LBE1720:
 6173              	.LBE1719:
 6174              	.LBE1718:
 6175              	.LBB1730:
 6176              	.LBB1731:
 6177              	.LBB1732:
 6178              	.LBB1733:
 6179              	.LBB1734:
 6180              	.LBB1735:
  54:Core/Inc/utils/mat.h ****                 cols_ = m.cols_;
 6181              		.loc 5 54 0
 6182 086c 9DF8EC30 		ldrb	r3, [sp, #236]	@ zero_extendqisi2
 6183 0870 8DF82430 		strb	r3, [sp, #36]
  55:Core/Inc/utils/mat.h ****                 
 6184              		.loc 5 55 0
 6185 0874 9DF8ED30 		ldrb	r3, [sp, #237]	@ zero_extendqisi2
 6186 0878 8DF82530 		strb	r3, [sp, #37]
 6187              	.LVL867:
 6188              	.LBB1736:
  57:Core/Inc/utils/mat.h ****                         for (uint8_t j = 0; j < MAX_MATRIX_COLS; ++j) {
 6189              		.loc 5 57 0
 6190 087c 0021     		movs	r1, #0
 6191 087e 0FE0     		b	.L470
 6192              	.L515:
 6193              		.align	2
 6194              	.L514:
 6195 0880 00000000 		.word	.LC0
 6196 0884 C72E613F 		.word	1063333575
 6197 0888 00007A44 		.word	1148846080
 6198 088c 17B7D138 		.word	953267991
 6199 0890 52499D39 		.word	966609234
 6200 0894 00004842 		.word	1112014848
 6201 0898 00000000 		.word	.LANCHOR1
ARM GAS  C:\Users\Prashant\AppData\Local\Temp\ccIdreTb.s 			page 131


 6202              	.LVL868:
 6203              	.L468:
 6204 089c 0131     		adds	r1, r1, #1
 6205              	.LVL869:
 6206 089e C9B2     		uxtb	r1, r1
 6207              	.LVL870:
 6208              	.L470:
 6209 08a0 0229     		cmp	r1, #2
 6210 08a2 0FD8     		bhi	.L467
 6211              	.LBB1737:
  58:Core/Inc/utils/mat.h ****                                 matrix_[i][j] = m.matrix_[i][j];
 6212              		.loc 5 58 0
 6213 08a4 0022     		movs	r2, #0
 6214              	.L469:
 6215              	.LVL871:
 6216 08a6 022A     		cmp	r2, #2
 6217 08a8 F8D8     		bhi	.L468
  59:Core/Inc/utils/mat.h ****                         }
 6218              		.loc 5 59 0
 6219 08aa 01EB4103 		add	r3, r1, r1, lsl #1
 6220 08ae 1344     		add	r3, r3, r2
 6221 08b0 9B00     		lsls	r3, r3, #2
 6222 08b2 50A8     		add	r0, sp, #320
 6223 08b4 1844     		add	r0, r0, r3
 6224 08b6 50F8780C 		ldr	r0, [r0, #-120]	@ float
 6225 08ba 6B44     		add	r3, r3, sp
 6226 08bc 1860     		str	r0, [r3]	@ float
  58:Core/Inc/utils/mat.h ****                                 matrix_[i][j] = m.matrix_[i][j];
 6227              		.loc 5 58 0
 6228 08be 0132     		adds	r2, r2, #1
 6229              	.LVL872:
 6230 08c0 D2B2     		uxtb	r2, r2
 6231              	.LVL873:
 6232 08c2 F0E7     		b	.L469
 6233              	.LVL874:
 6234              	.L467:
 6235              	.LBE1737:
 6236              	.LBE1736:
 6237              	.LBE1735:
 6238              	.LBE1734:
 6239              	.LBE1733:
 6240              	.LBB1738:
 6241              	.LBB1739:
  44:Core/Inc/utils/mat.h ****                 swap_Element(first.cols_, second.cols_);
 6242              		.loc 5 44 0
 6243 08c4 914C     		ldr	r4, .L516
 6244 08c6 09A9     		add	r1, sp, #36
 6245 08c8 04F17400 		add	r0, r4, #116
 6246 08cc FFF7FEFF 		bl	_Z12swap_ElementIhEvRT_S1_
 6247              	.LVL875:
  45:Core/Inc/utils/mat.h ****                 for (uint8_t i = 0; i < MAX_MATRIX_ROWS; ++i) {
 6248              		.loc 5 45 0
 6249 08d0 0DF12501 		add	r1, sp, #37
 6250 08d4 04F17500 		add	r0, r4, #117
 6251 08d8 FFF7FEFF 		bl	_Z12swap_ElementIhEvRT_S1_
 6252              	.LVL876:
 6253              	.LBB1740:
ARM GAS  C:\Users\Prashant\AppData\Local\Temp\ccIdreTb.s 			page 132


  46:Core/Inc/utils/mat.h ****                         for (uint8_t j = 0; j < MAX_MATRIX_COLS; ++j) {
 6254              		.loc 5 46 0
 6255 08dc 0025     		movs	r5, #0
 6256 08de 01E0     		b	.L474
 6257              	.LVL877:
 6258              	.L472:
 6259 08e0 0135     		adds	r5, r5, #1
 6260              	.LVL878:
 6261 08e2 EDB2     		uxtb	r5, r5
 6262              	.LVL879:
 6263              	.L474:
 6264 08e4 022D     		cmp	r5, #2
 6265 08e6 0FD8     		bhi	.L471
 6266              	.LBB1741:
  47:Core/Inc/utils/mat.h ****                                 swap_Element(first.matrix_[i][j], second.matrix_[i][j]);
 6267              		.loc 5 47 0
 6268 08e8 0024     		movs	r4, #0
 6269              	.L473:
 6270              	.LVL880:
 6271 08ea 022C     		cmp	r4, #2
 6272 08ec F8D8     		bhi	.L472
  48:Core/Inc/utils/mat.h ****                         }
 6273              		.loc 5 48 0
 6274 08ee 05EB4501 		add	r1, r5, r5, lsl #1
 6275 08f2 2144     		add	r1, r1, r4
 6276 08f4 8900     		lsls	r1, r1, #2
 6277 08f6 8548     		ldr	r0, .L516
 6278 08f8 0844     		add	r0, r0, r1
 6279 08fa 6944     		add	r1, r1, sp
 6280 08fc 5030     		adds	r0, r0, #80
 6281 08fe FFF7FEFF 		bl	_Z12swap_ElementIfEvRT_S1_
 6282              	.LVL881:
  47:Core/Inc/utils/mat.h ****                                 swap_Element(first.matrix_[i][j], second.matrix_[i][j]);
 6283              		.loc 5 47 0
 6284 0902 0134     		adds	r4, r4, #1
 6285              	.LVL882:
 6286 0904 E4B2     		uxtb	r4, r4
 6287              	.LVL883:
 6288 0906 F0E7     		b	.L473
 6289              	.LVL884:
 6290              	.L471:
 6291              	.LBE1741:
 6292              	.LBE1740:
 6293              	.LBE1739:
 6294              	.LBE1738:
 6295              	.LBE1732:
 6296              	.LBE1731:
 6297              	.LBE1730:
 6298              	.LBB1742:
 6299              	.LBB1743:
 6300              	.LBB1744:
 6301              	.LBB1745:
 6302              	.LBB1746:
 6303              	.LBB1747:
  54:Core/Inc/utils/mat.h ****                 cols_ = m.cols_;
 6304              		.loc 5 54 0
 6305 0908 9DF8C430 		ldrb	r3, [sp, #196]	@ zero_extendqisi2
ARM GAS  C:\Users\Prashant\AppData\Local\Temp\ccIdreTb.s 			page 133


 6306 090c 8DF82430 		strb	r3, [sp, #36]
  55:Core/Inc/utils/mat.h ****                 
 6307              		.loc 5 55 0
 6308 0910 9DF8C530 		ldrb	r3, [sp, #197]	@ zero_extendqisi2
 6309 0914 8DF82530 		strb	r3, [sp, #37]
 6310              	.LVL885:
 6311              	.LBB1748:
  57:Core/Inc/utils/mat.h ****                         for (uint8_t j = 0; j < MAX_MATRIX_COLS; ++j) {
 6312              		.loc 5 57 0
 6313 0918 0021     		movs	r1, #0
 6314 091a 01E0     		b	.L478
 6315              	.LVL886:
 6316              	.L476:
 6317 091c 0131     		adds	r1, r1, #1
 6318              	.LVL887:
 6319 091e C9B2     		uxtb	r1, r1
 6320              	.LVL888:
 6321              	.L478:
 6322 0920 0229     		cmp	r1, #2
 6323 0922 0FD8     		bhi	.L475
 6324              	.LBB1749:
  58:Core/Inc/utils/mat.h ****                                 matrix_[i][j] = m.matrix_[i][j];
 6325              		.loc 5 58 0
 6326 0924 0022     		movs	r2, #0
 6327              	.L477:
 6328              	.LVL889:
 6329 0926 022A     		cmp	r2, #2
 6330 0928 F8D8     		bhi	.L476
  59:Core/Inc/utils/mat.h ****                         }
 6331              		.loc 5 59 0
 6332 092a 01EB4103 		add	r3, r1, r1, lsl #1
 6333 092e 1344     		add	r3, r3, r2
 6334 0930 9B00     		lsls	r3, r3, #2
 6335 0932 50A8     		add	r0, sp, #320
 6336 0934 1844     		add	r0, r0, r3
 6337 0936 50F8A00C 		ldr	r0, [r0, #-160]	@ float
 6338 093a 6B44     		add	r3, r3, sp
 6339 093c 1860     		str	r0, [r3]	@ float
  58:Core/Inc/utils/mat.h ****                                 matrix_[i][j] = m.matrix_[i][j];
 6340              		.loc 5 58 0
 6341 093e 0132     		adds	r2, r2, #1
 6342              	.LVL890:
 6343 0940 D2B2     		uxtb	r2, r2
 6344              	.LVL891:
 6345 0942 F0E7     		b	.L477
 6346              	.LVL892:
 6347              	.L475:
 6348              	.LBE1749:
 6349              	.LBE1748:
 6350              	.LBE1747:
 6351              	.LBE1746:
 6352              	.LBE1745:
 6353              	.LBB1750:
 6354              	.LBB1751:
  44:Core/Inc/utils/mat.h ****                 swap_Element(first.cols_, second.cols_);
 6355              		.loc 5 44 0
 6356 0944 714C     		ldr	r4, .L516
ARM GAS  C:\Users\Prashant\AppData\Local\Temp\ccIdreTb.s 			page 134


 6357 0946 09A9     		add	r1, sp, #36
 6358 0948 04F19C00 		add	r0, r4, #156
 6359 094c FFF7FEFF 		bl	_Z12swap_ElementIhEvRT_S1_
 6360              	.LVL893:
  45:Core/Inc/utils/mat.h ****                 for (uint8_t i = 0; i < MAX_MATRIX_ROWS; ++i) {
 6361              		.loc 5 45 0
 6362 0950 0DF12501 		add	r1, sp, #37
 6363 0954 04F19D00 		add	r0, r4, #157
 6364 0958 FFF7FEFF 		bl	_Z12swap_ElementIhEvRT_S1_
 6365              	.LVL894:
 6366              	.LBB1752:
  46:Core/Inc/utils/mat.h ****                         for (uint8_t j = 0; j < MAX_MATRIX_COLS; ++j) {
 6367              		.loc 5 46 0
 6368 095c 0025     		movs	r5, #0
 6369 095e 01E0     		b	.L482
 6370              	.LVL895:
 6371              	.L480:
 6372 0960 0135     		adds	r5, r5, #1
 6373              	.LVL896:
 6374 0962 EDB2     		uxtb	r5, r5
 6375              	.LVL897:
 6376              	.L482:
 6377 0964 022D     		cmp	r5, #2
 6378 0966 0FD8     		bhi	.L479
 6379              	.LBB1753:
  47:Core/Inc/utils/mat.h ****                                 swap_Element(first.matrix_[i][j], second.matrix_[i][j]);
 6380              		.loc 5 47 0
 6381 0968 0024     		movs	r4, #0
 6382              	.L481:
 6383              	.LVL898:
 6384 096a 022C     		cmp	r4, #2
 6385 096c F8D8     		bhi	.L480
  48:Core/Inc/utils/mat.h ****                         }
 6386              		.loc 5 48 0
 6387 096e 05EB4501 		add	r1, r5, r5, lsl #1
 6388 0972 2144     		add	r1, r1, r4
 6389 0974 8900     		lsls	r1, r1, #2
 6390 0976 6548     		ldr	r0, .L516
 6391 0978 0844     		add	r0, r0, r1
 6392 097a 6944     		add	r1, r1, sp
 6393 097c 7830     		adds	r0, r0, #120
 6394 097e FFF7FEFF 		bl	_Z12swap_ElementIfEvRT_S1_
 6395              	.LVL899:
  47:Core/Inc/utils/mat.h ****                                 swap_Element(first.matrix_[i][j], second.matrix_[i][j]);
 6396              		.loc 5 47 0
 6397 0982 0134     		adds	r4, r4, #1
 6398              	.LVL900:
 6399 0984 E4B2     		uxtb	r4, r4
 6400              	.LVL901:
 6401 0986 F0E7     		b	.L481
 6402              	.LVL902:
 6403              	.L479:
 6404              	.LBE1753:
 6405              	.LBE1752:
 6406              	.LBE1751:
 6407              	.LBE1750:
 6408              	.LBE1744:
ARM GAS  C:\Users\Prashant\AppData\Local\Temp\ccIdreTb.s 			page 135


 6409              	.LBE1743:
 6410              	.LBE1742:
 6411              	.LBB1754:
 6412              	.LBB1755:
 6413              	.LBB1756:
 6414              	.LBB1757:
 6415              	.LBB1758:
 6416              	.LBB1759:
  54:Core/Inc/utils/mat.h ****                 cols_ = m.cols_;
 6417              		.loc 5 54 0
 6418 0988 9DF89C30 		ldrb	r3, [sp, #156]	@ zero_extendqisi2
 6419 098c 8DF82430 		strb	r3, [sp, #36]
  55:Core/Inc/utils/mat.h ****                 
 6420              		.loc 5 55 0
 6421 0990 9DF89D30 		ldrb	r3, [sp, #157]	@ zero_extendqisi2
 6422 0994 8DF82530 		strb	r3, [sp, #37]
 6423              	.LVL903:
 6424              	.LBB1760:
  57:Core/Inc/utils/mat.h ****                         for (uint8_t j = 0; j < MAX_MATRIX_COLS; ++j) {
 6425              		.loc 5 57 0
 6426 0998 0021     		movs	r1, #0
 6427 099a 01E0     		b	.L486
 6428              	.LVL904:
 6429              	.L484:
 6430 099c 0131     		adds	r1, r1, #1
 6431              	.LVL905:
 6432 099e C9B2     		uxtb	r1, r1
 6433              	.LVL906:
 6434              	.L486:
 6435 09a0 0229     		cmp	r1, #2
 6436 09a2 0FD8     		bhi	.L483
 6437              	.LBB1761:
  58:Core/Inc/utils/mat.h ****                                 matrix_[i][j] = m.matrix_[i][j];
 6438              		.loc 5 58 0
 6439 09a4 0022     		movs	r2, #0
 6440              	.L485:
 6441              	.LVL907:
 6442 09a6 022A     		cmp	r2, #2
 6443 09a8 F8D8     		bhi	.L484
  59:Core/Inc/utils/mat.h ****                         }
 6444              		.loc 5 59 0
 6445 09aa 01EB4103 		add	r3, r1, r1, lsl #1
 6446 09ae 1344     		add	r3, r3, r2
 6447 09b0 9B00     		lsls	r3, r3, #2
 6448 09b2 50A8     		add	r0, sp, #320
 6449 09b4 1844     		add	r0, r0, r3
 6450 09b6 50F8C80C 		ldr	r0, [r0, #-200]	@ float
 6451 09ba 6B44     		add	r3, r3, sp
 6452 09bc 1860     		str	r0, [r3]	@ float
  58:Core/Inc/utils/mat.h ****                                 matrix_[i][j] = m.matrix_[i][j];
 6453              		.loc 5 58 0
 6454 09be 0132     		adds	r2, r2, #1
 6455              	.LVL908:
 6456 09c0 D2B2     		uxtb	r2, r2
 6457              	.LVL909:
 6458 09c2 F0E7     		b	.L485
 6459              	.LVL910:
ARM GAS  C:\Users\Prashant\AppData\Local\Temp\ccIdreTb.s 			page 136


 6460              	.L483:
 6461              	.LBE1761:
 6462              	.LBE1760:
 6463              	.LBE1759:
 6464              	.LBE1758:
 6465              	.LBE1757:
 6466              	.LBB1762:
 6467              	.LBB1763:
  44:Core/Inc/utils/mat.h ****                 swap_Element(first.cols_, second.cols_);
 6468              		.loc 5 44 0
 6469 09c4 514C     		ldr	r4, .L516
 6470 09c6 09A9     		add	r1, sp, #36
 6471 09c8 04F1C400 		add	r0, r4, #196
 6472 09cc FFF7FEFF 		bl	_Z12swap_ElementIhEvRT_S1_
 6473              	.LVL911:
  45:Core/Inc/utils/mat.h ****                 for (uint8_t i = 0; i < MAX_MATRIX_ROWS; ++i) {
 6474              		.loc 5 45 0
 6475 09d0 0DF12501 		add	r1, sp, #37
 6476 09d4 04F1C500 		add	r0, r4, #197
 6477 09d8 FFF7FEFF 		bl	_Z12swap_ElementIhEvRT_S1_
 6478              	.LVL912:
 6479              	.LBB1764:
  46:Core/Inc/utils/mat.h ****                         for (uint8_t j = 0; j < MAX_MATRIX_COLS; ++j) {
 6480              		.loc 5 46 0
 6481 09dc 0025     		movs	r5, #0
 6482 09de 01E0     		b	.L490
 6483              	.LVL913:
 6484              	.L488:
 6485 09e0 0135     		adds	r5, r5, #1
 6486              	.LVL914:
 6487 09e2 EDB2     		uxtb	r5, r5
 6488              	.LVL915:
 6489              	.L490:
 6490 09e4 022D     		cmp	r5, #2
 6491 09e6 0FD8     		bhi	.L487
 6492              	.LBB1765:
  47:Core/Inc/utils/mat.h ****                                 swap_Element(first.matrix_[i][j], second.matrix_[i][j]);
 6493              		.loc 5 47 0
 6494 09e8 0024     		movs	r4, #0
 6495              	.L489:
 6496              	.LVL916:
 6497 09ea 022C     		cmp	r4, #2
 6498 09ec F8D8     		bhi	.L488
  48:Core/Inc/utils/mat.h ****                         }
 6499              		.loc 5 48 0
 6500 09ee 05EB4501 		add	r1, r5, r5, lsl #1
 6501 09f2 2144     		add	r1, r1, r4
 6502 09f4 8900     		lsls	r1, r1, #2
 6503 09f6 4548     		ldr	r0, .L516
 6504 09f8 0844     		add	r0, r0, r1
 6505 09fa 6944     		add	r1, r1, sp
 6506 09fc A030     		adds	r0, r0, #160
 6507 09fe FFF7FEFF 		bl	_Z12swap_ElementIfEvRT_S1_
 6508              	.LVL917:
  47:Core/Inc/utils/mat.h ****                                 swap_Element(first.matrix_[i][j], second.matrix_[i][j]);
 6509              		.loc 5 47 0
 6510 0a02 0134     		adds	r4, r4, #1
ARM GAS  C:\Users\Prashant\AppData\Local\Temp\ccIdreTb.s 			page 137


 6511              	.LVL918:
 6512 0a04 E4B2     		uxtb	r4, r4
 6513              	.LVL919:
 6514 0a06 F0E7     		b	.L489
 6515              	.LVL920:
 6516              	.L487:
 6517              	.LBE1765:
 6518              	.LBE1764:
 6519              	.LBE1763:
 6520              	.LBE1762:
 6521              	.LBE1756:
 6522              	.LBE1755:
 6523              	.LBE1754:
 6524              	.LBB1766:
 6525              	.LBB1767:
 6526              	.LBB1768:
 6527              	.LBB1769:
 6528              	.LBB1770:
 6529              	.LBB1771:
  54:Core/Inc/utils/mat.h ****                 cols_ = m.cols_;
 6530              		.loc 5 54 0
 6531 0a08 9DF87430 		ldrb	r3, [sp, #116]	@ zero_extendqisi2
 6532 0a0c 8DF82430 		strb	r3, [sp, #36]
  55:Core/Inc/utils/mat.h ****                 
 6533              		.loc 5 55 0
 6534 0a10 9DF87530 		ldrb	r3, [sp, #117]	@ zero_extendqisi2
 6535 0a14 8DF82530 		strb	r3, [sp, #37]
 6536              	.LVL921:
 6537              	.LBB1772:
  57:Core/Inc/utils/mat.h ****                         for (uint8_t j = 0; j < MAX_MATRIX_COLS; ++j) {
 6538              		.loc 5 57 0
 6539 0a18 0021     		movs	r1, #0
 6540 0a1a 01E0     		b	.L494
 6541              	.LVL922:
 6542              	.L492:
 6543 0a1c 0131     		adds	r1, r1, #1
 6544              	.LVL923:
 6545 0a1e C9B2     		uxtb	r1, r1
 6546              	.LVL924:
 6547              	.L494:
 6548 0a20 0229     		cmp	r1, #2
 6549 0a22 0FD8     		bhi	.L491
 6550              	.LBB1773:
  58:Core/Inc/utils/mat.h ****                                 matrix_[i][j] = m.matrix_[i][j];
 6551              		.loc 5 58 0
 6552 0a24 0022     		movs	r2, #0
 6553              	.L493:
 6554              	.LVL925:
 6555 0a26 022A     		cmp	r2, #2
 6556 0a28 F8D8     		bhi	.L492
  59:Core/Inc/utils/mat.h ****                         }
 6557              		.loc 5 59 0
 6558 0a2a 01EB4103 		add	r3, r1, r1, lsl #1
 6559 0a2e 1344     		add	r3, r3, r2
 6560 0a30 9B00     		lsls	r3, r3, #2
 6561 0a32 50A8     		add	r0, sp, #320
 6562 0a34 1844     		add	r0, r0, r3
ARM GAS  C:\Users\Prashant\AppData\Local\Temp\ccIdreTb.s 			page 138


 6563 0a36 50F8F00C 		ldr	r0, [r0, #-240]	@ float
 6564 0a3a 6B44     		add	r3, r3, sp
 6565 0a3c 1860     		str	r0, [r3]	@ float
  58:Core/Inc/utils/mat.h ****                                 matrix_[i][j] = m.matrix_[i][j];
 6566              		.loc 5 58 0
 6567 0a3e 0132     		adds	r2, r2, #1
 6568              	.LVL926:
 6569 0a40 D2B2     		uxtb	r2, r2
 6570              	.LVL927:
 6571 0a42 F0E7     		b	.L493
 6572              	.LVL928:
 6573              	.L491:
 6574              	.LBE1773:
 6575              	.LBE1772:
 6576              	.LBE1771:
 6577              	.LBE1770:
 6578              	.LBE1769:
 6579              	.LBB1774:
 6580              	.LBB1775:
  44:Core/Inc/utils/mat.h ****                 swap_Element(first.cols_, second.cols_);
 6581              		.loc 5 44 0
 6582 0a44 314C     		ldr	r4, .L516
 6583 0a46 09A9     		add	r1, sp, #36
 6584 0a48 04F1EC00 		add	r0, r4, #236
 6585 0a4c FFF7FEFF 		bl	_Z12swap_ElementIhEvRT_S1_
 6586              	.LVL929:
  45:Core/Inc/utils/mat.h ****                 for (uint8_t i = 0; i < MAX_MATRIX_ROWS; ++i) {
 6587              		.loc 5 45 0
 6588 0a50 0DF12501 		add	r1, sp, #37
 6589 0a54 04F1ED00 		add	r0, r4, #237
 6590 0a58 FFF7FEFF 		bl	_Z12swap_ElementIhEvRT_S1_
 6591              	.LVL930:
 6592              	.LBB1776:
  46:Core/Inc/utils/mat.h ****                         for (uint8_t j = 0; j < MAX_MATRIX_COLS; ++j) {
 6593              		.loc 5 46 0
 6594 0a5c 0025     		movs	r5, #0
 6595 0a5e 01E0     		b	.L498
 6596              	.LVL931:
 6597              	.L496:
 6598 0a60 0135     		adds	r5, r5, #1
 6599              	.LVL932:
 6600 0a62 EDB2     		uxtb	r5, r5
 6601              	.LVL933:
 6602              	.L498:
 6603 0a64 022D     		cmp	r5, #2
 6604 0a66 0FD8     		bhi	.L495
 6605              	.LBB1777:
  47:Core/Inc/utils/mat.h ****                                 swap_Element(first.matrix_[i][j], second.matrix_[i][j]);
 6606              		.loc 5 47 0
 6607 0a68 0024     		movs	r4, #0
 6608              	.L497:
 6609              	.LVL934:
 6610 0a6a 022C     		cmp	r4, #2
 6611 0a6c F8D8     		bhi	.L496
  48:Core/Inc/utils/mat.h ****                         }
 6612              		.loc 5 48 0
 6613 0a6e 05EB4501 		add	r1, r5, r5, lsl #1
ARM GAS  C:\Users\Prashant\AppData\Local\Temp\ccIdreTb.s 			page 139


 6614 0a72 2144     		add	r1, r1, r4
 6615 0a74 8900     		lsls	r1, r1, #2
 6616 0a76 2548     		ldr	r0, .L516
 6617 0a78 0844     		add	r0, r0, r1
 6618 0a7a 6944     		add	r1, r1, sp
 6619 0a7c C830     		adds	r0, r0, #200
 6620 0a7e FFF7FEFF 		bl	_Z12swap_ElementIfEvRT_S1_
 6621              	.LVL935:
  47:Core/Inc/utils/mat.h ****                                 swap_Element(first.matrix_[i][j], second.matrix_[i][j]);
 6622              		.loc 5 47 0
 6623 0a82 0134     		adds	r4, r4, #1
 6624              	.LVL936:
 6625 0a84 E4B2     		uxtb	r4, r4
 6626              	.LVL937:
 6627 0a86 F0E7     		b	.L497
 6628              	.LVL938:
 6629              	.L495:
 6630              	.LBE1777:
 6631              	.LBE1776:
 6632              	.LBE1775:
 6633              	.LBE1774:
 6634              	.LBE1768:
 6635              	.LBE1767:
 6636              	.LBE1766:
 6637              	.LBB1778:
 6638              	.LBB1779:
 6639              	.LBB1780:
 6640              	.LBB1781:
 6641              	.LBB1782:
 6642              	.LBB1783:
  54:Core/Inc/utils/mat.h ****                 cols_ = m.cols_;
 6643              		.loc 5 54 0
 6644 0a88 9DF84C30 		ldrb	r3, [sp, #76]	@ zero_extendqisi2
 6645 0a8c 8DF82430 		strb	r3, [sp, #36]
  55:Core/Inc/utils/mat.h ****                 
 6646              		.loc 5 55 0
 6647 0a90 9DF84D30 		ldrb	r3, [sp, #77]	@ zero_extendqisi2
 6648 0a94 8DF82530 		strb	r3, [sp, #37]
 6649              	.LVL939:
 6650              	.LBB1784:
  57:Core/Inc/utils/mat.h ****                         for (uint8_t j = 0; j < MAX_MATRIX_COLS; ++j) {
 6651              		.loc 5 57 0
 6652 0a98 0020     		movs	r0, #0
 6653 0a9a 01E0     		b	.L502
 6654              	.LVL940:
 6655              	.L500:
 6656 0a9c 0130     		adds	r0, r0, #1
 6657              	.LVL941:
 6658 0a9e C0B2     		uxtb	r0, r0
 6659              	.LVL942:
 6660              	.L502:
 6661 0aa0 0228     		cmp	r0, #2
 6662 0aa2 0ED8     		bhi	.L499
 6663              	.LBB1785:
  58:Core/Inc/utils/mat.h ****                                 matrix_[i][j] = m.matrix_[i][j];
 6664              		.loc 5 58 0
 6665 0aa4 0022     		movs	r2, #0
ARM GAS  C:\Users\Prashant\AppData\Local\Temp\ccIdreTb.s 			page 140


 6666              	.L501:
 6667              	.LVL943:
 6668 0aa6 022A     		cmp	r2, #2
 6669 0aa8 F8D8     		bhi	.L500
  59:Core/Inc/utils/mat.h ****                         }
 6670              		.loc 5 59 0
 6671 0aaa 00EB4003 		add	r3, r0, r0, lsl #1
 6672 0aae 1344     		add	r3, r3, r2
 6673 0ab0 9B00     		lsls	r3, r3, #2
 6674 0ab2 0AA9     		add	r1, sp, #40
 6675              	.LVL944:
 6676 0ab4 1944     		add	r1, r1, r3
 6677              	.LVL945:
 6678 0ab6 0968     		ldr	r1, [r1]	@ float
 6679 0ab8 6B44     		add	r3, r3, sp
 6680 0aba 1960     		str	r1, [r3]	@ float
  58:Core/Inc/utils/mat.h ****                                 matrix_[i][j] = m.matrix_[i][j];
 6681              		.loc 5 58 0
 6682 0abc 0132     		adds	r2, r2, #1
 6683              	.LVL946:
 6684 0abe D2B2     		uxtb	r2, r2
 6685              	.LVL947:
 6686 0ac0 F1E7     		b	.L501
 6687              	.LVL948:
 6688              	.L499:
 6689              	.LBE1785:
 6690              	.LBE1784:
 6691              	.LBE1783:
 6692              	.LBE1782:
 6693              	.LBE1781:
 6694              	.LBB1786:
 6695              	.LBB1787:
  44:Core/Inc/utils/mat.h ****                 swap_Element(first.cols_, second.cols_);
 6696              		.loc 5 44 0
 6697 0ac2 124C     		ldr	r4, .L516
 6698 0ac4 09A9     		add	r1, sp, #36
 6699 0ac6 04F58A70 		add	r0, r4, #276
 6700 0aca FFF7FEFF 		bl	_Z12swap_ElementIhEvRT_S1_
 6701              	.LVL949:
  45:Core/Inc/utils/mat.h ****                 for (uint8_t i = 0; i < MAX_MATRIX_ROWS; ++i) {
 6702              		.loc 5 45 0
 6703 0ace 0DF12501 		add	r1, sp, #37
 6704 0ad2 04F21510 		addw	r0, r4, #277
 6705 0ad6 FFF7FEFF 		bl	_Z12swap_ElementIhEvRT_S1_
 6706              	.LVL950:
 6707              	.LBB1788:
  46:Core/Inc/utils/mat.h ****                         for (uint8_t j = 0; j < MAX_MATRIX_COLS; ++j) {
 6708              		.loc 5 46 0
 6709 0ada 0025     		movs	r5, #0
 6710 0adc 01E0     		b	.L506
 6711              	.LVL951:
 6712              	.L504:
 6713 0ade 0135     		adds	r5, r5, #1
 6714              	.LVL952:
 6715 0ae0 EDB2     		uxtb	r5, r5
 6716              	.LVL953:
 6717              	.L506:
ARM GAS  C:\Users\Prashant\AppData\Local\Temp\ccIdreTb.s 			page 141


 6718 0ae2 022D     		cmp	r5, #2
 6719 0ae4 0FD8     		bhi	.L328
 6720              	.LBB1789:
  47:Core/Inc/utils/mat.h ****                                 swap_Element(first.matrix_[i][j], second.matrix_[i][j]);
 6721              		.loc 5 47 0
 6722 0ae6 0024     		movs	r4, #0
 6723              	.L505:
 6724              	.LVL954:
 6725 0ae8 022C     		cmp	r4, #2
 6726 0aea F8D8     		bhi	.L504
  48:Core/Inc/utils/mat.h ****                         }
 6727              		.loc 5 48 0
 6728 0aec 05EB4501 		add	r1, r5, r5, lsl #1
 6729 0af0 2144     		add	r1, r1, r4
 6730 0af2 8900     		lsls	r1, r1, #2
 6731 0af4 0548     		ldr	r0, .L516
 6732 0af6 0844     		add	r0, r0, r1
 6733 0af8 6944     		add	r1, r1, sp
 6734 0afa F030     		adds	r0, r0, #240
 6735 0afc FFF7FEFF 		bl	_Z12swap_ElementIfEvRT_S1_
 6736              	.LVL955:
  47:Core/Inc/utils/mat.h ****                                 swap_Element(first.matrix_[i][j], second.matrix_[i][j]);
 6737              		.loc 5 47 0
 6738 0b00 0134     		adds	r4, r4, #1
 6739              	.LVL956:
 6740 0b02 E4B2     		uxtb	r4, r4
 6741              	.LVL957:
 6742 0b04 F0E7     		b	.L505
 6743              	.LVL958:
 6744              	.L328:
 6745              	.LBE1789:
 6746              	.LBE1788:
 6747              	.LBE1787:
 6748              	.LBE1786:
 6749              	.LBE1780:
 6750              	.LBE1779:
 6751              	.LBE1778:
 116:Core/Src/robot/robo_init.cpp **** 
 117:Core/Src/robot/robo_init.cpp ****         gLidar_Encoder.set_F(state_model);
 118:Core/Src/robot/robo_init.cpp ****         gLidar_Encoder.set_B(control_model);
 119:Core/Src/robot/robo_init.cpp ****         gLidar_Encoder.set_H(obs_model);
 120:Core/Src/robot/robo_init.cpp ****         gLidar_Encoder.set_I(eye);
 121:Core/Src/robot/robo_init.cpp ****         gLidar_Encoder.set_P(priori_error);
 122:Core/Src/robot/robo_init.cpp ****         gLidar_Encoder.set_Q(process_error);
 123:Core/Src/robot/robo_init.cpp ****         gLidar_Encoder.set_R(measure_error);
 124:Core/Src/robot/robo_init.cpp **** }...
 6752              		.loc 6 124 0
 6753 0b06 51B0     		add	sp, sp, #324
 6754              	.LCFI13:
 6755              		.cfi_def_cfa_offset 12
 6756              	.LVL959:
 6757              		@ sp needed
 6758 0b08 30BD     		pop	{r4, r5, pc}
 6759              	.LVL960:
 6760              	.L517:
 6761 0b0a 00BF     		.align	2
 6762              	.L516:
ARM GAS  C:\Users\Prashant\AppData\Local\Temp\ccIdreTb.s 			page 142


 6763 0b0c 00000000 		.word	.LANCHOR1
 6764              		.cfi_endproc
 6765              	.LFE463:
 6767              		.section	.text._Z9robo_Initm,"ax",%progbits
 6768              		.align	1
 6769              		.global	_Z9robo_Initm
 6770              		.syntax unified
 6771              		.thumb
 6772              		.thumb_func
 6773              		.fpu fpv4-sp-d16
 6775              	_Z9robo_Initm:
 6776              	.LFB462:
  32:Core/Src/robot/robo_init.cpp **** {
 6777              		.loc 6 32 0
 6778              		.cfi_startproc
 6779              		@ args = 0, pretend = 0, frame = 16
 6780              		@ frame_needed = 0, uses_anonymous_args = 0
 6781              	.LVL961:
 6782 0000 10B5     		push	{r4, lr}
 6783              	.LCFI14:
 6784              		.cfi_def_cfa_offset 8
 6785              		.cfi_offset 4, -8
 6786              		.cfi_offset 14, -4
 6787 0002 84B0     		sub	sp, sp, #16
 6788              	.LCFI15:
 6789              		.cfi_def_cfa_offset 24
  33:Core/Src/robot/robo_init.cpp ****         KF_Init(dt_millis);
 6790              		.loc 6 33 0
 6791 0004 FFF7FEFF 		bl	_ZL7KF_Initm
 6792              	.LVL962:
  35:Core/Src/robot/robo_init.cpp ****         IMU_Init();
 6793              		.loc 6 35 0
 6794 0008 FFF7FEFF 		bl	_Z8IMU_Initv
 6795              	.LVL963:
  36:Core/Src/robot/robo_init.cpp ****         Stepper_Init();
 6796              		.loc 6 36 0
 6797 000c FFF7FEFF 		bl	_Z12Stepper_Initv
 6798              	.LVL964:
  37:Core/Src/robot/robo_init.cpp ****         Encoders_Init();
 6799              		.loc 6 37 0
 6800 0010 FFF7FEFF 		bl	_Z13Encoders_Initv
 6801              	.LVL965:
  38:Core/Src/robot/robo_init.cpp ****         LIDAR_Init();
 6802              		.loc 6 38 0
 6803 0014 FFF7FEFF 		bl	_Z10LIDAR_Initv
 6804              	.LVL966:
  40:Core/Src/robot/robo_init.cpp ****         Wheeler_Init();
 6805              		.loc 6 40 0
 6806 0018 FFF7FEFF 		bl	_Z12Wheeler_Initv
 6807              	.LVL967:
  41:Core/Src/robot/robo_init.cpp ****         gOmega_Bias = calc_OmegaMean(&Body_IMU, 1000);
 6808              		.loc 6 41 0
 6809 001c 01AC     		add	r4, sp, #4
 6810 001e 4FF47A72 		mov	r2, #1000
 6811 0022 0549     		ldr	r1, .L520
 6812 0024 2046     		mov	r0, r4
 6813 0026 FFF7FEFF 		bl	_Z14calc_OmegaMeanP7MPU6050m
ARM GAS  C:\Users\Prashant\AppData\Local\Temp\ccIdreTb.s 			page 143


 6814              	.LVL968:
 6815 002a 044B     		ldr	r3, .L520+4
 6816 002c 94E80700 		ldm	r4, {r0, r1, r2}
 6817 0030 83E80700 		stm	r3, {r0, r1, r2}
  45:Core/Src/robot/robo_init.cpp **** }
 6818              		.loc 6 45 0
 6819 0034 04B0     		add	sp, sp, #16
 6820              	.LCFI16:
 6821              		.cfi_def_cfa_offset 8
 6822              		@ sp needed
 6823 0036 10BD     		pop	{r4, pc}
 6824              	.L521:
 6825              		.align	2
 6826              	.L520:
 6827 0038 00000000 		.word	Body_IMU
 6828 003c 00000000 		.word	.LANCHOR2
 6829              		.cfi_endproc
 6830              	.LFE462:
 6832              		.section	.text._ZN4Vec3IfE10set_ValuesEfff,"axG",%progbits,_ZN4Vec3IfE10set_ValuesEfff,comdat
 6833              		.align	1
 6834              		.weak	_ZN4Vec3IfE10set_ValuesEfff
 6835              		.syntax unified
 6836              		.thumb
 6837              		.thumb_func
 6838              		.fpu fpv4-sp-d16
 6840              	_ZN4Vec3IfE10set_ValuesEfff:
 6841              	.LFB472:
 151:Core/Inc/utils/vec3.h **** 
 152:Core/Inc/utils/vec3.h **** template <class T>
 153:Core/Inc/utils/vec3.h **** void Vec3<T>::set_Values(T x, T y, T z)
 6842              		.loc 4 153 0
 6843              		.cfi_startproc
 6844              		@ args = 0, pretend = 0, frame = 0
 6845              		@ frame_needed = 0, uses_anonymous_args = 0
 6846              		@ link register save eliminated.
 6847              	.LVL969:
 154:Core/Inc/utils/vec3.h **** {
 155:Core/Inc/utils/vec3.h ****         x_ = x;
 6848              		.loc 4 155 0
 6849 0000 80ED000A 		vstr.32	s0, [r0]
 156:Core/Inc/utils/vec3.h ****         y_ = y;
 6850              		.loc 4 156 0
 6851 0004 C0ED010A 		vstr.32	s1, [r0, #4]
 157:Core/Inc/utils/vec3.h ****         z_ = z;
 6852              		.loc 4 157 0
 6853 0008 80ED021A 		vstr.32	s2, [r0, #8]
 158:Core/Inc/utils/vec3.h **** }
 6854              		.loc 4 158 0
 6855 000c 7047     		bx	lr
 6856              		.cfi_endproc
 6857              	.LFE472:
 6859              		.section	.text._Z41__static_initialization_and_destruction_0ii,"ax",%progbits
 6860              		.align	1
 6861              		.syntax unified
 6862              		.thumb
 6863              		.thumb_func
 6864              		.fpu fpv4-sp-d16
ARM GAS  C:\Users\Prashant\AppData\Local\Temp\ccIdreTb.s 			page 144


 6866              	_Z41__static_initialization_and_destruction_0ii:
 6867              	.LFB473:
 6868              		.loc 6 124 0
 6869              		.cfi_startproc
 6870              		@ args = 0, pretend = 0, frame = 0
 6871              		@ frame_needed = 0, uses_anonymous_args = 0
 6872              	.LVL970:
 6873 0000 0128     		cmp	r0, #1
 6874 0002 00D0     		beq	.L529
 6875 0004 7047     		bx	lr
 6876              	.L529:
 6877              		.loc 6 124 0 is_stmt 0 discriminator 1
 6878 0006 2DE9F843 		push	{r3, r4, r5, r6, r7, r8, r9, lr}
 6879              	.LCFI17:
 6880              		.cfi_def_cfa_offset 32
 6881              		.cfi_offset 3, -32
 6882              		.cfi_offset 4, -28
 6883              		.cfi_offset 5, -24
 6884              		.cfi_offset 6, -20
 6885              		.cfi_offset 7, -16
 6886              		.cfi_offset 8, -12
 6887              		.cfi_offset 9, -8
 6888              		.cfi_offset 14, -4
 6889 000a 2DED028B 		vpush.64	{d8}
 6890              	.LCFI18:
 6891              		.cfi_def_cfa_offset 40
 6892              		.cfi_offset 80, -40
 6893              		.cfi_offset 81, -36
 6894              		.loc 6 124 0 is_stmt 1 discriminator 1
 6895 000e 4FF6FF73 		movw	r3, #65535
 6896 0012 9942     		cmp	r1, r3
 6897 0014 03D0     		beq	.L530
 6898              	.LVL971:
 6899              	.L523:
 6900              		.loc 6 124 0 is_stmt 0
 6901 0016 BDEC028B 		vldm	sp!, {d8}
 6902              	.LCFI19:
 6903              		.cfi_remember_state
 6904              		.cfi_restore 80
 6905              		.cfi_restore 81
 6906              		.cfi_def_cfa_offset 32
 6907 001a BDE8F883 		pop	{r3, r4, r5, r6, r7, r8, r9, pc}
 6908              	.LVL972:
 6909              	.L530:
 6910              	.LCFI20:
 6911              		.cfi_restore_state
 6912              	.LBB1790:
 6913              	.LBB1791:
 6914              	.LBB1792:
  26:Core/Inc/utils/vec3.h ****         Vec3(T x, T y, T z) { set_Values(x,y,z); }
 6915              		.loc 4 26 0 is_stmt 1
 6916 001e 9FED508A 		vldr.32	s16, .L531
 6917 0022 504C     		ldr	r4, .L531+4
 6918 0024 B0EE481A 		vmov.f32	s2, s16
 6919 0028 F0EE480A 		vmov.f32	s1, s16
 6920 002c B0EE480A 		vmov.f32	s0, s16
 6921 0030 2046     		mov	r0, r4
ARM GAS  C:\Users\Prashant\AppData\Local\Temp\ccIdreTb.s 			page 145


 6922              	.LVL973:
 6923 0032 FFF7FEFF 		bl	_ZN4Vec3IfE10set_ValuesEfff
 6924              	.LVL974:
 6925              	.LBE1792:
 6926              	.LBE1791:
 6927              	.LBE1790:
  14:Core/Src/robot/robo_init.cpp **** Vec3<float> gOmega_Bias;
 6928              		.loc 6 14 0
 6929 0036 4C4F     		ldr	r7, .L531+8
 6930 0038 3A46     		mov	r2, r7
 6931 003a 4C49     		ldr	r1, .L531+12
 6932 003c 2046     		mov	r0, r4
 6933 003e FFF7FEFF 		bl	__aeabi_atexit
 6934              	.LVL975:
 6935              	.LBB1793:
 6936              	.LBB1794:
 6937              	.LBB1795:
 6938              	.LBB1796:
  27:Core/Inc/utils/filter_algorithm.h ****                 set_Lambda(1);
 6939              		.loc 1 27 0
 6940 0042 4B48     		ldr	r0, .L531+16
 6941 0044 4B4B     		ldr	r3, .L531+20
 6942 0046 0360     		str	r3, [r0]
 6943              	.LVL976:
 6944              	.LBE1796:
 6945              	.LBE1795:
 6946              	.LBE1794:
 6947              	.LBB1797:
 6948              	.LBB1798:
  39:Core/Inc/utils/filter_algorithm.h ****         float filter(float low_pass, float rate, uint32_t dt_millis);
 6949              		.loc 1 39 0
 6950 0048 4B4B     		ldr	r3, .L531+24
 6951 004a 4360     		str	r3, [r0, #4]	@ float
 6952              	.LVL977:
 6953              	.LBE1798:
 6954              	.LBE1797:
 6955              	.LBE1793:
  16:Core/Src/robot/robo_init.cpp **** Complementary_Filter gHigh_Lambda(0.85);
 6956              		.loc 6 16 0
 6957 004c 3A46     		mov	r2, r7
 6958 004e 4B49     		ldr	r1, .L531+28
 6959 0050 FFF7FEFF 		bl	__aeabi_atexit
 6960              	.LVL978:
 6961              	.LBB1799:
 6962              	.LBB1800:
 6963              	.LBB1801:
 6964              	.LBB1802:
  52:Core/Inc/utils/filter_algorithm.h ****                 setK(0);
 6965              		.loc 1 52 0
 6966 0054 4A48     		ldr	r0, .L531+32
 6967 0056 4B4B     		ldr	r3, .L531+36
 6968 0058 0360     		str	r3, [r0]
  54:Core/Inc/utils/filter_algorithm.h ****         }
 6969              		.loc 1 54 0
 6970 005a 80ED028A 		vstr.32	s16, [r0, #8]
 6971              	.LVL979:
 6972              	.LBE1802:
ARM GAS  C:\Users\Prashant\AppData\Local\Temp\ccIdreTb.s 			page 146


 6973              	.LBE1801:
 6974              	.LBE1800:
 6975              	.LBB1803:
 6976              	.LBB1804:
  64:Core/Inc/utils/filter_algorithm.h **** 
  65:Core/Inc/utils/filter_algorithm.h ****         void setK(float k) { k_ = k; }
 6977              		.loc 1 65 0
 6978 005e 4A4B     		ldr	r3, .L531+40
 6979 0060 4360     		str	r3, [r0, #4]	@ float
 6980              	.LVL980:
 6981              	.LBE1804:
 6982              	.LBE1803:
 6983              	.LBE1799:
  17:Core/Src/robot/robo_init.cpp **** Complementary_Filter2 gDefault_K(7);
 6984              		.loc 6 17 0
 6985 0062 3A46     		mov	r2, r7
 6986 0064 4949     		ldr	r1, .L531+44
 6987 0066 FFF7FEFF 		bl	__aeabi_atexit
 6988              	.LVL981:
 6989              	.LBB1805:
 6990              	.LBB1806:
 6991              	.LBB1807:
 6992              	.LBB1808:
 6993              	.LBB1809:
  27:Core/Inc/utils/mat.h ****                 cols_ = columns;
 6994              		.loc 5 27 0
 6995 006a 494D     		ldr	r5, .L531+48
 6996 006c 0024     		movs	r4, #0
 6997 006e 85F82440 		strb	r4, [r5, #36]
  28:Core/Inc/utils/mat.h **** 
 6998              		.loc 5 28 0
 6999 0072 85F82540 		strb	r4, [r5, #37]
 7000              	.LVL982:
 7001              	.LBE1809:
 7002              	.LBE1808:
 7003              	.LBE1807:
 7004              	.LBE1806:
 7005              	.LBB1810:
 7006              	.LBB1811:
 7007              	.LBB1812:
 7008              	.LBB1813:
  27:Core/Inc/utils/mat.h ****                 cols_ = columns;
 7009              		.loc 5 27 0
 7010 0076 85F84C40 		strb	r4, [r5, #76]
  28:Core/Inc/utils/mat.h **** 
 7011              		.loc 5 28 0
 7012 007a 85F84D40 		strb	r4, [r5, #77]
 7013              	.LVL983:
 7014              	.LBE1813:
 7015              	.LBE1812:
 7016              	.LBE1811:
 7017              	.LBE1810:
 7018              	.LBB1814:
 7019              	.LBB1815:
 7020              	.LBB1816:
 7021              	.LBB1817:
  27:Core/Inc/utils/mat.h ****                 cols_ = columns;
ARM GAS  C:\Users\Prashant\AppData\Local\Temp\ccIdreTb.s 			page 147


 7022              		.loc 5 27 0
 7023 007e 85F87440 		strb	r4, [r5, #116]
  28:Core/Inc/utils/mat.h **** 
 7024              		.loc 5 28 0
 7025 0082 85F87540 		strb	r4, [r5, #117]
 7026              	.LVL984:
 7027              	.LBE1817:
 7028              	.LBE1816:
 7029              	.LBE1815:
 7030              	.LBE1814:
 7031              	.LBB1818:
 7032              	.LBB1819:
 7033              	.LBB1820:
 7034              	.LBB1821:
  27:Core/Inc/utils/mat.h ****                 cols_ = columns;
 7035              		.loc 5 27 0
 7036 0086 85F89C40 		strb	r4, [r5, #156]
  28:Core/Inc/utils/mat.h **** 
 7037              		.loc 5 28 0
 7038 008a 85F89D40 		strb	r4, [r5, #157]
 7039              	.LVL985:
 7040              	.LBE1821:
 7041              	.LBE1820:
 7042              	.LBE1819:
 7043              	.LBE1818:
 7044              	.LBB1822:
 7045              	.LBB1823:
 7046              	.LBB1824:
 7047              	.LBB1825:
  27:Core/Inc/utils/mat.h ****                 cols_ = columns;
 7048              		.loc 5 27 0
 7049 008e 85F8C440 		strb	r4, [r5, #196]
  28:Core/Inc/utils/mat.h **** 
 7050              		.loc 5 28 0
 7051 0092 85F8C540 		strb	r4, [r5, #197]
 7052              	.LVL986:
 7053              	.LBE1825:
 7054              	.LBE1824:
 7055              	.LBE1823:
 7056              	.LBE1822:
 7057              	.LBB1826:
 7058              	.LBB1827:
 7059              	.LBB1828:
 7060              	.LBB1829:
  27:Core/Inc/utils/mat.h ****                 cols_ = columns;
 7061              		.loc 5 27 0
 7062 0096 85F8EC40 		strb	r4, [r5, #236]
  28:Core/Inc/utils/mat.h **** 
 7063              		.loc 5 28 0
 7064 009a 85F8ED40 		strb	r4, [r5, #237]
 7065              	.LVL987:
 7066              	.LBE1829:
 7067              	.LBE1828:
 7068              	.LBE1827:
 7069              	.LBE1826:
 7070              	.LBB1830:
 7071              	.LBB1831:
ARM GAS  C:\Users\Prashant\AppData\Local\Temp\ccIdreTb.s 			page 148


 7072              	.LBB1832:
 7073              	.LBB1833:
  27:Core/Inc/utils/mat.h ****                 cols_ = columns;
 7074              		.loc 5 27 0
 7075 009e 85F81441 		strb	r4, [r5, #276]
  28:Core/Inc/utils/mat.h **** 
 7076              		.loc 5 28 0
 7077 00a2 85F81541 		strb	r4, [r5, #277]
 7078              	.LVL988:
 7079              	.LBE1833:
 7080              	.LBE1832:
 7081              	.LBE1831:
 7082              	.LBE1830:
 7083              	.LBE1805:
  19:Core/Src/robot/robo_init.cpp **** Kalman_Vars gAccel_Gyro;
 7084              		.loc 6 19 0
 7085 00a6 DFF8FC80 		ldr	r8, .L531+68
 7086 00aa 3A46     		mov	r2, r7
 7087 00ac 4146     		mov	r1, r8
 7088 00ae 2846     		mov	r0, r5
 7089 00b0 FFF7FEFF 		bl	__aeabi_atexit
 7090              	.LVL989:
 7091              	.LBB1834:
 7092              	.LBB1835:
 7093              	.LBB1836:
 7094              	.LBB1837:
 7095              	.LBB1838:
  27:Core/Inc/utils/mat.h ****                 cols_ = columns;
 7096              		.loc 5 27 0
 7097 00b4 374E     		ldr	r6, .L531+52
 7098 00b6 86F82440 		strb	r4, [r6, #36]
  28:Core/Inc/utils/mat.h **** 
 7099              		.loc 5 28 0
 7100 00ba 86F82540 		strb	r4, [r6, #37]
 7101              	.LVL990:
 7102              	.LBE1838:
 7103              	.LBE1837:
 7104              	.LBE1836:
 7105              	.LBE1835:
 7106              	.LBB1839:
 7107              	.LBB1840:
 7108              	.LBB1841:
 7109              	.LBB1842:
  27:Core/Inc/utils/mat.h ****                 cols_ = columns;
 7110              		.loc 5 27 0
 7111 00be 86F84C40 		strb	r4, [r6, #76]
  28:Core/Inc/utils/mat.h **** 
 7112              		.loc 5 28 0
 7113 00c2 86F84D40 		strb	r4, [r6, #77]
 7114              	.LVL991:
 7115              	.LBE1842:
 7116              	.LBE1841:
 7117              	.LBE1840:
 7118              	.LBE1839:
 7119              	.LBB1843:
 7120              	.LBB1844:
 7121              	.LBB1845:
ARM GAS  C:\Users\Prashant\AppData\Local\Temp\ccIdreTb.s 			page 149


 7122              	.LBB1846:
  27:Core/Inc/utils/mat.h ****                 cols_ = columns;
 7123              		.loc 5 27 0
 7124 00c6 86F87440 		strb	r4, [r6, #116]
  28:Core/Inc/utils/mat.h **** 
 7125              		.loc 5 28 0
 7126 00ca 86F87540 		strb	r4, [r6, #117]
 7127              	.LVL992:
 7128              	.LBE1846:
 7129              	.LBE1845:
 7130              	.LBE1844:
 7131              	.LBE1843:
 7132              	.LBB1847:
 7133              	.LBB1848:
 7134              	.LBB1849:
 7135              	.LBB1850:
  27:Core/Inc/utils/mat.h ****                 cols_ = columns;
 7136              		.loc 5 27 0
 7137 00ce 86F89C40 		strb	r4, [r6, #156]
  28:Core/Inc/utils/mat.h **** 
 7138              		.loc 5 28 0
 7139 00d2 86F89D40 		strb	r4, [r6, #157]
 7140              	.LVL993:
 7141              	.LBE1850:
 7142              	.LBE1849:
 7143              	.LBE1848:
 7144              	.LBE1847:
 7145              	.LBB1851:
 7146              	.LBB1852:
 7147              	.LBB1853:
 7148              	.LBB1854:
  27:Core/Inc/utils/mat.h ****                 cols_ = columns;
 7149              		.loc 5 27 0
 7150 00d6 86F8C440 		strb	r4, [r6, #196]
  28:Core/Inc/utils/mat.h **** 
 7151              		.loc 5 28 0
 7152 00da 86F8C540 		strb	r4, [r6, #197]
 7153              	.LVL994:
 7154              	.LBE1854:
 7155              	.LBE1853:
 7156              	.LBE1852:
 7157              	.LBE1851:
 7158              	.LBB1855:
 7159              	.LBB1856:
 7160              	.LBB1857:
 7161              	.LBB1858:
  27:Core/Inc/utils/mat.h ****                 cols_ = columns;
 7162              		.loc 5 27 0
 7163 00de 86F8EC40 		strb	r4, [r6, #236]
  28:Core/Inc/utils/mat.h **** 
 7164              		.loc 5 28 0
 7165 00e2 86F8ED40 		strb	r4, [r6, #237]
 7166              	.LVL995:
 7167              	.LBE1858:
 7168              	.LBE1857:
 7169              	.LBE1856:
 7170              	.LBE1855:
ARM GAS  C:\Users\Prashant\AppData\Local\Temp\ccIdreTb.s 			page 150


 7171              	.LBB1859:
 7172              	.LBB1860:
 7173              	.LBB1861:
 7174              	.LBB1862:
  27:Core/Inc/utils/mat.h ****                 cols_ = columns;
 7175              		.loc 5 27 0
 7176 00e6 86F81441 		strb	r4, [r6, #276]
  28:Core/Inc/utils/mat.h **** 
 7177              		.loc 5 28 0
 7178 00ea 86F81541 		strb	r4, [r6, #277]
 7179              	.LVL996:
 7180              	.LBE1862:
 7181              	.LBE1861:
 7182              	.LBE1860:
 7183              	.LBE1859:
 7184              	.LBE1834:
  20:Core/Src/robot/robo_init.cpp **** Kalman_Vars gLidar_Encoder;
 7185              		.loc 6 20 0
 7186 00ee 3A46     		mov	r2, r7
 7187 00f0 4146     		mov	r1, r8
 7188 00f2 3046     		mov	r0, r6
 7189 00f4 FFF7FEFF 		bl	__aeabi_atexit
 7190              	.LVL997:
  23:Core/Src/robot/robo_init.cpp **** Kalman_Filter gRoll_Filter(&gAccel_Gyro);
 7191              		.loc 6 23 0
 7192 00f8 DFF8AC90 		ldr	r9, .L531+72
 7193 00fc 2946     		mov	r1, r5
 7194 00fe 4846     		mov	r0, r9
 7195 0100 FFF7FEFF 		bl	_ZN13Kalman_FilterC1EP11Kalman_Vars
 7196              	.LVL998:
 7197 0104 DFF8A480 		ldr	r8, .L531+76
 7198 0108 3A46     		mov	r2, r7
 7199 010a 4146     		mov	r1, r8
 7200 010c 4846     		mov	r0, r9
 7201 010e FFF7FEFF 		bl	__aeabi_atexit
 7202              	.LVL999:
  24:Core/Src/robot/robo_init.cpp **** Kalman_Filter gPitch_Filter(&gAccel_Gyro);
 7203              		.loc 6 24 0
 7204 0112 DFF89C90 		ldr	r9, .L531+80
 7205 0116 2946     		mov	r1, r5
 7206 0118 4846     		mov	r0, r9
 7207 011a FFF7FEFF 		bl	_ZN13Kalman_FilterC1EP11Kalman_Vars
 7208              	.LVL1000:
 7209 011e 3A46     		mov	r2, r7
 7210 0120 4146     		mov	r1, r8
 7211 0122 4846     		mov	r0, r9
 7212 0124 FFF7FEFF 		bl	__aeabi_atexit
 7213              	.LVL1001:
  25:Core/Src/robot/robo_init.cpp **** Kalman_Filter gYaw_Filter(&gAccel_Gyro);
 7214              		.loc 6 25 0
 7215 0128 DFF88890 		ldr	r9, .L531+84
 7216 012c 2946     		mov	r1, r5
 7217 012e 4846     		mov	r0, r9
 7218 0130 FFF7FEFF 		bl	_ZN13Kalman_FilterC1EP11Kalman_Vars
 7219              	.LVL1002:
 7220 0134 3A46     		mov	r2, r7
 7221 0136 4146     		mov	r1, r8
ARM GAS  C:\Users\Prashant\AppData\Local\Temp\ccIdreTb.s 			page 151


 7222 0138 4846     		mov	r0, r9
 7223 013a FFF7FEFF 		bl	__aeabi_atexit
 7224              	.LVL1003:
  26:Core/Src/robot/robo_init.cpp **** Kalman_Filter gXDist_Filter(&gLidar_Encoder);
 7225              		.loc 6 26 0
 7226 013e 164D     		ldr	r5, .L531+56
 7227 0140 3146     		mov	r1, r6
 7228 0142 2846     		mov	r0, r5
 7229 0144 FFF7FEFF 		bl	_ZN13Kalman_FilterC1EP11Kalman_Vars
 7230              	.LVL1004:
 7231 0148 3A46     		mov	r2, r7
 7232 014a 4146     		mov	r1, r8
 7233 014c 2846     		mov	r0, r5
 7234 014e FFF7FEFF 		bl	__aeabi_atexit
 7235              	.LVL1005:
 7236              	.LBB1863:
 7237              	.LBB1864:
 7238              	.LBB1865:
  17:Core/Inc/utils/filter.h **** 
 7239              		.loc 3 17 0
 7240 0152 1248     		ldr	r0, .L531+60
 7241 0154 0460     		str	r4, [r0]
 7242              	.LVL1006:
 7243              	.LBE1865:
 7244              	.LBE1864:
 7245              	.LBE1863:
  27:Core/Src/robot/robo_init.cpp **** Filter Second_Pass;
 7246              		.loc 6 27 0
 7247 0156 3A46     		mov	r2, r7
 7248 0158 1149     		ldr	r1, .L531+64
 7249 015a FFF7FEFF 		bl	__aeabi_atexit
 7250              	.LVL1007:
 7251              		.loc 6 124 0
 7252 015e 5AE7     		b	.L523
 7253              	.L532:
 7254              		.align	2
 7255              	.L531:
 7256 0160 00000000 		.word	0
 7257 0164 00000000 		.word	.LANCHOR2
 7258 0168 00000000 		.word	__dso_handle
 7259 016c 00000000 		.word	_ZN4Vec3IfED1Ev
 7260 0170 00000000 		.word	.LANCHOR3
 7261 0174 08000000 		.word	_ZTV20Complementary_Filter+8
 7262 0178 9A99593F 		.word	1062836634
 7263 017c 00000000 		.word	_ZN20Complementary_FilterD1Ev
 7264 0180 00000000 		.word	.LANCHOR4
 7265 0184 08000000 		.word	_ZTV21Complementary_Filter2+8
 7266 0188 0000E040 		.word	1088421888
 7267 018c 00000000 		.word	_ZN21Complementary_Filter2D1Ev
 7268 0190 00000000 		.word	.LANCHOR0
 7269 0194 00000000 		.word	.LANCHOR1
 7270 0198 00000000 		.word	.LANCHOR8
 7271 019c 00000000 		.word	.LANCHOR9
 7272 01a0 00000000 		.word	_ZN6FilterD1Ev
 7273 01a4 00000000 		.word	_ZN11Kalman_VarsD1Ev
 7274 01a8 00000000 		.word	.LANCHOR5
 7275 01ac 00000000 		.word	_ZN13Kalman_FilterD1Ev
ARM GAS  C:\Users\Prashant\AppData\Local\Temp\ccIdreTb.s 			page 152


 7276 01b0 00000000 		.word	.LANCHOR6
 7277 01b4 00000000 		.word	.LANCHOR7
 7278              		.cfi_endproc
 7279              	.LFE473:
 7281              		.section	.text._GLOBAL__sub_I_gOmega_Bias,"ax",%progbits
 7282              		.align	1
 7283              		.syntax unified
 7284              		.thumb
 7285              		.thumb_func
 7286              		.fpu fpv4-sp-d16
 7288              	_GLOBAL__sub_I_gOmega_Bias:
 7289              	.LFB477:
 7290              		.loc 6 124 0
 7291              		.cfi_startproc
 7292              		@ args = 0, pretend = 0, frame = 0
 7293              		@ frame_needed = 0, uses_anonymous_args = 0
 7294 0000 08B5     		push	{r3, lr}
 7295              	.LCFI21:
 7296              		.cfi_def_cfa_offset 8
 7297              		.cfi_offset 3, -8
 7298              		.cfi_offset 14, -4
 7299              		.loc 6 124 0
 7300 0002 4FF6FF71 		movw	r1, #65535
 7301 0006 0120     		movs	r0, #1
 7302 0008 FFF7FEFF 		bl	_Z41__static_initialization_and_destruction_0ii
 7303              	.LVL1008:
 7304 000c 08BD     		pop	{r3, pc}
 7305              		.cfi_endproc
 7306              	.LFE477:
 7308              		.section	.init_array,"aw",%init_array
 7309              		.align	2
 7310 0000 00000000 		.word	_GLOBAL__sub_I_gOmega_Bias(target1)
 7311              		.weak	_ZTS16Filter_Algorithm
 7312              		.section	.rodata._ZTS16Filter_Algorithm,"aG",%progbits,_ZTS16Filter_Algorithm,comdat
 7313              		.align	2
 7316              	_ZTS16Filter_Algorithm:
 7317 0000 31364669 		.ascii	"16Filter_Algorithm\000"
 7317      6C746572 
 7317      5F416C67 
 7317      6F726974 
 7317      686D00
 7318              		.weak	_ZTI16Filter_Algorithm
 7319              		.section	.rodata._ZTI16Filter_Algorithm,"aG",%progbits,_ZTI16Filter_Algorithm,comdat
 7320              		.align	2
 7323              	_ZTI16Filter_Algorithm:
 7324 0000 08000000 		.word	_ZTVN10__cxxabiv117__class_type_infoE+8
 7325 0004 00000000 		.word	_ZTS16Filter_Algorithm
 7326              		.weak	_ZTS13Kalman_Filter
 7327              		.section	.rodata._ZTS13Kalman_Filter,"aG",%progbits,_ZTS13Kalman_Filter,comdat
 7328              		.align	2
 7331              	_ZTS13Kalman_Filter:
 7332 0000 31334B61 		.ascii	"13Kalman_Filter\000"
 7332      6C6D616E 
 7332      5F46696C 
 7332      74657200 
 7333              		.weak	_ZTI13Kalman_Filter
 7334              		.section	.rodata._ZTI13Kalman_Filter,"aG",%progbits,_ZTI13Kalman_Filter,comdat
ARM GAS  C:\Users\Prashant\AppData\Local\Temp\ccIdreTb.s 			page 153


 7335              		.align	2
 7338              	_ZTI13Kalman_Filter:
 7339 0000 08000000 		.word	_ZTVN10__cxxabiv120__si_class_type_infoE+8
 7340 0004 00000000 		.word	_ZTS13Kalman_Filter
 7341 0008 00000000 		.word	_ZTI16Filter_Algorithm
 7342              		.weak	_ZTV13Kalman_Filter
 7343              		.section	.rodata._ZTV13Kalman_Filter,"aG",%progbits,_ZTV13Kalman_Filter,comdat
 7344              		.align	2
 7347              	_ZTV13Kalman_Filter:
 7348 0000 00000000 		.word	0
 7349 0004 00000000 		.word	_ZTI13Kalman_Filter
 7350 0008 00000000 		.word	_ZN13Kalman_Filter6filterEffm
 7351 000c 00000000 		.word	_ZN13Kalman_FilterD1Ev
 7352 0010 00000000 		.word	_ZN13Kalman_FilterD0Ev
 7353              		.global	Second_Pass
 7354              		.global	gXDist_Filter
 7355              		.global	gYaw_Filter
 7356              		.global	gPitch_Filter
 7357              		.global	gRoll_Filter
 7358              		.global	gLidar_Encoder
 7359              		.global	gAccel_Gyro
 7360              		.global	gDefault_K
 7361              		.global	gHigh_Lambda
 7362              		.global	gOmega_Bias
 7363              		.section	.bss.Second_Pass,"aw",%nobits
 7364              		.align	2
 7365              		.set	.LANCHOR9,. + 0
 7368              	Second_Pass:
 7369 0000 00000000 		.space	4
 7370              		.section	.bss.gAccel_Gyro,"aw",%nobits
 7371              		.align	2
 7372              		.set	.LANCHOR0,. + 0
 7375              	gAccel_Gyro:
 7376 0000 00000000 		.space	280
 7376      00000000 
 7376      00000000 
 7376      00000000 
 7376      00000000 
 7377              		.section	.bss.gDefault_K,"aw",%nobits
 7378              		.align	2
 7379              		.set	.LANCHOR4,. + 0
 7382              	gDefault_K:
 7383 0000 00000000 		.space	16
 7383      00000000 
 7383      00000000 
 7383      00000000 
 7384              		.section	.bss.gHigh_Lambda,"aw",%nobits
 7385              		.align	2
 7386              		.set	.LANCHOR3,. + 0
 7389              	gHigh_Lambda:
 7390 0000 00000000 		.space	12
 7390      00000000 
 7390      00000000 
 7391              		.section	.bss.gLidar_Encoder,"aw",%nobits
 7392              		.align	2
 7393              		.set	.LANCHOR1,. + 0
 7396              	gLidar_Encoder:
ARM GAS  C:\Users\Prashant\AppData\Local\Temp\ccIdreTb.s 			page 154


 7397 0000 00000000 		.space	280
 7397      00000000 
 7397      00000000 
 7397      00000000 
 7397      00000000 
 7398              		.section	.bss.gOmega_Bias,"aw",%nobits
 7399              		.align	2
 7400              		.set	.LANCHOR2,. + 0
 7403              	gOmega_Bias:
 7404 0000 00000000 		.space	12
 7404      00000000 
 7404      00000000 
 7405              		.section	.bss.gPitch_Filter,"aw",%nobits
 7406              		.align	2
 7407              		.set	.LANCHOR6,. + 0
 7410              	gPitch_Filter:
 7411 0000 00000000 		.space	172
 7411      00000000 
 7411      00000000 
 7411      00000000 
 7411      00000000 
 7412              		.section	.bss.gRoll_Filter,"aw",%nobits
 7413              		.align	2
 7414              		.set	.LANCHOR5,. + 0
 7417              	gRoll_Filter:
 7418 0000 00000000 		.space	172
 7418      00000000 
 7418      00000000 
 7418      00000000 
 7418      00000000 
 7419              		.section	.bss.gXDist_Filter,"aw",%nobits
 7420              		.align	2
 7421              		.set	.LANCHOR8,. + 0
 7424              	gXDist_Filter:
 7425 0000 00000000 		.space	172
 7425      00000000 
 7425      00000000 
 7425      00000000 
 7425      00000000 
 7426              		.section	.bss.gYaw_Filter,"aw",%nobits
 7427              		.align	2
 7428              		.set	.LANCHOR7,. + 0
 7431              	gYaw_Filter:
 7432 0000 00000000 		.space	172
 7432      00000000 
 7432      00000000 
 7432      00000000 
 7432      00000000 
 7433              		.section	.rodata._ZN13Kalman_Filter6filterEffm.str1.4,"aMS",%progbits,1
 7434              		.align	2
 7435              	.LC0:
 7436 0000 436F7265 		.ascii	"Core/Inc/utils/mat.h\000"
 7436      2F496E63 
 7436      2F757469 
 7436      6C732F6D 
 7436      61742E68 
 7437              		.text
ARM GAS  C:\Users\Prashant\AppData\Local\Temp\ccIdreTb.s 			page 155


 7438              	.Letext0:
 7439              		.file 7 "c:\\program files (x86)\\gnu tools arm embedded\\7 2017-q4-major\\arm-none-eabi\\include\
 7440              		.file 8 "c:\\program files (x86)\\gnu tools arm embedded\\7 2017-q4-major\\arm-none-eabi\\include\
 7441              		.file 9 "C:/Users/Prashant/STM32Cube/Repository/STM32Cube_FW_F4_V1.21.0/Drivers/CMSIS/Include/core
 7442              		.file 10 "C:/Users/Prashant/STM32Cube/Repository/STM32Cube_FW_F4_V1.21.0/Drivers/CMSIS/Device/ST/S
 7443              		.file 11 "C:/Users/Prashant/STM32Cube/Repository/STM32Cube_FW_F4_V1.21.0/Drivers/CMSIS/Device/ST/S
 7444              		.file 12 "C:/Users/Prashant/STM32Cube/Repository/STM32Cube_FW_F4_V1.21.0/Drivers/CMSIS/Device/ST/S
 7445              		.file 13 "c:\\program files (x86)\\gnu tools arm embedded\\7 2017-q4-major\\arm-none-eabi\\include
 7446              		.file 14 "c:\\program files (x86)\\gnu tools arm embedded\\7 2017-q4-major\\arm-none-eabi\\include
 7447              		.file 15 "c:\\program files (x86)\\gnu tools arm embedded\\7 2017-q4-major\\lib\\gcc\\arm-none-eab
 7448              		.file 16 "c:\\program files (x86)\\gnu tools arm embedded\\7 2017-q4-major\\arm-none-eabi\\include
 7449              		.file 17 "C:/Users/Prashant/STM32Cube/Repository/STM32Cube_FW_F4_V1.21.0/Drivers/STM32F4xx_HAL_Dri
 7450              		.file 18 "C:/Users/Prashant/STM32Cube/Repository/STM32Cube_FW_F4_V1.21.0/Drivers/STM32F4xx_HAL_Dri
 7451              		.file 19 "C:/Users/Prashant/STM32Cube/Repository/STM32Cube_FW_F4_V1.21.0/Drivers/STM32F4xx_HAL_Dri
 7452              		.file 20 "C:/Users/Prashant/STM32Cube/Repository/STM32Cube_FW_F4_V1.21.0/Drivers/STM32F4xx_HAL_Dri
 7453              		.file 21 "C:/Users/Prashant/STM32Cube/Repository/STM32Cube_FW_F4_V1.21.0/Drivers/STM32F4xx_HAL_Dri
 7454              		.file 22 "C:/Users/Prashant/STM32Cube/Repository/STM32Cube_FW_F4_V1.21.0/Drivers/STM32F4xx_HAL_Dri
 7455              		.file 23 "Core/Inc\\periphs/i2c.h"
 7456              		.file 24 "Core/Inc/devs/mpu6050.h"
 7457              		.file 25 "c:\\program files (x86)\\gnu tools arm embedded\\7 2017-q4-major\\arm-none-eabi\\include
 7458              		.file 26 "c:\\program files (x86)\\gnu tools arm embedded\\7 2017-q4-major\\arm-none-eabi\\include
 7459              		.file 27 "c:\\program files (x86)\\gnu tools arm embedded\\7 2017-q4-major\\arm-none-eabi\\include
 7460              		.file 28 "c:\\program files (x86)\\gnu tools arm embedded\\7 2017-q4-major\\arm-none-eabi\\include
 7461              		.file 29 "c:\\program files (x86)\\gnu tools arm embedded\\7 2017-q4-major\\arm-none-eabi\\include
 7462              		.file 30 "c:\\program files (x86)\\gnu tools arm embedded\\7 2017-q4-major\\arm-none-eabi\\include
 7463              		.file 31 "Core/Inc/periphs/tim.h"
 7464              		.file 32 "Core/Inc/devs/a4988.h"
 7465              		.file 33 "Core/Inc/devs/hmc5883.h"
 7466              		.file 34 "Core/Inc/devs/encoder.h"
 7467              		.file 35 "Core/Inc/periphs/usart.h"
 7468              		.file 36 "Core/Inc\\devs/wheeler.h"
 7469              		.file 37 "Core/Inc/robot/devs_config.h"
 7470              		.file 38 "Core/Inc/robot/robo_init.h"
 7471              		.file 39 "Core/Inc/devs/lidar.h"
 7472              		.file 40 "Core/Inc/utils/imu_utils.h"
 7473              		.file 41 "<built-in>"
ARM GAS  C:\Users\Prashant\AppData\Local\Temp\ccIdreTb.s 			page 156


DEFINED SYMBOLS
                            *ABS*:00000000 robo_init.cpp
C:\Users\Prashant\AppData\Local\Temp\ccIdreTb.s:18     .text._ZN20Complementary_FilterD2Ev:00000000 $t
C:\Users\Prashant\AppData\Local\Temp\ccIdreTb.s:25     .text._ZN20Complementary_FilterD2Ev:00000000 _ZN20Complementary_FilterD2Ev
C:\Users\Prashant\AppData\Local\Temp\ccIdreTb.s:25     .text._ZN20Complementary_FilterD2Ev:00000000 _ZN20Complementary_FilterD1Ev
C:\Users\Prashant\AppData\Local\Temp\ccIdreTb.s:42     .text._ZN21Complementary_Filter2D2Ev:00000000 $t
C:\Users\Prashant\AppData\Local\Temp\ccIdreTb.s:49     .text._ZN21Complementary_Filter2D2Ev:00000000 _ZN21Complementary_Filter2D2Ev
C:\Users\Prashant\AppData\Local\Temp\ccIdreTb.s:49     .text._ZN21Complementary_Filter2D2Ev:00000000 _ZN21Complementary_Filter2D1Ev
C:\Users\Prashant\AppData\Local\Temp\ccIdreTb.s:65     .text._ZN13Kalman_FilterD2Ev:00000000 $t
C:\Users\Prashant\AppData\Local\Temp\ccIdreTb.s:72     .text._ZN13Kalman_FilterD2Ev:00000000 _ZN13Kalman_FilterD2Ev
C:\Users\Prashant\AppData\Local\Temp\ccIdreTb.s:72     .text._ZN13Kalman_FilterD2Ev:00000000 _ZN13Kalman_FilterD1Ev
C:\Users\Prashant\AppData\Local\Temp\ccIdreTb.s:89     .text._ZN6FilterD2Ev:00000000 $t
C:\Users\Prashant\AppData\Local\Temp\ccIdreTb.s:96     .text._ZN6FilterD2Ev:00000000 _ZN6FilterD2Ev
C:\Users\Prashant\AppData\Local\Temp\ccIdreTb.s:96     .text._ZN6FilterD2Ev:00000000 _ZN6FilterD1Ev
C:\Users\Prashant\AppData\Local\Temp\ccIdreTb.s:113    .text._ZN4Vec3IfED2Ev:00000000 $t
C:\Users\Prashant\AppData\Local\Temp\ccIdreTb.s:120    .text._ZN4Vec3IfED2Ev:00000000 _ZN4Vec3IfED2Ev
C:\Users\Prashant\AppData\Local\Temp\ccIdreTb.s:120    .text._ZN4Vec3IfED2Ev:00000000 _ZN4Vec3IfED1Ev
C:\Users\Prashant\AppData\Local\Temp\ccIdreTb.s:137    .text._ZN11Kalman_VarsD2Ev:00000000 $t
C:\Users\Prashant\AppData\Local\Temp\ccIdreTb.s:144    .text._ZN11Kalman_VarsD2Ev:00000000 _ZN11Kalman_VarsD2Ev
C:\Users\Prashant\AppData\Local\Temp\ccIdreTb.s:144    .text._ZN11Kalman_VarsD2Ev:00000000 _ZN11Kalman_VarsD1Ev
C:\Users\Prashant\AppData\Local\Temp\ccIdreTb.s:160    .text._ZN13Kalman_FilterD0Ev:00000000 $t
C:\Users\Prashant\AppData\Local\Temp\ccIdreTb.s:167    .text._ZN13Kalman_FilterD0Ev:00000000 _ZN13Kalman_FilterD0Ev
C:\Users\Prashant\AppData\Local\Temp\ccIdreTb.s:194    .text._ZN13Kalman_Filter6filterEffm:00000000 $t
C:\Users\Prashant\AppData\Local\Temp\ccIdreTb.s:201    .text._ZN13Kalman_Filter6filterEffm:00000000 _ZN13Kalman_Filter6filterEffm
C:\Users\Prashant\AppData\Local\Temp\ccIdreTb.s:912    .text._ZN13Kalman_Filter6filterEffm:00000340 $d
C:\Users\Prashant\AppData\Local\Temp\ccIdreTb.s:916    .text._ZN13Kalman_Filter6filterEffm:00000348 $t
C:\Users\Prashant\AppData\Local\Temp\ccIdreTb.s:1668   .text._ZN13Kalman_Filter6filterEffm:000006b4 $d
C:\Users\Prashant\AppData\Local\Temp\ccIdreTb.s:1675   .text._ZN13Kalman_Filter6filterEffm:000006bc $t
C:\Users\Prashant\AppData\Local\Temp\ccIdreTb.s:2474   .text._ZN13Kalman_Filter6filterEffm:00000a5c $d
C:\Users\Prashant\AppData\Local\Temp\ccIdreTb.s:2489   .text._ZN13Kalman_Filter6filterEffm:00000a64 $t
C:\Users\Prashant\AppData\Local\Temp\ccIdreTb.s:3140   .text._ZN13Kalman_Filter6filterEffm:00000db8 $d
C:\Users\Prashant\AppData\Local\Temp\ccIdreTb.s:3152   .text._ZN13Kalman_Filter6filterEffm:00000dc8 $t
C:\Users\Prashant\AppData\Local\Temp\ccIdreTb.s:3885   .text._ZN13Kalman_Filter6filterEffm:00001114 $d
C:\Users\Prashant\AppData\Local\Temp\ccIdreTb.s:3891   .text._ZN20Complementary_FilterD0Ev:00000000 $t
C:\Users\Prashant\AppData\Local\Temp\ccIdreTb.s:3898   .text._ZN20Complementary_FilterD0Ev:00000000 _ZN20Complementary_FilterD0Ev
C:\Users\Prashant\AppData\Local\Temp\ccIdreTb.s:3921   .text._ZN21Complementary_Filter2D0Ev:00000000 $t
C:\Users\Prashant\AppData\Local\Temp\ccIdreTb.s:3928   .text._ZN21Complementary_Filter2D0Ev:00000000 _ZN21Complementary_Filter2D0Ev
C:\Users\Prashant\AppData\Local\Temp\ccIdreTb.s:3951   .text._ZN13Kalman_FilterC2EP11Kalman_Vars:00000000 $t
C:\Users\Prashant\AppData\Local\Temp\ccIdreTb.s:3958   .text._ZN13Kalman_FilterC2EP11Kalman_Vars:00000000 _ZN13Kalman_FilterC2EP11Kalman_Vars
C:\Users\Prashant\AppData\Local\Temp\ccIdreTb.s:4184   .text._ZN13Kalman_FilterC2EP11Kalman_Vars:000000d0 $d
C:\Users\Prashant\AppData\Local\Temp\ccIdreTb.s:7347   .rodata._ZTV13Kalman_Filter:00000000 _ZTV13Kalman_Filter
C:\Users\Prashant\AppData\Local\Temp\ccIdreTb.s:3958   .text._ZN13Kalman_FilterC2EP11Kalman_Vars:00000000 _ZN13Kalman_FilterC1EP11Kalman_Vars
C:\Users\Prashant\AppData\Local\Temp\ccIdreTb.s:4191   .text._Z12swap_ElementIhEvRT_S1_:00000000 $t
C:\Users\Prashant\AppData\Local\Temp\ccIdreTb.s:4198   .text._Z12swap_ElementIhEvRT_S1_:00000000 _Z12swap_ElementIhEvRT_S1_
C:\Users\Prashant\AppData\Local\Temp\ccIdreTb.s:4220   .text._Z12swap_ElementIfEvRT_S1_:00000000 $t
C:\Users\Prashant\AppData\Local\Temp\ccIdreTb.s:4227   .text._Z12swap_ElementIfEvRT_S1_:00000000 _Z12swap_ElementIfEvRT_S1_
C:\Users\Prashant\AppData\Local\Temp\ccIdreTb.s:4249   .text._ZL7KF_Initm:00000000 $t
C:\Users\Prashant\AppData\Local\Temp\ccIdreTb.s:4255   .text._ZL7KF_Initm:00000000 _ZL7KF_Initm
C:\Users\Prashant\AppData\Local\Temp\ccIdreTb.s:4976   .text._ZL7KF_Initm:0000030c $d
C:\Users\Prashant\AppData\Local\Temp\ccIdreTb.s:4998   .text._ZL7KF_Initm:00000324 $t
C:\Users\Prashant\AppData\Local\Temp\ccIdreTb.s:5552   .text._ZL7KF_Initm:000005a4 $d
C:\Users\Prashant\AppData\Local\Temp\ccIdreTb.s:5565   .text._ZL7KF_Initm:000005a8 $t
C:\Users\Prashant\AppData\Local\Temp\ccIdreTb.s:6195   .text._ZL7KF_Initm:00000880 $d
C:\Users\Prashant\AppData\Local\Temp\ccIdreTb.s:6204   .text._ZL7KF_Initm:0000089c $t
C:\Users\Prashant\AppData\Local\Temp\ccIdreTb.s:6763   .text._ZL7KF_Initm:00000b0c $d
C:\Users\Prashant\AppData\Local\Temp\ccIdreTb.s:6768   .text._Z9robo_Initm:00000000 $t
C:\Users\Prashant\AppData\Local\Temp\ccIdreTb.s:6775   .text._Z9robo_Initm:00000000 _Z9robo_Initm
ARM GAS  C:\Users\Prashant\AppData\Local\Temp\ccIdreTb.s 			page 157


C:\Users\Prashant\AppData\Local\Temp\ccIdreTb.s:6827   .text._Z9robo_Initm:00000038 $d
C:\Users\Prashant\AppData\Local\Temp\ccIdreTb.s:6833   .text._ZN4Vec3IfE10set_ValuesEfff:00000000 $t
C:\Users\Prashant\AppData\Local\Temp\ccIdreTb.s:6840   .text._ZN4Vec3IfE10set_ValuesEfff:00000000 _ZN4Vec3IfE10set_ValuesEfff
C:\Users\Prashant\AppData\Local\Temp\ccIdreTb.s:6860   .text._Z41__static_initialization_and_destruction_0ii:00000000 $t
C:\Users\Prashant\AppData\Local\Temp\ccIdreTb.s:6866   .text._Z41__static_initialization_and_destruction_0ii:00000000 _Z41__static_initialization_and_destruction_0ii
C:\Users\Prashant\AppData\Local\Temp\ccIdreTb.s:7256   .text._Z41__static_initialization_and_destruction_0ii:00000160 $d
C:\Users\Prashant\AppData\Local\Temp\ccIdreTb.s:7282   .text._GLOBAL__sub_I_gOmega_Bias:00000000 $t
C:\Users\Prashant\AppData\Local\Temp\ccIdreTb.s:7288   .text._GLOBAL__sub_I_gOmega_Bias:00000000 _GLOBAL__sub_I_gOmega_Bias
C:\Users\Prashant\AppData\Local\Temp\ccIdreTb.s:7309   .init_array:00000000 $d
C:\Users\Prashant\AppData\Local\Temp\ccIdreTb.s:7316   .rodata._ZTS16Filter_Algorithm:00000000 _ZTS16Filter_Algorithm
C:\Users\Prashant\AppData\Local\Temp\ccIdreTb.s:7313   .rodata._ZTS16Filter_Algorithm:00000000 $d
C:\Users\Prashant\AppData\Local\Temp\ccIdreTb.s:7323   .rodata._ZTI16Filter_Algorithm:00000000 _ZTI16Filter_Algorithm
C:\Users\Prashant\AppData\Local\Temp\ccIdreTb.s:7320   .rodata._ZTI16Filter_Algorithm:00000000 $d
C:\Users\Prashant\AppData\Local\Temp\ccIdreTb.s:7331   .rodata._ZTS13Kalman_Filter:00000000 _ZTS13Kalman_Filter
C:\Users\Prashant\AppData\Local\Temp\ccIdreTb.s:7328   .rodata._ZTS13Kalman_Filter:00000000 $d
C:\Users\Prashant\AppData\Local\Temp\ccIdreTb.s:7338   .rodata._ZTI13Kalman_Filter:00000000 _ZTI13Kalman_Filter
C:\Users\Prashant\AppData\Local\Temp\ccIdreTb.s:7335   .rodata._ZTI13Kalman_Filter:00000000 $d
C:\Users\Prashant\AppData\Local\Temp\ccIdreTb.s:7344   .rodata._ZTV13Kalman_Filter:00000000 $d
C:\Users\Prashant\AppData\Local\Temp\ccIdreTb.s:7368   .bss.Second_Pass:00000000 Second_Pass
C:\Users\Prashant\AppData\Local\Temp\ccIdreTb.s:7424   .bss.gXDist_Filter:00000000 gXDist_Filter
C:\Users\Prashant\AppData\Local\Temp\ccIdreTb.s:7431   .bss.gYaw_Filter:00000000 gYaw_Filter
C:\Users\Prashant\AppData\Local\Temp\ccIdreTb.s:7410   .bss.gPitch_Filter:00000000 gPitch_Filter
C:\Users\Prashant\AppData\Local\Temp\ccIdreTb.s:7417   .bss.gRoll_Filter:00000000 gRoll_Filter
C:\Users\Prashant\AppData\Local\Temp\ccIdreTb.s:7396   .bss.gLidar_Encoder:00000000 gLidar_Encoder
C:\Users\Prashant\AppData\Local\Temp\ccIdreTb.s:7375   .bss.gAccel_Gyro:00000000 gAccel_Gyro
C:\Users\Prashant\AppData\Local\Temp\ccIdreTb.s:7382   .bss.gDefault_K:00000000 gDefault_K
C:\Users\Prashant\AppData\Local\Temp\ccIdreTb.s:7389   .bss.gHigh_Lambda:00000000 gHigh_Lambda
C:\Users\Prashant\AppData\Local\Temp\ccIdreTb.s:7403   .bss.gOmega_Bias:00000000 gOmega_Bias
C:\Users\Prashant\AppData\Local\Temp\ccIdreTb.s:7364   .bss.Second_Pass:00000000 $d
C:\Users\Prashant\AppData\Local\Temp\ccIdreTb.s:7371   .bss.gAccel_Gyro:00000000 $d
C:\Users\Prashant\AppData\Local\Temp\ccIdreTb.s:7378   .bss.gDefault_K:00000000 $d
C:\Users\Prashant\AppData\Local\Temp\ccIdreTb.s:7385   .bss.gHigh_Lambda:00000000 $d
C:\Users\Prashant\AppData\Local\Temp\ccIdreTb.s:7392   .bss.gLidar_Encoder:00000000 $d
C:\Users\Prashant\AppData\Local\Temp\ccIdreTb.s:7399   .bss.gOmega_Bias:00000000 $d
C:\Users\Prashant\AppData\Local\Temp\ccIdreTb.s:7406   .bss.gPitch_Filter:00000000 $d
C:\Users\Prashant\AppData\Local\Temp\ccIdreTb.s:7413   .bss.gRoll_Filter:00000000 $d
C:\Users\Prashant\AppData\Local\Temp\ccIdreTb.s:7420   .bss.gXDist_Filter:00000000 $d
C:\Users\Prashant\AppData\Local\Temp\ccIdreTb.s:7427   .bss.gYaw_Filter:00000000 $d
C:\Users\Prashant\AppData\Local\Temp\ccIdreTb.s:7434   .rodata._ZN13Kalman_Filter6filterEffm.str1.4:00000000 $d
                           .group:00000000 _ZN20Complementary_FilterD5Ev
                           .group:00000000 _ZN21Complementary_Filter2D5Ev
                           .group:00000000 _ZN13Kalman_FilterD5Ev
                           .group:00000000 _ZN6FilterD5Ev
                           .group:00000000 _ZN4Vec3IfED5Ev
                           .group:00000000 _ZN11Kalman_VarsD5Ev
                           .group:00000000 _ZN13Kalman_FilterC5EP11Kalman_Vars

UNDEFINED SYMBOLS
_ZdlPvj
__aeabi_f2d
__aeabi_dcmplt
__aeabi_ddiv
__aeabi_d2f
_Error_Handler
_Z8IMU_Initv
_Z12Stepper_Initv
_Z13Encoders_Initv
ARM GAS  C:\Users\Prashant\AppData\Local\Temp\ccIdreTb.s 			page 158


_Z10LIDAR_Initv
_Z12Wheeler_Initv
_Z14calc_OmegaMeanP7MPU6050m
Body_IMU
__aeabi_atexit
__dso_handle
_ZTV20Complementary_Filter
_ZTV21Complementary_Filter2
_ZTVN10__cxxabiv117__class_type_infoE
_ZTVN10__cxxabiv120__si_class_type_infoE
