ARM GAS  C:\Users\Prashant\AppData\Local\Temp\ccmMUy6e.s 			page 1


   1              		.cpu cortex-m4
   2              		.eabi_attribute 27, 1
   3              		.eabi_attribute 28, 1
   4              		.eabi_attribute 20, 1
   5              		.eabi_attribute 21, 1
   6              		.eabi_attribute 23, 3
   7              		.eabi_attribute 24, 1
   8              		.eabi_attribute 25, 1
   9              		.eabi_attribute 26, 1
  10              		.eabi_attribute 30, 1
  11              		.eabi_attribute 34, 1
  12              		.eabi_attribute 18, 4
  13              		.file	"smoothie.cpp"
  14              		.text
  15              	.Ltext0:
  16              		.cfi_sections	.debug_frame
  17              		.section	.text._ZN8SmoothieC2EP19Smoothing_Algorithm,"ax",%progbits
  18              		.align	1
  19              		.global	_ZN8SmoothieC2EP19Smoothing_Algorithm
  20              		.syntax unified
  21              		.thumb
  22              		.thumb_func
  23              		.fpu fpv4-sp-d16
  25              	_ZN8SmoothieC2EP19Smoothing_Algorithm:
  26              	.LFB174:
  27              		.file 1 "Core/Src/utils/smoothie.cpp"
   1:Core/Src/utils/smoothie.cpp **** /*
   2:Core/Src/utils/smoothie.cpp ****  * exp_smooth.cpp
   3:Core/Src/utils/smoothie.cpp ****  * 
   4:Core/Src/utils/smoothie.cpp ****  * Created : 11/9/2018
   5:Core/Src/utils/smoothie.cpp ****  *  Author : n-is
   6:Core/Src/utils/smoothie.cpp ****  *   email : 073bex422.nischal@pcampus.edu.np
   7:Core/Src/utils/smoothie.cpp ****  */
   8:Core/Src/utils/smoothie.cpp **** 
   9:Core/Src/utils/smoothie.cpp **** #include "utils/smoothie.h"
  10:Core/Src/utils/smoothie.cpp **** 
  11:Core/Src/utils/smoothie.cpp **** //* Exponential Smoothing Implementation
  12:Core/Src/utils/smoothie.cpp **** Exp_Smooth::Exp_Smooth()
  13:Core/Src/utils/smoothie.cpp **** {
  14:Core/Src/utils/smoothie.cpp ****         alpha_ = 1;
  15:Core/Src/utils/smoothie.cpp ****         is_first_ = true;
  16:Core/Src/utils/smoothie.cpp **** }
  17:Core/Src/utils/smoothie.cpp **** 
  18:Core/Src/utils/smoothie.cpp **** Exp_Smooth::Exp_Smooth(float alpha)
  19:Core/Src/utils/smoothie.cpp **** {
  20:Core/Src/utils/smoothie.cpp ****         alpha_ = alpha;
  21:Core/Src/utils/smoothie.cpp ****         is_first_ = true;
  22:Core/Src/utils/smoothie.cpp **** }
  23:Core/Src/utils/smoothie.cpp **** 
  24:Core/Src/utils/smoothie.cpp **** Vec3<float> Exp_Smooth::smooth(const Vec3<float> &input)
  25:Core/Src/utils/smoothie.cpp **** {
  26:Core/Src/utils/smoothie.cpp ****         if (is_first_) {
  27:Core/Src/utils/smoothie.cpp ****                 is_first_ = false;
  28:Core/Src/utils/smoothie.cpp ****                 last_output_ = input;
  29:Core/Src/utils/smoothie.cpp ****         }
  30:Core/Src/utils/smoothie.cpp ****         else {
  31:Core/Src/utils/smoothie.cpp ****                 Vec3<float> residue = input - last_output_;
ARM GAS  C:\Users\Prashant\AppData\Local\Temp\ccmMUy6e.s 			page 2


  32:Core/Src/utils/smoothie.cpp ****                 residue.mult_EW(alpha_);
  33:Core/Src/utils/smoothie.cpp ****                 last_output_ += residue;
  34:Core/Src/utils/smoothie.cpp ****         }
  35:Core/Src/utils/smoothie.cpp ****         return last_output_;
  36:Core/Src/utils/smoothie.cpp **** }
  37:Core/Src/utils/smoothie.cpp **** //*
  38:Core/Src/utils/smoothie.cpp **** //* Smoothie Implementation
  39:Core/Src/utils/smoothie.cpp **** 
  40:Core/Src/utils/smoothie.cpp **** 
  41:Core/Src/utils/smoothie.cpp **** Smoothie::Smoothie(Smoothing_Algorithm *sm_algo)
  28              		.loc 1 41 0
  29              		.cfi_startproc
  30              		@ args = 0, pretend = 0, frame = 0
  31              		@ frame_needed = 0, uses_anonymous_args = 0
  32              		@ link register save eliminated.
  33              	.LVL0:
  34              	.LBB56:
  35              	.LBB57:
  36              		.file 2 "Core/Inc/utils/smoothie.h"
   1:Core/Inc/utils/smoothie.h **** /*
   2:Core/Inc/utils/smoothie.h ****  * smoothie.h
   3:Core/Inc/utils/smoothie.h ****  * 
   4:Core/Inc/utils/smoothie.h ****  * Created : 11/9/2018
   5:Core/Inc/utils/smoothie.h ****  *  Author : n-is
   6:Core/Inc/utils/smoothie.h ****  *   email : 073bex422.nischal@pcampus.edu.np
   7:Core/Inc/utils/smoothie.h ****  */
   8:Core/Inc/utils/smoothie.h **** 
   9:Core/Inc/utils/smoothie.h **** #ifndef _SMOOTHIE_H_
  10:Core/Inc/utils/smoothie.h **** #define _SMOOTHIE_H_
  11:Core/Inc/utils/smoothie.h **** 
  12:Core/Inc/utils/smoothie.h **** #include "smoothing_algorithm.h"
  13:Core/Inc/utils/smoothie.h **** 
  14:Core/Inc/utils/smoothie.h **** class Smoothie
  15:Core/Inc/utils/smoothie.h **** {
  16:Core/Inc/utils/smoothie.h **** public:
  17:Core/Inc/utils/smoothie.h ****         Smoothie() { algo_ = 0; }
  18:Core/Inc/utils/smoothie.h ****         Smoothie(Smoothing_Algorithm *sm_algo);
  19:Core/Inc/utils/smoothie.h ****         Smoothie(Smoothie &&) = default;
  20:Core/Inc/utils/smoothie.h ****         Smoothie(const Smoothie &) = default;
  21:Core/Inc/utils/smoothie.h ****         Smoothie &operator=(Smoothie &&) = default;
  22:Core/Inc/utils/smoothie.h ****         Smoothie &operator=(const Smoothie &) = default;
  23:Core/Inc/utils/smoothie.h ****         ~Smoothie();
  24:Core/Inc/utils/smoothie.h **** 
  25:Core/Inc/utils/smoothie.h ****         void set_Algorithm(Smoothing_Algorithm *sm_algo) { algo_ = sm_algo; }
  37              		.loc 2 25 0
  38 0000 0160     		str	r1, [r0]
  39              	.LVL1:
  40              	.LBE57:
  41              	.LBE56:
  42:Core/Src/utils/smoothie.cpp **** {
  43:Core/Src/utils/smoothie.cpp ****         set_Algorithm(sm_algo);
  44:Core/Src/utils/smoothie.cpp **** }
  42              		.loc 1 44 0
  43 0002 7047     		bx	lr
  44              		.cfi_endproc
  45              	.LFE174:
  47              		.global	_ZN8SmoothieC1EP19Smoothing_Algorithm
ARM GAS  C:\Users\Prashant\AppData\Local\Temp\ccmMUy6e.s 			page 3


  48              		.thumb_set _ZN8SmoothieC1EP19Smoothing_Algorithm,_ZN8SmoothieC2EP19Smoothing_Algorithm
  49              		.section	.text._ZN8SmoothieD2Ev,"ax",%progbits
  50              		.align	1
  51              		.global	_ZN8SmoothieD2Ev
  52              		.syntax unified
  53              		.thumb
  54              		.thumb_func
  55              		.fpu fpv4-sp-d16
  57              	_ZN8SmoothieD2Ev:
  58              	.LFB177:
  45:Core/Src/utils/smoothie.cpp **** 
  46:Core/Src/utils/smoothie.cpp **** Smoothie::~Smoothie()
  59              		.loc 1 46 0
  60              		.cfi_startproc
  61              		@ args = 0, pretend = 0, frame = 0
  62              		@ frame_needed = 0, uses_anonymous_args = 0
  63              		@ link register save eliminated.
  64              	.LVL2:
  47:Core/Src/utils/smoothie.cpp **** {
  48:Core/Src/utils/smoothie.cpp **** }
  65              		.loc 1 48 0
  66 0000 7047     		bx	lr
  67              		.cfi_endproc
  68              	.LFE177:
  70              		.global	_ZN8SmoothieD1Ev
  71              		.thumb_set _ZN8SmoothieD1Ev,_ZN8SmoothieD2Ev
  72              		.section	.text._ZN4Vec3IfED2Ev,"axG",%progbits,_ZN4Vec3IfED5Ev,comdat
  73              		.align	1
  74              		.weak	_ZN4Vec3IfED2Ev
  75              		.syntax unified
  76              		.thumb
  77              		.thumb_func
  78              		.fpu fpv4-sp-d16
  80              	_ZN4Vec3IfED2Ev:
  81              	.LFB180:
  82              		.file 3 "Core/Inc/utils/vec3.h"
   1:Core/Inc/utils/vec3.h **** /*
   2:Core/Inc/utils/vec3.h ****  * vec3.h
   3:Core/Inc/utils/vec3.h ****  * 
   4:Core/Inc/utils/vec3.h ****  * Created : 11/9/2018
   5:Core/Inc/utils/vec3.h ****  *  Author : n-is
   6:Core/Inc/utils/vec3.h ****  *   email : 073bex422.nischal@pcampus.edu.np
   7:Core/Inc/utils/vec3.h ****  */
   8:Core/Inc/utils/vec3.h **** 
   9:Core/Inc/utils/vec3.h **** #ifndef _VEC3_H_
  10:Core/Inc/utils/vec3.h **** #define _VEC3_H_
  11:Core/Inc/utils/vec3.h **** 
  12:Core/Inc/utils/vec3.h **** #include "stm32f4xx_hal.h"
  13:Core/Inc/utils/vec3.h **** 
  14:Core/Inc/utils/vec3.h **** template <typename T>
  15:Core/Inc/utils/vec3.h **** void swap_Element(T &first, T &second)
  16:Core/Inc/utils/vec3.h **** {
  17:Core/Inc/utils/vec3.h ****         T temp = first;
  18:Core/Inc/utils/vec3.h ****         first = second;
  19:Core/Inc/utils/vec3.h ****         second = temp;
  20:Core/Inc/utils/vec3.h **** }
  21:Core/Inc/utils/vec3.h **** 
ARM GAS  C:\Users\Prashant\AppData\Local\Temp\ccmMUy6e.s 			page 4


  22:Core/Inc/utils/vec3.h **** template <class T>
  23:Core/Inc/utils/vec3.h **** class Vec3
  24:Core/Inc/utils/vec3.h **** {
  25:Core/Inc/utils/vec3.h **** public:
  26:Core/Inc/utils/vec3.h ****         Vec3() { set_Values(0,0,0); }
  27:Core/Inc/utils/vec3.h ****         Vec3(T x, T y, T z) { set_Values(x,y,z); }
  28:Core/Inc/utils/vec3.h ****         Vec3(Vec3 &&) = default;
  29:Core/Inc/utils/vec3.h ****         Vec3 &operator=(Vec3 &&) = default;
  30:Core/Inc/utils/vec3.h ****         ~Vec3();
  31:Core/Inc/utils/vec3.h **** 
  32:Core/Inc/utils/vec3.h ****         void set_Values(T x, T y, T z);
  33:Core/Inc/utils/vec3.h ****         T getX() const;
  34:Core/Inc/utils/vec3.h ****         T getY() const;
  35:Core/Inc/utils/vec3.h ****         T getZ() const;
  36:Core/Inc/utils/vec3.h ****         void setX(T x) { x_ = x; }
  37:Core/Inc/utils/vec3.h ****         void setY(T y) { y_ = y; }
  38:Core/Inc/utils/vec3.h ****         void setZ(T z) { z_ = z; }
  39:Core/Inc/utils/vec3.h **** 
  40:Core/Inc/utils/vec3.h ****         template <typename T1, typename T2>
  41:Core/Inc/utils/vec3.h ****         void divide(const Vec3<T1> &v, T2 num) {
  42:Core/Inc/utils/vec3.h ****                 x_ = v.getX() / num;
  43:Core/Inc/utils/vec3.h ****                 y_ = v.getY() / num;
  44:Core/Inc/utils/vec3.h ****                 z_ = v.getZ() / num;
  45:Core/Inc/utils/vec3.h ****         }
  46:Core/Inc/utils/vec3.h **** 
  47:Core/Inc/utils/vec3.h ****         Vec3 mult_EW(float num) {
  48:Core/Inc/utils/vec3.h ****                 Vec3 temp(*this);
  49:Core/Inc/utils/vec3.h ****                 temp.x_ *= num;
  50:Core/Inc/utils/vec3.h ****                 temp.y_ *= num;
  51:Core/Inc/utils/vec3.h ****                 temp.z_ *= num;
  52:Core/Inc/utils/vec3.h **** 
  53:Core/Inc/utils/vec3.h ****                 return temp;
  54:Core/Inc/utils/vec3.h ****         }
  55:Core/Inc/utils/vec3.h **** 
  56:Core/Inc/utils/vec3.h ****         Vec3 add_EW(float num) {
  57:Core/Inc/utils/vec3.h ****                 Vec3 temp(*this);
  58:Core/Inc/utils/vec3.h ****                 temp.x_ += num;
  59:Core/Inc/utils/vec3.h ****                 temp.y_ += num;
  60:Core/Inc/utils/vec3.h ****                 temp.z_ += num;
  61:Core/Inc/utils/vec3.h **** 
  62:Core/Inc/utils/vec3.h ****                 return temp;
  63:Core/Inc/utils/vec3.h ****         }
  64:Core/Inc/utils/vec3.h **** 
  65:Core/Inc/utils/vec3.h ****         Vec3 sub_EW(float num) {
  66:Core/Inc/utils/vec3.h ****                 Vec3 temp(*this);
  67:Core/Inc/utils/vec3.h ****                 temp.x_ -= num;
  68:Core/Inc/utils/vec3.h ****                 temp.y_ -= num;
  69:Core/Inc/utils/vec3.h ****                 temp.z_ -= num;
  70:Core/Inc/utils/vec3.h **** 
  71:Core/Inc/utils/vec3.h ****                 return temp;
  72:Core/Inc/utils/vec3.h ****         }
  73:Core/Inc/utils/vec3.h **** 
  74:Core/Inc/utils/vec3.h ****         template <typename T1>
  75:Core/Inc/utils/vec3.h ****         Vec3 div_EW(Vec3<T1> v) {
  76:Core/Inc/utils/vec3.h ****                 Vec3 temp(*this);
  77:Core/Inc/utils/vec3.h ****                 temp.x_ /= (float)v.x_;
  78:Core/Inc/utils/vec3.h ****                 temp.y_ /= (float)v.y_;
ARM GAS  C:\Users\Prashant\AppData\Local\Temp\ccmMUy6e.s 			page 5


  79:Core/Inc/utils/vec3.h ****                 temp.z_ /= (float)v.z_;
  80:Core/Inc/utils/vec3.h **** 
  81:Core/Inc/utils/vec3.h ****                 return temp;
  82:Core/Inc/utils/vec3.h ****         }
  83:Core/Inc/utils/vec3.h **** 
  84:Core/Inc/utils/vec3.h ****         template <typename T1>
  85:Core/Inc/utils/vec3.h ****         Vec3 mult_EW(Vec3<T1> v) {
  86:Core/Inc/utils/vec3.h ****                 Vec3 temp(v);
  87:Core/Inc/utils/vec3.h ****                 temp.x_ *= x_;
  88:Core/Inc/utils/vec3.h ****                 temp.y_ *= y_;
  89:Core/Inc/utils/vec3.h ****                 temp.z_ *= z_;
  90:Core/Inc/utils/vec3.h **** 
  91:Core/Inc/utils/vec3.h ****                 return temp;
  92:Core/Inc/utils/vec3.h ****         }
  93:Core/Inc/utils/vec3.h **** 
  94:Core/Inc/utils/vec3.h ****         friend void swap(Vec3 &first, Vec3 &second) {
  95:Core/Inc/utils/vec3.h ****                 swap_Element(first.x_, second.x_);
  96:Core/Inc/utils/vec3.h ****                 swap_Element(first.y_, second.y_);
  97:Core/Inc/utils/vec3.h ****                 swap_Element(first.z_, second.z_);
  98:Core/Inc/utils/vec3.h ****         }
  99:Core/Inc/utils/vec3.h ****         
 100:Core/Inc/utils/vec3.h ****         Vec3(const Vec3 &v) {
 101:Core/Inc/utils/vec3.h ****                 x_ = v.x_;
 102:Core/Inc/utils/vec3.h ****                 y_ = v.y_;
 103:Core/Inc/utils/vec3.h ****                 z_ = v.z_;
 104:Core/Inc/utils/vec3.h ****         }
 105:Core/Inc/utils/vec3.h ****         
 106:Core/Inc/utils/vec3.h ****         Vec3 &operator=(const Vec3 &v) {
 107:Core/Inc/utils/vec3.h ****                 Vec3 temp(v);
 108:Core/Inc/utils/vec3.h ****                 swap(*this, temp);
 109:Core/Inc/utils/vec3.h **** 
 110:Core/Inc/utils/vec3.h ****                 return *this;
 111:Core/Inc/utils/vec3.h ****         }
 112:Core/Inc/utils/vec3.h **** 
 113:Core/Inc/utils/vec3.h ****         Vec3 &operator+=(const Vec3 &rhs) {
 114:Core/Inc/utils/vec3.h ****                 x_ += rhs.x_;
 115:Core/Inc/utils/vec3.h ****                 y_ += rhs.y_;
 116:Core/Inc/utils/vec3.h ****                 z_ += rhs.z_;
 117:Core/Inc/utils/vec3.h **** 
 118:Core/Inc/utils/vec3.h ****                 return *this;
 119:Core/Inc/utils/vec3.h ****         }
 120:Core/Inc/utils/vec3.h ****         
 121:Core/Inc/utils/vec3.h ****         Vec3 &operator-=(const Vec3 &rhs) {
 122:Core/Inc/utils/vec3.h ****                 x_ -= rhs.x_;
 123:Core/Inc/utils/vec3.h ****                 y_ -= rhs.y_;
 124:Core/Inc/utils/vec3.h ****                 z_ -= rhs.z_;
 125:Core/Inc/utils/vec3.h **** 
 126:Core/Inc/utils/vec3.h ****                 return *this;
 127:Core/Inc/utils/vec3.h ****         }
 128:Core/Inc/utils/vec3.h **** 
 129:Core/Inc/utils/vec3.h ****         friend Vec3 operator+(Vec3 lhs, const Vec3 &rhs) {
 130:Core/Inc/utils/vec3.h ****                 lhs += rhs;
 131:Core/Inc/utils/vec3.h ****                 return lhs;
 132:Core/Inc/utils/vec3.h ****         }
 133:Core/Inc/utils/vec3.h **** 
 134:Core/Inc/utils/vec3.h ****         friend Vec3 operator-(Vec3 lhs, const Vec3 &rhs) {
 135:Core/Inc/utils/vec3.h ****                 lhs -= rhs;
ARM GAS  C:\Users\Prashant\AppData\Local\Temp\ccmMUy6e.s 			page 6


 136:Core/Inc/utils/vec3.h ****                 return lhs;
 137:Core/Inc/utils/vec3.h ****         }
 138:Core/Inc/utils/vec3.h **** 
 139:Core/Inc/utils/vec3.h ****         void print() const {
 140:Core/Inc/utils/vec3.h ****                 printf("%ld, %ld, %ld", (int32_t)x_, (int32_t)y_, (int32_t)z_);
 141:Core/Inc/utils/vec3.h ****         }
 142:Core/Inc/utils/vec3.h **** 
 143:Core/Inc/utils/vec3.h **** private:
 144:Core/Inc/utils/vec3.h ****         T x_,y_,z_;
 145:Core/Inc/utils/vec3.h **** };
 146:Core/Inc/utils/vec3.h **** 
 147:Core/Inc/utils/vec3.h **** template <class T>
 148:Core/Inc/utils/vec3.h **** Vec3<T>::~Vec3()
  83              		.loc 3 148 0
  84              		.cfi_startproc
  85              		@ args = 0, pretend = 0, frame = 0
  86              		@ frame_needed = 0, uses_anonymous_args = 0
  87              		@ link register save eliminated.
  88              	.LVL3:
 149:Core/Inc/utils/vec3.h **** {
 150:Core/Inc/utils/vec3.h **** }
  89              		.loc 3 150 0
  90 0000 7047     		bx	lr
  91              		.cfi_endproc
  92              	.LFE180:
  94              		.weak	_ZN4Vec3IfED1Ev
  95              		.thumb_set _ZN4Vec3IfED1Ev,_ZN4Vec3IfED2Ev
  96              		.section	.text._ZN10Exp_SmoothD2Ev,"axG",%progbits,_ZN10Exp_SmoothD5Ev,comdat
  97              		.align	1
  98              		.weak	_ZN10Exp_SmoothD2Ev
  99              		.syntax unified
 100              		.thumb
 101              		.thumb_func
 102              		.fpu fpv4-sp-d16
 104              	_ZN10Exp_SmoothD2Ev:
 105              	.LFB154:
 106              		.file 4 "Core/Inc/utils/smoothing_algorithm.h"
   1:Core/Inc/utils/smoothing_algorithm.h **** 
   2:Core/Inc/utils/smoothing_algorithm.h **** #ifndef _SMOOTHING_ALGORITHM_H_
   3:Core/Inc/utils/smoothing_algorithm.h **** #define _SMOOTHING_ALGORITHM_H_
   4:Core/Inc/utils/smoothing_algorithm.h **** 
   5:Core/Inc/utils/smoothing_algorithm.h **** #include "vec3.h"
   6:Core/Inc/utils/smoothing_algorithm.h **** 
   7:Core/Inc/utils/smoothing_algorithm.h **** class Smoothing_Algorithm
   8:Core/Inc/utils/smoothing_algorithm.h **** {
   9:Core/Inc/utils/smoothing_algorithm.h **** public:
  10:Core/Inc/utils/smoothing_algorithm.h ****         virtual Vec3<float> smooth(const Vec3<float> &input) = 0;
  11:Core/Inc/utils/smoothing_algorithm.h ****         virtual ~Smoothing_Algorithm() { }
  12:Core/Inc/utils/smoothing_algorithm.h **** };
  13:Core/Inc/utils/smoothing_algorithm.h **** 
  14:Core/Inc/utils/smoothing_algorithm.h **** class Exp_Smooth : public Smoothing_Algorithm
  15:Core/Inc/utils/smoothing_algorithm.h **** {
  16:Core/Inc/utils/smoothing_algorithm.h **** public:
  17:Core/Inc/utils/smoothing_algorithm.h ****         Exp_Smooth();
  18:Core/Inc/utils/smoothing_algorithm.h ****         Exp_Smooth(float alpha);
  19:Core/Inc/utils/smoothing_algorithm.h ****         Exp_Smooth(Exp_Smooth &&) = default;
  20:Core/Inc/utils/smoothing_algorithm.h ****         Exp_Smooth(const Exp_Smooth &) = default;
ARM GAS  C:\Users\Prashant\AppData\Local\Temp\ccmMUy6e.s 			page 7


  21:Core/Inc/utils/smoothing_algorithm.h ****         Exp_Smooth &operator=(Exp_Smooth &&) = default;
  22:Core/Inc/utils/smoothing_algorithm.h ****         Exp_Smooth &operator=(const Exp_Smooth &) = default;
  23:Core/Inc/utils/smoothing_algorithm.h ****         ~Exp_Smooth() { }
 107              		.loc 4 23 0
 108              		.cfi_startproc
 109              		@ args = 0, pretend = 0, frame = 0
 110              		@ frame_needed = 0, uses_anonymous_args = 0
 111              		@ link register save eliminated.
 112              	.LVL4:
 113              	.LBB58:
 114              		.loc 4 23 0
 115 0000 014B     		ldr	r3, .L5
 116 0002 0360     		str	r3, [r0]
 117              	.LBE58:
 118 0004 7047     		bx	lr
 119              	.L6:
 120 0006 00BF     		.align	2
 121              	.L5:
 122 0008 08000000 		.word	.LANCHOR0+8
 123              		.cfi_endproc
 124              	.LFE154:
 126              		.weak	_ZN10Exp_SmoothD1Ev
 127              		.thumb_set _ZN10Exp_SmoothD1Ev,_ZN10Exp_SmoothD2Ev
 128              		.section	.text._ZN10Exp_SmoothD0Ev,"axG",%progbits,_ZN10Exp_SmoothD5Ev,comdat
 129              		.align	1
 130              		.weak	_ZN10Exp_SmoothD0Ev
 131              		.syntax unified
 132              		.thumb
 133              		.thumb_func
 134              		.fpu fpv4-sp-d16
 136              	_ZN10Exp_SmoothD0Ev:
 137              	.LFB156:
 138              		.loc 4 23 0
 139              		.cfi_startproc
 140              		@ args = 0, pretend = 0, frame = 0
 141              		@ frame_needed = 0, uses_anonymous_args = 0
 142              	.LVL5:
 143 0000 10B5     		push	{r4, lr}
 144              	.LCFI0:
 145              		.cfi_def_cfa_offset 8
 146              		.cfi_offset 4, -8
 147              		.cfi_offset 14, -4
 148 0002 0446     		mov	r4, r0
 149              	.LVL6:
 150              	.LBB59:
 151              	.LBB60:
 152              		.loc 4 23 0
 153 0004 034B     		ldr	r3, .L9
 154 0006 0360     		str	r3, [r0]
 155              	.LVL7:
 156              	.LBE60:
 157              	.LBE59:
 158 0008 1821     		movs	r1, #24
 159 000a FFF7FEFF 		bl	_ZdlPvj
 160              	.LVL8:
 161 000e 2046     		mov	r0, r4
 162 0010 10BD     		pop	{r4, pc}
ARM GAS  C:\Users\Prashant\AppData\Local\Temp\ccmMUy6e.s 			page 8


 163              	.LVL9:
 164              	.L10:
 165 0012 00BF     		.align	2
 166              	.L9:
 167 0014 08000000 		.word	.LANCHOR0+8
 168              		.cfi_endproc
 169              	.LFE156:
 171              		.section	.text._ZN4Vec3IfE10set_ValuesEfff,"axG",%progbits,_ZN4Vec3IfE10set_ValuesEfff,comdat
 172              		.align	1
 173              		.weak	_ZN4Vec3IfE10set_ValuesEfff
 174              		.syntax unified
 175              		.thumb
 176              		.thumb_func
 177              		.fpu fpv4-sp-d16
 179              	_ZN4Vec3IfE10set_ValuesEfff:
 180              	.LFB192:
 151:Core/Inc/utils/vec3.h **** 
 152:Core/Inc/utils/vec3.h **** template <class T>
 153:Core/Inc/utils/vec3.h **** void Vec3<T>::set_Values(T x, T y, T z)
 181              		.loc 3 153 0
 182              		.cfi_startproc
 183              		@ args = 0, pretend = 0, frame = 0
 184              		@ frame_needed = 0, uses_anonymous_args = 0
 185              		@ link register save eliminated.
 186              	.LVL10:
 154:Core/Inc/utils/vec3.h **** {
 155:Core/Inc/utils/vec3.h ****         x_ = x;
 187              		.loc 3 155 0
 188 0000 80ED000A 		vstr.32	s0, [r0]
 156:Core/Inc/utils/vec3.h ****         y_ = y;
 189              		.loc 3 156 0
 190 0004 C0ED010A 		vstr.32	s1, [r0, #4]
 157:Core/Inc/utils/vec3.h ****         z_ = z;
 191              		.loc 3 157 0
 192 0008 80ED021A 		vstr.32	s2, [r0, #8]
 158:Core/Inc/utils/vec3.h **** }
 193              		.loc 3 158 0
 194 000c 7047     		bx	lr
 195              		.cfi_endproc
 196              	.LFE192:
 198              		.section	.text._ZN10Exp_SmoothC2Ev,"ax",%progbits
 199              		.align	1
 200              		.global	_ZN10Exp_SmoothC2Ev
 201              		.syntax unified
 202              		.thumb
 203              		.thumb_func
 204              		.fpu fpv4-sp-d16
 206              	_ZN10Exp_SmoothC2Ev:
 207              	.LFB167:
  12:Core/Src/utils/smoothie.cpp **** {
 208              		.loc 1 12 0
 209              		.cfi_startproc
 210              		@ args = 0, pretend = 0, frame = 0
 211              		@ frame_needed = 0, uses_anonymous_args = 0
 212              	.LVL11:
 213 0000 10B5     		push	{r4, lr}
 214              	.LCFI1:
ARM GAS  C:\Users\Prashant\AppData\Local\Temp\ccmMUy6e.s 			page 9


 215              		.cfi_def_cfa_offset 8
 216              		.cfi_offset 4, -8
 217              		.cfi_offset 14, -4
 218 0002 0446     		mov	r4, r0
 219              	.LBB61:
  12:Core/Src/utils/smoothie.cpp **** {
 220              		.loc 1 12 0
 221 0004 084B     		ldr	r3, .L14
 222 0006 40F8043B 		str	r3, [r0], #4
 223              	.LVL12:
 224              	.LBB62:
 225              	.LBB63:
  26:Core/Inc/utils/vec3.h ****         Vec3(T x, T y, T z) { set_Values(x,y,z); }
 226              		.loc 3 26 0
 227 000a 9FED080A 		vldr.32	s0, .L14+4
 228 000e B0EE401A 		vmov.f32	s2, s0
 229 0012 F0EE400A 		vmov.f32	s1, s0
 230 0016 FFF7FEFF 		bl	_ZN4Vec3IfE10set_ValuesEfff
 231              	.LVL13:
 232              	.LBE63:
 233              	.LBE62:
  14:Core/Src/utils/smoothie.cpp ****         is_first_ = true;
 234              		.loc 1 14 0
 235 001a 4FF07E53 		mov	r3, #1065353216
 236 001e 2361     		str	r3, [r4, #16]	@ float
  15:Core/Src/utils/smoothie.cpp **** }
 237              		.loc 1 15 0
 238 0020 0123     		movs	r3, #1
 239 0022 2375     		strb	r3, [r4, #20]
 240              	.LBE61:
  16:Core/Src/utils/smoothie.cpp **** 
 241              		.loc 1 16 0
 242 0024 2046     		mov	r0, r4
 243 0026 10BD     		pop	{r4, pc}
 244              	.LVL14:
 245              	.L15:
 246              		.align	2
 247              	.L14:
 248 0028 08000000 		.word	.LANCHOR0+8
 249 002c 00000000 		.word	0
 250              		.cfi_endproc
 251              	.LFE167:
 253              		.global	_ZN10Exp_SmoothC1Ev
 254              		.thumb_set _ZN10Exp_SmoothC1Ev,_ZN10Exp_SmoothC2Ev
 255              		.section	.text._ZN10Exp_SmoothC2Ef,"ax",%progbits
 256              		.align	1
 257              		.global	_ZN10Exp_SmoothC2Ef
 258              		.syntax unified
 259              		.thumb
 260              		.thumb_func
 261              		.fpu fpv4-sp-d16
 263              	_ZN10Exp_SmoothC2Ef:
 264              	.LFB170:
  18:Core/Src/utils/smoothie.cpp **** {
 265              		.loc 1 18 0
 266              		.cfi_startproc
 267              		@ args = 0, pretend = 0, frame = 0
ARM GAS  C:\Users\Prashant\AppData\Local\Temp\ccmMUy6e.s 			page 10


 268              		@ frame_needed = 0, uses_anonymous_args = 0
 269              	.LVL15:
 270 0000 10B5     		push	{r4, lr}
 271              	.LCFI2:
 272              		.cfi_def_cfa_offset 8
 273              		.cfi_offset 4, -8
 274              		.cfi_offset 14, -4
 275 0002 2DED028B 		vpush.64	{d8}
 276              	.LCFI3:
 277              		.cfi_def_cfa_offset 16
 278              		.cfi_offset 80, -16
 279              		.cfi_offset 81, -12
 280 0006 0446     		mov	r4, r0
 281 0008 B0EE408A 		vmov.f32	s16, s0
 282              	.LBB64:
  18:Core/Src/utils/smoothie.cpp **** {
 283              		.loc 1 18 0
 284 000c 094B     		ldr	r3, .L18
 285 000e 40F8043B 		str	r3, [r0], #4
 286              	.LVL16:
 287              	.LBB65:
 288              	.LBB66:
  26:Core/Inc/utils/vec3.h ****         Vec3(T x, T y, T z) { set_Values(x,y,z); }
 289              		.loc 3 26 0
 290 0012 9FED090A 		vldr.32	s0, .L18+4
 291              	.LVL17:
 292 0016 B0EE401A 		vmov.f32	s2, s0
 293 001a F0EE400A 		vmov.f32	s1, s0
 294 001e FFF7FEFF 		bl	_ZN4Vec3IfE10set_ValuesEfff
 295              	.LVL18:
 296              	.LBE66:
 297              	.LBE65:
  20:Core/Src/utils/smoothie.cpp ****         is_first_ = true;
 298              		.loc 1 20 0
 299 0022 84ED048A 		vstr.32	s16, [r4, #16]
  21:Core/Src/utils/smoothie.cpp **** }
 300              		.loc 1 21 0
 301 0026 0123     		movs	r3, #1
 302 0028 2375     		strb	r3, [r4, #20]
 303              	.LBE64:
  22:Core/Src/utils/smoothie.cpp **** 
 304              		.loc 1 22 0
 305 002a 2046     		mov	r0, r4
 306 002c BDEC028B 		vldm	sp!, {d8}
 307              	.LCFI4:
 308              		.cfi_restore 80
 309              		.cfi_restore 81
 310              		.cfi_def_cfa_offset 8
 311              	.LVL19:
 312 0030 10BD     		pop	{r4, pc}
 313              	.LVL20:
 314              	.L19:
 315 0032 00BF     		.align	2
 316              	.L18:
 317 0034 08000000 		.word	.LANCHOR0+8
 318 0038 00000000 		.word	0
 319              		.cfi_endproc
ARM GAS  C:\Users\Prashant\AppData\Local\Temp\ccmMUy6e.s 			page 11


 320              	.LFE170:
 322              		.global	_ZN10Exp_SmoothC1Ef
 323              		.thumb_set _ZN10Exp_SmoothC1Ef,_ZN10Exp_SmoothC2Ef
 324              		.section	.text._Z12swap_ElementIfEvRT_S1_,"axG",%progbits,_Z12swap_ElementIfEvRT_S1_,comdat
 325              		.align	1
 326              		.weak	_Z12swap_ElementIfEvRT_S1_
 327              		.syntax unified
 328              		.thumb
 329              		.thumb_func
 330              		.fpu fpv4-sp-d16
 332              	_Z12swap_ElementIfEvRT_S1_:
 333              	.LFB195:
  15:Core/Inc/utils/vec3.h **** {
 334              		.loc 3 15 0
 335              		.cfi_startproc
 336              		@ args = 0, pretend = 0, frame = 0
 337              		@ frame_needed = 0, uses_anonymous_args = 0
 338              		@ link register save eliminated.
 339              	.LVL21:
  17:Core/Inc/utils/vec3.h ****         first = second;
 340              		.loc 3 17 0
 341 0000 0368     		ldr	r3, [r0]	@ float
 342              	.LVL22:
  18:Core/Inc/utils/vec3.h ****         second = temp;
 343              		.loc 3 18 0
 344 0002 0A68     		ldr	r2, [r1]	@ float
 345 0004 0260     		str	r2, [r0]	@ float
  19:Core/Inc/utils/vec3.h **** }
 346              		.loc 3 19 0
 347 0006 0B60     		str	r3, [r1]	@ float
  20:Core/Inc/utils/vec3.h **** 
 348              		.loc 3 20 0
 349 0008 7047     		bx	lr
 350              		.cfi_endproc
 351              	.LFE195:
 353              		.section	.text._ZN10Exp_Smooth6smoothERK4Vec3IfE,"ax",%progbits
 354              		.align	1
 355              		.global	_ZN10Exp_Smooth6smoothERK4Vec3IfE
 356              		.syntax unified
 357              		.thumb
 358              		.thumb_func
 359              		.fpu fpv4-sp-d16
 361              	_ZN10Exp_Smooth6smoothERK4Vec3IfE:
 362              	.LFB172:
  25:Core/Src/utils/smoothie.cpp ****         if (is_first_) {
 363              		.loc 1 25 0
 364              		.cfi_startproc
 365              		@ args = 0, pretend = 0, frame = 40
 366              		@ frame_needed = 0, uses_anonymous_args = 0
 367              	.LVL23:
 368 0000 70B5     		push	{r4, r5, r6, lr}
 369              	.LCFI5:
 370              		.cfi_def_cfa_offset 16
 371              		.cfi_offset 4, -16
 372              		.cfi_offset 5, -12
 373              		.cfi_offset 6, -8
 374              		.cfi_offset 14, -4
ARM GAS  C:\Users\Prashant\AppData\Local\Temp\ccmMUy6e.s 			page 12


 375 0002 8AB0     		sub	sp, sp, #40
 376              	.LCFI6:
 377              		.cfi_def_cfa_offset 56
 378 0004 0546     		mov	r5, r0
 379 0006 0C46     		mov	r4, r1
 380              	.LBB91:
  26:Core/Src/utils/smoothie.cpp ****                 is_first_ = false;
 381              		.loc 1 26 0
 382 0008 0B7D     		ldrb	r3, [r1, #20]	@ zero_extendqisi2
 383 000a 002B     		cmp	r3, #0
 384 000c 37D1     		bne	.L25
 385              	.LVL24:
 386              	.LBB92:
 387              	.LBB93:
 388              	.LBB94:
 389              	.LBB95:
 101:Core/Inc/utils/vec3.h ****                 y_ = v.y_;
 390              		.loc 3 101 0
 391 000e 92ED007A 		vldr.32	s14, [r2]
 102:Core/Inc/utils/vec3.h ****                 z_ = v.z_;
 392              		.loc 3 102 0
 393 0012 D2ED017A 		vldr.32	s15, [r2, #4]
 103:Core/Inc/utils/vec3.h ****         }
 394              		.loc 3 103 0
 395 0016 92ED026A 		vldr.32	s12, [r2, #8]
 396              	.LVL25:
 397              	.LBE95:
 398              	.LBE94:
 399              	.LBE93:
 400              	.LBB96:
 401              	.LBB97:
 402              	.LBB98:
 403              	.LBB99:
 122:Core/Inc/utils/vec3.h ****                 y_ -= rhs.y_;
 404              		.loc 3 122 0
 405 001a D1ED014A 		vldr.32	s9, [r1, #4]
 406 001e 37EE647A 		vsub.f32	s14, s14, s9
 407 0022 8DED047A 		vstr.32	s14, [sp, #16]
 123:Core/Inc/utils/vec3.h ****                 z_ -= rhs.z_;
 408              		.loc 3 123 0
 409 0026 91ED025A 		vldr.32	s10, [r1, #8]
 410 002a 77EEC57A 		vsub.f32	s15, s15, s10
 411 002e CDED057A 		vstr.32	s15, [sp, #20]
 124:Core/Inc/utils/vec3.h **** 
 412              		.loc 3 124 0
 413 0032 D1ED035A 		vldr.32	s11, [r1, #12]
 414 0036 36EE656A 		vsub.f32	s12, s12, s11
 415 003a 8DED066A 		vstr.32	s12, [sp, #24]
 416              	.LVL26:
 417              	.LBE99:
 418              	.LBE98:
 136:Core/Inc/utils/vec3.h ****         }
 419              		.loc 3 136 0
 420 003e 01AB     		add	r3, sp, #4
 421 0040 04AA     		add	r2, sp, #16
 422              	.LVL27:
 423 0042 07CA     		ldm	r2, {r0, r1, r2}
ARM GAS  C:\Users\Prashant\AppData\Local\Temp\ccmMUy6e.s 			page 13


 424              	.LVL28:
 425 0044 83E80700 		stm	r3, {r0, r1, r2}
 426              	.LVL29:
 427              	.LBE97:
 428              	.LBE96:
 429              	.LBB100:
 430              	.LBB101:
 114:Core/Inc/utils/vec3.h ****                 y_ += rhs.y_;
 431              		.loc 3 114 0
 432 0048 DDED016A 		vldr.32	s13, [sp, #4]
 433 004c 76EEA46A 		vadd.f32	s13, s13, s9
 434 0050 C4ED016A 		vstr.32	s13, [r4, #4]
 115:Core/Inc/utils/vec3.h ****                 z_ += rhs.z_;
 435              		.loc 3 115 0
 436 0054 9DED027A 		vldr.32	s14, [sp, #8]
 437 0058 37EE057A 		vadd.f32	s14, s14, s10
 438 005c 84ED027A 		vstr.32	s14, [r4, #8]
 116:Core/Inc/utils/vec3.h **** 
 439              		.loc 3 116 0
 440 0060 DDED037A 		vldr.32	s15, [sp, #12]
 441 0064 77EEA57A 		vadd.f32	s15, s15, s11
 442 0068 C4ED037A 		vstr.32	s15, [r4, #12]
 443              	.LVL30:
 444              	.L23:
 445              	.LBE101:
 446              	.LBE100:
 447              	.LBE92:
 448              	.LBE91:
 449              	.LBB109:
 450              	.LBB110:
 101:Core/Inc/utils/vec3.h ****                 y_ = v.y_;
 451              		.loc 3 101 0
 452 006c 6368     		ldr	r3, [r4, #4]	@ float
 453 006e 2B60     		str	r3, [r5]	@ float
 102:Core/Inc/utils/vec3.h ****                 z_ = v.z_;
 454              		.loc 3 102 0
 455 0070 A368     		ldr	r3, [r4, #8]	@ float
 456 0072 6B60     		str	r3, [r5, #4]	@ float
 103:Core/Inc/utils/vec3.h ****         }
 457              		.loc 3 103 0
 458 0074 E368     		ldr	r3, [r4, #12]	@ float
 459 0076 AB60     		str	r3, [r5, #8]	@ float
 460              	.LVL31:
 461              	.LBE110:
 462              	.LBE109:
  36:Core/Src/utils/smoothie.cpp **** //*
 463              		.loc 1 36 0
 464 0078 2846     		mov	r0, r5
 465 007a 0AB0     		add	sp, sp, #40
 466              	.LCFI7:
 467              		.cfi_remember_state
 468              		.cfi_def_cfa_offset 16
 469              		@ sp needed
 470 007c 70BD     		pop	{r4, r5, r6, pc}
 471              	.LVL32:
 472              	.L25:
 473              	.LCFI8:
ARM GAS  C:\Users\Prashant\AppData\Local\Temp\ccmMUy6e.s 			page 14


 474              		.cfi_restore_state
 475              	.LBB111:
  27:Core/Src/utils/smoothie.cpp ****                 last_output_ = input;
 476              		.loc 1 27 0
 477 007e 0023     		movs	r3, #0
 478 0080 0B75     		strb	r3, [r1, #20]
  28:Core/Src/utils/smoothie.cpp ****         }
 479              		.loc 1 28 0
 480 0082 0E1D     		adds	r6, r1, #4
 481              	.LVL33:
 482              	.LBB102:
 483              	.LBB103:
 484              	.LBB104:
 485              	.LBB105:
 486              	.LBB106:
 101:Core/Inc/utils/vec3.h ****                 y_ = v.y_;
 487              		.loc 3 101 0
 488 0084 1368     		ldr	r3, [r2]	@ float
 489 0086 0193     		str	r3, [sp, #4]	@ float
 102:Core/Inc/utils/vec3.h ****                 z_ = v.z_;
 490              		.loc 3 102 0
 491 0088 5368     		ldr	r3, [r2, #4]	@ float
 492 008a 0293     		str	r3, [sp, #8]	@ float
 103:Core/Inc/utils/vec3.h ****         }
 493              		.loc 3 103 0
 494 008c 9368     		ldr	r3, [r2, #8]	@ float
 495 008e 0393     		str	r3, [sp, #12]	@ float
 496              	.LVL34:
 497              	.LBE106:
 498              	.LBE105:
 499              	.LBE104:
 500              	.LBB107:
 501              	.LBB108:
  95:Core/Inc/utils/vec3.h ****                 swap_Element(first.y_, second.y_);
 502              		.loc 3 95 0
 503 0090 01A9     		add	r1, sp, #4
 504              	.LVL35:
 505 0092 3046     		mov	r0, r6
 506              	.LVL36:
 507 0094 FFF7FEFF 		bl	_Z12swap_ElementIfEvRT_S1_
 508              	.LVL37:
  96:Core/Inc/utils/vec3.h ****                 swap_Element(first.z_, second.z_);
 509              		.loc 3 96 0
 510 0098 02A9     		add	r1, sp, #8
 511 009a 04F10800 		add	r0, r4, #8
 512 009e FFF7FEFF 		bl	_Z12swap_ElementIfEvRT_S1_
 513              	.LVL38:
  97:Core/Inc/utils/vec3.h ****         }
 514              		.loc 3 97 0
 515 00a2 03A9     		add	r1, sp, #12
 516 00a4 04F10C00 		add	r0, r4, #12
 517 00a8 FFF7FEFF 		bl	_Z12swap_ElementIfEvRT_S1_
 518              	.LVL39:
 519 00ac DEE7     		b	.L23
 520              	.LBE108:
 521              	.LBE107:
 522              	.LBE103:
ARM GAS  C:\Users\Prashant\AppData\Local\Temp\ccmMUy6e.s 			page 15


 523              	.LBE102:
 524              	.LBE111:
 525              		.cfi_endproc
 526              	.LFE172:
 528              		.weak	_ZTS19Smoothing_Algorithm
 529              		.section	.rodata._ZTS19Smoothing_Algorithm,"aG",%progbits,_ZTS19Smoothing_Algorithm,comdat
 530              		.align	2
 533              	_ZTS19Smoothing_Algorithm:
 534 0000 3139536D 		.ascii	"19Smoothing_Algorithm\000"
 534      6F6F7468 
 534      696E675F 
 534      416C676F 
 534      72697468 
 535              		.weak	_ZTI19Smoothing_Algorithm
 536              		.section	.rodata._ZTI19Smoothing_Algorithm,"aG",%progbits,_ZTI19Smoothing_Algorithm,comdat
 537              		.align	2
 540              	_ZTI19Smoothing_Algorithm:
 541 0000 08000000 		.word	_ZTVN10__cxxabiv117__class_type_infoE+8
 542 0004 00000000 		.word	_ZTS19Smoothing_Algorithm
 543              		.global	_ZTS10Exp_Smooth
 544              		.global	_ZTI10Exp_Smooth
 545              		.global	_ZTV10Exp_Smooth
 546              		.section	.rodata._ZTI10Exp_Smooth,"a",%progbits
 547              		.align	2
 550              	_ZTI10Exp_Smooth:
 551 0000 08000000 		.word	_ZTVN10__cxxabiv120__si_class_type_infoE+8
 552 0004 00000000 		.word	_ZTS10Exp_Smooth
 553 0008 00000000 		.word	_ZTI19Smoothing_Algorithm
 554              		.section	.rodata._ZTS10Exp_Smooth,"a",%progbits
 555              		.align	2
 558              	_ZTS10Exp_Smooth:
 559 0000 31304578 		.ascii	"10Exp_Smooth\000"
 559      705F536D 
 559      6F6F7468 
 559      00
 560              		.section	.rodata._ZTV10Exp_Smooth,"a",%progbits
 561              		.align	2
 562              		.set	.LANCHOR0,. + 0
 565              	_ZTV10Exp_Smooth:
 566 0000 00000000 		.word	0
 567 0004 00000000 		.word	_ZTI10Exp_Smooth
 568 0008 00000000 		.word	_ZN10Exp_Smooth6smoothERK4Vec3IfE
 569 000c 00000000 		.word	_ZN10Exp_SmoothD1Ev
 570 0010 00000000 		.word	_ZN10Exp_SmoothD0Ev
 571              		.text
 572              	.Letext0:
 573              		.file 5 "c:\\program files (x86)\\gnu tools arm embedded\\7 2017-q4-major\\arm-none-eabi\\include\
 574              		.file 6 "c:\\program files (x86)\\gnu tools arm embedded\\7 2017-q4-major\\arm-none-eabi\\include\
 575              		.file 7 "C:/Users/Prashant/STM32Cube/Repository/STM32Cube_FW_F4_V1.21.0/Drivers/CMSIS/Include/core
 576              		.file 8 "C:/Users/Prashant/STM32Cube/Repository/STM32Cube_FW_F4_V1.21.0/Drivers/CMSIS/Device/ST/ST
 577              		.file 9 "C:/Users/Prashant/STM32Cube/Repository/STM32Cube_FW_F4_V1.21.0/Drivers/CMSIS/Device/ST/ST
 578              		.file 10 "c:\\program files (x86)\\gnu tools arm embedded\\7 2017-q4-major\\arm-none-eabi\\include
 579              		.file 11 "c:\\program files (x86)\\gnu tools arm embedded\\7 2017-q4-major\\arm-none-eabi\\include
 580              		.file 12 "c:\\program files (x86)\\gnu tools arm embedded\\7 2017-q4-major\\lib\\gcc\\arm-none-eab
 581              		.file 13 "c:\\program files (x86)\\gnu tools arm embedded\\7 2017-q4-major\\arm-none-eabi\\include
 582              		.file 14 "C:/Users/Prashant/STM32Cube/Repository/STM32Cube_FW_F4_V1.21.0/Drivers/STM32F4xx_HAL_Dri
ARM GAS  C:\Users\Prashant\AppData\Local\Temp\ccmMUy6e.s 			page 16

