ARM GAS  C:\Users\Prashant\AppData\Local\Temp\ccohka47.s 			page 1


   1              		.cpu cortex-m4
   2              		.eabi_attribute 27, 1
   3              		.eabi_attribute 28, 1
   4              		.eabi_attribute 20, 1
   5              		.eabi_attribute 21, 1
   6              		.eabi_attribute 23, 3
   7              		.eabi_attribute 24, 1
   8              		.eabi_attribute 25, 1
   9              		.eabi_attribute 26, 1
  10              		.eabi_attribute 30, 1
  11              		.eabi_attribute 34, 1
  12              		.eabi_attribute 18, 4
  13              		.file	"i2c.c"
  14              		.text
  15              	.Ltext0:
  16              		.cfi_sections	.debug_frame
  17              		.section	.text.MX_I2C1_Init,"ax",%progbits
  18              		.align	1
  19              		.global	MX_I2C1_Init
  20              		.syntax unified
  21              		.thumb
  22              		.thumb_func
  23              		.fpu fpv4-sp-d16
  25              	MX_I2C1_Init:
  26              	.LFB126:
  27              		.file 1 "Core/Src/periphs/i2c.c"
   1:Core/Src/periphs/i2c.c **** /**
   2:Core/Src/periphs/i2c.c ****   ******************************************************************************
   3:Core/Src/periphs/i2c.c ****   * File Name          : I2C.c
   4:Core/Src/periphs/i2c.c ****   * Description        : This file provides code for the configuration
   5:Core/Src/periphs/i2c.c ****   *                      of the I2C instances.
   6:Core/Src/periphs/i2c.c ****   ******************************************************************************
   7:Core/Src/periphs/i2c.c ****   ** This notice applies to any and all portions of this file
   8:Core/Src/periphs/i2c.c ****   * that are not between comment pairs USER CODE BEGIN and
   9:Core/Src/periphs/i2c.c ****   * USER CODE END. Other portions of this file, whether 
  10:Core/Src/periphs/i2c.c ****   * inserted by the user or by software development tools
  11:Core/Src/periphs/i2c.c ****   * are owned by their respective copyright owners.
  12:Core/Src/periphs/i2c.c ****   *
  13:Core/Src/periphs/i2c.c ****   * COPYRIGHT(c) 2019 STMicroelectronics
  14:Core/Src/periphs/i2c.c ****   *
  15:Core/Src/periphs/i2c.c ****   * Redistribution and use in source and binary forms, with or without modification,
  16:Core/Src/periphs/i2c.c ****   * are permitted provided that the following conditions are met:
  17:Core/Src/periphs/i2c.c ****   *   1. Redistributions of source code must retain the above copyright notice,
  18:Core/Src/periphs/i2c.c ****   *      this list of conditions and the following disclaimer.
  19:Core/Src/periphs/i2c.c ****   *   2. Redistributions in binary form must reproduce the above copyright notice,
  20:Core/Src/periphs/i2c.c ****   *      this list of conditions and the following disclaimer in the documentation
  21:Core/Src/periphs/i2c.c ****   *      and/or other materials provided with the distribution.
  22:Core/Src/periphs/i2c.c ****   *   3. Neither the name of STMicroelectronics nor the names of its contributors
  23:Core/Src/periphs/i2c.c ****   *      may be used to endorse or promote products derived from this software
  24:Core/Src/periphs/i2c.c ****   *      without specific prior written permission.
  25:Core/Src/periphs/i2c.c ****   *
  26:Core/Src/periphs/i2c.c ****   * THIS SOFTWARE IS PROVIDED BY THE COPYRIGHT HOLDERS AND CONTRIBUTORS "AS IS"
  27:Core/Src/periphs/i2c.c ****   * AND ANY EXPRESS OR IMPLIED WARRANTIES, INCLUDING, BUT NOT LIMITED TO, THE
  28:Core/Src/periphs/i2c.c ****   * IMPLIED WARRANTIES OF MERCHANTABILITY AND FITNESS FOR A PARTICULAR PURPOSE ARE
  29:Core/Src/periphs/i2c.c ****   * DISCLAIMED. IN NO EVENT SHALL THE COPYRIGHT HOLDER OR CONTRIBUTORS BE LIABLE
  30:Core/Src/periphs/i2c.c ****   * FOR ANY DIRECT, INDIRECT, INCIDENTAL, SPECIAL, EXEMPLARY, OR CONSEQUENTIAL
  31:Core/Src/periphs/i2c.c ****   * DAMAGES (INCLUDING, BUT NOT LIMITED TO, PROCUREMENT OF SUBSTITUTE GOODS OR
ARM GAS  C:\Users\Prashant\AppData\Local\Temp\ccohka47.s 			page 2


  32:Core/Src/periphs/i2c.c ****   * SERVICES; LOSS OF USE, DATA, OR PROFITS; OR BUSINESS INTERRUPTION) HOWEVER
  33:Core/Src/periphs/i2c.c ****   * CAUSED AND ON ANY THEORY OF LIABILITY, WHETHER IN CONTRACT, STRICT LIABILITY,
  34:Core/Src/periphs/i2c.c ****   * OR TORT (INCLUDING NEGLIGENCE OR OTHERWISE) ARISING IN ANY WAY OUT OF THE USE
  35:Core/Src/periphs/i2c.c ****   * OF THIS SOFTWARE, EVEN IF ADVISED OF THE POSSIBILITY OF SUCH DAMAGE.
  36:Core/Src/periphs/i2c.c ****   *
  37:Core/Src/periphs/i2c.c ****   ******************************************************************************
  38:Core/Src/periphs/i2c.c ****   */
  39:Core/Src/periphs/i2c.c **** 
  40:Core/Src/periphs/i2c.c **** /* Includes ------------------------------------------------------------------*/
  41:Core/Src/periphs/i2c.c **** #include "i2c.h"
  42:Core/Src/periphs/i2c.c **** 
  43:Core/Src/periphs/i2c.c **** /* USER CODE BEGIN 0 */
  44:Core/Src/periphs/i2c.c **** 
  45:Core/Src/periphs/i2c.c **** /* USER CODE END 0 */
  46:Core/Src/periphs/i2c.c **** 
  47:Core/Src/periphs/i2c.c **** I2C_HandleTypeDef hi2c1;
  48:Core/Src/periphs/i2c.c **** I2C_HandleTypeDef hi2c2;
  49:Core/Src/periphs/i2c.c **** 
  50:Core/Src/periphs/i2c.c **** /* I2C1 init function */
  51:Core/Src/periphs/i2c.c **** void MX_I2C1_Init(void)
  52:Core/Src/periphs/i2c.c **** {
  28              		.loc 1 52 0
  29              		.cfi_startproc
  30              		@ args = 0, pretend = 0, frame = 0
  31              		@ frame_needed = 0, uses_anonymous_args = 0
  32 0000 08B5     		push	{r3, lr}
  33              	.LCFI0:
  34              		.cfi_def_cfa_offset 8
  35              		.cfi_offset 3, -8
  36              		.cfi_offset 14, -4
  53:Core/Src/periphs/i2c.c **** 
  54:Core/Src/periphs/i2c.c ****   hi2c1.Instance = I2C1;
  37              		.loc 1 54 0
  38 0002 0B48     		ldr	r0, .L5
  39 0004 0B4B     		ldr	r3, .L5+4
  40 0006 0360     		str	r3, [r0]
  55:Core/Src/periphs/i2c.c ****   hi2c1.Init.ClockSpeed = 100000;
  41              		.loc 1 55 0
  42 0008 0B4B     		ldr	r3, .L5+8
  43 000a 4360     		str	r3, [r0, #4]
  56:Core/Src/periphs/i2c.c ****   hi2c1.Init.DutyCycle = I2C_DUTYCYCLE_2;
  44              		.loc 1 56 0
  45 000c 0023     		movs	r3, #0
  46 000e 8360     		str	r3, [r0, #8]
  57:Core/Src/periphs/i2c.c ****   hi2c1.Init.OwnAddress1 = 0;
  47              		.loc 1 57 0
  48 0010 C360     		str	r3, [r0, #12]
  58:Core/Src/periphs/i2c.c ****   hi2c1.Init.AddressingMode = I2C_ADDRESSINGMODE_7BIT;
  49              		.loc 1 58 0
  50 0012 4FF48042 		mov	r2, #16384
  51 0016 0261     		str	r2, [r0, #16]
  59:Core/Src/periphs/i2c.c ****   hi2c1.Init.DualAddressMode = I2C_DUALADDRESS_DISABLE;
  52              		.loc 1 59 0
  53 0018 4361     		str	r3, [r0, #20]
  60:Core/Src/periphs/i2c.c ****   hi2c1.Init.OwnAddress2 = 0;
  54              		.loc 1 60 0
  55 001a 8361     		str	r3, [r0, #24]
ARM GAS  C:\Users\Prashant\AppData\Local\Temp\ccohka47.s 			page 3


  61:Core/Src/periphs/i2c.c ****   hi2c1.Init.GeneralCallMode = I2C_GENERALCALL_DISABLE;
  56              		.loc 1 61 0
  57 001c C361     		str	r3, [r0, #28]
  62:Core/Src/periphs/i2c.c ****   hi2c1.Init.NoStretchMode = I2C_NOSTRETCH_DISABLE;
  58              		.loc 1 62 0
  59 001e 0362     		str	r3, [r0, #32]
  63:Core/Src/periphs/i2c.c ****   if (HAL_I2C_Init(&hi2c1) != HAL_OK)
  60              		.loc 1 63 0
  61 0020 FFF7FEFF 		bl	HAL_I2C_Init
  62              	.LVL0:
  63 0024 00B9     		cbnz	r0, .L4
  64              	.L1:
  64:Core/Src/periphs/i2c.c ****   {
  65:Core/Src/periphs/i2c.c ****     Error_Handler();
  66:Core/Src/periphs/i2c.c ****   }
  67:Core/Src/periphs/i2c.c **** 
  68:Core/Src/periphs/i2c.c **** }
  65              		.loc 1 68 0
  66 0026 08BD     		pop	{r3, pc}
  67              	.L4:
  65:Core/Src/periphs/i2c.c ****   }
  68              		.loc 1 65 0
  69 0028 FFF7FEFF 		bl	Error_Handler
  70              	.LVL1:
  71              		.loc 1 68 0
  72 002c FBE7     		b	.L1
  73              	.L6:
  74 002e 00BF     		.align	2
  75              	.L5:
  76 0030 00000000 		.word	hi2c1
  77 0034 00540040 		.word	1073763328
  78 0038 A0860100 		.word	100000
  79              		.cfi_endproc
  80              	.LFE126:
  82              		.section	.text.MX_I2C2_Init,"ax",%progbits
  83              		.align	1
  84              		.global	MX_I2C2_Init
  85              		.syntax unified
  86              		.thumb
  87              		.thumb_func
  88              		.fpu fpv4-sp-d16
  90              	MX_I2C2_Init:
  91              	.LFB127:
  69:Core/Src/periphs/i2c.c **** /* I2C2 init function */
  70:Core/Src/periphs/i2c.c **** void MX_I2C2_Init(void)
  71:Core/Src/periphs/i2c.c **** {
  92              		.loc 1 71 0
  93              		.cfi_startproc
  94              		@ args = 0, pretend = 0, frame = 0
  95              		@ frame_needed = 0, uses_anonymous_args = 0
  96 0000 08B5     		push	{r3, lr}
  97              	.LCFI1:
  98              		.cfi_def_cfa_offset 8
  99              		.cfi_offset 3, -8
 100              		.cfi_offset 14, -4
  72:Core/Src/periphs/i2c.c **** 
  73:Core/Src/periphs/i2c.c ****   hi2c2.Instance = I2C2;
ARM GAS  C:\Users\Prashant\AppData\Local\Temp\ccohka47.s 			page 4


 101              		.loc 1 73 0
 102 0002 0B48     		ldr	r0, .L11
 103 0004 0B4B     		ldr	r3, .L11+4
 104 0006 0360     		str	r3, [r0]
  74:Core/Src/periphs/i2c.c ****   hi2c2.Init.ClockSpeed = 100000;
 105              		.loc 1 74 0
 106 0008 0B4B     		ldr	r3, .L11+8
 107 000a 4360     		str	r3, [r0, #4]
  75:Core/Src/periphs/i2c.c ****   hi2c2.Init.DutyCycle = I2C_DUTYCYCLE_2;
 108              		.loc 1 75 0
 109 000c 0023     		movs	r3, #0
 110 000e 8360     		str	r3, [r0, #8]
  76:Core/Src/periphs/i2c.c ****   hi2c2.Init.OwnAddress1 = 0;
 111              		.loc 1 76 0
 112 0010 C360     		str	r3, [r0, #12]
  77:Core/Src/periphs/i2c.c ****   hi2c2.Init.AddressingMode = I2C_ADDRESSINGMODE_7BIT;
 113              		.loc 1 77 0
 114 0012 4FF48042 		mov	r2, #16384
 115 0016 0261     		str	r2, [r0, #16]
  78:Core/Src/periphs/i2c.c ****   hi2c2.Init.DualAddressMode = I2C_DUALADDRESS_DISABLE;
 116              		.loc 1 78 0
 117 0018 4361     		str	r3, [r0, #20]
  79:Core/Src/periphs/i2c.c ****   hi2c2.Init.OwnAddress2 = 0;
 118              		.loc 1 79 0
 119 001a 8361     		str	r3, [r0, #24]
  80:Core/Src/periphs/i2c.c ****   hi2c2.Init.GeneralCallMode = I2C_GENERALCALL_DISABLE;
 120              		.loc 1 80 0
 121 001c C361     		str	r3, [r0, #28]
  81:Core/Src/periphs/i2c.c ****   hi2c2.Init.NoStretchMode = I2C_NOSTRETCH_DISABLE;
 122              		.loc 1 81 0
 123 001e 0362     		str	r3, [r0, #32]
  82:Core/Src/periphs/i2c.c ****   if (HAL_I2C_Init(&hi2c2) != HAL_OK)
 124              		.loc 1 82 0
 125 0020 FFF7FEFF 		bl	HAL_I2C_Init
 126              	.LVL2:
 127 0024 00B9     		cbnz	r0, .L10
 128              	.L7:
  83:Core/Src/periphs/i2c.c ****   {
  84:Core/Src/periphs/i2c.c ****     Error_Handler();
  85:Core/Src/periphs/i2c.c ****   }
  86:Core/Src/periphs/i2c.c **** 
  87:Core/Src/periphs/i2c.c **** }
 129              		.loc 1 87 0
 130 0026 08BD     		pop	{r3, pc}
 131              	.L10:
  84:Core/Src/periphs/i2c.c ****   }
 132              		.loc 1 84 0
 133 0028 FFF7FEFF 		bl	Error_Handler
 134              	.LVL3:
 135              		.loc 1 87 0
 136 002c FBE7     		b	.L7
 137              	.L12:
 138 002e 00BF     		.align	2
 139              	.L11:
 140 0030 00000000 		.word	hi2c2
 141 0034 00580040 		.word	1073764352
 142 0038 A0860100 		.word	100000
ARM GAS  C:\Users\Prashant\AppData\Local\Temp\ccohka47.s 			page 5


 143              		.cfi_endproc
 144              	.LFE127:
 146              		.section	.text.HAL_I2C_MspInit,"ax",%progbits
 147              		.align	1
 148              		.global	HAL_I2C_MspInit
 149              		.syntax unified
 150              		.thumb
 151              		.thumb_func
 152              		.fpu fpv4-sp-d16
 154              	HAL_I2C_MspInit:
 155              	.LFB128:
  88:Core/Src/periphs/i2c.c **** 
  89:Core/Src/periphs/i2c.c **** void HAL_I2C_MspInit(I2C_HandleTypeDef* i2cHandle)
  90:Core/Src/periphs/i2c.c **** {
 156              		.loc 1 90 0
 157              		.cfi_startproc
 158              		@ args = 0, pretend = 0, frame = 40
 159              		@ frame_needed = 0, uses_anonymous_args = 0
 160              	.LVL4:
 161 0000 30B5     		push	{r4, r5, lr}
 162              	.LCFI2:
 163              		.cfi_def_cfa_offset 12
 164              		.cfi_offset 4, -12
 165              		.cfi_offset 5, -8
 166              		.cfi_offset 14, -4
 167 0002 8BB0     		sub	sp, sp, #44
 168              	.LCFI3:
 169              		.cfi_def_cfa_offset 56
  91:Core/Src/periphs/i2c.c **** 
  92:Core/Src/periphs/i2c.c ****   GPIO_InitTypeDef GPIO_InitStruct = {0};
 170              		.loc 1 92 0
 171 0004 0023     		movs	r3, #0
 172 0006 0593     		str	r3, [sp, #20]
 173 0008 0693     		str	r3, [sp, #24]
 174 000a 0793     		str	r3, [sp, #28]
 175 000c 0893     		str	r3, [sp, #32]
 176 000e 0993     		str	r3, [sp, #36]
  93:Core/Src/periphs/i2c.c ****   if(i2cHandle->Instance==I2C1)
 177              		.loc 1 93 0
 178 0010 0368     		ldr	r3, [r0]
 179 0012 2A4A     		ldr	r2, .L19
 180 0014 9342     		cmp	r3, r2
 181 0016 04D0     		beq	.L17
  94:Core/Src/periphs/i2c.c ****   {
  95:Core/Src/periphs/i2c.c ****   /* USER CODE BEGIN I2C1_MspInit 0 */
  96:Core/Src/periphs/i2c.c **** 
  97:Core/Src/periphs/i2c.c ****   /* USER CODE END I2C1_MspInit 0 */
  98:Core/Src/periphs/i2c.c ****   
  99:Core/Src/periphs/i2c.c ****     __HAL_RCC_GPIOB_CLK_ENABLE();
 100:Core/Src/periphs/i2c.c ****     /**I2C1 GPIO Configuration    
 101:Core/Src/periphs/i2c.c ****     PB8     ------> I2C1_SCL
 102:Core/Src/periphs/i2c.c ****     PB9     ------> I2C1_SDA 
 103:Core/Src/periphs/i2c.c ****     */
 104:Core/Src/periphs/i2c.c ****     GPIO_InitStruct.Pin = GPIO_PIN_8|GPIO_PIN_9;
 105:Core/Src/periphs/i2c.c ****     GPIO_InitStruct.Mode = GPIO_MODE_AF_OD;
 106:Core/Src/periphs/i2c.c ****     GPIO_InitStruct.Pull = GPIO_PULLUP;
 107:Core/Src/periphs/i2c.c ****     GPIO_InitStruct.Speed = GPIO_SPEED_FREQ_VERY_HIGH;
ARM GAS  C:\Users\Prashant\AppData\Local\Temp\ccohka47.s 			page 6


 108:Core/Src/periphs/i2c.c ****     GPIO_InitStruct.Alternate = GPIO_AF4_I2C1;
 109:Core/Src/periphs/i2c.c ****     HAL_GPIO_Init(GPIOB, &GPIO_InitStruct);
 110:Core/Src/periphs/i2c.c **** 
 111:Core/Src/periphs/i2c.c ****     /* I2C1 clock enable */
 112:Core/Src/periphs/i2c.c ****     __HAL_RCC_I2C1_CLK_ENABLE();
 113:Core/Src/periphs/i2c.c ****   /* USER CODE BEGIN I2C1_MspInit 1 */
 114:Core/Src/periphs/i2c.c **** 
 115:Core/Src/periphs/i2c.c ****   /* USER CODE END I2C1_MspInit 1 */
 116:Core/Src/periphs/i2c.c ****   }
 117:Core/Src/periphs/i2c.c ****   else if(i2cHandle->Instance==I2C2)
 182              		.loc 1 117 0
 183 0018 294A     		ldr	r2, .L19+4
 184 001a 9342     		cmp	r3, r2
 185 001c 27D0     		beq	.L18
 186              	.LVL5:
 187              	.L13:
 118:Core/Src/periphs/i2c.c ****   {
 119:Core/Src/periphs/i2c.c ****   /* USER CODE BEGIN I2C2_MspInit 0 */
 120:Core/Src/periphs/i2c.c **** 
 121:Core/Src/periphs/i2c.c ****   /* USER CODE END I2C2_MspInit 0 */
 122:Core/Src/periphs/i2c.c ****   
 123:Core/Src/periphs/i2c.c ****     __HAL_RCC_GPIOB_CLK_ENABLE();
 124:Core/Src/periphs/i2c.c ****     /**I2C2 GPIO Configuration    
 125:Core/Src/periphs/i2c.c ****     PB10     ------> I2C2_SCL
 126:Core/Src/periphs/i2c.c ****     PB11     ------> I2C2_SDA 
 127:Core/Src/periphs/i2c.c ****     */
 128:Core/Src/periphs/i2c.c ****     GPIO_InitStruct.Pin = GPIO_PIN_10|GPIO_PIN_11;
 129:Core/Src/periphs/i2c.c ****     GPIO_InitStruct.Mode = GPIO_MODE_AF_OD;
 130:Core/Src/periphs/i2c.c ****     GPIO_InitStruct.Pull = GPIO_PULLUP;
 131:Core/Src/periphs/i2c.c ****     GPIO_InitStruct.Speed = GPIO_SPEED_FREQ_VERY_HIGH;
 132:Core/Src/periphs/i2c.c ****     GPIO_InitStruct.Alternate = GPIO_AF4_I2C2;
 133:Core/Src/periphs/i2c.c ****     HAL_GPIO_Init(GPIOB, &GPIO_InitStruct);
 134:Core/Src/periphs/i2c.c **** 
 135:Core/Src/periphs/i2c.c ****     /* I2C2 clock enable */
 136:Core/Src/periphs/i2c.c ****     __HAL_RCC_I2C2_CLK_ENABLE();
 137:Core/Src/periphs/i2c.c ****   /* USER CODE BEGIN I2C2_MspInit 1 */
 138:Core/Src/periphs/i2c.c **** 
 139:Core/Src/periphs/i2c.c ****   /* USER CODE END I2C2_MspInit 1 */
 140:Core/Src/periphs/i2c.c ****   }
 141:Core/Src/periphs/i2c.c **** }
 188              		.loc 1 141 0
 189 001e 0BB0     		add	sp, sp, #44
 190              	.LCFI4:
 191              		.cfi_remember_state
 192              		.cfi_def_cfa_offset 12
 193              		@ sp needed
 194 0020 30BD     		pop	{r4, r5, pc}
 195              	.LVL6:
 196              	.L17:
 197              	.LCFI5:
 198              		.cfi_restore_state
 199              	.LBB2:
  99:Core/Src/periphs/i2c.c ****     /**I2C1 GPIO Configuration    
 200              		.loc 1 99 0
 201 0022 0025     		movs	r5, #0
 202 0024 0195     		str	r5, [sp, #4]
 203 0026 274C     		ldr	r4, .L19+8
ARM GAS  C:\Users\Prashant\AppData\Local\Temp\ccohka47.s 			page 7


 204 0028 236B     		ldr	r3, [r4, #48]
 205 002a 43F00203 		orr	r3, r3, #2
 206 002e 2363     		str	r3, [r4, #48]
 207 0030 236B     		ldr	r3, [r4, #48]
 208 0032 03F00203 		and	r3, r3, #2
 209 0036 0193     		str	r3, [sp, #4]
 210 0038 019B     		ldr	r3, [sp, #4]
 211              	.LBE2:
 104:Core/Src/periphs/i2c.c ****     GPIO_InitStruct.Mode = GPIO_MODE_AF_OD;
 212              		.loc 1 104 0
 213 003a 4FF44073 		mov	r3, #768
 214 003e 0593     		str	r3, [sp, #20]
 105:Core/Src/periphs/i2c.c ****     GPIO_InitStruct.Pull = GPIO_PULLUP;
 215              		.loc 1 105 0
 216 0040 1223     		movs	r3, #18
 217 0042 0693     		str	r3, [sp, #24]
 106:Core/Src/periphs/i2c.c ****     GPIO_InitStruct.Speed = GPIO_SPEED_FREQ_VERY_HIGH;
 218              		.loc 1 106 0
 219 0044 0123     		movs	r3, #1
 220 0046 0793     		str	r3, [sp, #28]
 107:Core/Src/periphs/i2c.c ****     GPIO_InitStruct.Alternate = GPIO_AF4_I2C1;
 221              		.loc 1 107 0
 222 0048 0323     		movs	r3, #3
 223 004a 0893     		str	r3, [sp, #32]
 108:Core/Src/periphs/i2c.c ****     HAL_GPIO_Init(GPIOB, &GPIO_InitStruct);
 224              		.loc 1 108 0
 225 004c 0423     		movs	r3, #4
 226 004e 0993     		str	r3, [sp, #36]
 109:Core/Src/periphs/i2c.c **** 
 227              		.loc 1 109 0
 228 0050 05A9     		add	r1, sp, #20
 229 0052 1D48     		ldr	r0, .L19+12
 230              	.LVL7:
 231 0054 FFF7FEFF 		bl	HAL_GPIO_Init
 232              	.LVL8:
 233              	.LBB3:
 112:Core/Src/periphs/i2c.c ****   /* USER CODE BEGIN I2C1_MspInit 1 */
 234              		.loc 1 112 0
 235 0058 0295     		str	r5, [sp, #8]
 236 005a 236C     		ldr	r3, [r4, #64]
 237 005c 43F40013 		orr	r3, r3, #2097152
 238 0060 2364     		str	r3, [r4, #64]
 239 0062 236C     		ldr	r3, [r4, #64]
 240 0064 03F40013 		and	r3, r3, #2097152
 241 0068 0293     		str	r3, [sp, #8]
 242 006a 029B     		ldr	r3, [sp, #8]
 243              	.LBE3:
 244 006c D7E7     		b	.L13
 245              	.LVL9:
 246              	.L18:
 247              	.LBB4:
 123:Core/Src/periphs/i2c.c ****     /**I2C2 GPIO Configuration    
 248              		.loc 1 123 0
 249 006e 0025     		movs	r5, #0
 250 0070 0395     		str	r5, [sp, #12]
 251 0072 144C     		ldr	r4, .L19+8
 252 0074 236B     		ldr	r3, [r4, #48]
ARM GAS  C:\Users\Prashant\AppData\Local\Temp\ccohka47.s 			page 8


 253 0076 43F00203 		orr	r3, r3, #2
 254 007a 2363     		str	r3, [r4, #48]
 255 007c 236B     		ldr	r3, [r4, #48]
 256 007e 03F00203 		and	r3, r3, #2
 257 0082 0393     		str	r3, [sp, #12]
 258 0084 039B     		ldr	r3, [sp, #12]
 259              	.LBE4:
 128:Core/Src/periphs/i2c.c ****     GPIO_InitStruct.Mode = GPIO_MODE_AF_OD;
 260              		.loc 1 128 0
 261 0086 4FF44063 		mov	r3, #3072
 262 008a 0593     		str	r3, [sp, #20]
 129:Core/Src/periphs/i2c.c ****     GPIO_InitStruct.Pull = GPIO_PULLUP;
 263              		.loc 1 129 0
 264 008c 1223     		movs	r3, #18
 265 008e 0693     		str	r3, [sp, #24]
 130:Core/Src/periphs/i2c.c ****     GPIO_InitStruct.Speed = GPIO_SPEED_FREQ_VERY_HIGH;
 266              		.loc 1 130 0
 267 0090 0123     		movs	r3, #1
 268 0092 0793     		str	r3, [sp, #28]
 131:Core/Src/periphs/i2c.c ****     GPIO_InitStruct.Alternate = GPIO_AF4_I2C2;
 269              		.loc 1 131 0
 270 0094 0323     		movs	r3, #3
 271 0096 0893     		str	r3, [sp, #32]
 132:Core/Src/periphs/i2c.c ****     HAL_GPIO_Init(GPIOB, &GPIO_InitStruct);
 272              		.loc 1 132 0
 273 0098 0423     		movs	r3, #4
 274 009a 0993     		str	r3, [sp, #36]
 133:Core/Src/periphs/i2c.c **** 
 275              		.loc 1 133 0
 276 009c 05A9     		add	r1, sp, #20
 277 009e 0A48     		ldr	r0, .L19+12
 278              	.LVL10:
 279 00a0 FFF7FEFF 		bl	HAL_GPIO_Init
 280              	.LVL11:
 281              	.LBB5:
 136:Core/Src/periphs/i2c.c ****   /* USER CODE BEGIN I2C2_MspInit 1 */
 282              		.loc 1 136 0
 283 00a4 0495     		str	r5, [sp, #16]
 284 00a6 236C     		ldr	r3, [r4, #64]
 285 00a8 43F48003 		orr	r3, r3, #4194304
 286 00ac 2364     		str	r3, [r4, #64]
 287 00ae 236C     		ldr	r3, [r4, #64]
 288 00b0 03F48003 		and	r3, r3, #4194304
 289 00b4 0493     		str	r3, [sp, #16]
 290 00b6 049B     		ldr	r3, [sp, #16]
 291              	.LBE5:
 292              		.loc 1 141 0
 293 00b8 B1E7     		b	.L13
 294              	.L20:
 295 00ba 00BF     		.align	2
 296              	.L19:
 297 00bc 00540040 		.word	1073763328
 298 00c0 00580040 		.word	1073764352
 299 00c4 00380240 		.word	1073887232
 300 00c8 00040240 		.word	1073873920
 301              		.cfi_endproc
 302              	.LFE128:
ARM GAS  C:\Users\Prashant\AppData\Local\Temp\ccohka47.s 			page 9


 304              		.section	.text.HAL_I2C_MspDeInit,"ax",%progbits
 305              		.align	1
 306              		.global	HAL_I2C_MspDeInit
 307              		.syntax unified
 308              		.thumb
 309              		.thumb_func
 310              		.fpu fpv4-sp-d16
 312              	HAL_I2C_MspDeInit:
 313              	.LFB129:
 142:Core/Src/periphs/i2c.c **** 
 143:Core/Src/periphs/i2c.c **** void HAL_I2C_MspDeInit(I2C_HandleTypeDef* i2cHandle)
 144:Core/Src/periphs/i2c.c **** {
 314              		.loc 1 144 0
 315              		.cfi_startproc
 316              		@ args = 0, pretend = 0, frame = 0
 317              		@ frame_needed = 0, uses_anonymous_args = 0
 318              	.LVL12:
 319 0000 08B5     		push	{r3, lr}
 320              	.LCFI6:
 321              		.cfi_def_cfa_offset 8
 322              		.cfi_offset 3, -8
 323              		.cfi_offset 14, -4
 145:Core/Src/periphs/i2c.c **** 
 146:Core/Src/periphs/i2c.c ****   if(i2cHandle->Instance==I2C1)
 324              		.loc 1 146 0
 325 0002 0368     		ldr	r3, [r0]
 326 0004 0F4A     		ldr	r2, .L27
 327 0006 9342     		cmp	r3, r2
 328 0008 03D0     		beq	.L25
 147:Core/Src/periphs/i2c.c ****   {
 148:Core/Src/periphs/i2c.c ****   /* USER CODE BEGIN I2C1_MspDeInit 0 */
 149:Core/Src/periphs/i2c.c **** 
 150:Core/Src/periphs/i2c.c ****   /* USER CODE END I2C1_MspDeInit 0 */
 151:Core/Src/periphs/i2c.c ****     /* Peripheral clock disable */
 152:Core/Src/periphs/i2c.c ****     __HAL_RCC_I2C1_CLK_DISABLE();
 153:Core/Src/periphs/i2c.c ****   
 154:Core/Src/periphs/i2c.c ****     /**I2C1 GPIO Configuration    
 155:Core/Src/periphs/i2c.c ****     PB8     ------> I2C1_SCL
 156:Core/Src/periphs/i2c.c ****     PB9     ------> I2C1_SDA 
 157:Core/Src/periphs/i2c.c ****     */
 158:Core/Src/periphs/i2c.c ****     HAL_GPIO_DeInit(GPIOB, GPIO_PIN_8|GPIO_PIN_9);
 159:Core/Src/periphs/i2c.c **** 
 160:Core/Src/periphs/i2c.c ****   /* USER CODE BEGIN I2C1_MspDeInit 1 */
 161:Core/Src/periphs/i2c.c **** 
 162:Core/Src/periphs/i2c.c ****   /* USER CODE END I2C1_MspDeInit 1 */
 163:Core/Src/periphs/i2c.c ****   }
 164:Core/Src/periphs/i2c.c ****   else if(i2cHandle->Instance==I2C2)
 329              		.loc 1 164 0
 330 000a 0F4A     		ldr	r2, .L27+4
 331 000c 9342     		cmp	r3, r2
 332 000e 0CD0     		beq	.L26
 333              	.LVL13:
 334              	.L21:
 165:Core/Src/periphs/i2c.c ****   {
 166:Core/Src/periphs/i2c.c ****   /* USER CODE BEGIN I2C2_MspDeInit 0 */
 167:Core/Src/periphs/i2c.c **** 
 168:Core/Src/periphs/i2c.c ****   /* USER CODE END I2C2_MspDeInit 0 */
ARM GAS  C:\Users\Prashant\AppData\Local\Temp\ccohka47.s 			page 10


 169:Core/Src/periphs/i2c.c ****     /* Peripheral clock disable */
 170:Core/Src/periphs/i2c.c ****     __HAL_RCC_I2C2_CLK_DISABLE();
 171:Core/Src/periphs/i2c.c ****   
 172:Core/Src/periphs/i2c.c ****     /**I2C2 GPIO Configuration    
 173:Core/Src/periphs/i2c.c ****     PB10     ------> I2C2_SCL
 174:Core/Src/periphs/i2c.c ****     PB11     ------> I2C2_SDA 
 175:Core/Src/periphs/i2c.c ****     */
 176:Core/Src/periphs/i2c.c ****     HAL_GPIO_DeInit(GPIOB, GPIO_PIN_10|GPIO_PIN_11);
 177:Core/Src/periphs/i2c.c **** 
 178:Core/Src/periphs/i2c.c ****   /* USER CODE BEGIN I2C2_MspDeInit 1 */
 179:Core/Src/periphs/i2c.c **** 
 180:Core/Src/periphs/i2c.c ****   /* USER CODE END I2C2_MspDeInit 1 */
 181:Core/Src/periphs/i2c.c ****   }
 182:Core/Src/periphs/i2c.c **** } 
 335              		.loc 1 182 0
 336 0010 08BD     		pop	{r3, pc}
 337              	.LVL14:
 338              	.L25:
 152:Core/Src/periphs/i2c.c ****   
 339              		.loc 1 152 0
 340 0012 02F5F232 		add	r2, r2, #123904
 341 0016 136C     		ldr	r3, [r2, #64]
 342 0018 23F40013 		bic	r3, r3, #2097152
 343 001c 1364     		str	r3, [r2, #64]
 158:Core/Src/periphs/i2c.c **** 
 344              		.loc 1 158 0
 345 001e 4FF44071 		mov	r1, #768
 346 0022 0A48     		ldr	r0, .L27+8
 347              	.LVL15:
 348 0024 FFF7FEFF 		bl	HAL_GPIO_DeInit
 349              	.LVL16:
 350 0028 F2E7     		b	.L21
 351              	.LVL17:
 352              	.L26:
 170:Core/Src/periphs/i2c.c ****   
 353              		.loc 1 170 0
 354 002a 02F5F032 		add	r2, r2, #122880
 355 002e 136C     		ldr	r3, [r2, #64]
 356 0030 23F48003 		bic	r3, r3, #4194304
 357 0034 1364     		str	r3, [r2, #64]
 176:Core/Src/periphs/i2c.c **** 
 358              		.loc 1 176 0
 359 0036 4FF44061 		mov	r1, #3072
 360 003a 0448     		ldr	r0, .L27+8
 361              	.LVL18:
 362 003c FFF7FEFF 		bl	HAL_GPIO_DeInit
 363              	.LVL19:
 364              		.loc 1 182 0
 365 0040 E6E7     		b	.L21
 366              	.L28:
 367 0042 00BF     		.align	2
 368              	.L27:
 369 0044 00540040 		.word	1073763328
 370 0048 00580040 		.word	1073764352
 371 004c 00040240 		.word	1073873920
 372              		.cfi_endproc
 373              	.LFE129:
ARM GAS  C:\Users\Prashant\AppData\Local\Temp\ccohka47.s 			page 11


 375              		.comm	hi2c2,84,4
 376              		.comm	hi2c1,84,4
 377              		.text
 378              	.Letext0:
 379              		.file 2 "c:\\program files (x86)\\gnu tools arm embedded\\7 2017-q4-major\\arm-none-eabi\\include\
 380              		.file 3 "c:\\program files (x86)\\gnu tools arm embedded\\7 2017-q4-major\\arm-none-eabi\\include\
 381              		.file 4 "Drivers/CMSIS/Include/core_cm4.h"
 382              		.file 5 "Drivers/CMSIS/Device/ST/STM32F4xx/Include/system_stm32f4xx.h"
 383              		.file 6 "Drivers/CMSIS/Device/ST/STM32F4xx/Include/stm32f407xx.h"
 384              		.file 7 "c:\\program files (x86)\\gnu tools arm embedded\\7 2017-q4-major\\arm-none-eabi\\include\
 385              		.file 8 "c:\\program files (x86)\\gnu tools arm embedded\\7 2017-q4-major\\arm-none-eabi\\include\
 386              		.file 9 "c:\\program files (x86)\\gnu tools arm embedded\\7 2017-q4-major\\lib\\gcc\\arm-none-eabi
 387              		.file 10 "c:\\program files (x86)\\gnu tools arm embedded\\7 2017-q4-major\\arm-none-eabi\\include
 388              		.file 11 "Drivers/STM32F4xx_HAL_Driver/Inc/stm32f4xx_hal_def.h"
 389              		.file 12 "Drivers/STM32F4xx_HAL_Driver/Inc/stm32f4xx_hal_gpio.h"
 390              		.file 13 "Drivers/STM32F4xx_HAL_Driver/Inc/stm32f4xx_hal_dma.h"
 391              		.file 14 "Drivers/STM32F4xx_HAL_Driver/Inc/stm32f4xx_hal_i2c.h"
 392              		.file 15 "Core/Inc/periphs/i2c.h"
 393              		.file 16 "Core/Inc/main.h"
ARM GAS  C:\Users\Prashant\AppData\Local\Temp\ccohka47.s 			page 12

