ARM GAS  C:\Users\Prashant\AppData\Local\Temp\ccTnMFWj.s 			page 1


   1              		.cpu cortex-m4
   2              		.eabi_attribute 27, 1
   3              		.eabi_attribute 28, 1
   4              		.eabi_attribute 20, 1
   5              		.eabi_attribute 21, 1
   6              		.eabi_attribute 23, 3
   7              		.eabi_attribute 24, 1
   8              		.eabi_attribute 25, 1
   9              		.eabi_attribute 26, 1
  10              		.eabi_attribute 30, 1
  11              		.eabi_attribute 34, 1
  12              		.eabi_attribute 18, 4
  13              		.file	"main.cpp"
  14              		.text
  15              	.Ltext0:
  16              		.cfi_sections	.debug_frame
  17              		.section	.text._Error_Handler,"ax",%progbits
  18              		.align	1
  19              		.global	_Error_Handler
  20              		.syntax unified
  21              		.thumb
  22              		.thumb_func
  23              		.fpu fpv4-sp-d16
  25              	_Error_Handler:
  26              	.LFB494:
  27              		.file 1 "Core/Src/main.cpp"
   1:Core/Src/main.cpp **** /* USER CODE BEGIN Header */
   2:Core/Src/main.cpp **** /**
   3:Core/Src/main.cpp ****   ******************************************************************************
   4:Core/Src/main.cpp ****   * @file           : main.c
   5:Core/Src/main.cpp ****   * @brief          : Main program body
   6:Core/Src/main.cpp ****   ******************************************************************************
   7:Core/Src/main.cpp ****   ** This notice applies to any and all portions of this file
   8:Core/Src/main.cpp ****   * that are not between comment pairs USER CODE BEGIN and
   9:Core/Src/main.cpp ****   * USER CODE END. Other portions of this file, whether 
  10:Core/Src/main.cpp ****   * inserted by the user or by software development tools
  11:Core/Src/main.cpp ****   * are owned by their respective copyright owners.
  12:Core/Src/main.cpp ****   *
  13:Core/Src/main.cpp ****   * COPYRIGHT(c) 2019 STMicroelectronics
  14:Core/Src/main.cpp ****   *
  15:Core/Src/main.cpp ****   * Redistribution and use in source and binary forms, with or without modification,
  16:Core/Src/main.cpp ****   * are permitted provided that the following conditions are met:
  17:Core/Src/main.cpp ****   *   1. Redistributions of source code must retain the above copyright notice,
  18:Core/Src/main.cpp ****   *      this list of conditions and the following disclaimer.
  19:Core/Src/main.cpp ****   *   2. Redistributions in binary form must reproduce the above copyright notice,
  20:Core/Src/main.cpp ****   *      this list of conditions and the following disclaimer in the documentation
  21:Core/Src/main.cpp ****   *      and/or other materials provided with the distribution.
  22:Core/Src/main.cpp ****   *   3. Neither the name of STMicroelectronics nor the names of its contributors
  23:Core/Src/main.cpp ****   *      may be used to endorse or promote products derived from this software
  24:Core/Src/main.cpp ****   *      without specific prior written permission.
  25:Core/Src/main.cpp ****   *
  26:Core/Src/main.cpp ****   * THIS SOFTWARE IS PROVIDED BY THE COPYRIGHT HOLDERS AND CONTRIBUTORS "AS IS"
  27:Core/Src/main.cpp ****   * AND ANY EXPRESS OR IMPLIED WARRANTIES, INCLUDING, BUT NOT LIMITED TO, THE
  28:Core/Src/main.cpp ****   * IMPLIED WARRANTIES OF MERCHANTABILITY AND FITNESS FOR A PARTICULAR PURPOSE ARE
  29:Core/Src/main.cpp ****   * DISCLAIMED. IN NO EVENT SHALL THE COPYRIGHT HOLDER OR CONTRIBUTORS BE LIABLE
  30:Core/Src/main.cpp ****   * FOR ANY DIRECT, INDIRECT, INCIDENTAL, SPECIAL, EXEMPLARY, OR CONSEQUENTIAL
  31:Core/Src/main.cpp ****   * DAMAGES (INCLUDING, BUT NOT LIMITED TO, PROCUREMENT OF SUBSTITUTE GOODS OR
ARM GAS  C:\Users\Prashant\AppData\Local\Temp\ccTnMFWj.s 			page 2


  32:Core/Src/main.cpp ****   * SERVICES; LOSS OF USE, DATA, OR PROFITS; OR BUSINESS INTERRUPTION) HOWEVER
  33:Core/Src/main.cpp ****   * CAUSED AND ON ANY THEORY OF LIABILITY, WHETHER IN CONTRACT, STRICT LIABILITY,
  34:Core/Src/main.cpp ****   * OR TORT (INCLUDING NEGLIGENCE OR OTHERWISE) ARISING IN ANY WAY OUT OF THE USE
  35:Core/Src/main.cpp ****   * OF THIS SOFTWARE, EVEN IF ADVISED OF THE POSSIBILITY OF SUCH DAMAGE.
  36:Core/Src/main.cpp ****   *
  37:Core/Src/main.cpp ****   ******************************************************************************
  38:Core/Src/main.cpp ****   */
  39:Core/Src/main.cpp **** /* USER CODE END Header */
  40:Core/Src/main.cpp **** 
  41:Core/Src/main.cpp **** /* Includes ------------------------------------------------------------------*/
  42:Core/Src/main.cpp **** #include "main.h"
  43:Core/Src/main.cpp **** #include "i2c.h"
  44:Core/Src/main.cpp **** #include "tim.h"
  45:Core/Src/main.cpp **** #include "usart.h"
  46:Core/Src/main.cpp **** #include "gpio.h"
  47:Core/Src/main.cpp **** #include "adc.h"
  48:Core/Src/main.cpp **** #include "math.h"
  49:Core/Src/main.cpp **** 
  50:Core/Src/main.cpp **** /* Private includes ----------------------------------------------------------*/
  51:Core/Src/main.cpp **** /* USER CODE BEGIN Includes */
  52:Core/Src/main.cpp **** #include "robot.h"
  53:Core/Src/main.cpp **** #include "vec3.h"
  54:Core/Src/main.cpp **** /* USER CODE END Includes */
  55:Core/Src/main.cpp **** 
  56:Core/Src/main.cpp **** /* Private typedef -----------------------------------------------------------*/
  57:Core/Src/main.cpp **** /* USER CODE BEGIN PTD */
  58:Core/Src/main.cpp **** 
  59:Core/Src/main.cpp **** /* USER CODE END PTD */
  60:Core/Src/main.cpp **** 
  61:Core/Src/main.cpp **** /* Private define ------------------------------------------------------------*/
  62:Core/Src/main.cpp **** /* USER CODE BEGIN PD */
  63:Core/Src/main.cpp **** 
  64:Core/Src/main.cpp **** /* USER CODE END PD */
  65:Core/Src/main.cpp **** 
  66:Core/Src/main.cpp **** /* Private macro -------------------------------------------------------------*/
  67:Core/Src/main.cpp **** /* USER CODE BEGIN PM */
  68:Core/Src/main.cpp **** 
  69:Core/Src/main.cpp **** /* USER CODE END PM */
  70:Core/Src/main.cpp **** 
  71:Core/Src/main.cpp **** /* Private variables ---------------------------------------------------------*/
  72:Core/Src/main.cpp **** 
  73:Core/Src/main.cpp **** /* USER CODE BEGIN PV */
  74:Core/Src/main.cpp **** 
  75:Core/Src/main.cpp **** extern leg leg[2];
  76:Core/Src/main.cpp **** extern steering steering;
  77:Core/Src/main.cpp **** 
  78:Core/Src/main.cpp **** /* USER CODE END PV */
  79:Core/Src/main.cpp **** 
  80:Core/Src/main.cpp **** /* Private function prototypes -----------------------------------------------*/
  81:Core/Src/main.cpp **** void SystemClock_Config(void);
  82:Core/Src/main.cpp **** /* USER CODE BEGIN PFP */
  83:Core/Src/main.cpp **** 
  84:Core/Src/main.cpp **** int Angle_Init();
  85:Core/Src/main.cpp **** Vec3<float> read_Orientation(uint32_t dt_millis);
  86:Core/Src/main.cpp **** /* USER CODE END PFP */
  87:Core/Src/main.cpp **** 
  88:Core/Src/main.cpp **** /* Private user code ---------------------------------------------------------*/
ARM GAS  C:\Users\Prashant\AppData\Local\Temp\ccTnMFWj.s 			page 3


  89:Core/Src/main.cpp **** /* USER CODE BEGIN 0 */
  90:Core/Src/main.cpp **** 
  91:Core/Src/main.cpp **** /* USER CODE END 0 */
  92:Core/Src/main.cpp **** 
  93:Core/Src/main.cpp **** /**
  94:Core/Src/main.cpp ****   * @brief  The application entry point.
  95:Core/Src/main.cpp ****   * @retval int
  96:Core/Src/main.cpp ****   */
  97:Core/Src/main.cpp **** int main(void)
  98:Core/Src/main.cpp **** {
  99:Core/Src/main.cpp **** 	/* USER CODE BEGIN 1 */
 100:Core/Src/main.cpp **** 
 101:Core/Src/main.cpp **** 	/* USER CODE END 1 */
 102:Core/Src/main.cpp **** 
 103:Core/Src/main.cpp **** 	/* MCU Configuration--------------------------------------------------------*/
 104:Core/Src/main.cpp **** 
 105:Core/Src/main.cpp **** 	/* Reset of all peripherals, Initializes the Flash interface and the Systick. */
 106:Core/Src/main.cpp **** 	HAL_Init();
 107:Core/Src/main.cpp **** 
 108:Core/Src/main.cpp **** 	/* USER CODE BEGIN Init */
 109:Core/Src/main.cpp **** 
 110:Core/Src/main.cpp **** 	/* USER CODE END Init */
 111:Core/Src/main.cpp **** 
 112:Core/Src/main.cpp **** 	/* Configure the system clock */
 113:Core/Src/main.cpp **** 	SystemClock_Config();
 114:Core/Src/main.cpp **** 
 115:Core/Src/main.cpp **** 	/* USER CODE BEGIN SysInit */
 116:Core/Src/main.cpp **** 
 117:Core/Src/main.cpp **** 	/* USER CODE END SysInit */
 118:Core/Src/main.cpp **** 
 119:Core/Src/main.cpp **** 	/* Initialize all configured peripherals */
 120:Core/Src/main.cpp **** 	MX_GPIO_Init();
 121:Core/Src/main.cpp **** 	MX_I2C1_Init();
 122:Core/Src/main.cpp **** 	MX_TIM1_Init();
 123:Core/Src/main.cpp **** 	MX_TIM2_Init();
 124:Core/Src/main.cpp **** 	MX_TIM3_Init();
 125:Core/Src/main.cpp **** 	MX_TIM8_Init();
 126:Core/Src/main.cpp **** 	MX_USART1_UART_Init();
 127:Core/Src/main.cpp **** 	MX_USART2_UART_Init();
 128:Core/Src/main.cpp **** 	MX_I2C2_Init();
 129:Core/Src/main.cpp **** 	MX_ADC1_Init();
 130:Core/Src/main.cpp **** 	/* USER CODE BEGIN 2 */
 131:Core/Src/main.cpp **** 
 132:Core/Src/main.cpp **** 	robo_init();
 133:Core/Src/main.cpp **** 	Angle_Init();
 134:Core/Src/main.cpp **** 	HAL_ADC_Start(&hadc1);
 135:Core/Src/main.cpp **** 
 136:Core/Src/main.cpp **** 	/* USER CODE END 2 */
 137:Core/Src/main.cpp **** 
 138:Core/Src/main.cpp **** 	/* Infinite loop */
 139:Core/Src/main.cpp **** 	/* USER CODE BEGIN WHILE */
 140:Core/Src/main.cpp **** 	printf("\n\nAll initialized\n\n");
 141:Core/Src/main.cpp **** 
 142:Core/Src/main.cpp **** 	uint32_t sample_time = HAL_GetTick();
 143:Core/Src/main.cpp **** 
 144:Core/Src/main.cpp **** 	play();
 145:Core/Src/main.cpp **** 	while (1)
ARM GAS  C:\Users\Prashant\AppData\Local\Temp\ccTnMFWj.s 			page 4


 146:Core/Src/main.cpp **** 	{
 147:Core/Src/main.cpp **** 
 148:Core/Src/main.cpp **** 		printf("\nENDD\n");
 149:Core/Src/main.cpp **** 		HAL_GPIO_TogglePin(GPIOD, GPIO_PIN_12);
 150:Core/Src/main.cpp **** 		HAL_GPIO_TogglePin(GPIOD, GPIO_PIN_13);
 151:Core/Src/main.cpp **** 		HAL_GPIO_TogglePin(GPIOD, GPIO_PIN_14);
 152:Core/Src/main.cpp **** 		HAL_GPIO_TogglePin(GPIOD, GPIO_PIN_15);
 153:Core/Src/main.cpp **** 		/* USER CODE END WHILE */
 154:Core/Src/main.cpp **** 		if(HAL_GetTick() - sample_time)
 155:Core/Src/main.cpp **** 		{
 156:Core/Src/main.cpp **** 			sample_time = HAL_GetTick();
 157:Core/Src/main.cpp **** 			calculate_datas();
 158:Core/Src/main.cpp **** 			leg[0].set_omega(0);
 159:Core/Src/main.cpp **** 			leg[1].set_omega(0);
 160:Core/Src/main.cpp **** 			steering.set_omega(0);
 161:Core/Src/main.cpp **** 			Vec3<float> angle = read_Orientation(10);
 162:Core/Src/main.cpp **** 			angle.print();
 163:Core/Src/main.cpp **** 			printf("\n");
 164:Core/Src/main.cpp **** 		}
 165:Core/Src/main.cpp **** 		/*  USER CODE BEGIN 3 */
 166:Core/Src/main.cpp **** 	}
 167:Core/Src/main.cpp **** 	/* USER CODE END 3 */
 168:Core/Src/main.cpp **** }
 169:Core/Src/main.cpp **** 
 170:Core/Src/main.cpp **** /**
 171:Core/Src/main.cpp ****   * @brief System Clock Configuration
 172:Core/Src/main.cpp ****   * @retval None
 173:Core/Src/main.cpp ****   */
 174:Core/Src/main.cpp **** void SystemClock_Config(void)
 175:Core/Src/main.cpp **** {
 176:Core/Src/main.cpp **** 	RCC_OscInitTypeDef RCC_OscInitStruct = {0};
 177:Core/Src/main.cpp **** 	RCC_ClkInitTypeDef RCC_ClkInitStruct = {0};
 178:Core/Src/main.cpp **** 
 179:Core/Src/main.cpp **** 	/**Configure the main internal regulator output voltage 
 180:Core/Src/main.cpp ****   */
 181:Core/Src/main.cpp **** 	__HAL_RCC_PWR_CLK_ENABLE();
 182:Core/Src/main.cpp **** 	__HAL_PWR_VOLTAGESCALING_CONFIG(PWR_REGULATOR_VOLTAGE_SCALE1);
 183:Core/Src/main.cpp **** 	/**Initializes the CPU, AHB and APB busses clocks 
 184:Core/Src/main.cpp ****   */
 185:Core/Src/main.cpp **** 	RCC_OscInitStruct.OscillatorType = RCC_OSCILLATORTYPE_HSE;
 186:Core/Src/main.cpp **** 	RCC_OscInitStruct.HSEState = RCC_HSE_ON;
 187:Core/Src/main.cpp **** 	RCC_OscInitStruct.PLL.PLLState = RCC_PLL_ON;
 188:Core/Src/main.cpp **** 	RCC_OscInitStruct.PLL.PLLSource = RCC_PLLSOURCE_HSE;
 189:Core/Src/main.cpp **** 	RCC_OscInitStruct.PLL.PLLM = 4;
 190:Core/Src/main.cpp **** 	RCC_OscInitStruct.PLL.PLLN = 168;
 191:Core/Src/main.cpp **** 	RCC_OscInitStruct.PLL.PLLP = RCC_PLLP_DIV2;
 192:Core/Src/main.cpp **** 	RCC_OscInitStruct.PLL.PLLQ = 7;
 193:Core/Src/main.cpp **** 	if (HAL_RCC_OscConfig(&RCC_OscInitStruct) != HAL_OK)
 194:Core/Src/main.cpp **** 	{
 195:Core/Src/main.cpp **** 		Error_Handler();
 196:Core/Src/main.cpp **** 	}
 197:Core/Src/main.cpp **** 	/**Initializes the CPU, AHB and APB busses clocks 
 198:Core/Src/main.cpp ****   */
 199:Core/Src/main.cpp **** 	RCC_ClkInitStruct.ClockType = RCC_CLOCKTYPE_HCLK | RCC_CLOCKTYPE_SYSCLK | RCC_CLOCKTYPE_PCLK1 | RC
 200:Core/Src/main.cpp **** 	RCC_ClkInitStruct.SYSCLKSource = RCC_SYSCLKSOURCE_PLLCLK;
 201:Core/Src/main.cpp **** 	RCC_ClkInitStruct.AHBCLKDivider = RCC_SYSCLK_DIV1;
 202:Core/Src/main.cpp **** 	RCC_ClkInitStruct.APB1CLKDivider = RCC_HCLK_DIV4;
ARM GAS  C:\Users\Prashant\AppData\Local\Temp\ccTnMFWj.s 			page 5


 203:Core/Src/main.cpp **** 	RCC_ClkInitStruct.APB2CLKDivider = RCC_HCLK_DIV2;
 204:Core/Src/main.cpp **** 
 205:Core/Src/main.cpp **** 	if (HAL_RCC_ClockConfig(&RCC_ClkInitStruct, FLASH_LATENCY_5) != HAL_OK)
 206:Core/Src/main.cpp **** 	{
 207:Core/Src/main.cpp **** 		Error_Handler();
 208:Core/Src/main.cpp **** 	}
 209:Core/Src/main.cpp **** }
 210:Core/Src/main.cpp **** 
 211:Core/Src/main.cpp **** /* USER CODE BEGIN 4 */
 212:Core/Src/main.cpp **** 
 213:Core/Src/main.cpp **** /* USER CODE END 4 */
 214:Core/Src/main.cpp **** 
 215:Core/Src/main.cpp **** /**
 216:Core/Src/main.cpp ****   * @brief  This function is executed in case of error occurrence.
 217:Core/Src/main.cpp ****   * @retval None
 218:Core/Src/main.cpp ****   */
 219:Core/Src/main.cpp **** void Error_Handler(void)
 220:Core/Src/main.cpp **** {
 221:Core/Src/main.cpp **** 	/* USER CODE BEGIN Error_Handler_Debug */
 222:Core/Src/main.cpp **** 	/* User can add his own implementation to report the HAL error return state */
 223:Core/Src/main.cpp **** 	_Error_Handler(__FILE__, __LINE__);
 224:Core/Src/main.cpp **** 	/* USER CODE END Error_Handler_Debug */
 225:Core/Src/main.cpp **** }
 226:Core/Src/main.cpp **** 
 227:Core/Src/main.cpp **** void _Error_Handler(const char *file, size_t line)
 228:Core/Src/main.cpp **** {
  28              		.loc 1 228 0
  29              		.cfi_startproc
  30              		@ Volatile: function does not return.
  31              		@ args = 0, pretend = 0, frame = 0
  32              		@ frame_needed = 0, uses_anonymous_args = 0
  33              		@ link register save eliminated.
  34              	.LVL0:
  35              	.L2:
  36 0000 FEE7     		b	.L2
  37              		.cfi_endproc
  38              	.LFE494:
  40              		.section	.text.Error_Handler,"ax",%progbits
  41              		.align	1
  42              		.global	Error_Handler
  43              		.syntax unified
  44              		.thumb
  45              		.thumb_func
  46              		.fpu fpv4-sp-d16
  48              	Error_Handler:
  49              	.LFB493:
 220:Core/Src/main.cpp **** 	/* USER CODE BEGIN Error_Handler_Debug */
  50              		.loc 1 220 0
  51              		.cfi_startproc
  52              		@ Volatile: function does not return.
  53              		@ args = 0, pretend = 0, frame = 0
  54              		@ frame_needed = 0, uses_anonymous_args = 0
 220:Core/Src/main.cpp **** 	/* USER CODE BEGIN Error_Handler_Debug */
  55              		.loc 1 220 0
  56 0000 08B5     		push	{r3, lr}
  57              	.LCFI0:
  58              		.cfi_def_cfa_offset 8
ARM GAS  C:\Users\Prashant\AppData\Local\Temp\ccTnMFWj.s 			page 6


  59              		.cfi_offset 3, -8
  60              		.cfi_offset 14, -4
 223:Core/Src/main.cpp **** 	/* USER CODE END Error_Handler_Debug */
  61              		.loc 1 223 0
  62 0002 DF21     		movs	r1, #223
  63 0004 0148     		ldr	r0, .L5
  64 0006 FFF7FEFF 		bl	_Error_Handler
  65              	.LVL1:
  66              	.L6:
  67 000a 00BF     		.align	2
  68              	.L5:
  69 000c 00000000 		.word	.LC0
  70              		.cfi_endproc
  71              	.LFE493:
  73              		.section	.text._Z18SystemClock_Configv,"ax",%progbits
  74              		.align	1
  75              		.global	_Z18SystemClock_Configv
  76              		.syntax unified
  77              		.thumb
  78              		.thumb_func
  79              		.fpu fpv4-sp-d16
  81              	_Z18SystemClock_Configv:
  82              	.LFB492:
 175:Core/Src/main.cpp **** 	RCC_OscInitTypeDef RCC_OscInitStruct = {0};
  83              		.loc 1 175 0
  84              		.cfi_startproc
  85              		@ args = 0, pretend = 0, frame = 80
  86              		@ frame_needed = 0, uses_anonymous_args = 0
  87 0000 00B5     		push	{lr}
  88              	.LCFI1:
  89              		.cfi_def_cfa_offset 4
  90              		.cfi_offset 14, -4
  91 0002 95B0     		sub	sp, sp, #84
  92              	.LCFI2:
  93              		.cfi_def_cfa_offset 88
 176:Core/Src/main.cpp **** 	RCC_ClkInitTypeDef RCC_ClkInitStruct = {0};
  94              		.loc 1 176 0
  95 0004 3022     		movs	r2, #48
  96 0006 0021     		movs	r1, #0
  97 0008 08A8     		add	r0, sp, #32
  98 000a FFF7FEFF 		bl	memset
  99              	.LVL2:
 177:Core/Src/main.cpp **** 
 100              		.loc 1 177 0
 101 000e 0023     		movs	r3, #0
 102 0010 0393     		str	r3, [sp, #12]
 103 0012 0493     		str	r3, [sp, #16]
 104 0014 0593     		str	r3, [sp, #20]
 105 0016 0693     		str	r3, [sp, #24]
 106 0018 0793     		str	r3, [sp, #28]
 107              	.LBB8:
 181:Core/Src/main.cpp **** 	__HAL_PWR_VOLTAGESCALING_CONFIG(PWR_REGULATOR_VOLTAGE_SCALE1);
 108              		.loc 1 181 0
 109 001a 0193     		str	r3, [sp, #4]
 110 001c 204A     		ldr	r2, .L13
 111 001e 116C     		ldr	r1, [r2, #64]
 112 0020 41F08051 		orr	r1, r1, #268435456
ARM GAS  C:\Users\Prashant\AppData\Local\Temp\ccTnMFWj.s 			page 7


 113 0024 1164     		str	r1, [r2, #64]
 114 0026 126C     		ldr	r2, [r2, #64]
 115 0028 02F08052 		and	r2, r2, #268435456
 116 002c 0192     		str	r2, [sp, #4]
 117 002e 019A     		ldr	r2, [sp, #4]
 118              	.LBE8:
 119              	.LBB9:
 182:Core/Src/main.cpp **** 	/**Initializes the CPU, AHB and APB busses clocks 
 120              		.loc 1 182 0
 121 0030 0293     		str	r3, [sp, #8]
 122 0032 1C4B     		ldr	r3, .L13+4
 123 0034 1A68     		ldr	r2, [r3]
 124 0036 42F48042 		orr	r2, r2, #16384
 125 003a 1A60     		str	r2, [r3]
 126 003c 1B68     		ldr	r3, [r3]
 127 003e 03F48043 		and	r3, r3, #16384
 128 0042 0293     		str	r3, [sp, #8]
 129 0044 029B     		ldr	r3, [sp, #8]
 130              	.LBE9:
 185:Core/Src/main.cpp **** 	RCC_OscInitStruct.HSEState = RCC_HSE_ON;
 131              		.loc 1 185 0
 132 0046 0123     		movs	r3, #1
 133 0048 0893     		str	r3, [sp, #32]
 186:Core/Src/main.cpp **** 	RCC_OscInitStruct.PLL.PLLState = RCC_PLL_ON;
 134              		.loc 1 186 0
 135 004a 4FF48033 		mov	r3, #65536
 136 004e 0993     		str	r3, [sp, #36]
 187:Core/Src/main.cpp **** 	RCC_OscInitStruct.PLL.PLLSource = RCC_PLLSOURCE_HSE;
 137              		.loc 1 187 0
 138 0050 0223     		movs	r3, #2
 139 0052 0E93     		str	r3, [sp, #56]
 188:Core/Src/main.cpp **** 	RCC_OscInitStruct.PLL.PLLM = 4;
 140              		.loc 1 188 0
 141 0054 4FF48002 		mov	r2, #4194304
 142 0058 0F92     		str	r2, [sp, #60]
 189:Core/Src/main.cpp **** 	RCC_OscInitStruct.PLL.PLLN = 168;
 143              		.loc 1 189 0
 144 005a 0422     		movs	r2, #4
 145 005c 1092     		str	r2, [sp, #64]
 190:Core/Src/main.cpp **** 	RCC_OscInitStruct.PLL.PLLP = RCC_PLLP_DIV2;
 146              		.loc 1 190 0
 147 005e A822     		movs	r2, #168
 148 0060 1192     		str	r2, [sp, #68]
 191:Core/Src/main.cpp **** 	RCC_OscInitStruct.PLL.PLLQ = 7;
 149              		.loc 1 191 0
 150 0062 1293     		str	r3, [sp, #72]
 192:Core/Src/main.cpp **** 	if (HAL_RCC_OscConfig(&RCC_OscInitStruct) != HAL_OK)
 151              		.loc 1 192 0
 152 0064 0723     		movs	r3, #7
 153 0066 1393     		str	r3, [sp, #76]
 193:Core/Src/main.cpp **** 	{
 154              		.loc 1 193 0
 155 0068 08A8     		add	r0, sp, #32
 156 006a FFF7FEFF 		bl	HAL_RCC_OscConfig
 157              	.LVL3:
 158 006e 98B9     		cbnz	r0, .L11
 199:Core/Src/main.cpp **** 	RCC_ClkInitStruct.SYSCLKSource = RCC_SYSCLKSOURCE_PLLCLK;
ARM GAS  C:\Users\Prashant\AppData\Local\Temp\ccTnMFWj.s 			page 8


 159              		.loc 1 199 0
 160 0070 0F23     		movs	r3, #15
 161 0072 0393     		str	r3, [sp, #12]
 200:Core/Src/main.cpp **** 	RCC_ClkInitStruct.AHBCLKDivider = RCC_SYSCLK_DIV1;
 162              		.loc 1 200 0
 163 0074 0223     		movs	r3, #2
 164 0076 0493     		str	r3, [sp, #16]
 201:Core/Src/main.cpp **** 	RCC_ClkInitStruct.APB1CLKDivider = RCC_HCLK_DIV4;
 165              		.loc 1 201 0
 166 0078 0023     		movs	r3, #0
 167 007a 0593     		str	r3, [sp, #20]
 202:Core/Src/main.cpp **** 	RCC_ClkInitStruct.APB2CLKDivider = RCC_HCLK_DIV2;
 168              		.loc 1 202 0
 169 007c 4FF4A053 		mov	r3, #5120
 170 0080 0693     		str	r3, [sp, #24]
 203:Core/Src/main.cpp **** 
 171              		.loc 1 203 0
 172 0082 4FF48053 		mov	r3, #4096
 173 0086 0793     		str	r3, [sp, #28]
 205:Core/Src/main.cpp **** 	{
 174              		.loc 1 205 0
 175 0088 0521     		movs	r1, #5
 176 008a 03A8     		add	r0, sp, #12
 177 008c FFF7FEFF 		bl	HAL_RCC_ClockConfig
 178              	.LVL4:
 179 0090 20B9     		cbnz	r0, .L12
 209:Core/Src/main.cpp **** 
 180              		.loc 1 209 0
 181 0092 15B0     		add	sp, sp, #84
 182              	.LCFI3:
 183              		.cfi_remember_state
 184              		.cfi_def_cfa_offset 4
 185              		@ sp needed
 186 0094 5DF804FB 		ldr	pc, [sp], #4
 187              	.L11:
 188              	.LCFI4:
 189              		.cfi_restore_state
 195:Core/Src/main.cpp **** 	}
 190              		.loc 1 195 0
 191 0098 FFF7FEFF 		bl	Error_Handler
 192              	.LVL5:
 193              	.L12:
 207:Core/Src/main.cpp **** 	}
 194              		.loc 1 207 0
 195 009c FFF7FEFF 		bl	Error_Handler
 196              	.LVL6:
 197              	.L14:
 198              		.align	2
 199              	.L13:
 200 00a0 00380240 		.word	1073887232
 201 00a4 00700040 		.word	1073770496
 202              		.cfi_endproc
 203              	.LFE492:
 205              		.section	.text.main,"ax",%progbits
 206              		.align	1
 207              		.global	main
 208              		.syntax unified
ARM GAS  C:\Users\Prashant\AppData\Local\Temp\ccTnMFWj.s 			page 9


 209              		.thumb
 210              		.thumb_func
 211              		.fpu fpv4-sp-d16
 213              	main:
 214              	.LFB491:
  98:Core/Src/main.cpp **** 	/* USER CODE BEGIN 1 */
 215              		.loc 1 98 0
 216              		.cfi_startproc
 217              		@ args = 0, pretend = 0, frame = 16
 218              		@ frame_needed = 0, uses_anonymous_args = 0
 219 0000 30B5     		push	{r4, r5, lr}
 220              	.LCFI5:
 221              		.cfi_def_cfa_offset 12
 222              		.cfi_offset 4, -12
 223              		.cfi_offset 5, -8
 224              		.cfi_offset 14, -4
 225 0002 2DED028B 		vpush.64	{d8}
 226              	.LCFI6:
 227              		.cfi_def_cfa_offset 20
 228              		.cfi_offset 80, -20
 229              		.cfi_offset 81, -16
 230 0006 85B0     		sub	sp, sp, #20
 231              	.LCFI7:
 232              		.cfi_def_cfa_offset 40
 106:Core/Src/main.cpp **** 
 233              		.loc 1 106 0
 234 0008 FFF7FEFF 		bl	HAL_Init
 235              	.LVL7:
 113:Core/Src/main.cpp **** 
 236              		.loc 1 113 0
 237 000c FFF7FEFF 		bl	_Z18SystemClock_Configv
 238              	.LVL8:
 120:Core/Src/main.cpp **** 	MX_I2C1_Init();
 239              		.loc 1 120 0
 240 0010 FFF7FEFF 		bl	MX_GPIO_Init
 241              	.LVL9:
 121:Core/Src/main.cpp **** 	MX_TIM1_Init();
 242              		.loc 1 121 0
 243 0014 FFF7FEFF 		bl	MX_I2C1_Init
 244              	.LVL10:
 122:Core/Src/main.cpp **** 	MX_TIM2_Init();
 245              		.loc 1 122 0
 246 0018 FFF7FEFF 		bl	MX_TIM1_Init
 247              	.LVL11:
 123:Core/Src/main.cpp **** 	MX_TIM3_Init();
 248              		.loc 1 123 0
 249 001c FFF7FEFF 		bl	MX_TIM2_Init
 250              	.LVL12:
 124:Core/Src/main.cpp **** 	MX_TIM8_Init();
 251              		.loc 1 124 0
 252 0020 FFF7FEFF 		bl	MX_TIM3_Init
 253              	.LVL13:
 125:Core/Src/main.cpp **** 	MX_USART1_UART_Init();
 254              		.loc 1 125 0
 255 0024 FFF7FEFF 		bl	MX_TIM8_Init
 256              	.LVL14:
 126:Core/Src/main.cpp **** 	MX_USART2_UART_Init();
ARM GAS  C:\Users\Prashant\AppData\Local\Temp\ccTnMFWj.s 			page 10


 257              		.loc 1 126 0
 258 0028 FFF7FEFF 		bl	MX_USART1_UART_Init
 259              	.LVL15:
 127:Core/Src/main.cpp **** 	MX_I2C2_Init();
 260              		.loc 1 127 0
 261 002c FFF7FEFF 		bl	MX_USART2_UART_Init
 262              	.LVL16:
 128:Core/Src/main.cpp **** 	MX_ADC1_Init();
 263              		.loc 1 128 0
 264 0030 FFF7FEFF 		bl	MX_I2C2_Init
 265              	.LVL17:
 129:Core/Src/main.cpp **** 	/* USER CODE BEGIN 2 */
 266              		.loc 1 129 0
 267 0034 FFF7FEFF 		bl	MX_ADC1_Init
 268              	.LVL18:
 132:Core/Src/main.cpp **** 	Angle_Init();
 269              		.loc 1 132 0
 270 0038 FFF7FEFF 		bl	_Z9robo_initv
 271              	.LVL19:
 133:Core/Src/main.cpp **** 	HAL_ADC_Start(&hadc1);
 272              		.loc 1 133 0
 273 003c FFF7FEFF 		bl	_Z10Angle_Initv
 274              	.LVL20:
 134:Core/Src/main.cpp **** 
 275              		.loc 1 134 0
 276 0040 2D48     		ldr	r0, .L19
 277 0042 FFF7FEFF 		bl	HAL_ADC_Start
 278              	.LVL21:
 140:Core/Src/main.cpp **** 
 279              		.loc 1 140 0
 280 0046 2D48     		ldr	r0, .L19+4
 281 0048 FFF7FEFF 		bl	puts
 282              	.LVL22:
 142:Core/Src/main.cpp **** 
 283              		.loc 1 142 0
 284 004c FFF7FEFF 		bl	HAL_GetTick
 285              	.LVL23:
 286 0050 0546     		mov	r5, r0
 287              	.LVL24:
 144:Core/Src/main.cpp **** 	while (1)
 288              		.loc 1 144 0
 289 0052 FFF7FEFF 		bl	_Z4playv
 290              	.LVL25:
 291              	.L16:
 292              	.LBB16:
 148:Core/Src/main.cpp **** 		HAL_GPIO_TogglePin(GPIOD, GPIO_PIN_12);
 293              		.loc 1 148 0
 294 0056 2A48     		ldr	r0, .L19+8
 295 0058 FFF7FEFF 		bl	puts
 296              	.LVL26:
 149:Core/Src/main.cpp **** 		HAL_GPIO_TogglePin(GPIOD, GPIO_PIN_13);
 297              		.loc 1 149 0
 298 005c 294C     		ldr	r4, .L19+12
 299 005e 4FF48051 		mov	r1, #4096
 300 0062 2046     		mov	r0, r4
 301 0064 FFF7FEFF 		bl	HAL_GPIO_TogglePin
 302              	.LVL27:
ARM GAS  C:\Users\Prashant\AppData\Local\Temp\ccTnMFWj.s 			page 11


 150:Core/Src/main.cpp **** 		HAL_GPIO_TogglePin(GPIOD, GPIO_PIN_14);
 303              		.loc 1 150 0
 304 0068 4FF40051 		mov	r1, #8192
 305 006c 2046     		mov	r0, r4
 306 006e FFF7FEFF 		bl	HAL_GPIO_TogglePin
 307              	.LVL28:
 151:Core/Src/main.cpp **** 		HAL_GPIO_TogglePin(GPIOD, GPIO_PIN_15);
 308              		.loc 1 151 0
 309 0072 4FF48041 		mov	r1, #16384
 310 0076 2046     		mov	r0, r4
 311 0078 FFF7FEFF 		bl	HAL_GPIO_TogglePin
 312              	.LVL29:
 152:Core/Src/main.cpp **** 		/* USER CODE END WHILE */
 313              		.loc 1 152 0
 314 007c 4FF40041 		mov	r1, #32768
 315 0080 2046     		mov	r0, r4
 316 0082 FFF7FEFF 		bl	HAL_GPIO_TogglePin
 317              	.LVL30:
 318              	.LBB17:
 154:Core/Src/main.cpp **** 		{
 319              		.loc 1 154 0
 320 0086 FFF7FEFF 		bl	HAL_GetTick
 321              	.LVL31:
 322 008a A842     		cmp	r0, r5
 323 008c E3D0     		beq	.L16
 324              	.LBB18:
 156:Core/Src/main.cpp **** 			calculate_datas();
 325              		.loc 1 156 0
 326 008e FFF7FEFF 		bl	HAL_GetTick
 327              	.LVL32:
 328 0092 0546     		mov	r5, r0
 329              	.LVL33:
 157:Core/Src/main.cpp **** 			leg[0].set_omega(0);
 330              		.loc 1 157 0
 331 0094 FFF7FEFF 		bl	_Z15calculate_datasv
 332              	.LVL34:
 158:Core/Src/main.cpp **** 			leg[1].set_omega(0);
 333              		.loc 1 158 0
 334 0098 9FED1B8A 		vldr.32	s16, .L19+16
 335 009c 1B4C     		ldr	r4, .L19+20
 336 009e B0EE480A 		vmov.f32	s0, s16
 337 00a2 2046     		mov	r0, r4
 338 00a4 FFF7FEFF 		bl	_ZN3leg9set_omegaEf
 339              	.LVL35:
 159:Core/Src/main.cpp **** 			steering.set_omega(0);
 340              		.loc 1 159 0
 341 00a8 B0EE480A 		vmov.f32	s0, s16
 342 00ac 04F15C00 		add	r0, r4, #92
 343 00b0 FFF7FEFF 		bl	_ZN3leg9set_omegaEf
 344              	.LVL36:
 160:Core/Src/main.cpp **** 			Vec3<float> angle = read_Orientation(10);
 345              		.loc 1 160 0
 346 00b4 B0EE480A 		vmov.f32	s0, s16
 347 00b8 1548     		ldr	r0, .L19+24
 348 00ba FFF7FEFF 		bl	_ZN8steering9set_omegaEf
 349              	.LVL37:
 161:Core/Src/main.cpp **** 			angle.print();
ARM GAS  C:\Users\Prashant\AppData\Local\Temp\ccTnMFWj.s 			page 12


 350              		.loc 1 161 0
 351 00be 0A21     		movs	r1, #10
 352 00c0 01A8     		add	r0, sp, #4
 353 00c2 FFF7FEFF 		bl	_Z16read_Orientationm
 354              	.LVL38:
 355              	.LBB19:
 356              	.LBB20:
 357              		.file 2 "Core/Inc/utils/vec3.h"
   1:Core/Inc/utils/vec3.h **** /*
   2:Core/Inc/utils/vec3.h ****  * vec3.h
   3:Core/Inc/utils/vec3.h ****  * 
   4:Core/Inc/utils/vec3.h ****  * Created : 11/9/2018
   5:Core/Inc/utils/vec3.h ****  *  Author : n-is
   6:Core/Inc/utils/vec3.h ****  *   email : 073bex422.nischal@pcampus.edu.np
   7:Core/Inc/utils/vec3.h ****  */
   8:Core/Inc/utils/vec3.h **** 
   9:Core/Inc/utils/vec3.h **** #ifndef _VEC3_H_
  10:Core/Inc/utils/vec3.h **** #define _VEC3_H_
  11:Core/Inc/utils/vec3.h **** 
  12:Core/Inc/utils/vec3.h **** #include "stm32f4xx_hal.h"
  13:Core/Inc/utils/vec3.h **** #include "main.h"
  14:Core/Inc/utils/vec3.h **** 
  15:Core/Inc/utils/vec3.h **** template <typename T>
  16:Core/Inc/utils/vec3.h **** void swap_Element(T &first, T &second)
  17:Core/Inc/utils/vec3.h **** {
  18:Core/Inc/utils/vec3.h ****         T temp = first;
  19:Core/Inc/utils/vec3.h ****         first = second;
  20:Core/Inc/utils/vec3.h ****         second = temp;
  21:Core/Inc/utils/vec3.h **** }
  22:Core/Inc/utils/vec3.h **** 
  23:Core/Inc/utils/vec3.h **** template <class T>
  24:Core/Inc/utils/vec3.h **** class Vec3
  25:Core/Inc/utils/vec3.h **** {
  26:Core/Inc/utils/vec3.h **** public:
  27:Core/Inc/utils/vec3.h ****         Vec3() { set_Values(0,0,0); }
  28:Core/Inc/utils/vec3.h ****         Vec3(T x, T y, T z) { set_Values(x,y,z); }
  29:Core/Inc/utils/vec3.h **** 
  30:Core/Inc/utils/vec3.h ****         Vec3(Vec3 &&) = default;
  31:Core/Inc/utils/vec3.h ****         Vec3 &operator=(Vec3 &&) = default;
  32:Core/Inc/utils/vec3.h ****         ~Vec3() { }
  33:Core/Inc/utils/vec3.h **** 
  34:Core/Inc/utils/vec3.h ****         T getX() const { return x_; }
  35:Core/Inc/utils/vec3.h ****         T getY() const { return y_; }
  36:Core/Inc/utils/vec3.h ****         T getZ() const { return z_; }
  37:Core/Inc/utils/vec3.h ****         void setX(T x) { x_ = x; }
  38:Core/Inc/utils/vec3.h ****         void setY(T y) { y_ = y; }
  39:Core/Inc/utils/vec3.h ****         void setZ(T z) { z_ = z; }
  40:Core/Inc/utils/vec3.h **** 
  41:Core/Inc/utils/vec3.h ****         void set_Values(T x, T y, T z) {
  42:Core/Inc/utils/vec3.h ****                 setX(x);
  43:Core/Inc/utils/vec3.h ****                 setY(y);
  44:Core/Inc/utils/vec3.h ****                 setZ(z);
  45:Core/Inc/utils/vec3.h ****         }
  46:Core/Inc/utils/vec3.h **** 
  47:Core/Inc/utils/vec3.h **** 
  48:Core/Inc/utils/vec3.h ****         Vec3 mult_EW(float num) {
  49:Core/Inc/utils/vec3.h ****                 Vec3 temp(*this);
ARM GAS  C:\Users\Prashant\AppData\Local\Temp\ccTnMFWj.s 			page 13


  50:Core/Inc/utils/vec3.h ****                 temp.x_ *= num;
  51:Core/Inc/utils/vec3.h ****                 temp.y_ *= num;
  52:Core/Inc/utils/vec3.h ****                 temp.z_ *= num;
  53:Core/Inc/utils/vec3.h **** 
  54:Core/Inc/utils/vec3.h ****                 return temp;
  55:Core/Inc/utils/vec3.h ****         }
  56:Core/Inc/utils/vec3.h **** 
  57:Core/Inc/utils/vec3.h ****         template <typename T1>
  58:Core/Inc/utils/vec3.h ****         Vec3 mult_EW(Vec3<T1> v) {
  59:Core/Inc/utils/vec3.h ****                 Vec3 temp(v);
  60:Core/Inc/utils/vec3.h ****                 temp.x_ *= x_;
  61:Core/Inc/utils/vec3.h ****                 temp.y_ *= y_;
  62:Core/Inc/utils/vec3.h ****                 temp.z_ *= z_;
  63:Core/Inc/utils/vec3.h **** 
  64:Core/Inc/utils/vec3.h ****                 return temp;
  65:Core/Inc/utils/vec3.h ****         }
  66:Core/Inc/utils/vec3.h **** 
  67:Core/Inc/utils/vec3.h **** 
  68:Core/Inc/utils/vec3.h ****         Vec3 add_EW(float num) {
  69:Core/Inc/utils/vec3.h ****                 Vec3 temp(*this);
  70:Core/Inc/utils/vec3.h ****                 temp.x_ += num;
  71:Core/Inc/utils/vec3.h ****                 temp.y_ += num;
  72:Core/Inc/utils/vec3.h ****                 temp.z_ += num;
  73:Core/Inc/utils/vec3.h **** 
  74:Core/Inc/utils/vec3.h ****                 return temp;
  75:Core/Inc/utils/vec3.h ****         }
  76:Core/Inc/utils/vec3.h **** 
  77:Core/Inc/utils/vec3.h ****         template <typename T1>
  78:Core/Inc/utils/vec3.h ****         Vec3 add_EW(Vec3<T1> v) {
  79:Core/Inc/utils/vec3.h ****                 Vec3 temp(v);
  80:Core/Inc/utils/vec3.h ****                 temp.x_ += x_;
  81:Core/Inc/utils/vec3.h ****                 temp.y_ += y_;
  82:Core/Inc/utils/vec3.h ****                 temp.z_ += z_;
  83:Core/Inc/utils/vec3.h **** 
  84:Core/Inc/utils/vec3.h ****                 return temp;
  85:Core/Inc/utils/vec3.h ****         }
  86:Core/Inc/utils/vec3.h **** 
  87:Core/Inc/utils/vec3.h **** 
  88:Core/Inc/utils/vec3.h ****         Vec3 sub_EW(float num) {
  89:Core/Inc/utils/vec3.h ****                 Vec3 temp(*this);
  90:Core/Inc/utils/vec3.h ****                 temp.x_ -= num;
  91:Core/Inc/utils/vec3.h ****                 temp.y_ -= num;
  92:Core/Inc/utils/vec3.h ****                 temp.z_ -= num;
  93:Core/Inc/utils/vec3.h **** 
  94:Core/Inc/utils/vec3.h ****                 return temp;
  95:Core/Inc/utils/vec3.h ****         }
  96:Core/Inc/utils/vec3.h **** 
  97:Core/Inc/utils/vec3.h ****         template <typename T1>
  98:Core/Inc/utils/vec3.h ****         Vec3 sub_EW(Vec3<T1> v) {
  99:Core/Inc/utils/vec3.h ****                 Vec3 temp(v);
 100:Core/Inc/utils/vec3.h ****                 temp.x_ -= x_;
 101:Core/Inc/utils/vec3.h ****                 temp.y_ -= y_;
 102:Core/Inc/utils/vec3.h ****                 temp.z_ -= z_;
 103:Core/Inc/utils/vec3.h **** 
 104:Core/Inc/utils/vec3.h ****                 return temp;
 105:Core/Inc/utils/vec3.h ****         }
 106:Core/Inc/utils/vec3.h **** 
ARM GAS  C:\Users\Prashant\AppData\Local\Temp\ccTnMFWj.s 			page 14


 107:Core/Inc/utils/vec3.h **** 
 108:Core/Inc/utils/vec3.h ****         Vec3 div_EW(float num) {
 109:Core/Inc/utils/vec3.h ****                 Vec3 temp(*this);
 110:Core/Inc/utils/vec3.h ****                 temp.x_ /= (float)num;
 111:Core/Inc/utils/vec3.h ****                 temp.y_ /= (float)num;
 112:Core/Inc/utils/vec3.h ****                 temp.z_ /= (float)num;
 113:Core/Inc/utils/vec3.h **** 
 114:Core/Inc/utils/vec3.h ****                 return temp;
 115:Core/Inc/utils/vec3.h ****         }
 116:Core/Inc/utils/vec3.h **** 
 117:Core/Inc/utils/vec3.h ****         template <typename T1>
 118:Core/Inc/utils/vec3.h ****         Vec3 div_EW(Vec3<T1> v) {
 119:Core/Inc/utils/vec3.h ****                 Vec3 temp(*this);
 120:Core/Inc/utils/vec3.h ****                 temp.x_ /= (float)v.x_;
 121:Core/Inc/utils/vec3.h ****                 temp.y_ /= (float)v.y_;
 122:Core/Inc/utils/vec3.h ****                 temp.z_ /= (float)v.z_;
 123:Core/Inc/utils/vec3.h **** 
 124:Core/Inc/utils/vec3.h ****                 return temp;
 125:Core/Inc/utils/vec3.h ****         }
 126:Core/Inc/utils/vec3.h **** 
 127:Core/Inc/utils/vec3.h ****         
 128:Core/Inc/utils/vec3.h ****         Vec3(const Vec3 &v) {
 129:Core/Inc/utils/vec3.h ****                 x_ = v.x_;
 130:Core/Inc/utils/vec3.h ****                 y_ = v.y_;
 131:Core/Inc/utils/vec3.h ****                 z_ = v.z_;
 132:Core/Inc/utils/vec3.h ****         }
 133:Core/Inc/utils/vec3.h ****         
 134:Core/Inc/utils/vec3.h ****         Vec3 &operator=(const Vec3 &v) {
 135:Core/Inc/utils/vec3.h ****                 Vec3 temp(v);
 136:Core/Inc/utils/vec3.h ****                 swap(*this, temp);
 137:Core/Inc/utils/vec3.h **** 
 138:Core/Inc/utils/vec3.h ****                 return *this;
 139:Core/Inc/utils/vec3.h ****         }
 140:Core/Inc/utils/vec3.h **** 
 141:Core/Inc/utils/vec3.h ****         Vec3 &operator+=(const Vec3 &rhs) {
 142:Core/Inc/utils/vec3.h ****                 x_ += rhs.x_;
 143:Core/Inc/utils/vec3.h ****                 y_ += rhs.y_;
 144:Core/Inc/utils/vec3.h ****                 z_ += rhs.z_;
 145:Core/Inc/utils/vec3.h **** 
 146:Core/Inc/utils/vec3.h ****                 return *this;
 147:Core/Inc/utils/vec3.h ****         }
 148:Core/Inc/utils/vec3.h ****         
 149:Core/Inc/utils/vec3.h ****         Vec3 &operator-=(const Vec3 &rhs) {
 150:Core/Inc/utils/vec3.h ****                 x_ -= rhs.x_;
 151:Core/Inc/utils/vec3.h ****                 y_ -= rhs.y_;
 152:Core/Inc/utils/vec3.h ****                 z_ -= rhs.z_;
 153:Core/Inc/utils/vec3.h **** 
 154:Core/Inc/utils/vec3.h ****                 return *this;
 155:Core/Inc/utils/vec3.h ****         }
 156:Core/Inc/utils/vec3.h **** 
 157:Core/Inc/utils/vec3.h ****         friend Vec3 operator+(Vec3 lhs, const Vec3 &rhs) {
 158:Core/Inc/utils/vec3.h ****                 lhs += rhs;
 159:Core/Inc/utils/vec3.h ****                 return lhs;
 160:Core/Inc/utils/vec3.h ****         }
 161:Core/Inc/utils/vec3.h **** 
 162:Core/Inc/utils/vec3.h ****         friend Vec3 operator-(Vec3 lhs, const Vec3 &rhs) {
 163:Core/Inc/utils/vec3.h ****                 lhs -= rhs;
ARM GAS  C:\Users\Prashant\AppData\Local\Temp\ccTnMFWj.s 			page 15


 164:Core/Inc/utils/vec3.h ****                 return lhs;
 165:Core/Inc/utils/vec3.h ****         }
 166:Core/Inc/utils/vec3.h **** 
 167:Core/Inc/utils/vec3.h ****         void print() const {
 168:Core/Inc/utils/vec3.h ****                 printf("%ld, %ld, %ld", (int32_t)x_, (int32_t)y_, (int32_t)z_);
 358              		.loc 2 168 0
 359 00c6 DDED037A 		vldr.32	s15, [sp, #12]
 360 00ca FDEEE77A 		vcvt.s32.f32	s15, s15
 361 00ce 17EE903A 		vmov	r3, s15	@ int
 362 00d2 DDED027A 		vldr.32	s15, [sp, #8]
 363 00d6 FDEEE77A 		vcvt.s32.f32	s15, s15
 364 00da 17EE902A 		vmov	r2, s15	@ int
 365 00de DDED017A 		vldr.32	s15, [sp, #4]
 366 00e2 FDEEE77A 		vcvt.s32.f32	s15, s15
 367 00e6 17EE901A 		vmov	r1, s15	@ int
 368 00ea 0A48     		ldr	r0, .L19+28
 369 00ec FFF7FEFF 		bl	printf
 370              	.LVL39:
 371              	.LBE20:
 372              	.LBE19:
 163:Core/Src/main.cpp **** 		}
 373              		.loc 1 163 0
 374 00f0 0A20     		movs	r0, #10
 375 00f2 FFF7FEFF 		bl	putchar
 376              	.LVL40:
 377              	.LBE18:
 378 00f6 AEE7     		b	.L16
 379              	.L20:
 380              		.align	2
 381              	.L19:
 382 00f8 00000000 		.word	hadc1
 383 00fc 00000000 		.word	.LC1
 384 0100 14000000 		.word	.LC2
 385 0104 000C0240 		.word	1073875968
 386 0108 00000000 		.word	0
 387 010c 00000000 		.word	leg
 388 0110 00000000 		.word	steering
 389 0114 1C000000 		.word	.LC3
 390              	.LBE17:
 391              	.LBE16:
 392              		.cfi_endproc
 393              	.LFE491:
 395              		.section	.rodata.Error_Handler.str1.4,"aMS",%progbits,1
 396              		.align	2
 397              	.LC0:
 398 0000 436F7265 		.ascii	"Core/Src/main.cpp\000"
 398      2F537263 
 398      2F6D6169 
 398      6E2E6370 
 398      7000
 399              		.section	.rodata.main.str1.4,"aMS",%progbits,1
 400              		.align	2
 401              	.LC1:
 402 0000 0A0A416C 		.ascii	"\012\012All initialized\012\000"
 402      6C20696E 
 402      69746961 
 402      6C697A65 
ARM GAS  C:\Users\Prashant\AppData\Local\Temp\ccTnMFWj.s 			page 16


 402      640A00
 403 0013 00       		.space	1
 404              	.LC2:
 405 0014 0A454E44 		.ascii	"\012ENDD\000"
 405      4400
 406 001a 0000     		.space	2
 407              	.LC3:
 408 001c 256C642C 		.ascii	"%ld, %ld, %ld\000"
 408      20256C64 
 408      2C20256C 
 408      6400
 409              		.text
 410              	.Letext0:
 411              		.file 3 "c:\\program files (x86)\\gnu tools arm embedded\\7 2017-q4-major\\arm-none-eabi\\include\
 412              		.file 4 "c:\\program files (x86)\\gnu tools arm embedded\\7 2017-q4-major\\arm-none-eabi\\include\
 413              		.file 5 "Drivers/CMSIS/Include/core_cm4.h"
 414              		.file 6 "Drivers/CMSIS/Device/ST/STM32F4xx/Include/system_stm32f4xx.h"
 415              		.file 7 "Drivers/CMSIS/Device/ST/STM32F4xx/Include/stm32f407xx.h"
 416              		.file 8 "c:\\program files (x86)\\gnu tools arm embedded\\7 2017-q4-major\\lib\\gcc\\arm-none-eabi
 417              		.file 9 "c:\\program files (x86)\\gnu tools arm embedded\\7 2017-q4-major\\arm-none-eabi\\include\
 418              		.file 10 "c:\\program files (x86)\\gnu tools arm embedded\\7 2017-q4-major\\arm-none-eabi\\include
 419              		.file 11 "c:\\program files (x86)\\gnu tools arm embedded\\7 2017-q4-major\\arm-none-eabi\\include
 420              		.file 12 "Drivers/STM32F4xx_HAL_Driver/Inc/stm32f4xx_hal_def.h"
 421              		.file 13 "Drivers/STM32F4xx_HAL_Driver/Inc/stm32f4xx_hal_rcc_ex.h"
 422              		.file 14 "Drivers/STM32F4xx_HAL_Driver/Inc/stm32f4xx_hal_rcc.h"
 423              		.file 15 "Drivers/STM32F4xx_HAL_Driver/Inc/stm32f4xx_hal_dma.h"
 424              		.file 16 "Drivers/STM32F4xx_HAL_Driver/Inc/stm32f4xx_hal_adc.h"
 425              		.file 17 "Drivers/STM32F4xx_HAL_Driver/Inc/stm32f4xx_hal_i2c.h"
 426              		.file 18 "Drivers/STM32F4xx_HAL_Driver/Inc/stm32f4xx_hal_tim.h"
 427              		.file 19 "Drivers/STM32F4xx_HAL_Driver/Inc/stm32f4xx_hal_uart.h"
 428              		.file 20 "Core/Inc/periphs/i2c.h"
 429              		.file 21 "Core/Inc/periphs/tim.h"
 430              		.file 22 "Core/Inc/periphs/usart.h"
 431              		.file 23 "Core/Inc/periphs/adc.h"
 432              		.file 24 "c:\\program files (x86)\\gnu tools arm embedded\\7 2017-q4-major\\arm-none-eabi\\include
 433              		.file 25 "c:\\program files (x86)\\gnu tools arm embedded\\7 2017-q4-major\\arm-none-eabi\\include
 434              		.file 26 "c:\\program files (x86)\\gnu tools arm embedded\\7 2017-q4-major\\arm-none-eabi\\include
 435              		.file 27 "c:\\program files (x86)\\gnu tools arm embedded\\7 2017-q4-major\\arm-none-eabi\\include
 436              		.file 28 "c:\\program files (x86)\\gnu tools arm embedded\\7 2017-q4-major\\arm-none-eabi\\include
 437              		.file 29 "Core/Inc/devs/motor.h"
 438              		.file 30 "Core/Inc/devs/encoder.h"
 439              		.file 31 "Core/Inc/utils/pid_algorithms.h"
 440              		.file 32 "Core/Inc/devs/limit_switch.h"
 441              		.file 33 "Core/Inc/devs/leg.h"
 442              		.file 34 "Core/Inc/devs/steering.h"
 443              		.file 35 "c:\\program files (x86)\\gnu tools arm embedded\\7 2017-q4-major\\arm-none-eabi\\include
 444              		.file 36 "Drivers/STM32F4xx_HAL_Driver/Inc/stm32f4xx_hal.h"
 445              		.file 37 "Core/Inc/robot/robot.h"
 446              		.file 38 "Core/Inc/periphs/gpio.h"
 447              		.file 39 "Core/Inc/robot/robo_init.h"
 448              		.file 40 "Drivers/STM32F4xx_HAL_Driver/Inc/stm32f4xx_hal_gpio.h"
 449              		.file 41 "<built-in>"
ARM GAS  C:\Users\Prashant\AppData\Local\Temp\ccTnMFWj.s 			page 17


DEFINED SYMBOLS
                            *ABS*:00000000 main.cpp
C:\Users\Prashant\AppData\Local\Temp\ccTnMFWj.s:18     .text._Error_Handler:00000000 $t
C:\Users\Prashant\AppData\Local\Temp\ccTnMFWj.s:25     .text._Error_Handler:00000000 _Error_Handler
C:\Users\Prashant\AppData\Local\Temp\ccTnMFWj.s:41     .text.Error_Handler:00000000 $t
C:\Users\Prashant\AppData\Local\Temp\ccTnMFWj.s:48     .text.Error_Handler:00000000 Error_Handler
C:\Users\Prashant\AppData\Local\Temp\ccTnMFWj.s:69     .text.Error_Handler:0000000c $d
C:\Users\Prashant\AppData\Local\Temp\ccTnMFWj.s:74     .text._Z18SystemClock_Configv:00000000 $t
C:\Users\Prashant\AppData\Local\Temp\ccTnMFWj.s:81     .text._Z18SystemClock_Configv:00000000 _Z18SystemClock_Configv
C:\Users\Prashant\AppData\Local\Temp\ccTnMFWj.s:200    .text._Z18SystemClock_Configv:000000a0 $d
C:\Users\Prashant\AppData\Local\Temp\ccTnMFWj.s:206    .text.main:00000000 $t
C:\Users\Prashant\AppData\Local\Temp\ccTnMFWj.s:213    .text.main:00000000 main
C:\Users\Prashant\AppData\Local\Temp\ccTnMFWj.s:382    .text.main:000000f8 $d
C:\Users\Prashant\AppData\Local\Temp\ccTnMFWj.s:396    .rodata.Error_Handler.str1.4:00000000 $d
C:\Users\Prashant\AppData\Local\Temp\ccTnMFWj.s:400    .rodata.main.str1.4:00000000 $d

UNDEFINED SYMBOLS
memset
HAL_RCC_OscConfig
HAL_RCC_ClockConfig
HAL_Init
MX_GPIO_Init
MX_I2C1_Init
MX_TIM1_Init
MX_TIM2_Init
MX_TIM3_Init
MX_TIM8_Init
MX_USART1_UART_Init
MX_USART2_UART_Init
MX_I2C2_Init
MX_ADC1_Init
_Z9robo_initv
_Z10Angle_Initv
HAL_ADC_Start
puts
HAL_GetTick
_Z4playv
HAL_GPIO_TogglePin
_Z15calculate_datasv
_ZN3leg9set_omegaEf
_ZN8steering9set_omegaEf
_Z16read_Orientationm
printf
putchar
hadc1
leg
steering
