ARM GAS  C:\Users\Prashant\AppData\Local\Temp\ccwN9LtR.s 			page 1


   1              		.cpu cortex-m4
   2              		.eabi_attribute 27, 1
   3              		.eabi_attribute 28, 1
   4              		.eabi_attribute 20, 1
   5              		.eabi_attribute 21, 1
   6              		.eabi_attribute 23, 3
   7              		.eabi_attribute 24, 1
   8              		.eabi_attribute 25, 1
   9              		.eabi_attribute 26, 1
  10              		.eabi_attribute 30, 1
  11              		.eabi_attribute 34, 1
  12              		.eabi_attribute 18, 4
  13              		.file	"robot.cpp"
  14              		.text
  15              	.Ltext0:
  16              		.cfi_sections	.debug_frame
  17              		.global	__aeabi_f2d
  18              		.global	__aeabi_ddiv
  19              		.global	__aeabi_d2iz
  20              		.section	.text._Z11start_RobotP12Robot_States,"ax",%progbits
  21              		.align	1
  22              		.global	_Z11start_RobotP12Robot_States
  23              		.syntax unified
  24              		.thumb
  25              		.thumb_func
  26              		.fpu fpv4-sp-d16
  28              	_Z11start_RobotP12Robot_States:
  29              	.LFB492:
  30              		.file 1 "Core/Src/robot/robot.cpp"
   1:Core/Src/robot/robot.cpp **** #include "robot.h"
   2:Core/Src/robot/robot.cpp **** extern leg leg[2];
   3:Core/Src/robot/robot.cpp **** extern steering steering;
   4:Core/Src/robot/robot.cpp **** 
   5:Core/Src/robot/robot.cpp **** extern Vec3<float> initial_angle;
   6:Core/Src/robot/robot.cpp **** 
   7:Core/Src/robot/robot.cpp **** Robot_States robo_state;
   8:Core/Src/robot/robot.cpp **** 
   9:Core/Src/robot/robot.cpp **** bool ROBOT_START_FLAG = false;
  10:Core/Src/robot/robot.cpp **** bool USE_IMU_FLAG = true;
  11:Core/Src/robot/robot.cpp **** bool FRONT_PROXIMITY_FLAG = false;
  12:Core/Src/robot/robot.cpp **** bool BACK_PROXIMITY_FLAG = false;
  13:Core/Src/robot/robot.cpp **** 
  14:Core/Src/robot/robot.cpp **** int steps[7] = {9, 14, 18, 22, 27, 35, 51};
  15:Core/Src/robot/robot.cpp **** float angles[7] = {0, 45, 45, 75, 0, 0, 0};
  16:Core/Src/robot/robot.cpp **** 
  17:Core/Src/robot/robot.cpp **** void start_Robot(enum Robot_States *state_)
  18:Core/Src/robot/robot.cpp **** {
  31              		.loc 1 18 0
  32              		.cfi_startproc
  33              		@ args = 0, pretend = 0, frame = 16
  34              		@ frame_needed = 0, uses_anonymous_args = 0
  35              	.LVL0:
  36 0000 F0B5     		push	{r4, r5, r6, r7, lr}
  37              	.LCFI0:
  38              		.cfi_def_cfa_offset 20
  39              		.cfi_offset 4, -20
  40              		.cfi_offset 5, -16
ARM GAS  C:\Users\Prashant\AppData\Local\Temp\ccwN9LtR.s 			page 2


  41              		.cfi_offset 6, -12
  42              		.cfi_offset 7, -8
  43              		.cfi_offset 14, -4
  44 0002 2DED028B 		vpush.64	{d8}
  45              	.LCFI1:
  46              		.cfi_def_cfa_offset 28
  47              		.cfi_offset 80, -28
  48              		.cfi_offset 81, -24
  49 0006 85B0     		sub	sp, sp, #20
  50              	.LCFI2:
  51              		.cfi_def_cfa_offset 48
  52 0008 0446     		mov	r4, r0
  19:Core/Src/robot/robot.cpp **** 	calculate_datas();
  53              		.loc 1 19 0
  54 000a FFF7FEFF 		bl	_Z15calculate_datasv
  55              	.LVL1:
  20:Core/Src/robot/robot.cpp **** 	switch (*state_)
  56              		.loc 1 20 0
  57 000e 2378     		ldrb	r3, [r4]	@ zero_extendqisi2
  58 0010 092B     		cmp	r3, #9
  59 0012 00F23A81 		bhi	.L1
  60 0016 DFE813F0 		tbh	[pc, r3, lsl #1]
  61              	.L4:
  62 001a 0A00     		.2byte	(.L3-.L4)/2
  63 001c 8600     		.2byte	(.L5-.L4)/2
  64 001e 9600     		.2byte	(.L6-.L4)/2
  65 0020 AC00     		.2byte	(.L7-.L4)/2
  66 0022 C100     		.2byte	(.L8-.L4)/2
  67 0024 D000     		.2byte	(.L9-.L4)/2
  68 0026 DF00     		.2byte	(.L10-.L4)/2
  69 0028 EE00     		.2byte	(.L11-.L4)/2
  70 002a F900     		.2byte	(.L12-.L4)/2
  71 002c 1E01     		.2byte	(.L13-.L4)/2
  72              		.p2align 1
  73              	.L3:
  21:Core/Src/robot/robot.cpp **** 	{
  22:Core/Src/robot/robot.cpp **** 	case HOME:
  23:Core/Src/robot/robot.cpp **** 	{
  24:Core/Src/robot/robot.cpp **** 		/**
  25:Core/Src/robot/robot.cpp **** 		 * vitra ko khutta tala teknaparcha
  26:Core/Src/robot/robot.cpp **** 		 * baira ko khutta mathi teknaparcha
  27:Core/Src/robot/robot.cpp **** 		 * steering IR navetinjel ghumaunaparcha
  28:Core/Src/robot/robot.cpp **** 		 * tespachi stop vaera bascha
  29:Core/Src/robot/robot.cpp **** 		 * user button thichesi this state ends 
  30:Core/Src/robot/robot.cpp **** 		 *  state_A flag set garnaparcha 
  31:Core/Src/robot/robot.cpp **** 			*/
  32:Core/Src/robot/robot.cpp **** 		printf("\n\tWaiting_to_start\t");
  74              		.loc 1 32 0
  75 002e 9C48     		ldr	r0, .L16+8
  76 0030 FFF7FEFF 		bl	printf
  77              	.LVL2:
  33:Core/Src/robot/robot.cpp **** 		// printf("steering_angle = %d \t", (int)(steering.get_angle()*1800/PI));
  34:Core/Src/robot/robot.cpp **** 		leg[0].set_omega(0);
  78              		.loc 1 34 0
  79 0034 9FED9B8A 		vldr.32	s16, .L16+12
  80 0038 9B4D     		ldr	r5, .L16+16
  81 003a B0EE480A 		vmov.f32	s0, s16
ARM GAS  C:\Users\Prashant\AppData\Local\Temp\ccwN9LtR.s 			page 3


  82 003e 2846     		mov	r0, r5
  83 0040 FFF7FEFF 		bl	_ZN3leg9set_omegaEf
  84              	.LVL3:
  35:Core/Src/robot/robot.cpp **** 		leg[1].set_omega(0);
  85              		.loc 1 35 0
  86 0044 B0EE480A 		vmov.f32	s0, s16
  87 0048 05F15C00 		add	r0, r5, #92
  88 004c FFF7FEFF 		bl	_ZN3leg9set_omegaEf
  89              	.LVL4:
  36:Core/Src/robot/robot.cpp **** 		steering.set_angle(0);
  90              		.loc 1 36 0
  91 0050 B0EE480A 		vmov.f32	s0, s16
  92 0054 9548     		ldr	r0, .L16+20
  93 0056 FFF7FEFF 		bl	_ZN8steering9set_angleEf
  94              	.LVL5:
  95              	.LBB17:
  96              	.LBB18:
  97              		.file 2 "Core/Inc/devs/leg.h"
   1:Core/Inc/devs/leg.h **** #ifndef _LEG_H_
   2:Core/Inc/devs/leg.h **** #define _LEG_H_
   3:Core/Inc/devs/leg.h **** 
   4:Core/Inc/devs/leg.h **** #include "motor.h"
   5:Core/Inc/devs/leg.h **** #include "encoder.h"
   6:Core/Inc/devs/leg.h **** #include "pid.h"
   7:Core/Inc/devs/leg.h **** #include "limit_switch.h"
   8:Core/Inc/devs/leg.h **** #include "defines.h"
   9:Core/Inc/devs/leg.h **** #include "pid_algorithms.h"
  10:Core/Inc/devs/leg.h **** 
  11:Core/Inc/devs/leg.h **** enum Leg_condition{	RAISED, 
  12:Core/Inc/devs/leg.h **** 			FALLEN, 
  13:Core/Inc/devs/leg.h **** 			UNDEFINED};
  14:Core/Inc/devs/leg.h **** 
  15:Core/Inc/devs/leg.h **** class leg
  16:Core/Inc/devs/leg.h **** {
  17:Core/Inc/devs/leg.h **** public:
  18:Core/Inc/devs/leg.h **** 	leg() {}
  19:Core/Inc/devs/leg.h **** 	leg(leg &&) = default;
  20:Core/Inc/devs/leg.h **** 	leg(const leg &) = default;
  21:Core/Inc/devs/leg.h **** 	leg &operator=(leg &&) = default;
  22:Core/Inc/devs/leg.h **** 	leg &operator=(const leg &) = default;
  23:Core/Inc/devs/leg.h **** 	~leg(){}
  24:Core/Inc/devs/leg.h ****         void set_config(motor_config *motor, encoder_config *encoder) { 
  25:Core/Inc/devs/leg.h **** 		motor__.set_config(motor);
  26:Core/Inc/devs/leg.h **** 		encoder__.set_config(encoder);
  27:Core/Inc/devs/leg.h **** 	}
  28:Core/Inc/devs/leg.h **** 	void set_PID_constants(float kp, float ki, float kd, float lower_limit, float upper_limit) {
  29:Core/Inc/devs/leg.h **** 		dpid_.set_P(kp);
  30:Core/Inc/devs/leg.h **** 		dpid_.set_I(ki);
  31:Core/Inc/devs/leg.h **** 		dpid_.set_D(kd);
  32:Core/Inc/devs/leg.h **** 		dpid_.set_Limits(upper_limit, lower_limit);
  33:Core/Inc/devs/leg.h **** 	}
  34:Core/Inc/devs/leg.h **** 
  35:Core/Inc/devs/leg.h **** 	
  36:Core/Inc/devs/leg.h **** 	void set_omega(float omega);
  37:Core/Inc/devs/leg.h **** 	float ramp(float omega);
  38:Core/Inc/devs/leg.h **** 	void set_gravity_compensator_constant(float kbody, float kleg){kb_ = kbody; kl_ = kleg;}
  39:Core/Inc/devs/leg.h **** 	void reset_angle(float angle_in_radians);
ARM GAS  C:\Users\Prashant\AppData\Local\Temp\ccwN9LtR.s 			page 4


  40:Core/Inc/devs/leg.h **** 	void reset_actual_angle(float angle_in_radians){encoder__.reset_actual_angle(angle_in_radians);}
  98              		.loc 2 40 0
  99 005a 9FED958A 		vldr.32	s16, .L16+24
 100 005e 05F13C07 		add	r7, r5, #60
 101 0062 B0EE480A 		vmov.f32	s0, s16
 102 0066 3846     		mov	r0, r7
 103 0068 FFF7FEFF 		bl	_ZN7encoder18reset_actual_angleEf
 104              	.LVL6:
 105              	.LBE18:
 106              	.LBE17:
 107              	.LBB19:
 108              	.LBB20:
 109 006c 9835     		adds	r5, r5, #152
 110 006e B0EE480A 		vmov.f32	s0, s16
 111 0072 2846     		mov	r0, r5
 112 0074 FFF7FEFF 		bl	_ZN7encoder18reset_actual_angleEf
 113              	.LVL7:
 114              	.LBE20:
 115              	.LBE19:
  37:Core/Src/robot/robot.cpp **** 		leg[0].reset_actual_angle(90 * PI / 180);
  38:Core/Src/robot/robot.cpp **** 		leg[1].reset_actual_angle(90 * PI / 180);
  39:Core/Src/robot/robot.cpp **** 		initial_angle = read_Orientation(10);
 116              		.loc 1 39 0
 117 0078 01AE     		add	r6, sp, #4
 118 007a 0A21     		movs	r1, #10
 119 007c 3046     		mov	r0, r6
 120 007e FFF7FEFF 		bl	_Z16read_Orientationm
 121              	.LVL8:
 122 0082 8C4B     		ldr	r3, .L16+28
 123 0084 96E80700 		ldm	r6, {r0, r1, r2}
 124 0088 83E80700 		stm	r3, {r0, r1, r2}
 125              	.LVL9:
 126              	.LBB21:
 127              	.LBB22:
  41:Core/Inc/devs/leg.h **** 	void calculate_omega();
  42:Core/Inc/devs/leg.h **** 	Leg_condition is_raised();
  43:Core/Inc/devs/leg.h **** 	bool is_raised_without_deadzone();
  44:Core/Inc/devs/leg.h **** 
  45:Core/Inc/devs/leg.h **** 	int get_steps(){return steps;}
  46:Core/Inc/devs/leg.h **** 	float get_omega(void){return encoder__.get_omega();}
  47:Core/Inc/devs/leg.h **** 	float get_angle(void){return encoder__.get_angle();}
  48:Core/Inc/devs/leg.h **** 	float get_actual_angle(void){return encoder__.get_actual_angle();}
 128              		.loc 2 48 0
 129 008c 3846     		mov	r0, r7
 130 008e FFF7FEFF 		bl	_ZN7encoder16get_actual_angleEv
 131              	.LVL10:
 132              	.LBE22:
 133              	.LBE21:
  40:Core/Src/robot/robot.cpp **** 		printf("leg2_angle = %d\tleg1_angle = %d\t", (int)(leg[0].get_actual_angle()*180/PI), (int)(leg[1
 134              		.loc 1 40 0
 135 0092 9FED898A 		vldr.32	s16, .L16+32
 136 0096 60EE087A 		vmul.f32	s15, s0, s16
 137 009a 17EE900A 		vmov	r0, s15
 138 009e FFF7FEFF 		bl	__aeabi_f2d
 139              	.LVL11:
 140 00a2 7DA3     		adr	r3, .L16
 141 00a4 D3E90023 		ldrd	r2, [r3]
ARM GAS  C:\Users\Prashant\AppData\Local\Temp\ccwN9LtR.s 			page 5


 142 00a8 FFF7FEFF 		bl	__aeabi_ddiv
 143              	.LVL12:
 144 00ac 0646     		mov	r6, r0
 145 00ae 0F46     		mov	r7, r1
 146              	.LVL13:
 147              	.LBB23:
 148              	.LBB24:
 149              		.loc 2 48 0
 150 00b0 2846     		mov	r0, r5
 151 00b2 FFF7FEFF 		bl	_ZN7encoder16get_actual_angleEv
 152              	.LVL14:
 153              	.LBE24:
 154              	.LBE23:
 155              		.loc 1 40 0
 156 00b6 60EE087A 		vmul.f32	s15, s0, s16
 157 00ba 17EE900A 		vmov	r0, s15
 158 00be FFF7FEFF 		bl	__aeabi_f2d
 159              	.LVL15:
 160 00c2 75A3     		adr	r3, .L16
 161 00c4 D3E90023 		ldrd	r2, [r3]
 162 00c8 FFF7FEFF 		bl	__aeabi_ddiv
 163              	.LVL16:
 164 00cc FFF7FEFF 		bl	__aeabi_d2iz
 165              	.LVL17:
 166 00d0 0546     		mov	r5, r0
 167 00d2 3046     		mov	r0, r6
 168 00d4 3946     		mov	r1, r7
 169 00d6 FFF7FEFF 		bl	__aeabi_d2iz
 170              	.LVL18:
 171 00da 2A46     		mov	r2, r5
 172 00dc 0146     		mov	r1, r0
 173 00de 7748     		ldr	r0, .L16+36
 174 00e0 FFF7FEFF 		bl	printf
 175              	.LVL19:
  41:Core/Src/robot/robot.cpp **** 		if (ROBOT_START_FLAG)
 176              		.loc 1 41 0
 177 00e4 764B     		ldr	r3, .L16+40
 178 00e6 1B78     		ldrb	r3, [r3]	@ zero_extendqisi2
 179 00e8 002B     		cmp	r3, #0
 180 00ea 00F0CE80 		beq	.L1
  42:Core/Src/robot/robot.cpp **** 		{
  43:Core/Src/robot/robot.cpp **** 			*state_ = MARCH;
 181              		.loc 1 43 0
 182 00ee 0123     		movs	r3, #1
 183 00f0 2370     		strb	r3, [r4]
  44:Core/Src/robot/robot.cpp **** 			HAL_GPIO_WritePin(GPIOD, GPIO_PIN_12, GPIO_PIN_RESET);
 184              		.loc 1 44 0
 185 00f2 744C     		ldr	r4, .L16+44
 186              	.LVL20:
 187 00f4 0022     		movs	r2, #0
 188 00f6 4FF48051 		mov	r1, #4096
 189 00fa 2046     		mov	r0, r4
 190 00fc FFF7FEFF 		bl	HAL_GPIO_WritePin
 191              	.LVL21:
  45:Core/Src/robot/robot.cpp **** 			HAL_GPIO_WritePin(GPIOD, GPIO_PIN_13, GPIO_PIN_RESET);
 192              		.loc 1 45 0
 193 0100 0022     		movs	r2, #0
ARM GAS  C:\Users\Prashant\AppData\Local\Temp\ccwN9LtR.s 			page 6


 194 0102 4FF40051 		mov	r1, #8192
 195 0106 2046     		mov	r0, r4
 196 0108 FFF7FEFF 		bl	HAL_GPIO_WritePin
 197              	.LVL22:
  46:Core/Src/robot/robot.cpp **** 			HAL_GPIO_WritePin(GPIOD, GPIO_PIN_14, GPIO_PIN_RESET);
 198              		.loc 1 46 0
 199 010c 0022     		movs	r2, #0
 200 010e 4FF48041 		mov	r1, #16384
 201 0112 2046     		mov	r0, r4
 202 0114 FFF7FEFF 		bl	HAL_GPIO_WritePin
 203              	.LVL23:
  47:Core/Src/robot/robot.cpp **** 			HAL_GPIO_WritePin(GPIOD, GPIO_PIN_15, GPIO_PIN_RESET);
 204              		.loc 1 47 0
 205 0118 0022     		movs	r2, #0
 206 011a 4FF40041 		mov	r1, #32768
 207 011e 2046     		mov	r0, r4
 208 0120 FFF7FEFF 		bl	HAL_GPIO_WritePin
 209              	.LVL24:
 210 0124 B1E0     		b	.L1
 211              	.LVL25:
 212              	.L5:
  48:Core/Src/robot/robot.cpp **** 		}
  49:Core/Src/robot/robot.cpp **** 	}
  50:Core/Src/robot/robot.cpp **** 	break;
  51:Core/Src/robot/robot.cpp **** 
  52:Core/Src/robot/robot.cpp **** 	case MARCH:
  53:Core/Src/robot/robot.cpp **** 	{
  54:Core/Src/robot/robot.cpp **** 		/*
  55:Core/Src/robot/robot.cpp **** 			  user button thichesi state_A starts when state A flag is set
  56:Core/Src/robot/robot.cpp **** 			  10 steps agadi gayesi state_A flag clear garnaparcha
  57:Core/Src/robot/robot.cpp **** 			  state_B flag set garnaparcha
  58:Core/Src/robot/robot.cpp **** 			*/
  59:Core/Src/robot/robot.cpp **** 		printf("March");
 213              		.loc 1 59 0
 214 0126 6848     		ldr	r0, .L16+48
 215 0128 FFF7FEFF 		bl	printf
 216              	.LVL26:
  60:Core/Src/robot/robot.cpp **** 		if (go(steps[0], angles[0]) == true)
 217              		.loc 1 60 0
 218 012c 674B     		ldr	r3, .L16+52
 219 012e 93ED000A 		vldr.32	s0, [r3]
 220 0132 674B     		ldr	r3, .L16+56
 221 0134 1868     		ldr	r0, [r3]
 222 0136 FFF7FEFF 		bl	_Z2goif
 223              	.LVL27:
 224 013a 0028     		cmp	r0, #0
 225 013c 00F0A580 		beq	.L1
  61:Core/Src/robot/robot.cpp **** 		{
  62:Core/Src/robot/robot.cpp **** 			*state_ =TURN_45;
 226              		.loc 1 62 0
 227 0140 0223     		movs	r3, #2
 228 0142 2370     		strb	r3, [r4]
 229 0144 A1E0     		b	.L1
 230              	.L6:
  63:Core/Src/robot/robot.cpp **** 		}
  64:Core/Src/robot/robot.cpp **** 	}
  65:Core/Src/robot/robot.cpp **** 	break;
ARM GAS  C:\Users\Prashant\AppData\Local\Temp\ccwN9LtR.s 			page 7


  66:Core/Src/robot/robot.cpp **** 
  67:Core/Src/robot/robot.cpp **** 	case TURN_45:
  68:Core/Src/robot/robot.cpp **** 	{
  69:Core/Src/robot/robot.cpp **** 		/*state _B flag set vayesi angle 45 degree change garnaparcha
  70:Core/Src/robot/robot.cpp **** 			  2 steps jati gayesi sand dune aucha
  71:Core/Src/robot/robot.cpp **** 			  sand dune kateko thapauna proximity sensor use garnaparcha ki
  72:Core/Src/robot/robot.cpp **** 			  ta IMU bata roll value hernaparcha 
  73:Core/Src/robot/robot.cpp **** 			  sand dune kateko thapaesi state_B flag clear garnaparcha
  74:Core/Src/robot/robot.cpp **** 			  state_C flag set garnaparcha			   
  75:Core/Src/robot/robot.cpp **** 			*/
  76:Core/Src/robot/robot.cpp **** 		printf("Turn 45");
 231              		.loc 1 76 0
 232 0146 6348     		ldr	r0, .L16+60
 233 0148 FFF7FEFF 		bl	printf
 234              	.LVL28:
  77:Core/Src/robot/robot.cpp **** 		
  78:Core/Src/robot/robot.cpp **** 		/*/
  79:Core/Src/robot/robot.cpp **** 		if (go(steps[1], angles[1]) == true)
  80:Core/Src/robot/robot.cpp **** 		{
  81:Core/Src/robot/robot.cpp **** 			*state_ = SAND_DUNE;
  82:Core/Src/robot/robot.cpp **** 		}
  83:Core/Src/robot/robot.cpp **** 		/*/
  84:Core/Src/robot/robot.cpp **** 		go(100, angles[1]);
 235              		.loc 1 84 0
 236 014c 5F4B     		ldr	r3, .L16+52
 237 014e 93ED010A 		vldr.32	s0, [r3, #4]
 238 0152 6420     		movs	r0, #100
 239 0154 FFF7FEFF 		bl	_Z2goif
 240              	.LVL29:
  85:Core/Src/robot/robot.cpp **** 		if(FRONT_PROXIMITY_FLAG){
 241              		.loc 1 85 0
 242 0158 5F4B     		ldr	r3, .L16+64
 243 015a 1B78     		ldrb	r3, [r3]	@ zero_extendqisi2
 244 015c 002B     		cmp	r3, #0
 245 015e 00F09480 		beq	.L1
  86:Core/Src/robot/robot.cpp **** 			*state_ = SAND_DUNE;
 246              		.loc 1 86 0
 247 0162 0323     		movs	r3, #3
 248 0164 2370     		strb	r3, [r4]
  87:Core/Src/robot/robot.cpp **** 			leg[0].steps = steps[1];
 249              		.loc 1 87 0
 250 0166 5A4B     		ldr	r3, .L16+56
 251 0168 5A68     		ldr	r2, [r3, #4]
 252 016a 4F4B     		ldr	r3, .L16+16
 253 016c 1A61     		str	r2, [r3, #16]
  88:Core/Src/robot/robot.cpp **** 			leg[1].steps = steps[1];
 254              		.loc 1 88 0
 255 016e DA66     		str	r2, [r3, #108]
 256 0170 8BE0     		b	.L1
 257              	.L7:
  89:Core/Src/robot/robot.cpp **** 		}
  90:Core/Src/robot/robot.cpp **** 		//*/
  91:Core/Src/robot/robot.cpp **** 	}
  92:Core/Src/robot/robot.cpp **** 	break;
  93:Core/Src/robot/robot.cpp **** 	case SAND_DUNE:
  94:Core/Src/robot/robot.cpp **** 	{
  95:Core/Src/robot/robot.cpp **** 		/*state _C flag set vayesi 55 degree jati ghumna parcha 1 to 2 steps
ARM GAS  C:\Users\Prashant\AppData\Local\Temp\ccwN9LtR.s 			page 8


  96:Core/Src/robot/robot.cpp **** 			after this seate_C flag needs to be cleared and state_D flag needs to be set
  97:Core/Src/robot/robot.cpp **** 			sand dune pachi ko ek dui steps wala region
  98:Core/Src/robot/robot.cpp **** 			*/
  99:Core/Src/robot/robot.cpp **** 		printf("Sand dune");
 258              		.loc 1 99 0
 259 0172 5A48     		ldr	r0, .L16+68
 260 0174 FFF7FEFF 		bl	printf
 261              	.LVL30:
 100:Core/Src/robot/robot.cpp **** 		/*/
 101:Core/Src/robot/robot.cpp **** 		if (go(steps[2], angles[2]) == true)
 102:Core/Src/robot/robot.cpp **** 		{
 103:Core/Src/robot/robot.cpp **** 			*state_ = STATE_D;
 104:Core/Src/robot/robot.cpp **** 		}
 105:Core/Src/robot/robot.cpp **** 		/*/
 106:Core/Src/robot/robot.cpp **** 		go(100, angles[1]);
 262              		.loc 1 106 0
 263 0178 544B     		ldr	r3, .L16+52
 264 017a 93ED010A 		vldr.32	s0, [r3, #4]
 265 017e 6420     		movs	r0, #100
 266 0180 FFF7FEFF 		bl	_Z2goif
 267              	.LVL31:
 107:Core/Src/robot/robot.cpp **** 		if(BACK_PROXIMITY_FLAG){			
 268              		.loc 1 107 0
 269 0184 564B     		ldr	r3, .L16+72
 270 0186 1B78     		ldrb	r3, [r3]	@ zero_extendqisi2
 271 0188 002B     		cmp	r3, #0
 272 018a 7ED0     		beq	.L1
 108:Core/Src/robot/robot.cpp **** 			*state_ = SAND_DUNE;
 273              		.loc 1 108 0
 274 018c 0323     		movs	r3, #3
 275 018e 2370     		strb	r3, [r4]
 109:Core/Src/robot/robot.cpp **** 			leg[0].steps = steps[2];
 276              		.loc 1 109 0
 277 0190 4F4B     		ldr	r3, .L16+56
 278 0192 9A68     		ldr	r2, [r3, #8]
 279 0194 444B     		ldr	r3, .L16+16
 280 0196 1A61     		str	r2, [r3, #16]
 110:Core/Src/robot/robot.cpp **** 			leg[1].steps = steps[2];
 281              		.loc 1 110 0
 282 0198 DA66     		str	r2, [r3, #108]
 283 019a 76E0     		b	.L1
 284              	.L8:
 111:Core/Src/robot/robot.cpp **** 		}
 112:Core/Src/robot/robot.cpp **** 		//*/
 113:Core/Src/robot/robot.cpp **** 	}
 114:Core/Src/robot/robot.cpp **** 	break;
 115:Core/Src/robot/robot.cpp **** 	case STATE_D:
 116:Core/Src/robot/robot.cpp **** 	{
 117:Core/Src/robot/robot.cpp **** 		/*
 118:Core/Src/robot/robot.cpp **** 			state_D start vayesi ek dui stpes sidha janaparcha around 90 degrees from the original position 
 119:Core/Src/robot/robot.cpp **** 			teti steps pugesi 0 angle ma agadi janaparcha 
 120:Core/Src/robot/robot.cpp **** 			tespachi state d flag clear huncha ani state E flag set huncha*/
 121:Core/Src/robot/robot.cpp **** 			printf("State D");
 285              		.loc 1 121 0
 286 019c 5148     		ldr	r0, .L16+76
 287 019e FFF7FEFF 		bl	printf
 288              	.LVL32:
ARM GAS  C:\Users\Prashant\AppData\Local\Temp\ccwN9LtR.s 			page 9


 122:Core/Src/robot/robot.cpp **** 		if (go(steps[3], angles[3]) == true)
 289              		.loc 1 122 0
 290 01a2 4A4B     		ldr	r3, .L16+52
 291 01a4 93ED030A 		vldr.32	s0, [r3, #12]
 292 01a8 494B     		ldr	r3, .L16+56
 293 01aa D868     		ldr	r0, [r3, #12]
 294 01ac FFF7FEFF 		bl	_Z2goif
 295              	.LVL33:
 296 01b0 0028     		cmp	r0, #0
 297 01b2 6AD0     		beq	.L1
 123:Core/Src/robot/robot.cpp **** 		{
 124:Core/Src/robot/robot.cpp **** 			*state_ = TURN_90;
 298              		.loc 1 124 0
 299 01b4 0523     		movs	r3, #5
 300 01b6 2370     		strb	r3, [r4]
 301 01b8 67E0     		b	.L1
 302              	.L9:
 125:Core/Src/robot/robot.cpp **** 		}
 126:Core/Src/robot/robot.cpp **** 	}
 127:Core/Src/robot/robot.cpp **** 	break;
 128:Core/Src/robot/robot.cpp **** 
 129:Core/Src/robot/robot.cpp **** 	case TURN_90:
 130:Core/Src/robot/robot.cpp **** 	{
 131:Core/Src/robot/robot.cpp **** 		/*tussock cross garnaparcha
 132:Core/Src/robot/robot.cpp **** 			no of steps = 
 133:Core/Src/robot/robot.cpp **** 			no of steps le state_E end vako thahuncha 
 134:Core/Src/robot/robot.cpp **** 			*/
 135:Core/Src/robot/robot.cpp **** 		printf("Turn 90");
 303              		.loc 1 135 0
 304 01ba 4B48     		ldr	r0, .L16+80
 305 01bc FFF7FEFF 		bl	printf
 306              	.LVL34:
 136:Core/Src/robot/robot.cpp **** 		if (go(steps[4], angles[4]) == true)
 307              		.loc 1 136 0
 308 01c0 424B     		ldr	r3, .L16+52
 309 01c2 93ED040A 		vldr.32	s0, [r3, #16]
 310 01c6 424B     		ldr	r3, .L16+56
 311 01c8 1869     		ldr	r0, [r3, #16]
 312 01ca FFF7FEFF 		bl	_Z2goif
 313              	.LVL35:
 314 01ce 0028     		cmp	r0, #0
 315 01d0 5BD0     		beq	.L1
 137:Core/Src/robot/robot.cpp **** 		{
 138:Core/Src/robot/robot.cpp **** 			*state_ = TUSSOCK;
 316              		.loc 1 138 0
 317 01d2 0623     		movs	r3, #6
 318 01d4 2370     		strb	r3, [r4]
 319 01d6 58E0     		b	.L1
 320              	.L10:
 139:Core/Src/robot/robot.cpp **** 		}
 140:Core/Src/robot/robot.cpp **** 	}
 141:Core/Src/robot/robot.cpp **** 	break;
 142:Core/Src/robot/robot.cpp **** 
 143:Core/Src/robot/robot.cpp **** 	case TUSSOCK:
 144:Core/Src/robot/robot.cpp **** 	{
 145:Core/Src/robot/robot.cpp **** 		/*state_F flag set vayesi
 146:Core/Src/robot/robot.cpp **** 			robot stops 
ARM GAS  C:\Users\Prashant\AppData\Local\Temp\ccwN9LtR.s 			page 10


 147:Core/Src/robot/robot.cpp **** 			user button thichesi state_F end huncha
 148:Core/Src/robot/robot.cpp **** 			*/
 149:Core/Src/robot/robot.cpp **** 		printf("tussock");
 321              		.loc 1 149 0
 322 01d8 4448     		ldr	r0, .L16+84
 323 01da FFF7FEFF 		bl	printf
 324              	.LVL36:
 150:Core/Src/robot/robot.cpp **** 		if (go(steps[5], angles[5]) == true)
 325              		.loc 1 150 0
 326 01de 3B4B     		ldr	r3, .L16+52
 327 01e0 93ED050A 		vldr.32	s0, [r3, #20]
 328 01e4 3A4B     		ldr	r3, .L16+56
 329 01e6 5869     		ldr	r0, [r3, #20]
 330 01e8 FFF7FEFF 		bl	_Z2goif
 331              	.LVL37:
 332 01ec 0028     		cmp	r0, #0
 333 01ee 4CD0     		beq	.L1
 151:Core/Src/robot/robot.cpp **** 		{
 152:Core/Src/robot/robot.cpp **** 			*state_ = BASE_CAMP;
 334              		.loc 1 152 0
 335 01f0 0723     		movs	r3, #7
 336 01f2 2370     		strb	r3, [r4]
 337 01f4 49E0     		b	.L1
 338              	.L11:
 153:Core/Src/robot/robot.cpp **** 		}
 154:Core/Src/robot/robot.cpp **** 	}
 155:Core/Src/robot/robot.cpp **** 	break;
 156:Core/Src/robot/robot.cpp **** 
 157:Core/Src/robot/robot.cpp **** 	case BASE_CAMP:
 158:Core/Src/robot/robot.cpp **** 	{
 159:Core/Src/robot/robot.cpp **** 		/*state_G flag user button thichesi start huncha
 160:Core/Src/robot/robot.cpp **** 			uukhai zone ma n no of steps gayesi state_G end huncha
 161:Core/Src/robot/robot.cpp **** 			*/
 162:Core/Src/robot/robot.cpp **** 		printf("Base camp");
 339              		.loc 1 162 0
 340 01f6 3E48     		ldr	r0, .L16+88
 341 01f8 FFF7FEFF 		bl	printf
 342              	.LVL38:
 163:Core/Src/robot/robot.cpp **** 		if(initialize_leg_position() == true){
 343              		.loc 1 163 0
 344 01fc FFF7FEFF 		bl	_Z23initialize_leg_positionv
 345              	.LVL39:
 346 0200 20B1     		cbz	r0, .L12
 164:Core/Src/robot/robot.cpp **** 			*state_ = MOUNTAIN;
 347              		.loc 1 164 0
 348 0202 0823     		movs	r3, #8
 349 0204 2370     		strb	r3, [r4]
 165:Core/Src/robot/robot.cpp **** 			ROBOT_START_FLAG = false;
 350              		.loc 1 165 0
 351 0206 2E4B     		ldr	r3, .L16+40
 352 0208 0022     		movs	r2, #0
 353 020a 1A70     		strb	r2, [r3]
 354              	.L12:
 166:Core/Src/robot/robot.cpp **** 		}
 167:Core/Src/robot/robot.cpp **** 	}
 168:Core/Src/robot/robot.cpp **** 	case MOUNTAIN:
 169:Core/Src/robot/robot.cpp **** 	{
ARM GAS  C:\Users\Prashant\AppData\Local\Temp\ccwN9LtR.s 			page 11


 170:Core/Src/robot/robot.cpp **** 		/*state_G flag user button thichesi start huncha
 171:Core/Src/robot/robot.cpp **** 			uukhai zone ma n no of steps gayesi state_G end huncha
 172:Core/Src/robot/robot.cpp **** 			*/
 173:Core/Src/robot/robot.cpp **** 		printf("MOUNTAIN");
 355              		.loc 1 173 0
 356 020c 3948     		ldr	r0, .L16+92
 357 020e FFF7FEFF 		bl	printf
 358              	.LVL40:
 174:Core/Src/robot/robot.cpp **** 		if (ROBOT_START_FLAG)
 359              		.loc 1 174 0
 360 0212 2B4B     		ldr	r3, .L16+40
 361 0214 1B78     		ldrb	r3, [r3]	@ zero_extendqisi2
 362 0216 53B1     		cbz	r3, .L14
 175:Core/Src/robot/robot.cpp **** 		{
 176:Core/Src/robot/robot.cpp **** 			if (go(steps[6], angles[6]) == true)
 363              		.loc 1 176 0
 364 0218 2C4B     		ldr	r3, .L16+52
 365 021a 93ED060A 		vldr.32	s0, [r3, #24]
 366 021e 2C4B     		ldr	r3, .L16+56
 367 0220 9869     		ldr	r0, [r3, #24]
 368 0222 FFF7FEFF 		bl	_Z2goif
 369              	.LVL41:
 370 0226 80B3     		cbz	r0, .L1
 177:Core/Src/robot/robot.cpp **** 			{
 178:Core/Src/robot/robot.cpp **** 				*state_ = UUKHAI;
 371              		.loc 1 178 0
 372 0228 0923     		movs	r3, #9
 373 022a 2370     		strb	r3, [r4]
 374 022c 2DE0     		b	.L1
 375              	.L14:
 179:Core/Src/robot/robot.cpp **** 			}
 180:Core/Src/robot/robot.cpp **** 		}
 181:Core/Src/robot/robot.cpp **** 		else{
 182:Core/Src/robot/robot.cpp **** 			leg[0].set_omega(0);
 376              		.loc 1 182 0
 377 022e 9FED1D8A 		vldr.32	s16, .L16+12
 378 0232 1D4C     		ldr	r4, .L16+16
 379              	.LVL42:
 380 0234 B0EE480A 		vmov.f32	s0, s16
 381 0238 2046     		mov	r0, r4
 382 023a FFF7FEFF 		bl	_ZN3leg9set_omegaEf
 383              	.LVL43:
 183:Core/Src/robot/robot.cpp **** 			leg[1].set_omega(0);
 384              		.loc 1 183 0
 385 023e B0EE480A 		vmov.f32	s0, s16
 386 0242 04F15C00 		add	r0, r4, #92
 387 0246 FFF7FEFF 		bl	_ZN3leg9set_omegaEf
 388              	.LVL44:
 184:Core/Src/robot/robot.cpp **** 			steering.set_angle(0);
 389              		.loc 1 184 0
 390 024a B0EE480A 		vmov.f32	s0, s16
 391 024e 1748     		ldr	r0, .L16+20
 392 0250 FFF7FEFF 		bl	_ZN8steering9set_angleEf
 393              	.LVL45:
 394 0254 19E0     		b	.L1
 395              	.LVL46:
 396              	.L13:
ARM GAS  C:\Users\Prashant\AppData\Local\Temp\ccwN9LtR.s 			page 12


 185:Core/Src/robot/robot.cpp **** 		}
 186:Core/Src/robot/robot.cpp **** 	}
 187:Core/Src/robot/robot.cpp **** 
 188:Core/Src/robot/robot.cpp **** 	break;
 189:Core/Src/robot/robot.cpp **** 	case UUKHAI:
 190:Core/Src/robot/robot.cpp **** 	{
 191:Core/Src/robot/robot.cpp **** 		/*state_G flag user button thichesi start huncha
 192:Core/Src/robot/robot.cpp **** 			uukhai zone ma n no of steps gayesi state_G end huncha
 193:Core/Src/robot/robot.cpp **** 			*/
 194:Core/Src/robot/robot.cpp **** 		initialize_leg_position();
 397              		.loc 1 194 0
 398 0256 FFF7FEFF 		bl	_Z23initialize_leg_positionv
 399              	.LVL47:
 195:Core/Src/robot/robot.cpp **** 		printf("\nUUKHAI\n");
 400              		.loc 1 195 0
 401 025a 2748     		ldr	r0, .L16+96
 402 025c FFF7FEFF 		bl	puts
 403              	.LVL48:
 196:Core/Src/robot/robot.cpp **** 		HAL_GPIO_TogglePin(GPIOD, GPIO_PIN_12);
 404              		.loc 1 196 0
 405 0260 184C     		ldr	r4, .L16+44
 406              	.LVL49:
 407 0262 4FF48051 		mov	r1, #4096
 408 0266 2046     		mov	r0, r4
 409 0268 FFF7FEFF 		bl	HAL_GPIO_TogglePin
 410              	.LVL50:
 197:Core/Src/robot/robot.cpp **** 		HAL_GPIO_TogglePin(GPIOD, GPIO_PIN_13);
 411              		.loc 1 197 0
 412 026c 4FF40051 		mov	r1, #8192
 413 0270 2046     		mov	r0, r4
 414 0272 FFF7FEFF 		bl	HAL_GPIO_TogglePin
 415              	.LVL51:
 198:Core/Src/robot/robot.cpp **** 		HAL_GPIO_TogglePin(GPIOD, GPIO_PIN_14);
 416              		.loc 1 198 0
 417 0276 4FF48041 		mov	r1, #16384
 418 027a 2046     		mov	r0, r4
 419 027c FFF7FEFF 		bl	HAL_GPIO_TogglePin
 420              	.LVL52:
 199:Core/Src/robot/robot.cpp **** 		HAL_GPIO_TogglePin(GPIOD, GPIO_PIN_15);
 421              		.loc 1 199 0
 422 0280 4FF40041 		mov	r1, #32768
 423 0284 2046     		mov	r0, r4
 424 0286 FFF7FEFF 		bl	HAL_GPIO_TogglePin
 425              	.LVL53:
 426              	.L1:
 200:Core/Src/robot/robot.cpp **** 	}
 201:Core/Src/robot/robot.cpp **** 	break;
 202:Core/Src/robot/robot.cpp **** 	}
 203:Core/Src/robot/robot.cpp **** }
 427              		.loc 1 203 0
 428 028a 05B0     		add	sp, sp, #20
 429              	.LCFI3:
 430              		.cfi_def_cfa_offset 28
 431              		@ sp needed
 432 028c BDEC028B 		vldm	sp!, {d8}
 433              	.LCFI4:
 434              		.cfi_restore 80
ARM GAS  C:\Users\Prashant\AppData\Local\Temp\ccwN9LtR.s 			page 13


 435              		.cfi_restore 81
 436              		.cfi_def_cfa_offset 20
 437 0290 F0BD     		pop	{r4, r5, r6, r7, pc}
 438              	.L17:
 439 0292 00BFAFF3 		.align	3
 439      0080
 440              	.L16:
 441 0298 182D4454 		.word	1413754136
 442 029c FB210940 		.word	1074340347
 443 02a0 00000000 		.word	.LC0
 444 02a4 00000000 		.word	0
 445 02a8 00000000 		.word	leg
 446 02ac 00000000 		.word	steering
 447 02b0 DB0FC93F 		.word	1070141403
 448 02b4 00000000 		.word	initial_angle
 449 02b8 00003443 		.word	1127481344
 450 02bc 14000000 		.word	.LC1
 451 02c0 00000000 		.word	.LANCHOR0
 452 02c4 000C0240 		.word	1073875968
 453 02c8 38000000 		.word	.LC2
 454 02cc 00000000 		.word	.LANCHOR2
 455 02d0 00000000 		.word	.LANCHOR1
 456 02d4 40000000 		.word	.LC3
 457 02d8 00000000 		.word	.LANCHOR3
 458 02dc 48000000 		.word	.LC4
 459 02e0 00000000 		.word	.LANCHOR4
 460 02e4 54000000 		.word	.LC5
 461 02e8 5C000000 		.word	.LC6
 462 02ec 64000000 		.word	.LC7
 463 02f0 6C000000 		.word	.LC8
 464 02f4 78000000 		.word	.LC9
 465 02f8 84000000 		.word	.LC10
 466              		.cfi_endproc
 467              	.LFE492:
 469              		.section	.text._Z4playv,"ax",%progbits
 470              		.align	1
 471              		.global	_Z4playv
 472              		.syntax unified
 473              		.thumb
 474              		.thumb_func
 475              		.fpu fpv4-sp-d16
 477              	_Z4playv:
 478              	.LFB493:
 204:Core/Src/robot/robot.cpp **** 
 205:Core/Src/robot/robot.cpp **** bool play()
 206:Core/Src/robot/robot.cpp **** {
 479              		.loc 1 206 0
 480              		.cfi_startproc
 481              		@ args = 0, pretend = 0, frame = 16
 482              		@ frame_needed = 0, uses_anonymous_args = 0
 483 0000 30B5     		push	{r4, r5, lr}
 484              	.LCFI5:
 485              		.cfi_def_cfa_offset 12
 486              		.cfi_offset 4, -12
 487              		.cfi_offset 5, -8
 488              		.cfi_offset 14, -4
 489 0002 85B0     		sub	sp, sp, #20
ARM GAS  C:\Users\Prashant\AppData\Local\Temp\ccwN9LtR.s 			page 14


 490              	.LCFI6:
 491              		.cfi_def_cfa_offset 32
 207:Core/Src/robot/robot.cpp **** 	uint32_t dt = HAL_GetTick();
 492              		.loc 1 207 0
 493 0004 FFF7FEFF 		bl	HAL_GetTick
 494              	.LVL54:
 495 0008 0446     		mov	r4, r0
 496              	.LVL55:
 208:Core/Src/robot/robot.cpp **** 	initial_angle = read_Orientation(10);
 497              		.loc 1 208 0
 498 000a 01AD     		add	r5, sp, #4
 499 000c 0A21     		movs	r1, #10
 500 000e 2846     		mov	r0, r5
 501              	.LVL56:
 502 0010 FFF7FEFF 		bl	_Z16read_Orientationm
 503              	.LVL57:
 504 0014 124B     		ldr	r3, .L23
 505 0016 95E80700 		ldm	r5, {r0, r1, r2}
 506 001a 83E80700 		stm	r3, {r0, r1, r2}
 209:Core/Src/robot/robot.cpp **** 	initialize_position();
 507              		.loc 1 209 0
 508 001e FFF7FEFF 		bl	_Z19initialize_positionv
 509              	.LVL58:
 210:Core/Src/robot/robot.cpp **** 
 211:Core/Src/robot/robot.cpp **** 	ROBOT_START_FLAG = false;
 510              		.loc 1 211 0
 511 0022 0023     		movs	r3, #0
 512 0024 0F4A     		ldr	r2, .L23+4
 513 0026 1370     		strb	r3, [r2]
 212:Core/Src/robot/robot.cpp **** 	robo_state = HOME;
 514              		.loc 1 212 0
 515 0028 0F4A     		ldr	r2, .L23+8
 516 002a 1370     		strb	r3, [r2]
 517              	.LVL59:
 518              	.L20:
 519              	.LBB25:
 213:Core/Src/robot/robot.cpp **** 	
 214:Core/Src/robot/robot.cpp **** 	for(int i=0; i<7; i++){
 520              		.loc 1 214 0 discriminator 3
 521 002c 062B     		cmp	r3, #6
 522 002e 0ADC     		bgt	.L21
 215:Core/Src/robot/robot.cpp **** 		angles[i] *= -1;
 523              		.loc 1 215 0 discriminator 2
 524 0030 0E4A     		ldr	r2, .L23+12
 525 0032 02EB8302 		add	r2, r2, r3, lsl #2
 526 0036 D2ED007A 		vldr.32	s15, [r2]
 527 003a F1EE677A 		vneg.f32	s15, s15
 528 003e C2ED007A 		vstr.32	s15, [r2]
 214:Core/Src/robot/robot.cpp **** 		angles[i] *= -1;
 529              		.loc 1 214 0 discriminator 2
 530 0042 0133     		adds	r3, r3, #1
 531              	.LVL60:
 532 0044 F2E7     		b	.L20
 533              	.LVL61:
 534              	.L21:
 535              	.LBE25:
 216:Core/Src/robot/robot.cpp **** 	}
ARM GAS  C:\Users\Prashant\AppData\Local\Temp\ccwN9LtR.s 			page 15


 217:Core/Src/robot/robot.cpp **** 	
 218:Core/Src/robot/robot.cpp **** 	while(true){
 219:Core/Src/robot/robot.cpp **** 		if ((HAL_GetTick() - dt) >= (int)(SAMPLE_TIME))
 536              		.loc 1 219 0
 537 0046 FFF7FEFF 		bl	HAL_GetTick
 538              	.LVL62:
 539 004a 001B     		subs	r0, r0, r4
 540 004c 0928     		cmp	r0, #9
 541 004e FAD9     		bls	.L21
 220:Core/Src/robot/robot.cpp **** 		{
 221:Core/Src/robot/robot.cpp **** 			dt = HAL_GetTick();
 542              		.loc 1 221 0
 543 0050 FFF7FEFF 		bl	HAL_GetTick
 544              	.LVL63:
 545 0054 0446     		mov	r4, r0
 546              	.LVL64:
 222:Core/Src/robot/robot.cpp **** 			start_Robot(&robo_state);
 547              		.loc 1 222 0
 548 0056 0448     		ldr	r0, .L23+8
 549              	.LVL65:
 550 0058 FFF7FEFF 		bl	_Z11start_RobotP12Robot_States
 551              	.LVL66:
 552 005c F3E7     		b	.L21
 553              	.L24:
 554 005e 00BF     		.align	2
 555              	.L23:
 556 0060 00000000 		.word	initial_angle
 557 0064 00000000 		.word	.LANCHOR0
 558 0068 00000000 		.word	.LANCHOR5
 559 006c 00000000 		.word	.LANCHOR2
 560              		.cfi_endproc
 561              	.LFE493:
 563              		.global	angles
 564              		.global	steps
 565              		.global	BACK_PROXIMITY_FLAG
 566              		.global	FRONT_PROXIMITY_FLAG
 567              		.global	USE_IMU_FLAG
 568              		.global	ROBOT_START_FLAG
 569              		.global	robo_state
 570              		.section	.bss.BACK_PROXIMITY_FLAG,"aw",%nobits
 571              		.set	.LANCHOR4,. + 0
 574              	BACK_PROXIMITY_FLAG:
 575 0000 00       		.space	1
 576              		.section	.bss.FRONT_PROXIMITY_FLAG,"aw",%nobits
 577              		.set	.LANCHOR3,. + 0
 580              	FRONT_PROXIMITY_FLAG:
 581 0000 00       		.space	1
 582              		.section	.bss.ROBOT_START_FLAG,"aw",%nobits
 583              		.set	.LANCHOR0,. + 0
 586              	ROBOT_START_FLAG:
 587 0000 00       		.space	1
 588              		.section	.bss.robo_state,"aw",%nobits
 589              		.set	.LANCHOR5,. + 0
 592              	robo_state:
 593 0000 00       		.space	1
 594              		.section	.data.USE_IMU_FLAG,"aw",%progbits
 597              	USE_IMU_FLAG:
ARM GAS  C:\Users\Prashant\AppData\Local\Temp\ccwN9LtR.s 			page 16


 598 0000 01       		.byte	1
 599              		.section	.data.angles,"aw",%progbits
 600              		.align	2
 601              		.set	.LANCHOR2,. + 0
 604              	angles:
 605 0000 00000000 		.word	0
 606 0004 00003442 		.word	1110704128
 607 0008 00003442 		.word	1110704128
 608 000c 00009642 		.word	1117126656
 609 0010 00000000 		.word	0
 610 0014 00000000 		.word	0
 611 0018 00000000 		.word	0
 612              		.section	.data.steps,"aw",%progbits
 613              		.align	2
 614              		.set	.LANCHOR1,. + 0
 617              	steps:
 618 0000 09000000 		.word	9
 619 0004 0E000000 		.word	14
 620 0008 12000000 		.word	18
 621 000c 16000000 		.word	22
 622 0010 1B000000 		.word	27
 623 0014 23000000 		.word	35
 624 0018 33000000 		.word	51
 625              		.section	.rodata._Z11start_RobotP12Robot_States.str1.4,"aMS",%progbits,1
 626              		.align	2
 627              	.LC0:
 628 0000 0A095761 		.ascii	"\012\011Waiting_to_start\011\000"
 628      6974696E 
 628      675F746F 
 628      5F737461 
 628      72740900 
 629              	.LC1:
 630 0014 6C656732 		.ascii	"leg2_angle = %d\011leg1_angle = %d\011\000"
 630      5F616E67 
 630      6C65203D 
 630      20256409 
 630      6C656731 
 631 0035 000000   		.space	3
 632              	.LC2:
 633 0038 4D617263 		.ascii	"March\000"
 633      6800
 634 003e 0000     		.space	2
 635              	.LC3:
 636 0040 5475726E 		.ascii	"Turn 45\000"
 636      20343500 
 637              	.LC4:
 638 0048 53616E64 		.ascii	"Sand dune\000"
 638      2064756E 
 638      6500
 639 0052 0000     		.space	2
 640              	.LC5:
 641 0054 53746174 		.ascii	"State D\000"
 641      65204400 
 642              	.LC6:
 643 005c 5475726E 		.ascii	"Turn 90\000"
 643      20393000 
 644              	.LC7:
ARM GAS  C:\Users\Prashant\AppData\Local\Temp\ccwN9LtR.s 			page 17


 645 0064 74757373 		.ascii	"tussock\000"
 645      6F636B00 
 646              	.LC8:
 647 006c 42617365 		.ascii	"Base camp\000"
 647      2063616D 
 647      7000
 648 0076 0000     		.space	2
 649              	.LC9:
 650 0078 4D4F554E 		.ascii	"MOUNTAIN\000"
 650      5441494E 
 650      00
 651 0081 000000   		.space	3
 652              	.LC10:
 653 0084 0A55554B 		.ascii	"\012UUKHAI\000"
 653      48414900 
 654              		.text
 655              	.Letext0:
 656              		.file 3 "c:\\program files (x86)\\gnu tools arm embedded\\7 2017-q4-major\\arm-none-eabi\\include\
 657              		.file 4 "c:\\program files (x86)\\gnu tools arm embedded\\7 2017-q4-major\\arm-none-eabi\\include\
 658              		.file 5 "Drivers/CMSIS/Include/core_cm4.h"
 659              		.file 6 "Drivers/CMSIS/Device/ST/STM32F4xx/Include/system_stm32f4xx.h"
 660              		.file 7 "Drivers/CMSIS/Device/ST/STM32F4xx/Include/stm32f407xx.h"
 661              		.file 8 "c:\\program files (x86)\\gnu tools arm embedded\\7 2017-q4-major\\arm-none-eabi\\include\
 662              		.file 9 "c:\\program files (x86)\\gnu tools arm embedded\\7 2017-q4-major\\arm-none-eabi\\include\
 663              		.file 10 "c:\\program files (x86)\\gnu tools arm embedded\\7 2017-q4-major\\lib\\gcc\\arm-none-eab
 664              		.file 11 "c:\\program files (x86)\\gnu tools arm embedded\\7 2017-q4-major\\arm-none-eabi\\include
 665              		.file 12 "Drivers/STM32F4xx_HAL_Driver/Inc/stm32f4xx_hal_def.h"
 666              		.file 13 "Drivers/STM32F4xx_HAL_Driver/Inc/stm32f4xx_hal_gpio.h"
 667              		.file 14 "Drivers/STM32F4xx_HAL_Driver/Inc/stm32f4xx_hal_dma.h"
 668              		.file 15 "Drivers/STM32F4xx_HAL_Driver/Inc/stm32f4xx_hal_adc.h"
 669              		.file 16 "Drivers/STM32F4xx_HAL_Driver/Inc/stm32f4xx_hal_tim.h"
 670              		.file 17 "Drivers/STM32F4xx_HAL_Driver/Inc/stm32f4xx_hal_uart.h"
 671              		.file 18 "Core/Inc/periphs/tim.h"
 672              		.file 19 "c:\\program files (x86)\\gnu tools arm embedded\\7 2017-q4-major\\arm-none-eabi\\include
 673              		.file 20 "c:\\program files (x86)\\gnu tools arm embedded\\7 2017-q4-major\\arm-none-eabi\\include
 674              		.file 21 "c:\\program files (x86)\\gnu tools arm embedded\\7 2017-q4-major\\arm-none-eabi\\include
 675              		.file 22 "c:\\program files (x86)\\gnu tools arm embedded\\7 2017-q4-major\\arm-none-eabi\\include
 676              		.file 23 "c:\\program files (x86)\\gnu tools arm embedded\\7 2017-q4-major\\arm-none-eabi\\include
 677              		.file 24 "Core/Inc/devs/motor.h"
 678              		.file 25 "Core/Inc/devs/encoder.h"
 679              		.file 26 "Core/Inc/utils/pid_algorithms.h"
 680              		.file 27 "Core/Inc/devs/limit_switch.h"
 681              		.file 28 "Core/Inc/devs/steering.h"
 682              		.file 29 "Core/Inc/periphs/usart.h"
 683              		.file 30 "Core/Inc/periphs/adc.h"
 684              		.file 31 "Core/Inc/robot/robot.h"
 685              		.file 32 "Core/Inc/utils/vec3.h"
 686              		.file 33 "Core/Inc/robot/robot_functions.h"
 687              		.file 34 "Drivers/STM32F4xx_HAL_Driver/Inc/stm32f4xx_hal.h"
 688              		.file 35 "c:\\program files (x86)\\gnu tools arm embedded\\7 2017-q4-major\\arm-none-eabi\\include
 689              		.file 36 "<built-in>"
ARM GAS  C:\Users\Prashant\AppData\Local\Temp\ccwN9LtR.s 			page 18


DEFINED SYMBOLS
                            *ABS*:00000000 robot.cpp
C:\Users\Prashant\AppData\Local\Temp\ccwN9LtR.s:21     .text._Z11start_RobotP12Robot_States:00000000 $t
C:\Users\Prashant\AppData\Local\Temp\ccwN9LtR.s:28     .text._Z11start_RobotP12Robot_States:00000000 _Z11start_RobotP12Robot_States
C:\Users\Prashant\AppData\Local\Temp\ccwN9LtR.s:62     .text._Z11start_RobotP12Robot_States:0000001a $d
C:\Users\Prashant\AppData\Local\Temp\ccwN9LtR.s:72     .text._Z11start_RobotP12Robot_States:0000002e $t
C:\Users\Prashant\AppData\Local\Temp\ccwN9LtR.s:441    .text._Z11start_RobotP12Robot_States:00000298 $d
C:\Users\Prashant\AppData\Local\Temp\ccwN9LtR.s:470    .text._Z4playv:00000000 $t
C:\Users\Prashant\AppData\Local\Temp\ccwN9LtR.s:477    .text._Z4playv:00000000 _Z4playv
C:\Users\Prashant\AppData\Local\Temp\ccwN9LtR.s:556    .text._Z4playv:00000060 $d
C:\Users\Prashant\AppData\Local\Temp\ccwN9LtR.s:604    .data.angles:00000000 angles
C:\Users\Prashant\AppData\Local\Temp\ccwN9LtR.s:617    .data.steps:00000000 steps
C:\Users\Prashant\AppData\Local\Temp\ccwN9LtR.s:574    .bss.BACK_PROXIMITY_FLAG:00000000 BACK_PROXIMITY_FLAG
C:\Users\Prashant\AppData\Local\Temp\ccwN9LtR.s:580    .bss.FRONT_PROXIMITY_FLAG:00000000 FRONT_PROXIMITY_FLAG
C:\Users\Prashant\AppData\Local\Temp\ccwN9LtR.s:597    .data.USE_IMU_FLAG:00000000 USE_IMU_FLAG
C:\Users\Prashant\AppData\Local\Temp\ccwN9LtR.s:586    .bss.ROBOT_START_FLAG:00000000 ROBOT_START_FLAG
C:\Users\Prashant\AppData\Local\Temp\ccwN9LtR.s:592    .bss.robo_state:00000000 robo_state
C:\Users\Prashant\AppData\Local\Temp\ccwN9LtR.s:575    .bss.BACK_PROXIMITY_FLAG:00000000 $d
C:\Users\Prashant\AppData\Local\Temp\ccwN9LtR.s:581    .bss.FRONT_PROXIMITY_FLAG:00000000 $d
C:\Users\Prashant\AppData\Local\Temp\ccwN9LtR.s:587    .bss.ROBOT_START_FLAG:00000000 $d
C:\Users\Prashant\AppData\Local\Temp\ccwN9LtR.s:593    .bss.robo_state:00000000 $d
C:\Users\Prashant\AppData\Local\Temp\ccwN9LtR.s:600    .data.angles:00000000 $d
C:\Users\Prashant\AppData\Local\Temp\ccwN9LtR.s:613    .data.steps:00000000 $d
C:\Users\Prashant\AppData\Local\Temp\ccwN9LtR.s:626    .rodata._Z11start_RobotP12Robot_States.str1.4:00000000 $d

UNDEFINED SYMBOLS
__aeabi_f2d
__aeabi_ddiv
__aeabi_d2iz
_Z15calculate_datasv
printf
_ZN3leg9set_omegaEf
_ZN8steering9set_angleEf
_ZN7encoder18reset_actual_angleEf
_Z16read_Orientationm
_ZN7encoder16get_actual_angleEv
HAL_GPIO_WritePin
_Z2goif
_Z23initialize_leg_positionv
puts
HAL_GPIO_TogglePin
leg
steering
initial_angle
HAL_GetTick
_Z19initialize_positionv
