ARM GAS  C:\Users\Prashant\AppData\Local\Temp\ccDGFxT8.s 			page 1


   1              		.cpu cortex-m4
   2              		.eabi_attribute 27, 1
   3              		.eabi_attribute 28, 1
   4              		.eabi_attribute 20, 1
   5              		.eabi_attribute 21, 1
   6              		.eabi_attribute 23, 3
   7              		.eabi_attribute 24, 1
   8              		.eabi_attribute 25, 1
   9              		.eabi_attribute 26, 1
  10              		.eabi_attribute 30, 1
  11              		.eabi_attribute 34, 1
  12              		.eabi_attribute 18, 4
  13              		.file	"usart.c"
  14              		.text
  15              	.Ltext0:
  16              		.cfi_sections	.debug_frame
  17              		.section	.text.MX_USART1_UART_Init,"ax",%progbits
  18              		.align	1
  19              		.global	MX_USART1_UART_Init
  20              		.syntax unified
  21              		.thumb
  22              		.thumb_func
  23              		.fpu fpv4-sp-d16
  25              	MX_USART1_UART_Init:
  26              	.LFB126:
  27              		.file 1 "Core/Src/periphs/usart.c"
   1:Core/Src/periphs/usart.c **** /**
   2:Core/Src/periphs/usart.c ****   ******************************************************************************
   3:Core/Src/periphs/usart.c ****   * File Name          : USART.c
   4:Core/Src/periphs/usart.c ****   * Description        : This file provides code for the configuration
   5:Core/Src/periphs/usart.c ****   *                      of the USART instances.
   6:Core/Src/periphs/usart.c ****   ******************************************************************************
   7:Core/Src/periphs/usart.c ****   ** This notice applies to any and all portions of this file
   8:Core/Src/periphs/usart.c ****   * that are not between comment pairs USER CODE BEGIN and
   9:Core/Src/periphs/usart.c ****   * USER CODE END. Other portions of this file, whether 
  10:Core/Src/periphs/usart.c ****   * inserted by the user or by software development tools
  11:Core/Src/periphs/usart.c ****   * are owned by their respective copyright owners.
  12:Core/Src/periphs/usart.c ****   *
  13:Core/Src/periphs/usart.c ****   * COPYRIGHT(c) 2019 STMicroelectronics
  14:Core/Src/periphs/usart.c ****   *
  15:Core/Src/periphs/usart.c ****   * Redistribution and use in source and binary forms, with or without modification,
  16:Core/Src/periphs/usart.c ****   * are permitted provided that the following conditions are met:
  17:Core/Src/periphs/usart.c ****   *   1. Redistributions of source code must retain the above copyright notice,
  18:Core/Src/periphs/usart.c ****   *      this list of conditions and the following disclaimer.
  19:Core/Src/periphs/usart.c ****   *   2. Redistributions in binary form must reproduce the above copyright notice,
  20:Core/Src/periphs/usart.c ****   *      this list of conditions and the following disclaimer in the documentation
  21:Core/Src/periphs/usart.c ****   *      and/or other materials provided with the distribution.
  22:Core/Src/periphs/usart.c ****   *   3. Neither the name of STMicroelectronics nor the names of its contributors
  23:Core/Src/periphs/usart.c ****   *      may be used to endorse or promote products derived from this software
  24:Core/Src/periphs/usart.c ****   *      without specific prior written permission.
  25:Core/Src/periphs/usart.c ****   *
  26:Core/Src/periphs/usart.c ****   * THIS SOFTWARE IS PROVIDED BY THE COPYRIGHT HOLDERS AND CONTRIBUTORS "AS IS"
  27:Core/Src/periphs/usart.c ****   * AND ANY EXPRESS OR IMPLIED WARRANTIES, INCLUDING, BUT NOT LIMITED TO, THE
  28:Core/Src/periphs/usart.c ****   * IMPLIED WARRANTIES OF MERCHANTABILITY AND FITNESS FOR A PARTICULAR PURPOSE ARE
  29:Core/Src/periphs/usart.c ****   * DISCLAIMED. IN NO EVENT SHALL THE COPYRIGHT HOLDER OR CONTRIBUTORS BE LIABLE
  30:Core/Src/periphs/usart.c ****   * FOR ANY DIRECT, INDIRECT, INCIDENTAL, SPECIAL, EXEMPLARY, OR CONSEQUENTIAL
  31:Core/Src/periphs/usart.c ****   * DAMAGES (INCLUDING, BUT NOT LIMITED TO, PROCUREMENT OF SUBSTITUTE GOODS OR
ARM GAS  C:\Users\Prashant\AppData\Local\Temp\ccDGFxT8.s 			page 2


  32:Core/Src/periphs/usart.c ****   * SERVICES; LOSS OF USE, DATA, OR PROFITS; OR BUSINESS INTERRUPTION) HOWEVER
  33:Core/Src/periphs/usart.c ****   * CAUSED AND ON ANY THEORY OF LIABILITY, WHETHER IN CONTRACT, STRICT LIABILITY,
  34:Core/Src/periphs/usart.c ****   * OR TORT (INCLUDING NEGLIGENCE OR OTHERWISE) ARISING IN ANY WAY OUT OF THE USE
  35:Core/Src/periphs/usart.c ****   * OF THIS SOFTWARE, EVEN IF ADVISED OF THE POSSIBILITY OF SUCH DAMAGE.
  36:Core/Src/periphs/usart.c ****   *
  37:Core/Src/periphs/usart.c ****   ******************************************************************************
  38:Core/Src/periphs/usart.c ****   */
  39:Core/Src/periphs/usart.c **** 
  40:Core/Src/periphs/usart.c **** /* Includes ------------------------------------------------------------------*/
  41:Core/Src/periphs/usart.c **** #include "usart.h"
  42:Core/Src/periphs/usart.c **** 
  43:Core/Src/periphs/usart.c **** /* USER CODE BEGIN 0 */
  44:Core/Src/periphs/usart.c **** 
  45:Core/Src/periphs/usart.c **** /* USER CODE END 0 */
  46:Core/Src/periphs/usart.c **** 
  47:Core/Src/periphs/usart.c **** UART_HandleTypeDef huart1;
  48:Core/Src/periphs/usart.c **** UART_HandleTypeDef huart2;
  49:Core/Src/periphs/usart.c **** 
  50:Core/Src/periphs/usart.c **** /* USART1 init function */
  51:Core/Src/periphs/usart.c **** 
  52:Core/Src/periphs/usart.c **** void MX_USART1_UART_Init(void)
  53:Core/Src/periphs/usart.c **** {
  28              		.loc 1 53 0
  29              		.cfi_startproc
  30              		@ args = 0, pretend = 0, frame = 0
  31              		@ frame_needed = 0, uses_anonymous_args = 0
  32 0000 08B5     		push	{r3, lr}
  33              	.LCFI0:
  34              		.cfi_def_cfa_offset 8
  35              		.cfi_offset 3, -8
  36              		.cfi_offset 14, -4
  54:Core/Src/periphs/usart.c **** 
  55:Core/Src/periphs/usart.c ****   huart1.Instance = USART1;
  37              		.loc 1 55 0
  38 0002 0A48     		ldr	r0, .L5
  39 0004 0A4B     		ldr	r3, .L5+4
  40 0006 0360     		str	r3, [r0]
  56:Core/Src/periphs/usart.c ****   huart1.Init.BaudRate = 115200;
  41              		.loc 1 56 0
  42 0008 4FF4E133 		mov	r3, #115200
  43 000c 4360     		str	r3, [r0, #4]
  57:Core/Src/periphs/usart.c ****   huart1.Init.WordLength = UART_WORDLENGTH_8B;
  44              		.loc 1 57 0
  45 000e 0023     		movs	r3, #0
  46 0010 8360     		str	r3, [r0, #8]
  58:Core/Src/periphs/usart.c ****   huart1.Init.StopBits = UART_STOPBITS_1;
  47              		.loc 1 58 0
  48 0012 C360     		str	r3, [r0, #12]
  59:Core/Src/periphs/usart.c ****   huart1.Init.Parity = UART_PARITY_NONE;
  49              		.loc 1 59 0
  50 0014 0361     		str	r3, [r0, #16]
  60:Core/Src/periphs/usart.c ****   huart1.Init.Mode = UART_MODE_TX_RX;
  51              		.loc 1 60 0
  52 0016 0C22     		movs	r2, #12
  53 0018 4261     		str	r2, [r0, #20]
  61:Core/Src/periphs/usart.c ****   huart1.Init.HwFlowCtl = UART_HWCONTROL_NONE;
  54              		.loc 1 61 0
ARM GAS  C:\Users\Prashant\AppData\Local\Temp\ccDGFxT8.s 			page 3


  55 001a 8361     		str	r3, [r0, #24]
  62:Core/Src/periphs/usart.c ****   huart1.Init.OverSampling = UART_OVERSAMPLING_16;
  56              		.loc 1 62 0
  57 001c C361     		str	r3, [r0, #28]
  63:Core/Src/periphs/usart.c ****   if (HAL_UART_Init(&huart1) != HAL_OK)
  58              		.loc 1 63 0
  59 001e FFF7FEFF 		bl	HAL_UART_Init
  60              	.LVL0:
  61 0022 00B9     		cbnz	r0, .L4
  62              	.L1:
  64:Core/Src/periphs/usart.c ****   {
  65:Core/Src/periphs/usart.c ****     Error_Handler();
  66:Core/Src/periphs/usart.c ****   }
  67:Core/Src/periphs/usart.c **** 
  68:Core/Src/periphs/usart.c **** }
  63              		.loc 1 68 0
  64 0024 08BD     		pop	{r3, pc}
  65              	.L4:
  65:Core/Src/periphs/usart.c ****   }
  66              		.loc 1 65 0
  67 0026 FFF7FEFF 		bl	Error_Handler
  68              	.LVL1:
  69              		.loc 1 68 0
  70 002a FBE7     		b	.L1
  71              	.L6:
  72              		.align	2
  73              	.L5:
  74 002c 00000000 		.word	huart1
  75 0030 00100140 		.word	1073811456
  76              		.cfi_endproc
  77              	.LFE126:
  79              		.section	.text.MX_USART2_UART_Init,"ax",%progbits
  80              		.align	1
  81              		.global	MX_USART2_UART_Init
  82              		.syntax unified
  83              		.thumb
  84              		.thumb_func
  85              		.fpu fpv4-sp-d16
  87              	MX_USART2_UART_Init:
  88              	.LFB127:
  69:Core/Src/periphs/usart.c **** /* USART2 init function */
  70:Core/Src/periphs/usart.c **** 
  71:Core/Src/periphs/usart.c **** void MX_USART2_UART_Init(void)
  72:Core/Src/periphs/usart.c **** {
  89              		.loc 1 72 0
  90              		.cfi_startproc
  91              		@ args = 0, pretend = 0, frame = 0
  92              		@ frame_needed = 0, uses_anonymous_args = 0
  93 0000 08B5     		push	{r3, lr}
  94              	.LCFI1:
  95              		.cfi_def_cfa_offset 8
  96              		.cfi_offset 3, -8
  97              		.cfi_offset 14, -4
  73:Core/Src/periphs/usart.c **** 
  74:Core/Src/periphs/usart.c ****   huart2.Instance = USART2;
  98              		.loc 1 74 0
  99 0002 0A48     		ldr	r0, .L11
ARM GAS  C:\Users\Prashant\AppData\Local\Temp\ccDGFxT8.s 			page 4


 100 0004 0A4B     		ldr	r3, .L11+4
 101 0006 0360     		str	r3, [r0]
  75:Core/Src/periphs/usart.c ****   huart2.Init.BaudRate = 115200;
 102              		.loc 1 75 0
 103 0008 4FF4E133 		mov	r3, #115200
 104 000c 4360     		str	r3, [r0, #4]
  76:Core/Src/periphs/usart.c ****   huart2.Init.WordLength = UART_WORDLENGTH_8B;
 105              		.loc 1 76 0
 106 000e 0023     		movs	r3, #0
 107 0010 8360     		str	r3, [r0, #8]
  77:Core/Src/periphs/usart.c ****   huart2.Init.StopBits = UART_STOPBITS_1;
 108              		.loc 1 77 0
 109 0012 C360     		str	r3, [r0, #12]
  78:Core/Src/periphs/usart.c ****   huart2.Init.Parity = UART_PARITY_NONE;
 110              		.loc 1 78 0
 111 0014 0361     		str	r3, [r0, #16]
  79:Core/Src/periphs/usart.c ****   huart2.Init.Mode = UART_MODE_TX_RX;
 112              		.loc 1 79 0
 113 0016 0C22     		movs	r2, #12
 114 0018 4261     		str	r2, [r0, #20]
  80:Core/Src/periphs/usart.c ****   huart2.Init.HwFlowCtl = UART_HWCONTROL_NONE;
 115              		.loc 1 80 0
 116 001a 8361     		str	r3, [r0, #24]
  81:Core/Src/periphs/usart.c ****   huart2.Init.OverSampling = UART_OVERSAMPLING_16;
 117              		.loc 1 81 0
 118 001c C361     		str	r3, [r0, #28]
  82:Core/Src/periphs/usart.c ****   if (HAL_UART_Init(&huart2) != HAL_OK)
 119              		.loc 1 82 0
 120 001e FFF7FEFF 		bl	HAL_UART_Init
 121              	.LVL2:
 122 0022 00B9     		cbnz	r0, .L10
 123              	.L7:
  83:Core/Src/periphs/usart.c ****   {
  84:Core/Src/periphs/usart.c ****     Error_Handler();
  85:Core/Src/periphs/usart.c ****   }
  86:Core/Src/periphs/usart.c **** 
  87:Core/Src/periphs/usart.c **** }
 124              		.loc 1 87 0
 125 0024 08BD     		pop	{r3, pc}
 126              	.L10:
  84:Core/Src/periphs/usart.c ****   }
 127              		.loc 1 84 0
 128 0026 FFF7FEFF 		bl	Error_Handler
 129              	.LVL3:
 130              		.loc 1 87 0
 131 002a FBE7     		b	.L7
 132              	.L12:
 133              		.align	2
 134              	.L11:
 135 002c 00000000 		.word	huart2
 136 0030 00440040 		.word	1073759232
 137              		.cfi_endproc
 138              	.LFE127:
 140              		.section	.text.HAL_UART_MspInit,"ax",%progbits
 141              		.align	1
 142              		.global	HAL_UART_MspInit
 143              		.syntax unified
ARM GAS  C:\Users\Prashant\AppData\Local\Temp\ccDGFxT8.s 			page 5


 144              		.thumb
 145              		.thumb_func
 146              		.fpu fpv4-sp-d16
 148              	HAL_UART_MspInit:
 149              	.LFB128:
  88:Core/Src/periphs/usart.c **** 
  89:Core/Src/periphs/usart.c **** void HAL_UART_MspInit(UART_HandleTypeDef* uartHandle)
  90:Core/Src/periphs/usart.c **** {
 150              		.loc 1 90 0
 151              		.cfi_startproc
 152              		@ args = 0, pretend = 0, frame = 40
 153              		@ frame_needed = 0, uses_anonymous_args = 0
 154              	.LVL4:
 155 0000 00B5     		push	{lr}
 156              	.LCFI2:
 157              		.cfi_def_cfa_offset 4
 158              		.cfi_offset 14, -4
 159 0002 8BB0     		sub	sp, sp, #44
 160              	.LCFI3:
 161              		.cfi_def_cfa_offset 48
  91:Core/Src/periphs/usart.c **** 
  92:Core/Src/periphs/usart.c ****   GPIO_InitTypeDef GPIO_InitStruct = {0};
 162              		.loc 1 92 0
 163 0004 0023     		movs	r3, #0
 164 0006 0593     		str	r3, [sp, #20]
 165 0008 0693     		str	r3, [sp, #24]
 166 000a 0793     		str	r3, [sp, #28]
 167 000c 0893     		str	r3, [sp, #32]
 168 000e 0993     		str	r3, [sp, #36]
  93:Core/Src/periphs/usart.c ****   if(uartHandle->Instance==USART1)
 169              		.loc 1 93 0
 170 0010 0368     		ldr	r3, [r0]
 171 0012 294A     		ldr	r2, .L19
 172 0014 9342     		cmp	r3, r2
 173 0016 05D0     		beq	.L17
  94:Core/Src/periphs/usart.c ****   {
  95:Core/Src/periphs/usart.c ****   /* USER CODE BEGIN USART1_MspInit 0 */
  96:Core/Src/periphs/usart.c **** 
  97:Core/Src/periphs/usart.c ****   /* USER CODE END USART1_MspInit 0 */
  98:Core/Src/periphs/usart.c ****     /* USART1 clock enable */
  99:Core/Src/periphs/usart.c ****     __HAL_RCC_USART1_CLK_ENABLE();
 100:Core/Src/periphs/usart.c ****   
 101:Core/Src/periphs/usart.c ****     __HAL_RCC_GPIOB_CLK_ENABLE();
 102:Core/Src/periphs/usart.c ****     /**USART1 GPIO Configuration    
 103:Core/Src/periphs/usart.c ****     PB6     ------> USART1_TX
 104:Core/Src/periphs/usart.c ****     PB7     ------> USART1_RX 
 105:Core/Src/periphs/usart.c ****     */
 106:Core/Src/periphs/usart.c ****     GPIO_InitStruct.Pin = GPIO_PIN_6|GPIO_PIN_7;
 107:Core/Src/periphs/usart.c ****     GPIO_InitStruct.Mode = GPIO_MODE_AF_PP;
 108:Core/Src/periphs/usart.c ****     GPIO_InitStruct.Pull = GPIO_PULLUP;
 109:Core/Src/periphs/usart.c ****     GPIO_InitStruct.Speed = GPIO_SPEED_FREQ_VERY_HIGH;
 110:Core/Src/periphs/usart.c ****     GPIO_InitStruct.Alternate = GPIO_AF7_USART1;
 111:Core/Src/periphs/usart.c ****     HAL_GPIO_Init(GPIOB, &GPIO_InitStruct);
 112:Core/Src/periphs/usart.c **** 
 113:Core/Src/periphs/usart.c ****   /* USER CODE BEGIN USART1_MspInit 1 */
 114:Core/Src/periphs/usart.c **** 
 115:Core/Src/periphs/usart.c ****   /* USER CODE END USART1_MspInit 1 */
ARM GAS  C:\Users\Prashant\AppData\Local\Temp\ccDGFxT8.s 			page 6


 116:Core/Src/periphs/usart.c ****   }
 117:Core/Src/periphs/usart.c ****   else if(uartHandle->Instance==USART2)
 174              		.loc 1 117 0
 175 0018 284A     		ldr	r2, .L19+4
 176 001a 9342     		cmp	r3, r2
 177 001c 27D0     		beq	.L18
 178              	.LVL5:
 179              	.L13:
 118:Core/Src/periphs/usart.c ****   {
 119:Core/Src/periphs/usart.c ****   /* USER CODE BEGIN USART2_MspInit 0 */
 120:Core/Src/periphs/usart.c **** 
 121:Core/Src/periphs/usart.c ****   /* USER CODE END USART2_MspInit 0 */
 122:Core/Src/periphs/usart.c ****     /* USART2 clock enable */
 123:Core/Src/periphs/usart.c ****     __HAL_RCC_USART2_CLK_ENABLE();
 124:Core/Src/periphs/usart.c ****   
 125:Core/Src/periphs/usart.c ****     __HAL_RCC_GPIOD_CLK_ENABLE();
 126:Core/Src/periphs/usart.c ****     /**USART2 GPIO Configuration    
 127:Core/Src/periphs/usart.c ****     PD5     ------> USART2_TX
 128:Core/Src/periphs/usart.c ****     PD6     ------> USART2_RX 
 129:Core/Src/periphs/usart.c ****     */
 130:Core/Src/periphs/usart.c ****     GPIO_InitStruct.Pin = GPIO_PIN_5|GPIO_PIN_6;
 131:Core/Src/periphs/usart.c ****     GPIO_InitStruct.Mode = GPIO_MODE_AF_PP;
 132:Core/Src/periphs/usart.c ****     GPIO_InitStruct.Pull = GPIO_PULLUP;
 133:Core/Src/periphs/usart.c ****     GPIO_InitStruct.Speed = GPIO_SPEED_FREQ_VERY_HIGH;
 134:Core/Src/periphs/usart.c ****     GPIO_InitStruct.Alternate = GPIO_AF7_USART2;
 135:Core/Src/periphs/usart.c ****     HAL_GPIO_Init(GPIOD, &GPIO_InitStruct);
 136:Core/Src/periphs/usart.c **** 
 137:Core/Src/periphs/usart.c ****   /* USER CODE BEGIN USART2_MspInit 1 */
 138:Core/Src/periphs/usart.c **** 
 139:Core/Src/periphs/usart.c ****   /* USER CODE END USART2_MspInit 1 */
 140:Core/Src/periphs/usart.c ****   }
 141:Core/Src/periphs/usart.c **** }
 180              		.loc 1 141 0
 181 001e 0BB0     		add	sp, sp, #44
 182              	.LCFI4:
 183              		.cfi_remember_state
 184              		.cfi_def_cfa_offset 4
 185              		@ sp needed
 186 0020 5DF804FB 		ldr	pc, [sp], #4
 187              	.LVL6:
 188              	.L17:
 189              	.LCFI5:
 190              		.cfi_restore_state
 191              	.LBB2:
  99:Core/Src/periphs/usart.c ****   
 192              		.loc 1 99 0
 193 0024 0021     		movs	r1, #0
 194 0026 0191     		str	r1, [sp, #4]
 195 0028 254B     		ldr	r3, .L19+8
 196 002a 5A6C     		ldr	r2, [r3, #68]
 197 002c 42F01002 		orr	r2, r2, #16
 198 0030 5A64     		str	r2, [r3, #68]
 199 0032 5A6C     		ldr	r2, [r3, #68]
 200 0034 02F01002 		and	r2, r2, #16
 201 0038 0192     		str	r2, [sp, #4]
 202 003a 019A     		ldr	r2, [sp, #4]
 203              	.LBE2:
ARM GAS  C:\Users\Prashant\AppData\Local\Temp\ccDGFxT8.s 			page 7


 204              	.LBB3:
 101:Core/Src/periphs/usart.c ****     /**USART1 GPIO Configuration    
 205              		.loc 1 101 0
 206 003c 0291     		str	r1, [sp, #8]
 207 003e 1A6B     		ldr	r2, [r3, #48]
 208 0040 42F00202 		orr	r2, r2, #2
 209 0044 1A63     		str	r2, [r3, #48]
 210 0046 1B6B     		ldr	r3, [r3, #48]
 211 0048 03F00203 		and	r3, r3, #2
 212 004c 0293     		str	r3, [sp, #8]
 213 004e 029B     		ldr	r3, [sp, #8]
 214              	.LBE3:
 106:Core/Src/periphs/usart.c ****     GPIO_InitStruct.Mode = GPIO_MODE_AF_PP;
 215              		.loc 1 106 0
 216 0050 C023     		movs	r3, #192
 217 0052 0593     		str	r3, [sp, #20]
 107:Core/Src/periphs/usart.c ****     GPIO_InitStruct.Pull = GPIO_PULLUP;
 218              		.loc 1 107 0
 219 0054 0223     		movs	r3, #2
 220 0056 0693     		str	r3, [sp, #24]
 108:Core/Src/periphs/usart.c ****     GPIO_InitStruct.Speed = GPIO_SPEED_FREQ_VERY_HIGH;
 221              		.loc 1 108 0
 222 0058 0123     		movs	r3, #1
 223 005a 0793     		str	r3, [sp, #28]
 109:Core/Src/periphs/usart.c ****     GPIO_InitStruct.Alternate = GPIO_AF7_USART1;
 224              		.loc 1 109 0
 225 005c 0323     		movs	r3, #3
 226 005e 0893     		str	r3, [sp, #32]
 110:Core/Src/periphs/usart.c ****     HAL_GPIO_Init(GPIOB, &GPIO_InitStruct);
 227              		.loc 1 110 0
 228 0060 0723     		movs	r3, #7
 229 0062 0993     		str	r3, [sp, #36]
 111:Core/Src/periphs/usart.c **** 
 230              		.loc 1 111 0
 231 0064 05A9     		add	r1, sp, #20
 232 0066 1748     		ldr	r0, .L19+12
 233              	.LVL7:
 234 0068 FFF7FEFF 		bl	HAL_GPIO_Init
 235              	.LVL8:
 236 006c D7E7     		b	.L13
 237              	.LVL9:
 238              	.L18:
 239              	.LBB4:
 123:Core/Src/periphs/usart.c ****   
 240              		.loc 1 123 0
 241 006e 0021     		movs	r1, #0
 242 0070 0391     		str	r1, [sp, #12]
 243 0072 134B     		ldr	r3, .L19+8
 244 0074 1A6C     		ldr	r2, [r3, #64]
 245 0076 42F40032 		orr	r2, r2, #131072
 246 007a 1A64     		str	r2, [r3, #64]
 247 007c 1A6C     		ldr	r2, [r3, #64]
 248 007e 02F40032 		and	r2, r2, #131072
 249 0082 0392     		str	r2, [sp, #12]
 250 0084 039A     		ldr	r2, [sp, #12]
 251              	.LBE4:
 252              	.LBB5:
ARM GAS  C:\Users\Prashant\AppData\Local\Temp\ccDGFxT8.s 			page 8


 125:Core/Src/periphs/usart.c ****     /**USART2 GPIO Configuration    
 253              		.loc 1 125 0
 254 0086 0491     		str	r1, [sp, #16]
 255 0088 1A6B     		ldr	r2, [r3, #48]
 256 008a 42F00802 		orr	r2, r2, #8
 257 008e 1A63     		str	r2, [r3, #48]
 258 0090 1B6B     		ldr	r3, [r3, #48]
 259 0092 03F00803 		and	r3, r3, #8
 260 0096 0493     		str	r3, [sp, #16]
 261 0098 049B     		ldr	r3, [sp, #16]
 262              	.LBE5:
 130:Core/Src/periphs/usart.c ****     GPIO_InitStruct.Mode = GPIO_MODE_AF_PP;
 263              		.loc 1 130 0
 264 009a 6023     		movs	r3, #96
 265 009c 0593     		str	r3, [sp, #20]
 131:Core/Src/periphs/usart.c ****     GPIO_InitStruct.Pull = GPIO_PULLUP;
 266              		.loc 1 131 0
 267 009e 0223     		movs	r3, #2
 268 00a0 0693     		str	r3, [sp, #24]
 132:Core/Src/periphs/usart.c ****     GPIO_InitStruct.Speed = GPIO_SPEED_FREQ_VERY_HIGH;
 269              		.loc 1 132 0
 270 00a2 0123     		movs	r3, #1
 271 00a4 0793     		str	r3, [sp, #28]
 133:Core/Src/periphs/usart.c ****     GPIO_InitStruct.Alternate = GPIO_AF7_USART2;
 272              		.loc 1 133 0
 273 00a6 0323     		movs	r3, #3
 274 00a8 0893     		str	r3, [sp, #32]
 134:Core/Src/periphs/usart.c ****     HAL_GPIO_Init(GPIOD, &GPIO_InitStruct);
 275              		.loc 1 134 0
 276 00aa 0723     		movs	r3, #7
 277 00ac 0993     		str	r3, [sp, #36]
 135:Core/Src/periphs/usart.c **** 
 278              		.loc 1 135 0
 279 00ae 05A9     		add	r1, sp, #20
 280 00b0 0548     		ldr	r0, .L19+16
 281              	.LVL10:
 282 00b2 FFF7FEFF 		bl	HAL_GPIO_Init
 283              	.LVL11:
 284              		.loc 1 141 0
 285 00b6 B2E7     		b	.L13
 286              	.L20:
 287              		.align	2
 288              	.L19:
 289 00b8 00100140 		.word	1073811456
 290 00bc 00440040 		.word	1073759232
 291 00c0 00380240 		.word	1073887232
 292 00c4 00040240 		.word	1073873920
 293 00c8 000C0240 		.word	1073875968
 294              		.cfi_endproc
 295              	.LFE128:
 297              		.section	.text.HAL_UART_MspDeInit,"ax",%progbits
 298              		.align	1
 299              		.global	HAL_UART_MspDeInit
 300              		.syntax unified
 301              		.thumb
 302              		.thumb_func
 303              		.fpu fpv4-sp-d16
ARM GAS  C:\Users\Prashant\AppData\Local\Temp\ccDGFxT8.s 			page 9


 305              	HAL_UART_MspDeInit:
 306              	.LFB129:
 142:Core/Src/periphs/usart.c **** 
 143:Core/Src/periphs/usart.c **** void HAL_UART_MspDeInit(UART_HandleTypeDef* uartHandle)
 144:Core/Src/periphs/usart.c **** {
 307              		.loc 1 144 0
 308              		.cfi_startproc
 309              		@ args = 0, pretend = 0, frame = 0
 310              		@ frame_needed = 0, uses_anonymous_args = 0
 311              	.LVL12:
 312 0000 08B5     		push	{r3, lr}
 313              	.LCFI6:
 314              		.cfi_def_cfa_offset 8
 315              		.cfi_offset 3, -8
 316              		.cfi_offset 14, -4
 145:Core/Src/periphs/usart.c **** 
 146:Core/Src/periphs/usart.c ****   if(uartHandle->Instance==USART1)
 317              		.loc 1 146 0
 318 0002 0368     		ldr	r3, [r0]
 319 0004 0E4A     		ldr	r2, .L27
 320 0006 9342     		cmp	r3, r2
 321 0008 03D0     		beq	.L25
 147:Core/Src/periphs/usart.c ****   {
 148:Core/Src/periphs/usart.c ****   /* USER CODE BEGIN USART1_MspDeInit 0 */
 149:Core/Src/periphs/usart.c **** 
 150:Core/Src/periphs/usart.c ****   /* USER CODE END USART1_MspDeInit 0 */
 151:Core/Src/periphs/usart.c ****     /* Peripheral clock disable */
 152:Core/Src/periphs/usart.c ****     __HAL_RCC_USART1_CLK_DISABLE();
 153:Core/Src/periphs/usart.c ****   
 154:Core/Src/periphs/usart.c ****     /**USART1 GPIO Configuration    
 155:Core/Src/periphs/usart.c ****     PB6     ------> USART1_TX
 156:Core/Src/periphs/usart.c ****     PB7     ------> USART1_RX 
 157:Core/Src/periphs/usart.c ****     */
 158:Core/Src/periphs/usart.c ****     HAL_GPIO_DeInit(GPIOB, GPIO_PIN_6|GPIO_PIN_7);
 159:Core/Src/periphs/usart.c **** 
 160:Core/Src/periphs/usart.c ****   /* USER CODE BEGIN USART1_MspDeInit 1 */
 161:Core/Src/periphs/usart.c **** 
 162:Core/Src/periphs/usart.c ****   /* USER CODE END USART1_MspDeInit 1 */
 163:Core/Src/periphs/usart.c ****   }
 164:Core/Src/periphs/usart.c ****   else if(uartHandle->Instance==USART2)
 322              		.loc 1 164 0
 323 000a 0E4A     		ldr	r2, .L27+4
 324 000c 9342     		cmp	r3, r2
 325 000e 0BD0     		beq	.L26
 326              	.LVL13:
 327              	.L21:
 165:Core/Src/periphs/usart.c ****   {
 166:Core/Src/periphs/usart.c ****   /* USER CODE BEGIN USART2_MspDeInit 0 */
 167:Core/Src/periphs/usart.c **** 
 168:Core/Src/periphs/usart.c ****   /* USER CODE END USART2_MspDeInit 0 */
 169:Core/Src/periphs/usart.c ****     /* Peripheral clock disable */
 170:Core/Src/periphs/usart.c ****     __HAL_RCC_USART2_CLK_DISABLE();
 171:Core/Src/periphs/usart.c ****   
 172:Core/Src/periphs/usart.c ****     /**USART2 GPIO Configuration    
 173:Core/Src/periphs/usart.c ****     PD5     ------> USART2_TX
 174:Core/Src/periphs/usart.c ****     PD6     ------> USART2_RX 
 175:Core/Src/periphs/usart.c ****     */
ARM GAS  C:\Users\Prashant\AppData\Local\Temp\ccDGFxT8.s 			page 10


 176:Core/Src/periphs/usart.c ****     HAL_GPIO_DeInit(GPIOD, GPIO_PIN_5|GPIO_PIN_6);
 177:Core/Src/periphs/usart.c **** 
 178:Core/Src/periphs/usart.c ****   /* USER CODE BEGIN USART2_MspDeInit 1 */
 179:Core/Src/periphs/usart.c **** 
 180:Core/Src/periphs/usart.c ****   /* USER CODE END USART2_MspDeInit 1 */
 181:Core/Src/periphs/usart.c ****   }
 182:Core/Src/periphs/usart.c **** } 
 328              		.loc 1 182 0
 329 0010 08BD     		pop	{r3, pc}
 330              	.LVL14:
 331              	.L25:
 152:Core/Src/periphs/usart.c ****   
 332              		.loc 1 152 0
 333 0012 02F59432 		add	r2, r2, #75776
 334 0016 536C     		ldr	r3, [r2, #68]
 335 0018 23F01003 		bic	r3, r3, #16
 336 001c 5364     		str	r3, [r2, #68]
 158:Core/Src/periphs/usart.c **** 
 337              		.loc 1 158 0
 338 001e C021     		movs	r1, #192
 339 0020 0948     		ldr	r0, .L27+8
 340              	.LVL15:
 341 0022 FFF7FEFF 		bl	HAL_GPIO_DeInit
 342              	.LVL16:
 343 0026 F3E7     		b	.L21
 344              	.LVL17:
 345              	.L26:
 170:Core/Src/periphs/usart.c ****   
 346              		.loc 1 170 0
 347 0028 02F5FA32 		add	r2, r2, #128000
 348 002c 136C     		ldr	r3, [r2, #64]
 349 002e 23F40033 		bic	r3, r3, #131072
 350 0032 1364     		str	r3, [r2, #64]
 176:Core/Src/periphs/usart.c **** 
 351              		.loc 1 176 0
 352 0034 6021     		movs	r1, #96
 353 0036 0548     		ldr	r0, .L27+12
 354              	.LVL18:
 355 0038 FFF7FEFF 		bl	HAL_GPIO_DeInit
 356              	.LVL19:
 357              		.loc 1 182 0
 358 003c E8E7     		b	.L21
 359              	.L28:
 360 003e 00BF     		.align	2
 361              	.L27:
 362 0040 00100140 		.word	1073811456
 363 0044 00440040 		.word	1073759232
 364 0048 00040240 		.word	1073873920
 365 004c 000C0240 		.word	1073875968
 366              		.cfi_endproc
 367              	.LFE129:
 369              		.comm	huart2,64,4
 370              		.comm	huart1,64,4
 371              		.text
 372              	.Letext0:
 373              		.file 2 "c:\\program files (x86)\\gnu tools arm embedded\\7 2017-q4-major\\arm-none-eabi\\include\
 374              		.file 3 "c:\\program files (x86)\\gnu tools arm embedded\\7 2017-q4-major\\arm-none-eabi\\include\
ARM GAS  C:\Users\Prashant\AppData\Local\Temp\ccDGFxT8.s 			page 11


 375              		.file 4 "Drivers/CMSIS/Include/core_cm4.h"
 376              		.file 5 "Drivers/CMSIS/Device/ST/STM32F4xx/Include/system_stm32f4xx.h"
 377              		.file 6 "Drivers/CMSIS/Device/ST/STM32F4xx/Include/stm32f407xx.h"
 378              		.file 7 "c:\\program files (x86)\\gnu tools arm embedded\\7 2017-q4-major\\arm-none-eabi\\include\
 379              		.file 8 "c:\\program files (x86)\\gnu tools arm embedded\\7 2017-q4-major\\arm-none-eabi\\include\
 380              		.file 9 "c:\\program files (x86)\\gnu tools arm embedded\\7 2017-q4-major\\lib\\gcc\\arm-none-eabi
 381              		.file 10 "c:\\program files (x86)\\gnu tools arm embedded\\7 2017-q4-major\\arm-none-eabi\\include
 382              		.file 11 "Drivers/STM32F4xx_HAL_Driver/Inc/stm32f4xx_hal_def.h"
 383              		.file 12 "Drivers/STM32F4xx_HAL_Driver/Inc/stm32f4xx_hal_gpio.h"
 384              		.file 13 "Drivers/STM32F4xx_HAL_Driver/Inc/stm32f4xx_hal_dma.h"
 385              		.file 14 "Drivers/STM32F4xx_HAL_Driver/Inc/stm32f4xx_hal_uart.h"
 386              		.file 15 "Core/Inc/periphs/usart.h"
 387              		.file 16 "Core/Inc/main.h"
ARM GAS  C:\Users\Prashant\AppData\Local\Temp\ccDGFxT8.s 			page 12

