ARM GAS  C:\Users\Prashant\AppData\Local\Temp\ccU16D20.s 			page 1


   1              		.cpu cortex-m4
   2              		.eabi_attribute 27, 1
   3              		.eabi_attribute 28, 1
   4              		.eabi_attribute 20, 1
   5              		.eabi_attribute 21, 1
   6              		.eabi_attribute 23, 3
   7              		.eabi_attribute 24, 1
   8              		.eabi_attribute 25, 1
   9              		.eabi_attribute 26, 1
  10              		.eabi_attribute 30, 1
  11              		.eabi_attribute 34, 1
  12              		.eabi_attribute 18, 4
  13              		.file	"blnc_motor.cpp"
  14              		.text
  15              	.Ltext0:
  16              		.cfi_sections	.debug_frame
  17              		.section	.text._Z12balance_Initv,"ax",%progbits
  18              		.align	1
  19              		.global	_Z12balance_Initv
  20              		.syntax unified
  21              		.thumb
  22              		.thumb_func
  23              		.fpu fpv4-sp-d16
  25              	_Z12balance_Initv:
  26              	.LFB136:
  27              		.file 1 "Core/Src/devs/blnc_motor.cpp"
   1:Core/Src/devs/blnc_motor.cpp **** #include "blnc_motor.h"
   2:Core/Src/devs/blnc_motor.cpp **** #include "robo_states.h"
   3:Core/Src/devs/blnc_motor.cpp **** #include "interrupt.h"
   4:Core/Src/devs/blnc_motor.cpp **** #include "motor.h"
   5:Core/Src/devs/blnc_motor.cpp **** 
   6:Core/Src/devs/blnc_motor.cpp **** extern State gHorse_State;
   7:Core/Src/devs/blnc_motor.cpp **** extern State_ID gCurrent_Position;
   8:Core/Src/devs/blnc_motor.cpp **** int16_t gCounter = 0;
   9:Core/Src/devs/blnc_motor.cpp **** float gOmega = 0;
  10:Core/Src/devs/blnc_motor.cpp **** bool gReady_To_Go = false;
  11:Core/Src/devs/blnc_motor.cpp **** 
  12:Core/Src/devs/blnc_motor.cpp **** struct Blnc gBallet;
  13:Core/Src/devs/blnc_motor.cpp **** uint16_t bomega = 4;
  14:Core/Src/devs/blnc_motor.cpp **** 
  15:Core/Src/devs/blnc_motor.cpp **** void balance_Init(void)
  16:Core/Src/devs/blnc_motor.cpp **** {
  28              		.loc 1 16 0
  29              		.cfi_startproc
  30              		@ args = 0, pretend = 0, frame = 0
  31              		@ frame_needed = 0, uses_anonymous_args = 0
  32 0000 70B5     		push	{r4, r5, r6, lr}
  33              	.LCFI0:
  34              		.cfi_def_cfa_offset 16
  35              		.cfi_offset 4, -16
  36              		.cfi_offset 5, -12
  37              		.cfi_offset 6, -8
  38              		.cfi_offset 14, -4
  17:Core/Src/devs/blnc_motor.cpp **** 	/******Initializing Interrupts******/
  18:Core/Src/devs/blnc_motor.cpp **** 	gBallet.interrupt[0].int_port = GPIOC;
  39              		.loc 1 18 0
  40 0002 2B4C     		ldr	r4, .L3+8
ARM GAS  C:\Users\Prashant\AppData\Local\Temp\ccU16D20.s 			page 2


  41 0004 2B4B     		ldr	r3, .L3+12
  42 0006 A363     		str	r3, [r4, #56]
  19:Core/Src/devs/blnc_motor.cpp **** 	gBallet.interrupt[0].int_pin = GPIO_PIN_14;
  43              		.loc 1 19 0
  44 0008 4FF48042 		mov	r2, #16384
  45 000c A287     		strh	r2, [r4, #60]	@ movhi
  20:Core/Src/devs/blnc_motor.cpp **** 	gBallet.interrupt[1].int_port = GPIOC;
  46              		.loc 1 20 0
  47 000e 6364     		str	r3, [r4, #68]
  21:Core/Src/devs/blnc_motor.cpp ****         gBallet.interrupt[1].int_pin = GPIO_PIN_15;
  48              		.loc 1 21 0
  49 0010 4FF40042 		mov	r2, #32768
  50 0014 A4F84820 		strh	r2, [r4, #72]	@ movhi
  22:Core/Src/devs/blnc_motor.cpp **** 	gBallet.interrupt[2].int_port = GPIOC;
  51              		.loc 1 22 0
  52 0018 2365     		str	r3, [r4, #80]
  23:Core/Src/devs/blnc_motor.cpp ****         gBallet.interrupt[2].int_pin = GPIO_PIN_7;
  53              		.loc 1 23 0
  54 001a 8023     		movs	r3, #128
  55 001c A4F85430 		strh	r3, [r4, #84]	@ movhi
  24:Core/Src/devs/blnc_motor.cpp **** 	gBallet.interrupt[3].int_port = GPIOB;
  56              		.loc 1 24 0
  57 0020 254B     		ldr	r3, .L3+16
  58 0022 E365     		str	r3, [r4, #92]
  25:Core/Src/devs/blnc_motor.cpp ****         gBallet.interrupt[3].int_pin = GPIO_PIN_12;
  59              		.loc 1 25 0
  60 0024 4FF48053 		mov	r3, #4096
  61 0028 A4F86030 		strh	r3, [r4, #96]	@ movhi
  26:Core/Src/devs/blnc_motor.cpp **** 
  27:Core/Src/devs/blnc_motor.cpp **** 	/******Initializing Motor******/
  28:Core/Src/devs/blnc_motor.cpp **** 	gBallet.motor.dir1_port = GPIOA;
  62              		.loc 1 28 0
  63 002c 234A     		ldr	r2, .L3+20
  64 002e A261     		str	r2, [r4, #24]
  29:Core/Src/devs/blnc_motor.cpp **** 	gBallet.motor.dir1_pin = GPIO_PIN_3;
  65              		.loc 1 29 0
  66 0030 0823     		movs	r3, #8
  67 0032 A383     		strh	r3, [r4, #28]	@ movhi
  30:Core/Src/devs/blnc_motor.cpp **** 	gBallet.motor.dir2_port = GPIOA;
  68              		.loc 1 30 0
  69 0034 2262     		str	r2, [r4, #32]
  31:Core/Src/devs/blnc_motor.cpp **** 	gBallet.motor.dir2_pin = GPIO_PIN_4;
  70              		.loc 1 31 0
  71 0036 1022     		movs	r2, #16
  72 0038 A284     		strh	r2, [r4, #36]	@ movhi
  32:Core/Src/devs/blnc_motor.cpp **** 	gBallet.motor.channel = TIM_CHANNEL_3;
  73              		.loc 1 32 0
  74 003a E362     		str	r3, [r4, #44]
  33:Core/Src/devs/blnc_motor.cpp **** 	gBallet.motor.update_omega = 0;
  75              		.loc 1 33 0
  76 003c 0025     		movs	r5, #0
  77 003e 2561     		str	r5, [r4, #16]	@ float
  34:Core/Src/devs/blnc_motor.cpp **** 	gBallet.motor.htim = &htim5;
  78              		.loc 1 34 0
  79 0040 1F48     		ldr	r0, .L3+24
  80 0042 A062     		str	r0, [r4, #40]
  35:Core/Src/devs/blnc_motor.cpp **** 	HAL_TIM_Base_Start(gBallet.motor.htim);
ARM GAS  C:\Users\Prashant\AppData\Local\Temp\ccU16D20.s 			page 3


  81              		.loc 1 35 0
  82 0044 FFF7FEFF 		bl	HAL_TIM_Base_Start
  83              	.LVL0:
  36:Core/Src/devs/blnc_motor.cpp ****         HAL_TIM_PWM_Start(gBallet.motor.htim, gBallet.motor.channel);
  84              		.loc 1 36 0
  85 0048 E16A     		ldr	r1, [r4, #44]
  86 004a A06A     		ldr	r0, [r4, #40]
  87 004c FFF7FEFF 		bl	HAL_TIM_PWM_Start
  88              	.LVL1:
  37:Core/Src/devs/blnc_motor.cpp **** 
  38:Core/Src/devs/blnc_motor.cpp **** 	/******Initializing Encoder******/
  39:Core/Src/devs/blnc_motor.cpp **** 	gBallet.motor.encoder->count = 0;
  89              		.loc 1 39 0
  90 0050 236B     		ldr	r3, [r4, #48]
  91 0052 0026     		movs	r6, #0
  92 0054 9E60     		str	r6, [r3, #8]
  40:Core/Src/devs/blnc_motor.cpp **** 	gBallet.motor.encoder->ref_count = 0;
  93              		.loc 1 40 0
  94 0056 236B     		ldr	r3, [r4, #48]
  95 0058 5E80     		strh	r6, [r3, #2]	@ movhi
  41:Core/Src/devs/blnc_motor.cpp **** 	gBallet.motor.encoder->last_count = 0;
  96              		.loc 1 41 0
  97 005a 236B     		ldr	r3, [r4, #48]
  98 005c 9E80     		strh	r6, [r3, #4]	@ movhi
  42:Core/Src/devs/blnc_motor.cpp **** 	gBallet.motor.encoder->ppr = 79;
  99              		.loc 1 42 0
 100 005e 236B     		ldr	r3, [r4, #48]
 101 0060 4F22     		movs	r2, #79
 102 0062 1A80     		strh	r2, [r3]	@ movhi
  43:Core/Src/devs/blnc_motor.cpp **** 
  44:Core/Src/devs/blnc_motor.cpp **** 	/******Initializing PID******/
  45:Core/Src/devs/blnc_motor.cpp **** 	PID_Init(&gBallet.pid);
 103              		.loc 1 45 0
 104 0064 04F16800 		add	r0, r4, #104
 105 0068 FFF7FEFF 		bl	_Z8PID_InitP6pidStr
 106              	.LVL2:
  46:Core/Src/devs/blnc_motor.cpp **** 	gBallet.pid.max_output = 12;
 107              		.loc 1 46 0
 108 006c 154B     		ldr	r3, .L3+28
 109 006e C4F88830 		str	r3, [r4, #136]	@ float
  47:Core/Src/devs/blnc_motor.cpp **** 	gBallet.pid.min_output = -12;
 110              		.loc 1 47 0
 111 0072 154B     		ldr	r3, .L3+32
 112 0074 C4F88C30 		str	r3, [r4, #140]	@ float
  48:Core/Src/devs/blnc_motor.cpp **** 	gBallet.pid.kp = 2.578;
 113              		.loc 1 48 0
 114 0078 0BA3     		adr	r3, .L3
 115 007a D3E90023 		ldrd	r2, [r3]
 116 007e C4E91A23 		strd	r2, [r4, #104]
  49:Core/Src/devs/blnc_motor.cpp **** 	gBallet.pid.ki = 0;
 117              		.loc 1 49 0
 118 0082 0022     		movs	r2, #0
 119 0084 0023     		movs	r3, #0
 120 0086 C4E91C23 		strd	r2, [r4, #112]
  50:Core/Src/devs/blnc_motor.cpp **** 	gBallet.pid.last_error = 0;
 121              		.loc 1 50 0
 122 008a C4F89450 		str	r5, [r4, #148]	@ float
ARM GAS  C:\Users\Prashant\AppData\Local\Temp\ccU16D20.s 			page 4


  51:Core/Src/devs/blnc_motor.cpp **** 	gBallet.pid.output = 0;
 123              		.loc 1 51 0
 124 008e C4F88450 		str	r5, [r4, #132]	@ float
  52:Core/Src/devs/blnc_motor.cpp **** 	gBallet.pid.previous_error = 0;
 125              		.loc 1 52 0
 126 0092 C4F89850 		str	r5, [r4, #152]	@ float
  53:Core/Src/devs/blnc_motor.cpp **** 	gBallet.pid.last_output = 0;
 127              		.loc 1 53 0
 128 0096 C4F89050 		str	r5, [r4, #144]	@ float
  54:Core/Src/devs/blnc_motor.cpp **** 	setDutyCycle(&gBallet.motor,0);
 129              		.loc 1 54 0
 130 009a 3146     		mov	r1, r6
 131 009c 2046     		mov	r0, r4
 132 009e FFF7FEFF 		bl	_Z12setDutyCycleP8motorStrt
 133              	.LVL3:
  55:Core/Src/devs/blnc_motor.cpp **** }
 134              		.loc 1 55 0
 135 00a2 70BD     		pop	{r4, r5, r6, pc}
 136              	.L4:
 137 00a4 AFF30080 		.align	3
 138              	.L3:
 139 00a8 39B4C876 		.word	1992864825
 140 00ac BE9F0440 		.word	1074044862
 141 00b0 00000000 		.word	.LANCHOR0
 142 00b4 00080240 		.word	1073874944
 143 00b8 00040240 		.word	1073873920
 144 00bc 00000240 		.word	1073872896
 145 00c0 00000000 		.word	htim5
 146 00c4 00004041 		.word	1094713344
 147 00c8 000040C1 		.word	-1052770304
 148              		.cfi_endproc
 149              	.LFE136:
 151              		.global	__aeabi_i2d
 152              		.global	__aeabi_dmul
 153              		.global	__aeabi_d2f
 154              		.section	.text._Z15get_BalletOmegav,"ax",%progbits
 155              		.align	1
 156              		.global	_Z15get_BalletOmegav
 157              		.syntax unified
 158              		.thumb
 159              		.thumb_func
 160              		.fpu fpv4-sp-d16
 162              	_Z15get_BalletOmegav:
 163              	.LFB137:
  56:Core/Src/devs/blnc_motor.cpp **** 
  57:Core/Src/devs/blnc_motor.cpp **** float get_BalletOmega()
  58:Core/Src/devs/blnc_motor.cpp **** {
 164              		.loc 1 58 0
 165              		.cfi_startproc
 166              		@ args = 0, pretend = 0, frame = 0
 167              		@ frame_needed = 0, uses_anonymous_args = 0
 168 0000 10B5     		push	{r4, lr}
 169              	.LCFI1:
 170              		.cfi_def_cfa_offset 8
 171              		.cfi_offset 4, -8
 172              		.cfi_offset 14, -4
  59:Core/Src/devs/blnc_motor.cpp **** 	float omg;
ARM GAS  C:\Users\Prashant\AppData\Local\Temp\ccU16D20.s 			page 5


  60:Core/Src/devs/blnc_motor.cpp **** 
  61:Core/Src/devs/blnc_motor.cpp **** 	// (2 * PI * gCounter ) / (179.0 * 0.05)
  62:Core/Src/devs/blnc_motor.cpp **** 	omg =  0.7024 * gCounter;
 173              		.loc 1 62 0
 174 0002 0B4C     		ldr	r4, .L7+8
 175 0004 B4F90000 		ldrsh	r0, [r4]
 176 0008 FFF7FEFF 		bl	__aeabi_i2d
 177              	.LVL4:
 178 000c 06A3     		adr	r3, .L7
 179 000e D3E90023 		ldrd	r2, [r3]
 180 0012 FFF7FEFF 		bl	__aeabi_dmul
 181              	.LVL5:
 182 0016 FFF7FEFF 		bl	__aeabi_d2f
 183              	.LVL6:
  63:Core/Src/devs/blnc_motor.cpp **** 	gCounter = 0 ;
 184              		.loc 1 63 0
 185 001a 0023     		movs	r3, #0
 186 001c 2380     		strh	r3, [r4]	@ movhi
  64:Core/Src/devs/blnc_motor.cpp **** 	return omg ;
  65:Core/Src/devs/blnc_motor.cpp **** }  
 187              		.loc 1 65 0
 188 001e 00EE100A 		vmov	s0, r0
 189 0022 10BD     		pop	{r4, pc}
 190              	.L8:
 191 0024 AFF30080 		.align	3
 192              	.L7:
 193 0028 99BB9690 		.word	-1869169767
 194 002c 0F7AE63F 		.word	1072069135
 195 0030 00000000 		.word	.LANCHOR1
 196              		.cfi_endproc
 197              	.LFE137:
 199              		.section	.text._Z12balance_Loopv,"ax",%progbits
 200              		.align	1
 201              		.global	_Z12balance_Loopv
 202              		.syntax unified
 203              		.thumb
 204              		.thumb_func
 205              		.fpu fpv4-sp-d16
 207              	_Z12balance_Loopv:
 208              	.LFB138:
  66:Core/Src/devs/blnc_motor.cpp **** 
  67:Core/Src/devs/blnc_motor.cpp **** void balance_Loop(void)
  68:Core/Src/devs/blnc_motor.cpp **** {
 209              		.loc 1 68 0
 210              		.cfi_startproc
 211              		@ args = 0, pretend = 0, frame = 0
 212              		@ frame_needed = 0, uses_anonymous_args = 0
 213 0000 38B5     		push	{r3, r4, r5, lr}
 214              	.LCFI2:
 215              		.cfi_def_cfa_offset 16
 216              		.cfi_offset 3, -16
 217              		.cfi_offset 4, -12
 218              		.cfi_offset 5, -8
 219              		.cfi_offset 14, -4
 220 0002 2DED028B 		vpush.64	{d8}
 221              	.LCFI3:
 222              		.cfi_def_cfa_offset 24
ARM GAS  C:\Users\Prashant\AppData\Local\Temp\ccU16D20.s 			page 6


 223              		.cfi_offset 80, -24
 224              		.cfi_offset 81, -20
 225              	.LVL7:
  69:Core/Src/devs/blnc_motor.cpp **** 	float pid_corrector = 0; //PID algorithm is not general
  70:Core/Src/devs/blnc_motor.cpp **** 	gOmega = get_BalletOmega();
 226              		.loc 1 70 0
 227 0006 FFF7FEFF 		bl	_Z15get_BalletOmegav
 228              	.LVL8:
 229 000a 204B     		ldr	r3, .L13
 230 000c 83ED000A 		vstr.32	s0, [r3]
  71:Core/Src/devs/blnc_motor.cpp **** 	//printf("omega = %d \t Count = %d\n", (int)gOmega*100, (int)gCounter*100);
  72:Core/Src/devs/blnc_motor.cpp **** 	if(!gReady_To_Go)
 231              		.loc 1 72 0
 232 0010 1F4B     		ldr	r3, .L13+4
 233 0012 1B78     		ldrb	r3, [r3]	@ zero_extendqisi2
 234 0014 B3B3     		cbz	r3, .L12
 235              	.L10:
  73:Core/Src/devs/blnc_motor.cpp **** 	{
  74:Core/Src/devs/blnc_motor.cpp **** 		switch (gHorse_State.get_ID())
  75:Core/Src/devs/blnc_motor.cpp **** 		{
  76:Core/Src/devs/blnc_motor.cpp **** 			case State_ID::HOME:
  77:Core/Src/devs/blnc_motor.cpp **** 			{	
  78:Core/Src/devs/blnc_motor.cpp **** 				break;
  79:Core/Src/devs/blnc_motor.cpp **** 			}
  80:Core/Src/devs/blnc_motor.cpp **** 			case State_ID::WS1:
  81:Core/Src/devs/blnc_motor.cpp **** 			{
  82:Core/Src/devs/blnc_motor.cpp **** 				// setDutyCycle(&gBallet.motor, bomega);	
  83:Core/Src/devs/blnc_motor.cpp **** 				// setDirection(&gBallet.motor, DIR_CLOCKWISE);
  84:Core/Src/devs/blnc_motor.cpp **** 				break;
  85:Core/Src/devs/blnc_motor.cpp **** 			}
  86:Core/Src/devs/blnc_motor.cpp **** 			case State_ID::WS2:
  87:Core/Src/devs/blnc_motor.cpp **** 			{
  88:Core/Src/devs/blnc_motor.cpp **** 				// setDutyCycle(&gBallet.motor, bomega);	
  89:Core/Src/devs/blnc_motor.cpp **** 				// setDirection(&gBallet.motor, DIR_CLOCKWISE);
  90:Core/Src/devs/blnc_motor.cpp **** 				break;
  91:Core/Src/devs/blnc_motor.cpp **** 			}
  92:Core/Src/devs/blnc_motor.cpp **** 			case State_ID::WS3:
  93:Core/Src/devs/blnc_motor.cpp **** 			{
  94:Core/Src/devs/blnc_motor.cpp **** 				// setDutyCycle(&gBallet.motor, bomega);	
  95:Core/Src/devs/blnc_motor.cpp **** 				// setDirection(&gBallet.motor, DIR_CLOCKWISE);
  96:Core/Src/devs/blnc_motor.cpp **** 				break;
  97:Core/Src/devs/blnc_motor.cpp **** 			}
  98:Core/Src/devs/blnc_motor.cpp **** 			case State_ID::WS4:
  99:Core/Src/devs/blnc_motor.cpp **** 			{
 100:Core/Src/devs/blnc_motor.cpp **** 				// setDutyCycle(&gBallet.motor, bomega);	
 101:Core/Src/devs/blnc_motor.cpp **** 				// setDirection(&gBallet.motor, DIR_CLOCKWISE);
 102:Core/Src/devs/blnc_motor.cpp **** 				break;
 103:Core/Src/devs/blnc_motor.cpp **** 			}
 104:Core/Src/devs/blnc_motor.cpp **** 		}
 105:Core/Src/devs/blnc_motor.cpp **** 		
 106:Core/Src/devs/blnc_motor.cpp **** 	}
 107:Core/Src/devs/blnc_motor.cpp **** 	
 108:Core/Src/devs/blnc_motor.cpp **** 	pid_corrector = PID_Compute(&gBallet.pid, 0, gOmega, 20);
 236              		.loc 1 108 0
 237 0016 1D4D     		ldr	r5, .L13
 238 0018 9FED1E8A 		vldr.32	s16, .L13+8
 239 001c 1E4C     		ldr	r4, .L13+12
ARM GAS  C:\Users\Prashant\AppData\Local\Temp\ccU16D20.s 			page 7


 240 001e 1421     		movs	r1, #20
 241 0020 D5ED000A 		vldr.32	s1, [r5]
 242 0024 B0EE480A 		vmov.f32	s0, s16
 243 0028 04F16800 		add	r0, r4, #104
 244 002c FFF7FEFF 		bl	_Z11PID_ComputeP6pidStrfft
 245              	.LVL9:
 109:Core/Src/devs/blnc_motor.cpp **** 	gBallet.motor.update_omega = pid_corrector * 14 / 17;
 246              		.loc 1 109 0
 247 0030 B2EE0C7A 		vmov.f32	s14, #1.4e+1
 248 0034 20EE077A 		vmul.f32	s14, s0, s14
 249 0038 F3EE016A 		vmov.f32	s13, #1.7e+1
 250 003c C7EE267A 		vdiv.f32	s15, s14, s13
 251 0040 C4ED047A 		vstr.32	s15, [r4, #16]
 110:Core/Src/devs/blnc_motor.cpp **** 	printf("gOmega = %d \t omega = %d \t corrector = %d \n",(int)gOmega * 100 , (int)gBallet.motor.upd
 252              		.loc 1 110 0
 253 0044 95ED007A 		vldr.32	s14, [r5]
 254 0048 BDEEC77A 		vcvt.s32.f32	s14, s14
 255 004c FDEEE77A 		vcvt.s32.f32	s15, s15
 256 0050 17EE902A 		vmov	r2, s15	@ int
 257 0054 FDEEC07A 		vcvt.s32.f32	s15, s0
 258 0058 17EE903A 		vmov	r3, s15	@ int
 259 005c 6421     		movs	r1, #100
 260 005e 01FB03F3 		mul	r3, r1, r3
 261 0062 01FB02F2 		mul	r2, r1, r2
 262 0066 17EE100A 		vmov	r0, s14	@ int
 263 006a 01FB00F1 		mul	r1, r1, r0
 264 006e 0B48     		ldr	r0, .L13+16
 265 0070 FFF7FEFF 		bl	printf
 266              	.LVL10:
 111:Core/Src/devs/blnc_motor.cpp **** 	setbOmega(&gBallet.motor,0);
 267              		.loc 1 111 0
 268 0074 B0EE480A 		vmov.f32	s0, s16
 269 0078 2046     		mov	r0, r4
 270 007a FFF7FEFF 		bl	_Z9setbOmegaP8motorStrf
 271              	.LVL11:
 112:Core/Src/devs/blnc_motor.cpp **** 	
 113:Core/Src/devs/blnc_motor.cpp **** }...
 272              		.loc 1 113 0
 273 007e BDEC028B 		vldm	sp!, {d8}
 274              	.LCFI4:
 275              		.cfi_remember_state
 276              		.cfi_restore 80
 277              		.cfi_restore 81
 278              		.cfi_def_cfa_offset 16
 279 0082 38BD     		pop	{r3, r4, r5, pc}
 280              	.LVL12:
 281              	.L12:
 282              	.LCFI5:
 283              		.cfi_restore_state
  74:Core/Src/devs/blnc_motor.cpp **** 		switch (gHorse_State.get_ID())
 284              		.loc 1 74 0
 285 0084 0648     		ldr	r0, .L13+20
 286 0086 FFF7FEFF 		bl	_ZN5State6get_IDEv
 287              	.LVL13:
 288 008a C4E7     		b	.L10
 289              	.L14:
 290              		.align	2
ARM GAS  C:\Users\Prashant\AppData\Local\Temp\ccU16D20.s 			page 8


 291              	.L13:
 292 008c 00000000 		.word	.LANCHOR2
 293 0090 00000000 		.word	.LANCHOR3
 294 0094 00000000 		.word	0
 295 0098 00000000 		.word	.LANCHOR0
 296 009c 00000000 		.word	.LC0
 297 00a0 00000000 		.word	gHorse_State
 298              		.cfi_endproc
 299              	.LFE138:
 301              		.global	bomega
 302              		.global	gBallet
 303              		.global	gReady_To_Go
 304              		.global	gOmega
 305              		.global	gCounter
 306              		.section	.bss.gBallet,"aw",%nobits
 307              		.align	3
 308              		.set	.LANCHOR0,. + 0
 311              	gBallet:
 312 0000 00000000 		.space	160
 312      00000000 
 312      00000000 
 312      00000000 
 312      00000000 
 313              		.section	.bss.gCounter,"aw",%nobits
 314              		.align	1
 315              		.set	.LANCHOR1,. + 0
 318              	gCounter:
 319 0000 0000     		.space	2
 320              		.section	.bss.gOmega,"aw",%nobits
 321              		.align	2
 322              		.set	.LANCHOR2,. + 0
 325              	gOmega:
 326 0000 00000000 		.space	4
 327              		.section	.bss.gReady_To_Go,"aw",%nobits
 328              		.set	.LANCHOR3,. + 0
 331              	gReady_To_Go:
 332 0000 00       		.space	1
 333              		.section	.data.bomega,"aw",%progbits
 334              		.align	1
 337              	bomega:
 338 0000 0400     		.short	4
 339              		.section	.rodata._Z12balance_Loopv.str1.4,"aMS",%progbits,1
 340              		.align	2
 341              	.LC0:
 342 0000 674F6D65 		.ascii	"gOmega = %d \011 omega = %d \011 corrector = %d \012"
 342      6761203D 
 342      20256420 
 342      09206F6D 
 342      65676120 
 343 002b 00       		.ascii	"\000"
 344              		.text
 345              	.Letext0:
 346              		.file 2 "c:\\program files (x86)\\gnu tools arm embedded\\7 2017-q4-major\\arm-none-eabi\\include\
 347              		.file 3 "c:\\program files (x86)\\gnu tools arm embedded\\7 2017-q4-major\\arm-none-eabi\\include\
 348              		.file 4 "C:/Users/Prashant/STM32Cube/Repository/STM32Cube_FW_F4_V1.23.0/Drivers/CMSIS/Include/core
 349              		.file 5 "C:/Users/Prashant/STM32Cube/Repository/STM32Cube_FW_F4_V1.23.0/Drivers/CMSIS/Device/ST/ST
 350              		.file 6 "C:/Users/Prashant/STM32Cube/Repository/STM32Cube_FW_F4_V1.23.0/Drivers/CMSIS/Device/ST/ST
ARM GAS  C:\Users\Prashant\AppData\Local\Temp\ccU16D20.s 			page 9


 351              		.file 7 "C:/Users/Prashant/STM32Cube/Repository/STM32Cube_FW_F4_V1.23.0/Drivers/CMSIS/Device/ST/ST
 352              		.file 8 "c:\\program files (x86)\\gnu tools arm embedded\\7 2017-q4-major\\arm-none-eabi\\include\
 353              		.file 9 "c:\\program files (x86)\\gnu tools arm embedded\\7 2017-q4-major\\arm-none-eabi\\include\
 354              		.file 10 "c:\\program files (x86)\\gnu tools arm embedded\\7 2017-q4-major\\lib\\gcc\\arm-none-eab
 355              		.file 11 "c:\\program files (x86)\\gnu tools arm embedded\\7 2017-q4-major\\arm-none-eabi\\include
 356              		.file 12 "C:/Users/Prashant/STM32Cube/Repository/STM32Cube_FW_F4_V1.23.0/Drivers/STM32F4xx_HAL_Dri
 357              		.file 13 "C:/Users/Prashant/STM32Cube/Repository/STM32Cube_FW_F4_V1.23.0/Drivers/STM32F4xx_HAL_Dri
 358              		.file 14 "C:/Users/Prashant/STM32Cube/Repository/STM32Cube_FW_F4_V1.23.0/Drivers/STM32F4xx_HAL_Dri
 359              		.file 15 "C:/Users/Prashant/STM32Cube/Repository/STM32Cube_FW_F4_V1.23.0/Drivers/STM32F4xx_HAL_Dri
 360              		.file 16 "Core/Inc/periphs/tim.h"
 361              		.file 17 "Core/Inc/devs/encoder.h"
 362              		.file 18 "Core/Inc/devs/motor.h"
 363              		.file 19 "Core/Inc/robot/interrupt.h"
 364              		.file 20 "Core/Inc/utils/pid.h"
 365              		.file 21 "Core/Inc/devs/blnc_motor.h"
 366              		.file 22 "Core/Inc/robot/robo_states.h"
 367              		.file 23 "c:\\program files (x86)\\gnu tools arm embedded\\7 2017-q4-major\\arm-none-eabi\\include
ARM GAS  C:\Users\Prashant\AppData\Local\Temp\ccU16D20.s 			page 10

