ARM GAS  C:\Users\Prashant\AppData\Local\Temp\ccMyhpfp.s 			page 1


   1              		.cpu cortex-m4
   2              		.eabi_attribute 27, 1
   3              		.eabi_attribute 28, 1
   4              		.eabi_attribute 20, 1
   5              		.eabi_attribute 21, 1
   6              		.eabi_attribute 23, 3
   7              		.eabi_attribute 24, 1
   8              		.eabi_attribute 25, 1
   9              		.eabi_attribute 26, 1
  10              		.eabi_attribute 30, 1
  11              		.eabi_attribute 34, 1
  12              		.eabi_attribute 18, 4
  13              		.file	"interrupt.cpp"
  14              		.text
  15              	.Ltext0:
  16              		.cfi_sections	.debug_frame
  17              		.section	.text.HAL_GPIO_EXTI_Callback,"ax",%progbits
  18              		.align	1
  19              		.global	HAL_GPIO_EXTI_Callback
  20              		.syntax unified
  21              		.thumb
  22              		.thumb_func
  23              		.fpu fpv4-sp-d16
  25              	HAL_GPIO_EXTI_Callback:
  26              	.LFB136:
  27              		.file 1 "Core/Src/robot/interrupt.cpp"
   1:Core/Src/robot/interrupt.cpp **** /*1-27-2019*/
   2:Core/Src/robot/interrupt.cpp **** 
   3:Core/Src/robot/interrupt.cpp **** #include "interrupt.h"
   4:Core/Src/robot/interrupt.cpp **** #include "robo_init.h"
   5:Core/Src/robot/interrupt.cpp **** #include "blnc_motor.h"
   6:Core/Src/robot/interrupt.cpp **** #include "robo_states.h"
   7:Core/Src/robot/interrupt.cpp **** 
   8:Core/Src/robot/interrupt.cpp **** // void Balance_Handle_Interrupt(uint16_t GPIO_Pin);
   9:Core/Src/robot/interrupt.cpp **** 
  10:Core/Src/robot/interrupt.cpp **** extern State gHorse_State;
  11:Core/Src/robot/interrupt.cpp **** extern Blnc gBallet;
  12:Core/Src/robot/interrupt.cpp **** extern bool gReady_To_Go;
  13:Core/Src/robot/interrupt.cpp **** extern int16_t gCounter;
  14:Core/Src/robot/interrupt.cpp **** extern uint16_t bomega;
  15:Core/Src/robot/interrupt.cpp **** 
  16:Core/Src/robot/interrupt.cpp **** //! This is dangerous
  17:Core/Src/robot/interrupt.cpp **** State_ID gCurrent_Position = State_ID::WS3;
  18:Core/Src/robot/interrupt.cpp **** 
  19:Core/Src/robot/interrupt.cpp **** static bool gFirst_Home_Interrupt = true;
  20:Core/Src/robot/interrupt.cpp **** 
  21:Core/Src/robot/interrupt.cpp **** void HAL_GPIO_EXTI_Callback(uint16_t GPIO_PIN)
  22:Core/Src/robot/interrupt.cpp **** {
  28              		.loc 1 22 0
  29              		.cfi_startproc
  30              		@ args = 0, pretend = 0, frame = 0
  31              		@ frame_needed = 0, uses_anonymous_args = 0
  32              	.LVL0:
  33 0000 10B5     		push	{r4, lr}
  34              	.LCFI0:
  35              		.cfi_def_cfa_offset 8
  36              		.cfi_offset 4, -8
ARM GAS  C:\Users\Prashant\AppData\Local\Temp\ccMyhpfp.s 			page 2


  37              		.cfi_offset 14, -4
  38 0002 0446     		mov	r4, r0
  23:Core/Src/robot/interrupt.cpp ****         if (GPIO_PIN == int_arr[0].int_pin)
  39              		.loc 1 23 0
  40 0004 6D4B     		ldr	r3, .L41
  41 0006 1B89     		ldrh	r3, [r3, #8]
  42 0008 8342     		cmp	r3, r0
  43 000a 26D0     		beq	.L24
  44              	.LVL1:
  45              	.L2:
  24:Core/Src/robot/interrupt.cpp ****         {
  25:Core/Src/robot/interrupt.cpp ****                 printf("Motor_1 \n");
  26:Core/Src/robot/interrupt.cpp ****                 if (int_arr[0].intState == STATE_B)
  27:Core/Src/robot/interrupt.cpp ****                 {
  28:Core/Src/robot/interrupt.cpp ****                         int_arr[0].intState = STATE_A;
  29:Core/Src/robot/interrupt.cpp ****                 }
  30:Core/Src/robot/interrupt.cpp ****                 else if (int_arr[0].intState == STATE_HOME)
  31:Core/Src/robot/interrupt.cpp ****                 {
  32:Core/Src/robot/interrupt.cpp ****                         int_arr[0].fhome_pos = 1;
  33:Core/Src/robot/interrupt.cpp ****                 }
  34:Core/Src/robot/interrupt.cpp ****         }
  35:Core/Src/robot/interrupt.cpp **** 
  36:Core/Src/robot/interrupt.cpp ****         if (GPIO_PIN == int_arr[1].int_pin)
  46              		.loc 1 36 0
  47 000c 6B4B     		ldr	r3, .L41
  48 000e 9B8A     		ldrh	r3, [r3, #20]
  49 0010 A342     		cmp	r3, r4
  50 0012 33D0     		beq	.L25
  51              	.L4:
  37:Core/Src/robot/interrupt.cpp ****         {
  38:Core/Src/robot/interrupt.cpp ****                 printf("Motor_2 \n");
  39:Core/Src/robot/interrupt.cpp ****                 if (int_arr[1].intState == STATE_B)
  40:Core/Src/robot/interrupt.cpp ****                 {
  41:Core/Src/robot/interrupt.cpp ****                         int_arr[1].intState = STATE_A;
  42:Core/Src/robot/interrupt.cpp ****                 }
  43:Core/Src/robot/interrupt.cpp ****                 else if (int_arr[1].intState == STATE_HOME)
  44:Core/Src/robot/interrupt.cpp ****                 {
  45:Core/Src/robot/interrupt.cpp ****                         int_arr[1].fhome_pos = 1;
  46:Core/Src/robot/interrupt.cpp ****                 }
  47:Core/Src/robot/interrupt.cpp ****         }
  48:Core/Src/robot/interrupt.cpp **** 
  49:Core/Src/robot/interrupt.cpp ****         if (GPIO_PIN == int_arr[2].int_pin)
  52              		.loc 1 49 0
  53 0014 694B     		ldr	r3, .L41
  54 0016 1B8C     		ldrh	r3, [r3, #32]
  55 0018 A342     		cmp	r3, r4
  56 001a 40D0     		beq	.L26
  57              	.L6:
  50:Core/Src/robot/interrupt.cpp ****         {
  51:Core/Src/robot/interrupt.cpp ****                 printf("Motor_3 \n");
  52:Core/Src/robot/interrupt.cpp ****                 if (int_arr[2].intState == STATE_B)
  53:Core/Src/robot/interrupt.cpp ****                 {
  54:Core/Src/robot/interrupt.cpp ****                         int_arr[2].intState = STATE_A;
  55:Core/Src/robot/interrupt.cpp ****                 }
  56:Core/Src/robot/interrupt.cpp ****                 else if (int_arr[2].intState == STATE_HOME)
  57:Core/Src/robot/interrupt.cpp ****                 {
  58:Core/Src/robot/interrupt.cpp ****                         int_arr[2].fhome_pos = 1;
ARM GAS  C:\Users\Prashant\AppData\Local\Temp\ccMyhpfp.s 			page 3


  59:Core/Src/robot/interrupt.cpp ****                 }
  60:Core/Src/robot/interrupt.cpp ****         }
  61:Core/Src/robot/interrupt.cpp **** 
  62:Core/Src/robot/interrupt.cpp ****         if (GPIO_PIN == int_arr[3].int_pin)
  58              		.loc 1 62 0
  59 001c 674B     		ldr	r3, .L41
  60 001e 9B8D     		ldrh	r3, [r3, #44]
  61 0020 A342     		cmp	r3, r4
  62 0022 4FD0     		beq	.L27
  63              	.L8:
  63:Core/Src/robot/interrupt.cpp ****         {
  64:Core/Src/robot/interrupt.cpp ****                 printf("Motor_4 \n");
  65:Core/Src/robot/interrupt.cpp ****                 if (int_arr[3].intState == STATE_B)
  66:Core/Src/robot/interrupt.cpp ****                 {
  67:Core/Src/robot/interrupt.cpp ****                         int_arr[3].intState = STATE_A;
  68:Core/Src/robot/interrupt.cpp ****                 }
  69:Core/Src/robot/interrupt.cpp ****                 else if (int_arr[3].intState == STATE_HOME)
  70:Core/Src/robot/interrupt.cpp ****                 {
  71:Core/Src/robot/interrupt.cpp ****                         int_arr[3].fhome_pos = 1;
  72:Core/Src/robot/interrupt.cpp ****                 }
  73:Core/Src/robot/interrupt.cpp ****         }
  74:Core/Src/robot/interrupt.cpp **** 
  75:Core/Src/robot/interrupt.cpp ****         if (GPIO_PIN == GPIO_PIN_0) //blnc_motor_chA_Pin == D0
  64              		.loc 1 75 0
  65 0024 012C     		cmp	r4, #1
  66 0026 61D0     		beq	.L28
  67              	.L10:
  76:Core/Src/robot/interrupt.cpp ****         {
  77:Core/Src/robot/interrupt.cpp ****                 if (HAL_GPIO_ReadPin(GPIOD, GPIO_PIN_2)) //blnc_motor_chB_Port-pin == D2
  78:Core/Src/robot/interrupt.cpp ****                 {
  79:Core/Src/robot/interrupt.cpp **** 			++gCounter;
  80:Core/Src/robot/interrupt.cpp ****                 }
  81:Core/Src/robot/interrupt.cpp ****                 else
  82:Core/Src/robot/interrupt.cpp ****                 {
  83:Core/Src/robot/interrupt.cpp ****                         --gCounter;
  84:Core/Src/robot/interrupt.cpp ****                 }
  85:Core/Src/robot/interrupt.cpp ****                
  86:Core/Src/robot/interrupt.cpp **** 	}
  87:Core/Src/robot/interrupt.cpp **** 	if(!gReady_To_Go)
  68              		.loc 1 87 0
  69 0028 654B     		ldr	r3, .L41+4
  70 002a 1B78     		ldrb	r3, [r3]	@ zero_extendqisi2
  71 002c A3B9     		cbnz	r3, .L1
  88:Core/Src/robot/interrupt.cpp **** 	{
  89:Core/Src/robot/interrupt.cpp ****         	if (GPIO_PIN == gBallet.interrupt[0].int_pin)
  72              		.loc 1 89 0
  73 002e 654B     		ldr	r3, .L41+8
  74 0030 9B8F     		ldrh	r3, [r3, #60]
  75 0032 A342     		cmp	r3, r4
  76 0034 69D0     		beq	.L29
  77              	.L13:
  90:Core/Src/robot/interrupt.cpp ****         	{
  91:Core/Src/robot/interrupt.cpp ****         	        if (gHorse_State.get_ID() == State_ID::WS3)
  92:Core/Src/robot/interrupt.cpp ****         	        {
  93:Core/Src/robot/interrupt.cpp ****         	                gCurrent_Position = State_ID::WS3;
  94:Core/Src/robot/interrupt.cpp ****         	                bomega = 0;
  95:Core/Src/robot/interrupt.cpp **** 				gReady_To_Go = true;
ARM GAS  C:\Users\Prashant\AppData\Local\Temp\ccMyhpfp.s 			page 4


  96:Core/Src/robot/interrupt.cpp ****         	        }
  97:Core/Src/robot/interrupt.cpp **** 			printf("A\n");
  98:Core/Src/robot/interrupt.cpp ****         	}
  99:Core/Src/robot/interrupt.cpp ****         	if (GPIO_PIN == gBallet.interrupt[1].int_pin)
  78              		.loc 1 99 0
  79 0036 634B     		ldr	r3, .L41+8
  80 0038 B3F84830 		ldrh	r3, [r3, #72]
  81 003c A342     		cmp	r3, r4
  82 003e 77D0     		beq	.L30
  83              	.L15:
 100:Core/Src/robot/interrupt.cpp ****         	{
 101:Core/Src/robot/interrupt.cpp ****         	        if (gHorse_State.get_ID() == State_ID::WS4)
 102:Core/Src/robot/interrupt.cpp ****         	        {
 103:Core/Src/robot/interrupt.cpp ****         	                gCurrent_Position = State_ID::WS4;
 104:Core/Src/robot/interrupt.cpp ****         	                bomega = 0;
 105:Core/Src/robot/interrupt.cpp **** 				gReady_To_Go = true;
 106:Core/Src/robot/interrupt.cpp ****         	        }
 107:Core/Src/robot/interrupt.cpp **** 			printf("B\n");
 108:Core/Src/robot/interrupt.cpp ****         	}
 109:Core/Src/robot/interrupt.cpp ****         	if (GPIO_PIN == gBallet.interrupt[2].int_pin)
  84              		.loc 1 109 0
  85 0040 604B     		ldr	r3, .L41+8
  86 0042 B3F85430 		ldrh	r3, [r3, #84]
  87 0046 A342     		cmp	r3, r4
  88 0048 00F08580 		beq	.L31
  89              	.L17:
 110:Core/Src/robot/interrupt.cpp ****         	{
 111:Core/Src/robot/interrupt.cpp ****         	        if ((gHorse_State.get_ID() == State_ID::HOME) || (gHorse_State.get_ID() == State_I
 112:Core/Src/robot/interrupt.cpp ****         	        {
 113:Core/Src/robot/interrupt.cpp ****         	                if (gFirst_Home_Interrupt)
 114:Core/Src/robot/interrupt.cpp ****         	                {
 115:Core/Src/robot/interrupt.cpp ****         	                        gFirst_Home_Interrupt = false;
 116:Core/Src/robot/interrupt.cpp ****         	                        gCurrent_Position = State_ID::HOME;
 117:Core/Src/robot/interrupt.cpp ****         	                }
 118:Core/Src/robot/interrupt.cpp ****         	                else
 119:Core/Src/robot/interrupt.cpp ****         	                {
 120:Core/Src/robot/interrupt.cpp ****         	                        gCurrent_Position = State_ID::WS1;
 121:Core/Src/robot/interrupt.cpp ****         	                }
 122:Core/Src/robot/interrupt.cpp ****         	                bomega = 0;
 123:Core/Src/robot/interrupt.cpp **** 				gReady_To_Go = true;
 124:Core/Src/robot/interrupt.cpp ****         	        }
 125:Core/Src/robot/interrupt.cpp ****         	        printf("C\n");
 126:Core/Src/robot/interrupt.cpp ****         	}
 127:Core/Src/robot/interrupt.cpp **** 
 128:Core/Src/robot/interrupt.cpp ****         	if (GPIO_PIN == gBallet.interrupt[3].int_pin)
  90              		.loc 1 128 0
  91 004c 5D4B     		ldr	r3, .L41+8
  92 004e B3F86030 		ldrh	r3, [r3, #96]
  93 0052 A342     		cmp	r3, r4
  94 0054 00F09F80 		beq	.L32
  95              	.L1:
 129:Core/Src/robot/interrupt.cpp ****         	{
 130:Core/Src/robot/interrupt.cpp ****         	        if (gHorse_State.get_ID() == State_ID::WS2)
 131:Core/Src/robot/interrupt.cpp ****         	        {
 132:Core/Src/robot/interrupt.cpp ****         	                gCurrent_Position = State_ID::WS2;
 133:Core/Src/robot/interrupt.cpp ****         	                bomega = 0;
 134:Core/Src/robot/interrupt.cpp **** 				gReady_To_Go = true;
ARM GAS  C:\Users\Prashant\AppData\Local\Temp\ccMyhpfp.s 			page 5


 135:Core/Src/robot/interrupt.cpp ****         	        }
 136:Core/Src/robot/interrupt.cpp ****         	        printf("D\n");
 137:Core/Src/robot/interrupt.cpp ****         	}
 138:Core/Src/robot/interrupt.cpp **** 	}
 139:Core/Src/robot/interrupt.cpp **** }
  96              		.loc 1 139 0
  97 0058 10BD     		pop	{r4, pc}
  98              	.LVL2:
  99              	.L24:
  25:Core/Src/robot/interrupt.cpp ****                 if (int_arr[0].intState == STATE_B)
 100              		.loc 1 25 0
 101 005a 5B48     		ldr	r0, .L41+12
 102              	.LVL3:
 103 005c FFF7FEFF 		bl	puts
 104              	.LVL4:
  26:Core/Src/robot/interrupt.cpp ****                 {
 105              		.loc 1 26 0
 106 0060 564B     		ldr	r3, .L41
 107 0062 9B7A     		ldrb	r3, [r3, #10]	@ zero_extendqisi2
 108 0064 012B     		cmp	r3, #1
 109 0066 05D0     		beq	.L33
  30:Core/Src/robot/interrupt.cpp ****                 {
 110              		.loc 1 30 0
 111 0068 022B     		cmp	r3, #2
 112 006a CFD1     		bne	.L2
  32:Core/Src/robot/interrupt.cpp ****                 }
 113              		.loc 1 32 0
 114 006c 534B     		ldr	r3, .L41
 115 006e 0122     		movs	r2, #1
 116 0070 5A70     		strb	r2, [r3, #1]
 117 0072 CBE7     		b	.L2
 118              	.L33:
  28:Core/Src/robot/interrupt.cpp ****                 }
 119              		.loc 1 28 0
 120 0074 514B     		ldr	r3, .L41
 121 0076 0022     		movs	r2, #0
 122 0078 9A72     		strb	r2, [r3, #10]
 123 007a C7E7     		b	.L2
 124              	.L25:
  38:Core/Src/robot/interrupt.cpp ****                 if (int_arr[1].intState == STATE_B)
 125              		.loc 1 38 0
 126 007c 5348     		ldr	r0, .L41+16
 127 007e FFF7FEFF 		bl	puts
 128              	.LVL5:
  39:Core/Src/robot/interrupt.cpp ****                 {
 129              		.loc 1 39 0
 130 0082 4E4B     		ldr	r3, .L41
 131 0084 9B7D     		ldrb	r3, [r3, #22]	@ zero_extendqisi2
 132 0086 012B     		cmp	r3, #1
 133 0088 05D0     		beq	.L34
  43:Core/Src/robot/interrupt.cpp ****                 {
 134              		.loc 1 43 0
 135 008a 022B     		cmp	r3, #2
 136 008c C2D1     		bne	.L4
  45:Core/Src/robot/interrupt.cpp ****                 }
 137              		.loc 1 45 0
 138 008e 4B4B     		ldr	r3, .L41
ARM GAS  C:\Users\Prashant\AppData\Local\Temp\ccMyhpfp.s 			page 6


 139 0090 0122     		movs	r2, #1
 140 0092 5A73     		strb	r2, [r3, #13]
 141 0094 BEE7     		b	.L4
 142              	.L34:
  41:Core/Src/robot/interrupt.cpp ****                 }
 143              		.loc 1 41 0
 144 0096 494B     		ldr	r3, .L41
 145 0098 0022     		movs	r2, #0
 146 009a 9A75     		strb	r2, [r3, #22]
 147 009c BAE7     		b	.L4
 148              	.L26:
  51:Core/Src/robot/interrupt.cpp ****                 if (int_arr[2].intState == STATE_B)
 149              		.loc 1 51 0
 150 009e 4C48     		ldr	r0, .L41+20
 151 00a0 FFF7FEFF 		bl	puts
 152              	.LVL6:
  52:Core/Src/robot/interrupt.cpp ****                 {
 153              		.loc 1 52 0
 154 00a4 454B     		ldr	r3, .L41
 155 00a6 93F82230 		ldrb	r3, [r3, #34]	@ zero_extendqisi2
 156 00aa 012B     		cmp	r3, #1
 157 00ac 05D0     		beq	.L35
  56:Core/Src/robot/interrupt.cpp ****                 {
 158              		.loc 1 56 0
 159 00ae 022B     		cmp	r3, #2
 160 00b0 B4D1     		bne	.L6
  58:Core/Src/robot/interrupt.cpp ****                 }
 161              		.loc 1 58 0
 162 00b2 424B     		ldr	r3, .L41
 163 00b4 0122     		movs	r2, #1
 164 00b6 5A76     		strb	r2, [r3, #25]
 165 00b8 B0E7     		b	.L6
 166              	.L35:
  54:Core/Src/robot/interrupt.cpp ****                 }
 167              		.loc 1 54 0
 168 00ba 404B     		ldr	r3, .L41
 169 00bc 0022     		movs	r2, #0
 170 00be 83F82220 		strb	r2, [r3, #34]
 171 00c2 ABE7     		b	.L6
 172              	.L27:
  64:Core/Src/robot/interrupt.cpp ****                 if (int_arr[3].intState == STATE_B)
 173              		.loc 1 64 0
 174 00c4 4348     		ldr	r0, .L41+24
 175 00c6 FFF7FEFF 		bl	puts
 176              	.LVL7:
  65:Core/Src/robot/interrupt.cpp ****                 {
 177              		.loc 1 65 0
 178 00ca 3C4B     		ldr	r3, .L41
 179 00cc 93F82E30 		ldrb	r3, [r3, #46]	@ zero_extendqisi2
 180 00d0 012B     		cmp	r3, #1
 181 00d2 06D0     		beq	.L36
  69:Core/Src/robot/interrupt.cpp ****                 {
 182              		.loc 1 69 0
 183 00d4 022B     		cmp	r3, #2
 184 00d6 A5D1     		bne	.L8
  71:Core/Src/robot/interrupt.cpp ****                 }
 185              		.loc 1 71 0
ARM GAS  C:\Users\Prashant\AppData\Local\Temp\ccMyhpfp.s 			page 7


 186 00d8 384B     		ldr	r3, .L41
 187 00da 0122     		movs	r2, #1
 188 00dc 83F82520 		strb	r2, [r3, #37]
 189 00e0 A0E7     		b	.L8
 190              	.L36:
  67:Core/Src/robot/interrupt.cpp ****                 }
 191              		.loc 1 67 0
 192 00e2 364B     		ldr	r3, .L41
 193 00e4 0022     		movs	r2, #0
 194 00e6 83F82E20 		strb	r2, [r3, #46]
 195 00ea 9BE7     		b	.L8
 196              	.L28:
  77:Core/Src/robot/interrupt.cpp ****                 {
 197              		.loc 1 77 0
 198 00ec 0421     		movs	r1, #4
 199 00ee 3A48     		ldr	r0, .L41+28
 200 00f0 FFF7FEFF 		bl	HAL_GPIO_ReadPin
 201              	.LVL8:
 202 00f4 20B1     		cbz	r0, .L11
  79:Core/Src/robot/interrupt.cpp ****                 }
 203              		.loc 1 79 0
 204 00f6 394A     		ldr	r2, .L41+32
 205 00f8 1388     		ldrh	r3, [r2]
 206 00fa 0133     		adds	r3, r3, #1
 207 00fc 1380     		strh	r3, [r2]	@ movhi
 208 00fe 93E7     		b	.L10
 209              	.L11:
  83:Core/Src/robot/interrupt.cpp ****                 }
 210              		.loc 1 83 0
 211 0100 364A     		ldr	r2, .L41+32
 212 0102 1388     		ldrh	r3, [r2]
 213 0104 013B     		subs	r3, r3, #1
 214 0106 1380     		strh	r3, [r2]	@ movhi
 215 0108 8EE7     		b	.L10
 216              	.L29:
  91:Core/Src/robot/interrupt.cpp ****         	        {
 217              		.loc 1 91 0
 218 010a 3548     		ldr	r0, .L41+36
 219 010c FFF7FEFF 		bl	_ZN5State6get_IDEv
 220              	.LVL9:
 221 0110 0328     		cmp	r0, #3
 222 0112 03D0     		beq	.L37
 223              	.L14:
  97:Core/Src/robot/interrupt.cpp ****         	}
 224              		.loc 1 97 0
 225 0114 3348     		ldr	r0, .L41+40
 226 0116 FFF7FEFF 		bl	puts
 227              	.LVL10:
 228 011a 8CE7     		b	.L13
 229              	.L37:
  93:Core/Src/robot/interrupt.cpp ****         	                bomega = 0;
 230              		.loc 1 93 0
 231 011c 324B     		ldr	r3, .L41+44
 232 011e 0322     		movs	r2, #3
 233 0120 1A60     		str	r2, [r3]
  94:Core/Src/robot/interrupt.cpp **** 				gReady_To_Go = true;
 234              		.loc 1 94 0
ARM GAS  C:\Users\Prashant\AppData\Local\Temp\ccMyhpfp.s 			page 8


 235 0122 324B     		ldr	r3, .L41+48
 236 0124 0022     		movs	r2, #0
 237 0126 1A80     		strh	r2, [r3]	@ movhi
  95:Core/Src/robot/interrupt.cpp ****         	        }
 238              		.loc 1 95 0
 239 0128 254B     		ldr	r3, .L41+4
 240 012a 0122     		movs	r2, #1
 241 012c 1A70     		strb	r2, [r3]
 242 012e F1E7     		b	.L14
 243              	.L30:
 101:Core/Src/robot/interrupt.cpp ****         	        {
 244              		.loc 1 101 0
 245 0130 2B48     		ldr	r0, .L41+36
 246 0132 FFF7FEFF 		bl	_ZN5State6get_IDEv
 247              	.LVL11:
 248 0136 0428     		cmp	r0, #4
 249 0138 03D0     		beq	.L38
 250              	.L16:
 107:Core/Src/robot/interrupt.cpp ****         	}
 251              		.loc 1 107 0
 252 013a 2D48     		ldr	r0, .L41+52
 253 013c FFF7FEFF 		bl	puts
 254              	.LVL12:
 255 0140 7EE7     		b	.L15
 256              	.L38:
 103:Core/Src/robot/interrupt.cpp ****         	                bomega = 0;
 257              		.loc 1 103 0
 258 0142 294B     		ldr	r3, .L41+44
 259 0144 0422     		movs	r2, #4
 260 0146 1A60     		str	r2, [r3]
 104:Core/Src/robot/interrupt.cpp **** 				gReady_To_Go = true;
 261              		.loc 1 104 0
 262 0148 284B     		ldr	r3, .L41+48
 263 014a 0022     		movs	r2, #0
 264 014c 1A80     		strh	r2, [r3]	@ movhi
 105:Core/Src/robot/interrupt.cpp ****         	        }
 265              		.loc 1 105 0
 266 014e 1C4B     		ldr	r3, .L41+4
 267 0150 0122     		movs	r2, #1
 268 0152 1A70     		strb	r2, [r3]
 269 0154 F1E7     		b	.L16
 270              	.L31:
 111:Core/Src/robot/interrupt.cpp ****         	        {
 271              		.loc 1 111 0
 272 0156 2248     		ldr	r0, .L41+36
 273 0158 FFF7FEFF 		bl	_ZN5State6get_IDEv
 274              	.LVL13:
 275 015c 88B9     		cbnz	r0, .L39
 276              	.L18:
 113:Core/Src/robot/interrupt.cpp ****         	                {
 277              		.loc 1 113 0 discriminator 3
 278 015e 254B     		ldr	r3, .L41+56
 279 0160 1B78     		ldrb	r3, [r3]	@ zero_extendqisi2
 280 0162 A3B1     		cbz	r3, .L20
 115:Core/Src/robot/interrupt.cpp ****         	                        gCurrent_Position = State_ID::HOME;
 281              		.loc 1 115 0
 282 0164 0023     		movs	r3, #0
ARM GAS  C:\Users\Prashant\AppData\Local\Temp\ccMyhpfp.s 			page 9


 283 0166 234A     		ldr	r2, .L41+56
 284 0168 1370     		strb	r3, [r2]
 116:Core/Src/robot/interrupt.cpp ****         	                }
 285              		.loc 1 116 0
 286 016a 1F4A     		ldr	r2, .L41+44
 287 016c 1360     		str	r3, [r2]
 288              	.L21:
 122:Core/Src/robot/interrupt.cpp **** 				gReady_To_Go = true;
 289              		.loc 1 122 0
 290 016e 1F4B     		ldr	r3, .L41+48
 291 0170 0022     		movs	r2, #0
 292 0172 1A80     		strh	r2, [r3]	@ movhi
 123:Core/Src/robot/interrupt.cpp ****         	        }
 293              		.loc 1 123 0
 294 0174 124B     		ldr	r3, .L41+4
 295 0176 0122     		movs	r2, #1
 296 0178 1A70     		strb	r2, [r3]
 297              	.L19:
 125:Core/Src/robot/interrupt.cpp ****         	}
 298              		.loc 1 125 0
 299 017a 1F48     		ldr	r0, .L41+60
 300 017c FFF7FEFF 		bl	puts
 301              	.LVL14:
 302 0180 64E7     		b	.L17
 303              	.L39:
 111:Core/Src/robot/interrupt.cpp ****         	        {
 304              		.loc 1 111 0 discriminator 2
 305 0182 1748     		ldr	r0, .L41+36
 306 0184 FFF7FEFF 		bl	_ZN5State6get_IDEv
 307              	.LVL15:
 308 0188 0128     		cmp	r0, #1
 309 018a F6D1     		bne	.L19
 310 018c E7E7     		b	.L18
 311              	.L20:
 120:Core/Src/robot/interrupt.cpp ****         	                }
 312              		.loc 1 120 0
 313 018e 164B     		ldr	r3, .L41+44
 314 0190 0122     		movs	r2, #1
 315 0192 1A60     		str	r2, [r3]
 316 0194 EBE7     		b	.L21
 317              	.L32:
 130:Core/Src/robot/interrupt.cpp ****         	        {
 318              		.loc 1 130 0
 319 0196 1248     		ldr	r0, .L41+36
 320 0198 FFF7FEFF 		bl	_ZN5State6get_IDEv
 321              	.LVL16:
 322 019c 0228     		cmp	r0, #2
 323 019e 03D0     		beq	.L40
 324              	.L22:
 136:Core/Src/robot/interrupt.cpp ****         	}
 325              		.loc 1 136 0
 326 01a0 1648     		ldr	r0, .L41+64
 327 01a2 FFF7FEFF 		bl	puts
 328              	.LVL17:
 329              		.loc 1 139 0
 330 01a6 57E7     		b	.L1
 331              	.L40:
ARM GAS  C:\Users\Prashant\AppData\Local\Temp\ccMyhpfp.s 			page 10


 132:Core/Src/robot/interrupt.cpp ****         	                bomega = 0;
 332              		.loc 1 132 0
 333 01a8 0F4B     		ldr	r3, .L41+44
 334 01aa 0222     		movs	r2, #2
 335 01ac 1A60     		str	r2, [r3]
 133:Core/Src/robot/interrupt.cpp **** 				gReady_To_Go = true;
 336              		.loc 1 133 0
 337 01ae 0F4B     		ldr	r3, .L41+48
 338 01b0 0022     		movs	r2, #0
 339 01b2 1A80     		strh	r2, [r3]	@ movhi
 134:Core/Src/robot/interrupt.cpp ****         	        }
 340              		.loc 1 134 0
 341 01b4 024B     		ldr	r3, .L41+4
 342 01b6 0122     		movs	r2, #1
 343 01b8 1A70     		strb	r2, [r3]
 344 01ba F1E7     		b	.L22
 345              	.L42:
 346              		.align	2
 347              	.L41:
 348 01bc 00000000 		.word	int_arr
 349 01c0 00000000 		.word	gReady_To_Go
 350 01c4 00000000 		.word	gBallet
 351 01c8 00000000 		.word	.LC0
 352 01cc 0C000000 		.word	.LC1
 353 01d0 18000000 		.word	.LC2
 354 01d4 24000000 		.word	.LC3
 355 01d8 000C0240 		.word	1073875968
 356 01dc 00000000 		.word	gCounter
 357 01e0 00000000 		.word	gHorse_State
 358 01e4 30000000 		.word	.LC4
 359 01e8 00000000 		.word	.LANCHOR0
 360 01ec 00000000 		.word	bomega
 361 01f0 34000000 		.word	.LC5
 362 01f4 00000000 		.word	.LANCHOR1
 363 01f8 38000000 		.word	.LC6
 364 01fc 3C000000 		.word	.LC7
 365              		.cfi_endproc
 366              	.LFE136:
 368              		.global	gCurrent_Position
 369              		.section	.data._ZL21gFirst_Home_Interrupt,"aw",%progbits
 370              		.set	.LANCHOR1,. + 0
 373              	_ZL21gFirst_Home_Interrupt:
 374 0000 01       		.byte	1
 375              		.section	.data.gCurrent_Position,"aw",%progbits
 376              		.align	2
 377              		.set	.LANCHOR0,. + 0
 380              	gCurrent_Position:
 381 0000 03000000 		.word	3
 382              		.section	.rodata.HAL_GPIO_EXTI_Callback.str1.4,"aMS",%progbits,1
 383              		.align	2
 384              	.LC0:
 385 0000 4D6F746F 		.ascii	"Motor_1 \000"
 385      725F3120 
 385      00
 386 0009 000000   		.space	3
 387              	.LC1:
 388 000c 4D6F746F 		.ascii	"Motor_2 \000"
ARM GAS  C:\Users\Prashant\AppData\Local\Temp\ccMyhpfp.s 			page 11


 388      725F3220 
 388      00
 389 0015 000000   		.space	3
 390              	.LC2:
 391 0018 4D6F746F 		.ascii	"Motor_3 \000"
 391      725F3320 
 391      00
 392 0021 000000   		.space	3
 393              	.LC3:
 394 0024 4D6F746F 		.ascii	"Motor_4 \000"
 394      725F3420 
 394      00
 395 002d 000000   		.space	3
 396              	.LC4:
 397 0030 4100     		.ascii	"A\000"
 398 0032 0000     		.space	2
 399              	.LC5:
 400 0034 4200     		.ascii	"B\000"
 401 0036 0000     		.space	2
 402              	.LC6:
 403 0038 4300     		.ascii	"C\000"
 404 003a 0000     		.space	2
 405              	.LC7:
 406 003c 4400     		.ascii	"D\000"
 407              		.text
 408              	.Letext0:
 409              		.file 2 "c:\\program files (x86)\\gnu tools arm embedded\\7 2017-q4-major\\arm-none-eabi\\include\
 410              		.file 3 "c:\\program files (x86)\\gnu tools arm embedded\\7 2017-q4-major\\arm-none-eabi\\include\
 411              		.file 4 "C:/Users/Prashant/STM32Cube/Repository/STM32Cube_FW_F4_V1.23.0/Drivers/CMSIS/Include/core
 412              		.file 5 "C:/Users/Prashant/STM32Cube/Repository/STM32Cube_FW_F4_V1.23.0/Drivers/CMSIS/Device/ST/ST
 413              		.file 6 "C:/Users/Prashant/STM32Cube/Repository/STM32Cube_FW_F4_V1.23.0/Drivers/CMSIS/Device/ST/ST
 414              		.file 7 "C:/Users/Prashant/STM32Cube/Repository/STM32Cube_FW_F4_V1.23.0/Drivers/CMSIS/Device/ST/ST
 415              		.file 8 "c:\\program files (x86)\\gnu tools arm embedded\\7 2017-q4-major\\arm-none-eabi\\include\
 416              		.file 9 "c:\\program files (x86)\\gnu tools arm embedded\\7 2017-q4-major\\arm-none-eabi\\include\
 417              		.file 10 "c:\\program files (x86)\\gnu tools arm embedded\\7 2017-q4-major\\lib\\gcc\\arm-none-eab
 418              		.file 11 "c:\\program files (x86)\\gnu tools arm embedded\\7 2017-q4-major\\arm-none-eabi\\include
 419              		.file 12 "C:/Users/Prashant/STM32Cube/Repository/STM32Cube_FW_F4_V1.23.0/Drivers/STM32F4xx_HAL_Dri
 420              		.file 13 "C:/Users/Prashant/STM32Cube/Repository/STM32Cube_FW_F4_V1.23.0/Drivers/STM32F4xx_HAL_Dri
 421              		.file 14 "C:/Users/Prashant/STM32Cube/Repository/STM32Cube_FW_F4_V1.23.0/Drivers/STM32F4xx_HAL_Dri
 422              		.file 15 "C:/Users/Prashant/STM32Cube/Repository/STM32Cube_FW_F4_V1.23.0/Drivers/STM32F4xx_HAL_Dri
 423              		.file 16 "Core/Inc/robot/interrupt.h"
 424              		.file 17 "Core/Inc/periphs/tim.h"
 425              		.file 18 "Core/Inc/robot/feed_forward.h"
 426              		.file 19 "Core/Inc/devs/encoder.h"
 427              		.file 20 "Core/Inc/devs/motor.h"
 428              		.file 21 "Core/Inc/utils/pid.h"
 429              		.file 22 "Core/Inc/robot/fsm.h"
 430              		.file 23 "Core/Inc/robot/robo_init.h"
 431              		.file 24 "Core/Inc/devs/blnc_motor.h"
 432              		.file 25 "Core/Inc/robot/robo_states.h"
 433              		.file 26 "C:/Users/Prashant/STM32Cube/Repository/STM32Cube_FW_F4_V1.23.0/Drivers/STM32F4xx_HAL_Dri
ARM GAS  C:\Users\Prashant\AppData\Local\Temp\ccMyhpfp.s 			page 12


DEFINED SYMBOLS
                            *ABS*:00000000 interrupt.cpp
C:\Users\Prashant\AppData\Local\Temp\ccMyhpfp.s:18     .text.HAL_GPIO_EXTI_Callback:00000000 $t
C:\Users\Prashant\AppData\Local\Temp\ccMyhpfp.s:25     .text.HAL_GPIO_EXTI_Callback:00000000 HAL_GPIO_EXTI_Callback
C:\Users\Prashant\AppData\Local\Temp\ccMyhpfp.s:348    .text.HAL_GPIO_EXTI_Callback:000001bc $d
C:\Users\Prashant\AppData\Local\Temp\ccMyhpfp.s:380    .data.gCurrent_Position:00000000 gCurrent_Position
C:\Users\Prashant\AppData\Local\Temp\ccMyhpfp.s:373    .data._ZL21gFirst_Home_Interrupt:00000000 _ZL21gFirst_Home_Interrupt
C:\Users\Prashant\AppData\Local\Temp\ccMyhpfp.s:376    .data.gCurrent_Position:00000000 $d
C:\Users\Prashant\AppData\Local\Temp\ccMyhpfp.s:383    .rodata.HAL_GPIO_EXTI_Callback.str1.4:00000000 $d

UNDEFINED SYMBOLS
puts
HAL_GPIO_ReadPin
_ZN5State6get_IDEv
int_arr
gReady_To_Go
gBallet
gCounter
gHorse_State
bomega
