ARM GAS  C:\Users\Prashant\AppData\Local\Temp\ccCbpvrJ.s 			page 1


   1              		.cpu cortex-m4
   2              		.eabi_attribute 27, 1
   3              		.eabi_attribute 28, 1
   4              		.eabi_attribute 20, 1
   5              		.eabi_attribute 21, 1
   6              		.eabi_attribute 23, 3
   7              		.eabi_attribute 24, 1
   8              		.eabi_attribute 25, 1
   9              		.eabi_attribute 26, 1
  10              		.eabi_attribute 30, 1
  11              		.eabi_attribute 34, 1
  12              		.eabi_attribute 18, 4
  13              		.file	"wheel.cpp"
  14              		.text
  15              	.Ltext0:
  16              		.cfi_sections	.debug_frame
  17              		.section	.text._ZL11time_periodt,"ax",%progbits
  18              		.align	1
  19              		.syntax unified
  20              		.thumb
  21              		.thumb_func
  22              		.fpu fpv4-sp-d16
  24              	_ZL11time_periodt:
  25              	.LFB359:
  26              		.file 1 "Core/Src/devs/wheel.cpp"
   1:Core/Src/devs/wheel.cpp **** /*
   2:Core/Src/devs/wheel.cpp ****  * wheel.c
   3:Core/Src/devs/wheel.cpp ****  *
   4:Core/Src/devs/wheel.cpp ****  * Created : 10/1/2018
   5:Core/Src/devs/wheel.cpp ****  */
   6:Core/Src/devs/wheel.cpp **** 
   7:Core/Src/devs/wheel.cpp **** #include "wheel.h"
   8:Core/Src/devs/wheel.cpp **** #include <math.h>
   9:Core/Src/devs/wheel.cpp **** 
  10:Core/Src/devs/wheel.cpp **** static uint16_t time_period(uint16_t PWM_frequency)
  11:Core/Src/devs/wheel.cpp **** {
  27              		.loc 1 11 0
  28              		.cfi_startproc
  29              		@ args = 0, pretend = 0, frame = 0
  30              		@ frame_needed = 0, uses_anonymous_args = 0
  31              	.LVL0:
  32 0000 10B5     		push	{r4, lr}
  33              	.LCFI0:
  34              		.cfi_def_cfa_offset 8
  35              		.cfi_offset 4, -8
  36              		.cfi_offset 14, -4
  37 0002 0446     		mov	r4, r0
  12:Core/Src/devs/wheel.cpp ****         if (PWM_frequency < 2000) { //MIN PWM_FREQUENCY = 1281.738 for time period to be 16 bit
  38              		.loc 1 12 0
  39 0004 B0F5FA6F 		cmp	r0, #2000
  40 0008 06D3     		bcc	.L4
  41              	.LVL1:
  42              	.L2:
  13:Core/Src/devs/wheel.cpp ****                 _Error_Handler(__FILE__, __LINE__);
  14:Core/Src/devs/wheel.cpp ****         }
  15:Core/Src/devs/wheel.cpp ****         return ((PWM_TIMER_FREQUENCY / 2) / PWM_frequency) - 1; // In Center aligned mode period do
  43              		.loc 1 15 0
ARM GAS  C:\Users\Prashant\AppData\Local\Temp\ccCbpvrJ.s 			page 2


  44 000a 0648     		ldr	r0, .L5
  45 000c 90FBF4F0 		sdiv	r0, r0, r4
  46 0010 80B2     		uxth	r0, r0
  47 0012 0138     		subs	r0, r0, #1
  16:Core/Src/devs/wheel.cpp **** }
  48              		.loc 1 16 0
  49 0014 80B2     		uxth	r0, r0
  50 0016 10BD     		pop	{r4, pc}
  51              	.LVL2:
  52              	.L4:
  13:Core/Src/devs/wheel.cpp ****                 _Error_Handler(__FILE__, __LINE__);
  53              		.loc 1 13 0
  54 0018 0D21     		movs	r1, #13
  55 001a 0348     		ldr	r0, .L5+4
  56              	.LVL3:
  57 001c FFF7FEFF 		bl	_Error_Handler
  58              	.LVL4:
  59 0020 F3E7     		b	.L2
  60              	.L6:
  61 0022 00BF     		.align	2
  62              	.L5:
  63 0024 00BD0105 		.word	84000000
  64 0028 00000000 		.word	.LC0
  65              		.cfi_endproc
  66              	.LFE359:
  68              		.section	.text._ZL18set_WheelDirectionP12Wheel_Config9Direction,"ax",%progbits
  69              		.align	1
  70              		.syntax unified
  71              		.thumb
  72              		.thumb_func
  73              		.fpu fpv4-sp-d16
  75              	_ZL18set_WheelDirectionP12Wheel_Config9Direction:
  76              	.LFB362:
  17:Core/Src/devs/wheel.cpp **** 
  18:Core/Src/devs/wheel.cpp **** /* SET DUTYCYCLE primary function */
  19:Core/Src/devs/wheel.cpp **** void set_DutyCycle_Primary(TIM_HandleTypeDef *htim, uint32_t Channel, uint16_t dutyCycle)
  20:Core/Src/devs/wheel.cpp **** {
  21:Core/Src/devs/wheel.cpp ****         uint16_t mapped_value;
  22:Core/Src/devs/wheel.cpp ****         mapped_value = (time_period(MOTOR_DRIVER_FREQUENCY) * dutyCycle) / 65535;
  23:Core/Src/devs/wheel.cpp ****         __HAL_TIM_SET_COMPARE(htim, Channel, mapped_value);
  24:Core/Src/devs/wheel.cpp **** }
  25:Core/Src/devs/wheel.cpp **** 
  26:Core/Src/devs/wheel.cpp **** static void set_DutyCycle(Wheel_Config *w, uint16_t dutyCycle)
  27:Core/Src/devs/wheel.cpp **** {
  28:Core/Src/devs/wheel.cpp ****         set_DutyCycle_Primary(w->htim, w->channel, dutyCycle);
  29:Core/Src/devs/wheel.cpp **** }
  30:Core/Src/devs/wheel.cpp **** 
  31:Core/Src/devs/wheel.cpp **** static void set_WheelDirection(Wheel_Config *w, Direction d)
  32:Core/Src/devs/wheel.cpp **** {
  77              		.loc 1 32 0
  78              		.cfi_startproc
  79              		@ args = 0, pretend = 0, frame = 0
  80              		@ frame_needed = 0, uses_anonymous_args = 0
  81              	.LVL5:
  82 0000 10B5     		push	{r4, lr}
  83              	.LCFI1:
  84              		.cfi_def_cfa_offset 8
ARM GAS  C:\Users\Prashant\AppData\Local\Temp\ccCbpvrJ.s 			page 3


  85              		.cfi_offset 4, -8
  86              		.cfi_offset 14, -4
  87 0002 0446     		mov	r4, r0
  33:Core/Src/devs/wheel.cpp ****         if (d == Direction::AHEAD)       // AHEAD
  88              		.loc 1 33 0
  89 0004 61B1     		cbz	r1, .L12
  34:Core/Src/devs/wheel.cpp ****         {
  35:Core/Src/devs/wheel.cpp ****                 HAL_GPIO_WritePin(w->in1_port, w->in1_pin, GPIO_PIN_SET);
  36:Core/Src/devs/wheel.cpp ****                 HAL_GPIO_WritePin(w->in2_port, w->in2_pin, GPIO_PIN_RESET);
  37:Core/Src/devs/wheel.cpp ****         }
  38:Core/Src/devs/wheel.cpp ****         else if (d == Direction::BACK)  // BACK
  90              		.loc 1 38 0
  91 0006 0129     		cmp	r1, #1
  92 0008 15D0     		beq	.L13
  39:Core/Src/devs/wheel.cpp ****         {
  40:Core/Src/devs/wheel.cpp ****                 HAL_GPIO_WritePin(w->in1_port, w->in1_pin, GPIO_PIN_RESET);
  41:Core/Src/devs/wheel.cpp ****                 HAL_GPIO_WritePin(w->in2_port, w->in2_pin, GPIO_PIN_SET);
  42:Core/Src/devs/wheel.cpp ****         }
  43:Core/Src/devs/wheel.cpp ****         else                    // HALT
  44:Core/Src/devs/wheel.cpp ****         {
  45:Core/Src/devs/wheel.cpp ****                 HAL_GPIO_WritePin(w->in1_port, w->in1_pin, GPIO_PIN_RESET);
  93              		.loc 1 45 0
  94 000a 0022     		movs	r2, #0
  95 000c 8189     		ldrh	r1, [r0, #12]
  96              	.LVL6:
  97 000e 8068     		ldr	r0, [r0, #8]
  98              	.LVL7:
  99 0010 FFF7FEFF 		bl	HAL_GPIO_WritePin
 100              	.LVL8:
  46:Core/Src/devs/wheel.cpp ****                 HAL_GPIO_WritePin(w->in2_port, w->in2_pin, GPIO_PIN_RESET);
 101              		.loc 1 46 0
 102 0014 0022     		movs	r2, #0
 103 0016 A18A     		ldrh	r1, [r4, #20]
 104 0018 2069     		ldr	r0, [r4, #16]
 105 001a FFF7FEFF 		bl	HAL_GPIO_WritePin
 106              	.LVL9:
 107              	.L7:
  47:Core/Src/devs/wheel.cpp ****         }
  48:Core/Src/devs/wheel.cpp **** }
 108              		.loc 1 48 0
 109 001e 10BD     		pop	{r4, pc}
 110              	.LVL10:
 111              	.L12:
  35:Core/Src/devs/wheel.cpp ****                 HAL_GPIO_WritePin(w->in2_port, w->in2_pin, GPIO_PIN_RESET);
 112              		.loc 1 35 0
 113 0020 0122     		movs	r2, #1
 114 0022 8189     		ldrh	r1, [r0, #12]
 115              	.LVL11:
 116 0024 8068     		ldr	r0, [r0, #8]
 117              	.LVL12:
 118 0026 FFF7FEFF 		bl	HAL_GPIO_WritePin
 119              	.LVL13:
  36:Core/Src/devs/wheel.cpp ****         }
 120              		.loc 1 36 0
 121 002a 0022     		movs	r2, #0
 122 002c A18A     		ldrh	r1, [r4, #20]
 123 002e 2069     		ldr	r0, [r4, #16]
ARM GAS  C:\Users\Prashant\AppData\Local\Temp\ccCbpvrJ.s 			page 4


 124 0030 FFF7FEFF 		bl	HAL_GPIO_WritePin
 125              	.LVL14:
 126 0034 F3E7     		b	.L7
 127              	.LVL15:
 128              	.L13:
  40:Core/Src/devs/wheel.cpp ****                 HAL_GPIO_WritePin(w->in2_port, w->in2_pin, GPIO_PIN_SET);
 129              		.loc 1 40 0
 130 0036 0022     		movs	r2, #0
 131 0038 8189     		ldrh	r1, [r0, #12]
 132              	.LVL16:
 133 003a 8068     		ldr	r0, [r0, #8]
 134              	.LVL17:
 135 003c FFF7FEFF 		bl	HAL_GPIO_WritePin
 136              	.LVL18:
  41:Core/Src/devs/wheel.cpp ****         }
 137              		.loc 1 41 0
 138 0040 0122     		movs	r2, #1
 139 0042 A18A     		ldrh	r1, [r4, #20]
 140 0044 2069     		ldr	r0, [r4, #16]
 141 0046 FFF7FEFF 		bl	HAL_GPIO_WritePin
 142              	.LVL19:
 143 004a E8E7     		b	.L7
 144              		.cfi_endproc
 145              	.LFE362:
 147              		.section	.text._Z21set_DutyCycle_PrimaryP17TIM_HandleTypeDefmt,"ax",%progbits
 148              		.align	1
 149              		.global	_Z21set_DutyCycle_PrimaryP17TIM_HandleTypeDefmt
 150              		.syntax unified
 151              		.thumb
 152              		.thumb_func
 153              		.fpu fpv4-sp-d16
 155              	_Z21set_DutyCycle_PrimaryP17TIM_HandleTypeDefmt:
 156              	.LFB360:
  20:Core/Src/devs/wheel.cpp ****         uint16_t mapped_value;
 157              		.loc 1 20 0
 158              		.cfi_startproc
 159              		@ args = 0, pretend = 0, frame = 0
 160              		@ frame_needed = 0, uses_anonymous_args = 0
 161              	.LVL20:
 162 0000 70B5     		push	{r4, r5, r6, lr}
 163              	.LCFI2:
 164              		.cfi_def_cfa_offset 16
 165              		.cfi_offset 4, -16
 166              		.cfi_offset 5, -12
 167              		.cfi_offset 6, -8
 168              		.cfi_offset 14, -4
 169 0002 0646     		mov	r6, r0
 170 0004 0D46     		mov	r5, r1
 171 0006 1446     		mov	r4, r2
  22:Core/Src/devs/wheel.cpp ****         __HAL_TIM_SET_COMPARE(htim, Channel, mapped_value);
 172              		.loc 1 22 0
 173 0008 4FF4FA50 		mov	r0, #8000
 174              	.LVL21:
 175 000c FFF7FEFF 		bl	_ZL11time_periodt
 176              	.LVL22:
 177 0010 00FB04F0 		mul	r0, r0, r4
 178 0014 064B     		ldr	r3, .L16
ARM GAS  C:\Users\Prashant\AppData\Local\Temp\ccCbpvrJ.s 			page 5


 179 0016 83FB0023 		smull	r2, r3, r3, r0
 180 001a 0344     		add	r3, r3, r0
 181 001c C017     		asrs	r0, r0, #31
 182 001e C0EBE330 		rsb	r0, r0, r3, asr #15
 183              	.LVL23:
  23:Core/Src/devs/wheel.cpp **** }
 184              		.loc 1 23 0
 185 0022 3368     		ldr	r3, [r6]
 186 0024 3433     		adds	r3, r3, #52
 187 0026 AD08     		lsrs	r5, r5, #2
 188              	.LVL24:
 189 0028 80B2     		uxth	r0, r0
 190 002a 43F82500 		str	r0, [r3, r5, lsl #2]
 191              	.LVL25:
  24:Core/Src/devs/wheel.cpp **** 
 192              		.loc 1 24 0
 193 002e 70BD     		pop	{r4, r5, r6, pc}
 194              	.LVL26:
 195              	.L17:
 196              		.align	2
 197              	.L16:
 198 0030 01800080 		.word	-2147450879
 199              		.cfi_endproc
 200              	.LFE360:
 202              		.section	.text._ZL13set_DutyCycleP12Wheel_Configt,"ax",%progbits
 203              		.align	1
 204              		.syntax unified
 205              		.thumb
 206              		.thumb_func
 207              		.fpu fpv4-sp-d16
 209              	_ZL13set_DutyCycleP12Wheel_Configt:
 210              	.LFB361:
  27:Core/Src/devs/wheel.cpp ****         set_DutyCycle_Primary(w->htim, w->channel, dutyCycle);
 211              		.loc 1 27 0
 212              		.cfi_startproc
 213              		@ args = 0, pretend = 0, frame = 0
 214              		@ frame_needed = 0, uses_anonymous_args = 0
 215              	.LVL27:
 216 0000 08B5     		push	{r3, lr}
 217              	.LCFI3:
 218              		.cfi_def_cfa_offset 8
 219              		.cfi_offset 3, -8
 220              		.cfi_offset 14, -4
  28:Core/Src/devs/wheel.cpp **** }
 221              		.loc 1 28 0
 222 0002 0A46     		mov	r2, r1
 223 0004 C169     		ldr	r1, [r0, #28]
 224              	.LVL28:
 225 0006 8069     		ldr	r0, [r0, #24]
 226              	.LVL29:
 227 0008 FFF7FEFF 		bl	_Z21set_DutyCycle_PrimaryP17TIM_HandleTypeDefmt
 228              	.LVL30:
  29:Core/Src/devs/wheel.cpp **** 
 229              		.loc 1 29 0
 230 000c 08BD     		pop	{r3, pc}
 231              		.cfi_endproc
 232              	.LFE361:
ARM GAS  C:\Users\Prashant\AppData\Local\Temp\ccCbpvrJ.s 			page 6


 234              		.global	__aeabi_f2d
 235              		.global	__aeabi_dmul
 236              		.global	__aeabi_d2uiz
 237              		.section	.text._ZL14set_WheelOmegaP12Wheel_Configf,"ax",%progbits
 238              		.align	1
 239              		.syntax unified
 240              		.thumb
 241              		.thumb_func
 242              		.fpu fpv4-sp-d16
 244              	_ZL14set_WheelOmegaP12Wheel_Configf:
 245              	.LFB363:
  49:Core/Src/devs/wheel.cpp **** 
  50:Core/Src/devs/wheel.cpp **** static void set_WheelOmega(Wheel_Config *w, float omega)
  51:Core/Src/devs/wheel.cpp **** {
 246              		.loc 1 51 0
 247              		.cfi_startproc
 248              		@ args = 0, pretend = 0, frame = 0
 249              		@ frame_needed = 0, uses_anonymous_args = 0
 250              	.LVL31:
 251 0000 10B5     		push	{r4, lr}
 252              	.LCFI4:
 253              		.cfi_def_cfa_offset 8
 254              		.cfi_offset 4, -8
 255              		.cfi_offset 14, -4
 256 0002 0446     		mov	r4, r0
  52:Core/Src/devs/wheel.cpp ****         uint16_t new_omega = (65535.0 / MAX_OMEGA) * (omega);
 257              		.loc 1 52 0
 258 0004 10EE100A 		vmov	r0, s0
 259              	.LVL32:
 260 0008 FFF7FEFF 		bl	__aeabi_f2d
 261              	.LVL33:
 262 000c 06A3     		adr	r3, .L22
 263 000e D3E90023 		ldrd	r2, [r3]
 264 0012 FFF7FEFF 		bl	__aeabi_dmul
 265              	.LVL34:
 266 0016 FFF7FEFF 		bl	__aeabi_d2uiz
 267              	.LVL35:
  53:Core/Src/devs/wheel.cpp ****         set_DutyCycle(w, new_omega);
 268              		.loc 1 53 0
 269 001a 81B2     		uxth	r1, r0
 270 001c 2046     		mov	r0, r4
 271              	.LVL36:
 272 001e FFF7FEFF 		bl	_ZL13set_DutyCycleP12Wheel_Configt
 273              	.LVL37:
  54:Core/Src/devs/wheel.cpp **** }
 274              		.loc 1 54 0
 275 0022 10BD     		pop	{r4, pc}
 276              	.LVL38:
 277              	.L23:
 278 0024 AFF30080 		.align	3
 279              	.L22:
 280 0028 DBB66DDB 		.word	-613566757
 281 002c B6418D40 		.word	1082999222
 282              		.cfi_endproc
 283              	.LFE363:
 285              		.section	.text._ZN5Wheel9set_OmegaEf,"ax",%progbits
 286              		.align	1
ARM GAS  C:\Users\Prashant\AppData\Local\Temp\ccCbpvrJ.s 			page 7


 287              		.global	_ZN5Wheel9set_OmegaEf
 288              		.syntax unified
 289              		.thumb
 290              		.thumb_func
 291              		.fpu fpv4-sp-d16
 293              	_ZN5Wheel9set_OmegaEf:
 294              	.LFB364:
  55:Core/Src/devs/wheel.cpp **** 
  56:Core/Src/devs/wheel.cpp **** void Wheel::set_Omega(float omega)
  57:Core/Src/devs/wheel.cpp **** {
 295              		.loc 1 57 0
 296              		.cfi_startproc
 297              		@ args = 0, pretend = 0, frame = 0
 298              		@ frame_needed = 0, uses_anonymous_args = 0
 299              		@ link register save eliminated.
 300              	.LVL39:
  58:Core/Src/devs/wheel.cpp ****         if (omega < -wheel_->tolerance) {
 301              		.loc 1 58 0
 302 0000 0368     		ldr	r3, [r0]
 303 0002 D3ED097A 		vldr.32	s15, [r3, #36]
 304 0006 B1EE677A 		vneg.f32	s14, s15
 305 000a B4EEC07A 		vcmpe.f32	s14, s0
 306 000e F1EE10FA 		vmrs	APSR_nzcv, FPSCR
 307 0012 07DC     		bgt	.L34
  59:Core/Src/devs/wheel.cpp ****                 dir_ = Direction::BACK;
  60:Core/Src/devs/wheel.cpp ****         }
  61:Core/Src/devs/wheel.cpp ****         else if (omega > wheel_->tolerance) {
 308              		.loc 1 61 0
 309 0014 F4EEC07A 		vcmpe.f32	s15, s0
 310 0018 F1EE10FA 		vmrs	APSR_nzcv, FPSCR
 311 001c 09D4     		bmi	.L35
  62:Core/Src/devs/wheel.cpp ****                 dir_ = Direction::AHEAD;
  63:Core/Src/devs/wheel.cpp ****         }
  64:Core/Src/devs/wheel.cpp ****         else {
  65:Core/Src/devs/wheel.cpp ****                 dir_ = Direction::HALT;
 312              		.loc 1 65 0
 313 001e 0223     		movs	r3, #2
 314 0020 0371     		strb	r3, [r0, #4]
 315 0022 01E0     		b	.L27
 316              	.L34:
  59:Core/Src/devs/wheel.cpp ****                 dir_ = Direction::BACK;
 317              		.loc 1 59 0
 318 0024 0123     		movs	r3, #1
 319 0026 0371     		strb	r3, [r0, #4]
 320              	.L27:
  66:Core/Src/devs/wheel.cpp ****                 omega_ = 0;
  67:Core/Src/devs/wheel.cpp ****         }
  68:Core/Src/devs/wheel.cpp ****         omega_ = fabsf(omega);
 321              		.loc 1 68 0
 322 0028 B0EEC00A 		vabs.f32	s0, s0
 323              	.LVL40:
 324 002c 80ED020A 		vstr.32	s0, [r0, #8]
  69:Core/Src/devs/wheel.cpp **** }
 325              		.loc 1 69 0
 326 0030 7047     		bx	lr
 327              	.LVL41:
 328              	.L35:
ARM GAS  C:\Users\Prashant\AppData\Local\Temp\ccCbpvrJ.s 			page 8


  62:Core/Src/devs/wheel.cpp ****                 dir_ = Direction::AHEAD;
 329              		.loc 1 62 0
 330 0032 0023     		movs	r3, #0
 331 0034 0371     		strb	r3, [r0, #4]
 332 0036 F7E7     		b	.L27
 333              		.cfi_endproc
 334              	.LFE364:
 336              		.section	.text._ZNK5Wheel6updateEv,"ax",%progbits
 337              		.align	1
 338              		.global	_ZNK5Wheel6updateEv
 339              		.syntax unified
 340              		.thumb
 341              		.thumb_func
 342              		.fpu fpv4-sp-d16
 344              	_ZNK5Wheel6updateEv:
 345              	.LFB365:
  70:Core/Src/devs/wheel.cpp **** 
  71:Core/Src/devs/wheel.cpp **** void Wheel::update() const
  72:Core/Src/devs/wheel.cpp **** {
 346              		.loc 1 72 0
 347              		.cfi_startproc
 348              		@ args = 0, pretend = 0, frame = 0
 349              		@ frame_needed = 0, uses_anonymous_args = 0
 350              	.LVL42:
 351 0000 10B5     		push	{r4, lr}
 352              	.LCFI5:
 353              		.cfi_def_cfa_offset 8
 354              		.cfi_offset 4, -8
 355              		.cfi_offset 14, -4
 356 0002 0446     		mov	r4, r0
  73:Core/Src/devs/wheel.cpp ****         if (omega_ < 0) {
 357              		.loc 1 73 0
 358 0004 D0ED027A 		vldr.32	s15, [r0, #8]
 359 0008 F5EEC07A 		vcmpe.f32	s15, #0
 360 000c F1EE10FA 		vmrs	APSR_nzcv, FPSCR
 361 0010 09D4     		bmi	.L41
 362              	.LVL43:
 363              	.L37:
  74:Core/Src/devs/wheel.cpp ****                 _Error_Handler(__FILE__, __LINE__);
  75:Core/Src/devs/wheel.cpp ****         }
  76:Core/Src/devs/wheel.cpp ****         set_WheelDirection(wheel_, dir_);
 364              		.loc 1 76 0
 365 0012 2179     		ldrb	r1, [r4, #4]	@ zero_extendqisi2
 366 0014 2068     		ldr	r0, [r4]
 367 0016 FFF7FEFF 		bl	_ZL18set_WheelDirectionP12Wheel_Config9Direction
 368              	.LVL44:
  77:Core/Src/devs/wheel.cpp ****         set_WheelOmega(wheel_, omega_);
 369              		.loc 1 77 0
 370 001a 94ED020A 		vldr.32	s0, [r4, #8]
 371 001e 2068     		ldr	r0, [r4]
 372 0020 FFF7FEFF 		bl	_ZL14set_WheelOmegaP12Wheel_Configf
 373              	.LVL45:
  78:Core/Src/devs/wheel.cpp **** }
 374              		.loc 1 78 0
 375 0024 10BD     		pop	{r4, pc}
 376              	.LVL46:
 377              	.L41:
ARM GAS  C:\Users\Prashant\AppData\Local\Temp\ccCbpvrJ.s 			page 9


  74:Core/Src/devs/wheel.cpp ****                 _Error_Handler(__FILE__, __LINE__);
 378              		.loc 1 74 0
 379 0026 4A21     		movs	r1, #74
 380 0028 0148     		ldr	r0, .L42
 381              	.LVL47:
 382 002a FFF7FEFF 		bl	_Error_Handler
 383              	.LVL48:
 384 002e F0E7     		b	.L37
 385              	.L43:
 386              		.align	2
 387              	.L42:
 388 0030 00000000 		.word	.LC0
 389              		.cfi_endproc
 390              	.LFE365:
 392              		.global	__aeabi_i2d
 393              		.global	__aeabi_ddiv
 394              		.global	__aeabi_d2f
 395              		.section	.text._ZN5Wheel9get_OmegaEm,"ax",%progbits
 396              		.align	1
 397              		.global	_ZN5Wheel9get_OmegaEm
 398              		.syntax unified
 399              		.thumb
 400              		.thumb_func
 401              		.fpu fpv4-sp-d16
 403              	_ZN5Wheel9get_OmegaEm:
 404              	.LFB366:
  79:Core/Src/devs/wheel.cpp **** 
  80:Core/Src/devs/wheel.cpp **** float Wheel::get_Omega(uint32_t dt_millis)
  81:Core/Src/devs/wheel.cpp **** {
 405              		.loc 1 81 0
 406              		.cfi_startproc
 407              		@ args = 0, pretend = 0, frame = 0
 408              		@ frame_needed = 0, uses_anonymous_args = 0
 409              	.LVL49:
 410 0000 38B5     		push	{r3, r4, r5, lr}
 411              	.LCFI6:
 412              		.cfi_def_cfa_offset 16
 413              		.cfi_offset 3, -16
 414              		.cfi_offset 4, -12
 415              		.cfi_offset 5, -8
 416              		.cfi_offset 14, -4
 417 0002 2DED028B 		vpush.64	{d8}
 418              	.LCFI7:
 419              		.cfi_def_cfa_offset 24
 420              		.cfi_offset 80, -24
 421              		.cfi_offset 81, -20
 422 0006 08EE101A 		vmov	s16, r1	@ int
  82:Core/Src/devs/wheel.cpp ****         int16_t cps = wheel_->henc->Instance->CNT;
 423              		.loc 1 82 0
 424 000a 0368     		ldr	r3, [r0]
 425 000c 1B6A     		ldr	r3, [r3, #32]
 426 000e 1B68     		ldr	r3, [r3]
 427 0010 586A     		ldr	r0, [r3, #36]
 428              	.LVL50:
  83:Core/Src/devs/wheel.cpp ****         wheel_->henc->Instance->CNT = 0;
 429              		.loc 1 83 0
 430 0012 0022     		movs	r2, #0
ARM GAS  C:\Users\Prashant\AppData\Local\Temp\ccCbpvrJ.s 			page 10


 431 0014 5A62     		str	r2, [r3, #36]
  84:Core/Src/devs/wheel.cpp ****         float omega = 6.29325 * cps / (float)dt_millis;
 432              		.loc 1 84 0
 433 0016 00B2     		sxth	r0, r0
 434 0018 FFF7FEFF 		bl	__aeabi_i2d
 435              	.LVL51:
 436 001c 0CA3     		adr	r3, .L46
 437 001e D3E90023 		ldrd	r2, [r3]
 438 0022 FFF7FEFF 		bl	__aeabi_dmul
 439              	.LVL52:
 440 0026 0446     		mov	r4, r0
 441 0028 0D46     		mov	r5, r1
 442 002a F8EE487A 		vcvt.f32.u32	s15, s16
 443 002e 17EE900A 		vmov	r0, s15
 444 0032 FFF7FEFF 		bl	__aeabi_f2d
 445              	.LVL53:
 446 0036 0246     		mov	r2, r0
 447 0038 0B46     		mov	r3, r1
 448 003a 2046     		mov	r0, r4
 449 003c 2946     		mov	r1, r5
 450 003e FFF7FEFF 		bl	__aeabi_ddiv
 451              	.LVL54:
 452 0042 FFF7FEFF 		bl	__aeabi_d2f
 453              	.LVL55:
  85:Core/Src/devs/wheel.cpp **** 
  86:Core/Src/devs/wheel.cpp ****         return omega;
  87:Core/Src/devs/wheel.cpp **** }...
 454              		.loc 1 87 0
 455 0046 00EE100A 		vmov	s0, r0
 456 004a BDEC028B 		vldm	sp!, {d8}
 457              	.LCFI8:
 458              		.cfi_restore 80
 459              		.cfi_restore 81
 460              		.cfi_def_cfa_offset 16
 461              	.LVL56:
 462 004e 38BD     		pop	{r3, r4, r5, pc}
 463              	.L47:
 464              		.align	3
 465              	.L46:
 466 0050 3F355EBA 		.word	-1168231105
 467 0054 492C1940 		.word	1075391561
 468              		.cfi_endproc
 469              	.LFE366:
 471              		.section	.rodata._ZL11time_periodt.str1.4,"aMS",%progbits,1
 472              		.align	2
 473              	.LC0:
 474 0000 436F7265 		.ascii	"Core/Src/devs/wheel.cpp\000"
 474      2F537263 
 474      2F646576 
 474      732F7768 
 474      65656C2E 
 475              		.text
 476              	.Letext0:
 477              		.file 2 "c:\\program files (x86)\\gnu tools arm embedded\\7 2017-q4-major\\arm-none-eabi\\include\
 478              		.file 3 "c:\\program files (x86)\\gnu tools arm embedded\\7 2017-q4-major\\arm-none-eabi\\include\
 479              		.file 4 "C:/Users/Prashant/STM32Cube/Repository/STM32Cube_FW_F4_V1.21.0/Drivers/CMSIS/Include/core
 480              		.file 5 "C:/Users/Prashant/STM32Cube/Repository/STM32Cube_FW_F4_V1.21.0/Drivers/CMSIS/Device/ST/ST
ARM GAS  C:\Users\Prashant\AppData\Local\Temp\ccCbpvrJ.s 			page 11


 481              		.file 6 "C:/Users/Prashant/STM32Cube/Repository/STM32Cube_FW_F4_V1.21.0/Drivers/CMSIS/Device/ST/ST
 482              		.file 7 "c:\\program files (x86)\\gnu tools arm embedded\\7 2017-q4-major\\arm-none-eabi\\include\
 483              		.file 8 "c:\\program files (x86)\\gnu tools arm embedded\\7 2017-q4-major\\arm-none-eabi\\include\
 484              		.file 9 "c:\\program files (x86)\\gnu tools arm embedded\\7 2017-q4-major\\lib\\gcc\\arm-none-eabi
 485              		.file 10 "c:\\program files (x86)\\gnu tools arm embedded\\7 2017-q4-major\\arm-none-eabi\\include
 486              		.file 11 "C:/Users/Prashant/STM32Cube/Repository/STM32Cube_FW_F4_V1.21.0/Drivers/STM32F4xx_HAL_Dri
 487              		.file 12 "C:/Users/Prashant/STM32Cube/Repository/STM32Cube_FW_F4_V1.21.0/Drivers/STM32F4xx_HAL_Dri
 488              		.file 13 "C:/Users/Prashant/STM32Cube/Repository/STM32Cube_FW_F4_V1.21.0/Drivers/STM32F4xx_HAL_Dri
 489              		.file 14 "C:/Users/Prashant/STM32Cube/Repository/STM32Cube_FW_F4_V1.21.0/Drivers/STM32F4xx_HAL_Dri
 490              		.file 15 "Core/Inc\\periphs/tim.h"
 491              		.file 16 "Core/Inc\\devs/wheel.h"
 492              		.file 17 "c:\\program files (x86)\\gnu tools arm embedded\\7 2017-q4-major\\arm-none-eabi\\include
 493              		.file 18 "c:\\program files (x86)\\gnu tools arm embedded\\7 2017-q4-major\\arm-none-eabi\\include
 494              		.file 19 "c:\\program files (x86)\\gnu tools arm embedded\\7 2017-q4-major\\arm-none-eabi\\include
 495              		.file 20 "c:\\program files (x86)\\gnu tools arm embedded\\7 2017-q4-major\\arm-none-eabi\\include
 496              		.file 21 "c:\\program files (x86)\\gnu tools arm embedded\\7 2017-q4-major\\arm-none-eabi\\include
 497              		.file 22 "<built-in>"
ARM GAS  C:\Users\Prashant\AppData\Local\Temp\ccCbpvrJ.s 			page 12

