ARM GAS  C:\Users\073be\AppData\Local\Temp\ccfMMNVd.s 			page 1


   1              		.cpu cortex-m4
   2              		.eabi_attribute 27, 1
   3              		.eabi_attribute 28, 1
   4              		.eabi_attribute 20, 1
   5              		.eabi_attribute 21, 1
   6              		.eabi_attribute 23, 3
   7              		.eabi_attribute 24, 1
   8              		.eabi_attribute 25, 1
   9              		.eabi_attribute 26, 1
  10              		.eabi_attribute 30, 1
  11              		.eabi_attribute 34, 1
  12              		.eabi_attribute 18, 4
  13              		.file	"devs_config.cpp"
  14              		.text
  15              	.Ltext0:
  16              		.cfi_sections	.debug_frame
  17              		.section	.text._ZN14Arduino_DeviceD2Ev,"axG",%progbits,_ZN14Arduino_DeviceD5Ev,comdat
  18              		.align	1
  19              		.weak	_ZN14Arduino_DeviceD2Ev
  20              		.syntax unified
  21              		.thumb
  22              		.thumb_func
  23              		.fpu fpv4-sp-d16
  25              	_ZN14Arduino_DeviceD2Ev:
  26              	.LFB135:
  27              		.file 1 "Core/Inc/devs/arduino.h"
   1:Core/Inc/devs/arduino.h **** /*
   2:Core/Inc/devs/arduino.h ****  * arduino.h
   3:Core/Inc/devs/arduino.h ****  * 
   4:Core/Inc/devs/arduino.h ****  * Created : 1/5/2018
   5:Core/Inc/devs/arduino.h ****  *  Author : n-is
   6:Core/Inc/devs/arduino.h ****  *   email : 073bex422.nischal@pcampus.edu.np
   7:Core/Inc/devs/arduino.h ****  */
   8:Core/Inc/devs/arduino.h **** 
   9:Core/Inc/devs/arduino.h **** #ifndef _ARDUINO_H_
  10:Core/Inc/devs/arduino.h **** #define _ARDUINO_H_
  11:Core/Inc/devs/arduino.h **** 
  12:Core/Inc/devs/arduino.h **** #include "sensor.h"
  13:Core/Inc/devs/arduino.h **** #include "queue_custom.h"
  14:Core/Inc/devs/arduino.h **** 
  15:Core/Inc/devs/arduino.h **** 
  16:Core/Inc/devs/arduino.h **** class Arduino_Device
  17:Core/Inc/devs/arduino.h **** {
  18:Core/Inc/devs/arduino.h **** public:
  19:Core/Inc/devs/arduino.h ****         Arduino_Device(uint8_t id, uint8_t num_bytes);
  20:Core/Inc/devs/arduino.h ****         Arduino_Device(Arduino_Device &&) = default;
  21:Core/Inc/devs/arduino.h ****         Arduino_Device(const Arduino_Device &) = default;
  22:Core/Inc/devs/arduino.h ****         Arduino_Device &operator=(Arduino_Device &&) = default;
  23:Core/Inc/devs/arduino.h ****         Arduino_Device &operator=(const Arduino_Device &) = default;
  24:Core/Inc/devs/arduino.h ****         ~Arduino_Device() { }
  28              		.loc 1 24 0
  29              		.cfi_startproc
  30              		@ args = 0, pretend = 0, frame = 0
  31              		@ frame_needed = 0, uses_anonymous_args = 0
  32              		@ link register save eliminated.
  33              	.LVL0:
  34              		.loc 1 24 0
ARM GAS  C:\Users\073be\AppData\Local\Temp\ccfMMNVd.s 			page 2


  35 0000 7047     		bx	lr
  36              		.cfi_endproc
  37              	.LFE135:
  39              		.weak	_ZN14Arduino_DeviceD1Ev
  40              		.thumb_set _ZN14Arduino_DeviceD1Ev,_ZN14Arduino_DeviceD2Ev
  41              		.section	.text._ZN7EncoderD2Ev,"axG",%progbits,_ZN7EncoderD5Ev,comdat
  42              		.align	1
  43              		.weak	_ZN7EncoderD2Ev
  44              		.syntax unified
  45              		.thumb
  46              		.thumb_func
  47              		.fpu fpv4-sp-d16
  49              	_ZN7EncoderD2Ev:
  50              	.LFB167:
  51              		.file 2 "Core/Inc/parts/sensors/encoder.h"
   1:Core/Inc/parts/sensors/encoder.h **** /*
   2:Core/Inc/parts/sensors/encoder.h ****  * encoder.h
   3:Core/Inc/parts/sensors/encoder.h ****  * 
   4:Core/Inc/parts/sensors/encoder.h ****  * Created : 11/16/2018
   5:Core/Inc/parts/sensors/encoder.h ****  *  Author : n-is
   6:Core/Inc/parts/sensors/encoder.h ****  *   email : 073bex422.nischal@pcampus.edu.np
   7:Core/Inc/parts/sensors/encoder.h ****  */
   8:Core/Inc/parts/sensors/encoder.h **** 
   9:Core/Inc/parts/sensors/encoder.h **** #ifndef _ENCODER_H_
  10:Core/Inc/parts/sensors/encoder.h **** #define _ENCODER_H_
  11:Core/Inc/parts/sensors/encoder.h **** 
  12:Core/Inc/parts/sensors/encoder.h **** #include "sensor.h"
  13:Core/Inc/parts/sensors/encoder.h **** #include "freewheel.h"
  14:Core/Inc/parts/sensors/encoder.h **** 
  15:Core/Inc/parts/sensors/encoder.h **** 
  16:Core/Inc/parts/sensors/encoder.h **** class Encoder : public Sensor<float>
  17:Core/Inc/parts/sensors/encoder.h **** {
  18:Core/Inc/parts/sensors/encoder.h **** public:
  19:Core/Inc/parts/sensors/encoder.h ****         Encoder() = default;
  20:Core/Inc/parts/sensors/encoder.h ****         Encoder(Encoder &&) = default;
  21:Core/Inc/parts/sensors/encoder.h ****         Encoder(const Encoder &) = default;
  22:Core/Inc/parts/sensors/encoder.h ****         Encoder &operator=(Encoder &&) = default;
  23:Core/Inc/parts/sensors/encoder.h ****         Encoder &operator=(const Encoder &) = default;
  24:Core/Inc/parts/sensors/encoder.h ****         ~Encoder() { }
  52              		.loc 2 24 0
  53              		.cfi_startproc
  54              		@ args = 0, pretend = 0, frame = 0
  55              		@ frame_needed = 0, uses_anonymous_args = 0
  56              		@ link register save eliminated.
  57              	.LVL1:
  58              		.loc 2 24 0
  59 0000 7047     		bx	lr
  60              		.cfi_endproc
  61              	.LFE167:
  63              		.weak	_ZN7EncoderD1Ev
  64              		.thumb_set _ZN7EncoderD1Ev,_ZN7EncoderD2Ev
  65              		.section	.text._ZN5LidarD2Ev,"axG",%progbits,_ZN5LidarD5Ev,comdat
  66              		.align	1
  67              		.weak	_ZN5LidarD2Ev
  68              		.syntax unified
  69              		.thumb
  70              		.thumb_func
ARM GAS  C:\Users\073be\AppData\Local\Temp\ccfMMNVd.s 			page 3


  71              		.fpu fpv4-sp-d16
  73              	_ZN5LidarD2Ev:
  74              	.LFB202:
  75              		.file 3 "Core/Inc/parts/sensors/lidar.h"
   1:Core/Inc/parts/sensors/lidar.h **** /*
   2:Core/Inc/parts/sensors/lidar.h ****  * lidar.h
   3:Core/Inc/parts/sensors/lidar.h ****  * 
   4:Core/Inc/parts/sensors/lidar.h ****  * Created : 1/7/2018
   5:Core/Inc/parts/sensors/lidar.h ****  *  Author : n-is
   6:Core/Inc/parts/sensors/lidar.h ****  *   email : 073bex422.nischal@pcampus.edu.np
   7:Core/Inc/parts/sensors/lidar.h ****  */
   8:Core/Inc/parts/sensors/lidar.h **** 
   9:Core/Inc/parts/sensors/lidar.h **** #ifndef _LIDAR_H_
  10:Core/Inc/parts/sensors/lidar.h **** #define _LIDAR_H_
  11:Core/Inc/parts/sensors/lidar.h **** 
  12:Core/Inc/parts/sensors/lidar.h **** #include "sensor.h"
  13:Core/Inc/parts/sensors/lidar.h **** #include "arduino.h"
  14:Core/Inc/parts/sensors/lidar.h **** #include "vec2.h"
  15:Core/Inc/parts/sensors/lidar.h **** 
  16:Core/Inc/parts/sensors/lidar.h **** class Lidar : public Sensor<float>
  17:Core/Inc/parts/sensors/lidar.h **** {
  18:Core/Inc/parts/sensors/lidar.h **** public:
  19:Core/Inc/parts/sensors/lidar.h ****         Lidar() = default;
  20:Core/Inc/parts/sensors/lidar.h ****         Lidar(Lidar &&) = default;
  21:Core/Inc/parts/sensors/lidar.h ****         Lidar(const Lidar &) = default;
  22:Core/Inc/parts/sensors/lidar.h ****         Lidar &operator=(Lidar &&) = default;
  23:Core/Inc/parts/sensors/lidar.h ****         Lidar &operator=(const Lidar &) = default;
  24:Core/Inc/parts/sensors/lidar.h ****         ~Lidar() { }
  76              		.loc 3 24 0
  77              		.cfi_startproc
  78              		@ args = 0, pretend = 0, frame = 0
  79              		@ frame_needed = 0, uses_anonymous_args = 0
  80              		@ link register save eliminated.
  81              	.LVL2:
  82              		.loc 3 24 0
  83 0000 7047     		bx	lr
  84              		.cfi_endproc
  85              	.LFE202:
  87              		.weak	_ZN5LidarD1Ev
  88              		.thumb_set _ZN5LidarD1Ev,_ZN5LidarD2Ev
  89              		.section	.text._ZN7MPU6050D2Ev,"axG",%progbits,_ZN7MPU6050D5Ev,comdat
  90              		.align	1
  91              		.weak	_ZN7MPU6050D2Ev
  92              		.syntax unified
  93              		.thumb
  94              		.thumb_func
  95              		.fpu fpv4-sp-d16
  97              	_ZN7MPU6050D2Ev:
  98              	.LFB267:
  99              		.file 4 "Core/Inc/devs/mpu6050.h"
   1:Core/Inc/devs/mpu6050.h **** /*
   2:Core/Inc/devs/mpu6050.h ****  * mpu6050.h
   3:Core/Inc/devs/mpu6050.h ****  * 
   4:Core/Inc/devs/mpu6050.h ****  * Created : 9/27/2018
   5:Core/Inc/devs/mpu6050.h ****  *  Author : n-is
   6:Core/Inc/devs/mpu6050.h ****  *   email : 073bex422.nischal@pcampus.edu.np
   7:Core/Inc/devs/mpu6050.h ****  */
ARM GAS  C:\Users\073be\AppData\Local\Temp\ccfMMNVd.s 			page 4


   8:Core/Inc/devs/mpu6050.h **** 
   9:Core/Inc/devs/mpu6050.h **** #ifndef _MPU6050_H_
  10:Core/Inc/devs/mpu6050.h **** #define _MPU6050_H_
  11:Core/Inc/devs/mpu6050.h **** 
  12:Core/Inc/devs/mpu6050.h **** #include "vec3.h"
  13:Core/Inc/devs/mpu6050.h **** #include "i2c.h"
  14:Core/Inc/devs/mpu6050.h **** #include "mpu6050_reg.h"
  15:Core/Inc/devs/mpu6050.h **** 
  16:Core/Inc/devs/mpu6050.h **** #define I2C_TIMEOUT     (5)
  17:Core/Inc/devs/mpu6050.h **** 
  18:Core/Inc/devs/mpu6050.h **** enum Accel_Scale
  19:Core/Inc/devs/mpu6050.h **** {
  20:Core/Inc/devs/mpu6050.h ****         SCALE_2G = 0,
  21:Core/Inc/devs/mpu6050.h ****         SCALE_4G,
  22:Core/Inc/devs/mpu6050.h ****         SCALE_8G,
  23:Core/Inc/devs/mpu6050.h ****         SCALE_16G
  24:Core/Inc/devs/mpu6050.h **** };
  25:Core/Inc/devs/mpu6050.h **** 
  26:Core/Inc/devs/mpu6050.h **** enum Gyro_Scale
  27:Core/Inc/devs/mpu6050.h **** {
  28:Core/Inc/devs/mpu6050.h ****         SCALE_250 = 0,
  29:Core/Inc/devs/mpu6050.h ****         SCALE_500,
  30:Core/Inc/devs/mpu6050.h ****         SCALE_1000,
  31:Core/Inc/devs/mpu6050.h ****         SCALE_2000
  32:Core/Inc/devs/mpu6050.h **** };
  33:Core/Inc/devs/mpu6050.h **** 
  34:Core/Inc/devs/mpu6050.h **** struct MPU6050
 100              		.loc 4 34 0
 101              		.cfi_startproc
 102              		@ args = 0, pretend = 0, frame = 0
 103              		@ frame_needed = 0, uses_anonymous_args = 0
 104              		@ link register save eliminated.
 105              	.LVL3:
 106              		.loc 4 34 0
 107 0000 7047     		bx	lr
 108              		.cfi_endproc
 109              	.LFE267:
 111              		.weak	_ZN7MPU6050D1Ev
 112              		.thumb_set _ZN7MPU6050D1Ev,_ZN7MPU6050D2Ev
 113              		.section	.text._ZN7HMC5883D2Ev,"axG",%progbits,_ZN7HMC5883D5Ev,comdat
 114              		.align	1
 115              		.weak	_ZN7HMC5883D2Ev
 116              		.syntax unified
 117              		.thumb
 118              		.thumb_func
 119              		.fpu fpv4-sp-d16
 121              	_ZN7HMC5883D2Ev:
 122              	.LFB270:
 123              		.file 5 "Core/Inc/devs/hmc5883.h"
   1:Core/Inc/devs/hmc5883.h **** /*
   2:Core/Inc/devs/hmc5883.h ****  * hmc5883.c
   3:Core/Inc/devs/hmc5883.h ****  * 
   4:Core/Inc/devs/hmc5883.h ****  * Created : 11/13/2018
   5:Core/Inc/devs/hmc5883.h ****  *  Author : n-is & ane
   6:Core/Inc/devs/hmc5883.h ****  *   email : 073bex421.nischal@pcampus.edu.np
   7:Core/Inc/devs/hmc5883.h ****  *   email : 073bex422.nischal@pcampus.edu.np
   8:Core/Inc/devs/hmc5883.h ****  */
ARM GAS  C:\Users\073be\AppData\Local\Temp\ccfMMNVd.s 			page 5


   9:Core/Inc/devs/hmc5883.h **** 
  10:Core/Inc/devs/hmc5883.h **** #ifndef _HMC5883_H_
  11:Core/Inc/devs/hmc5883.h **** #define _HMC5883_H_
  12:Core/Inc/devs/hmc5883.h **** 
  13:Core/Inc/devs/hmc5883.h **** #include "i2c.h"
  14:Core/Inc/devs/hmc5883.h **** #include "vec3.h"
  15:Core/Inc/devs/hmc5883.h **** #include "a4988.h"
  16:Core/Inc/devs/hmc5883.h **** 
  17:Core/Inc/devs/hmc5883.h **** struct HMC5883
 124              		.loc 5 17 0
 125              		.cfi_startproc
 126              		@ args = 0, pretend = 0, frame = 0
 127              		@ frame_needed = 0, uses_anonymous_args = 0
 128              		@ link register save eliminated.
 129              	.LVL4:
 130              		.loc 5 17 0
 131 0000 7047     		bx	lr
 132              		.cfi_endproc
 133              	.LFE270:
 135              		.weak	_ZN7HMC5883D1Ev
 136              		.thumb_set _ZN7HMC5883D1Ev,_ZN7HMC5883D2Ev
 137              		.section	.text._Z41__static_initialization_and_destruction_0ii,"ax",%progbits
 138              		.align	1
 139              		.syntax unified
 140              		.thumb
 141              		.thumb_func
 142              		.fpu fpv4-sp-d16
 144              	_Z41__static_initialization_and_destruction_0ii:
 145              	.LFB265:
 146              		.file 6 "Core/Src/parts/devs_config.cpp"
   1:Core/Src/parts/devs_config.cpp **** /*
   2:Core/Src/parts/devs_config.cpp ****  * devs_config.cpp
   3:Core/Src/parts/devs_config.cpp ****  * 
   4:Core/Src/parts/devs_config.cpp ****  * Created : 11/9/2018
   5:Core/Src/parts/devs_config.cpp ****  *  Author : n-is
   6:Core/Src/parts/devs_config.cpp ****  *   email : 073bex422.nischal@pcampus.edu.np
   7:Core/Src/parts/devs_config.cpp ****  */
   8:Core/Src/parts/devs_config.cpp **** 
   9:Core/Src/parts/devs_config.cpp **** /**
  10:Core/Src/parts/devs_config.cpp ****  * @file  : devs_config.cpp
  11:Core/Src/parts/devs_config.cpp ****  * @brief : All the hardware specific configurations of all devices are done in
  12:Core/Src/parts/devs_config.cpp ****  *          this file, except for the wheels(Vietnamese Motors and Vietnamese 
  13:Core/Src/parts/devs_config.cpp ****  *          Motor Encoder), which is done in actuator.cpp file.
  14:Core/Src/parts/devs_config.cpp ****  */
  15:Core/Src/parts/devs_config.cpp **** 
  16:Core/Src/parts/devs_config.cpp **** #include "devs_config.h"
  17:Core/Src/parts/devs_config.cpp **** 
  18:Core/Src/parts/devs_config.cpp **** struct MPU6050 Body_IMU;
  19:Core/Src/parts/devs_config.cpp **** struct HMC5883 Body_HMC;
  20:Core/Src/parts/devs_config.cpp **** struct A4988 IMU_Stepper;
  21:Core/Src/parts/devs_config.cpp **** 
  22:Core/Src/parts/devs_config.cpp **** struct Enc gXEnc;
  23:Core/Src/parts/devs_config.cpp **** struct Enc gYEnc;
  24:Core/Src/parts/devs_config.cpp **** 
  25:Core/Src/parts/devs_config.cpp **** Arduino_Device gXLidar_Dev(0x02, 2);
  26:Core/Src/parts/devs_config.cpp **** 
  27:Core/Src/parts/devs_config.cpp **** const uint32_t gMax_Robo_Velocity = 400;        // mm/s
ARM GAS  C:\Users\073be\AppData\Local\Temp\ccfMMNVd.s 			page 6


  28:Core/Src/parts/devs_config.cpp **** 
  29:Core/Src/parts/devs_config.cpp **** 
  30:Core/Src/parts/devs_config.cpp **** Encoder gXEncoder(&gXEnc, SensorName::XEncoder);
  31:Core/Src/parts/devs_config.cpp **** Encoder gYEncoder(&gYEnc, SensorName::YEncoder);
  32:Core/Src/parts/devs_config.cpp **** Lidar   gXLidar(&gXLidar_Dev, SensorName::XLidar);
  33:Core/Src/parts/devs_config.cpp **** 
  34:Core/Src/parts/devs_config.cpp **** void IMU_Init()
  35:Core/Src/parts/devs_config.cpp **** {
  36:Core/Src/parts/devs_config.cpp ****         Body_IMU.hi2c = &hi2c1;
  37:Core/Src/parts/devs_config.cpp ****         Body_IMU.address = 0xD0;
  38:Core/Src/parts/devs_config.cpp ****         Body_IMU.a_scale = Accel_Scale::SCALE_2G;
  39:Core/Src/parts/devs_config.cpp ****         Body_IMU.g_scale = Gyro_Scale::SCALE_250;
  40:Core/Src/parts/devs_config.cpp **** 
  41:Core/Src/parts/devs_config.cpp ****         Body_HMC.hi2c = &hi2c1;
  42:Core/Src/parts/devs_config.cpp ****         Body_HMC.address = 0x3C;
  43:Core/Src/parts/devs_config.cpp ****         // Body_HMC.hard_iron_offset.set_Values(43, 45, 0);
  44:Core/Src/parts/devs_config.cpp **** 
  45:Core/Src/parts/devs_config.cpp ****         MPU6050_Init(&Body_IMU);
  46:Core/Src/parts/devs_config.cpp ****         HMC5883_Init(&Body_HMC);
  47:Core/Src/parts/devs_config.cpp **** }
  48:Core/Src/parts/devs_config.cpp **** 
  49:Core/Src/parts/devs_config.cpp **** void Stepper_Init()
  50:Core/Src/parts/devs_config.cpp **** {
  51:Core/Src/parts/devs_config.cpp ****         IMU_Stepper.steps_per_rev = 200;
  52:Core/Src/parts/devs_config.cpp ****         IMU_Stepper.dir_port = GPIOD;
  53:Core/Src/parts/devs_config.cpp ****         IMU_Stepper.dir_pin = GPIO_PIN_10;
  54:Core/Src/parts/devs_config.cpp ****         IMU_Stepper.step_port = GPIOB;
  55:Core/Src/parts/devs_config.cpp ****         IMU_Stepper.step_pin = GPIO_PIN_14;
  56:Core/Src/parts/devs_config.cpp **** 
  57:Core/Src/parts/devs_config.cpp ****         A4988_setDirection(&IMU_Stepper, 0);
  58:Core/Src/parts/devs_config.cpp **** }
  59:Core/Src/parts/devs_config.cpp **** 
  60:Core/Src/parts/devs_config.cpp **** 
  61:Core/Src/parts/devs_config.cpp **** void Encoders_Init()
  62:Core/Src/parts/devs_config.cpp **** {
  63:Core/Src/parts/devs_config.cpp ****         gXEnc.id = 'x';
  64:Core/Src/parts/devs_config.cpp ****         gXEnc.chB_port = GPIOC;
  65:Core/Src/parts/devs_config.cpp ****         gXEnc.chB_pin = GPIO_PIN_5;
  66:Core/Src/parts/devs_config.cpp ****         gXEnc.count = 0;
  67:Core/Src/parts/devs_config.cpp ****         gXEnc.radius = 29;
  68:Core/Src/parts/devs_config.cpp ****         gXEnc.ppr = 200;
  69:Core/Src/parts/devs_config.cpp **** 
  70:Core/Src/parts/devs_config.cpp ****         gYEnc.id = 'y';
  71:Core/Src/parts/devs_config.cpp ****         gYEnc.chB_port = GPIOC;
  72:Core/Src/parts/devs_config.cpp ****         gYEnc.chB_pin = GPIO_PIN_4;
  73:Core/Src/parts/devs_config.cpp ****         gYEnc.count = 0;
  74:Core/Src/parts/devs_config.cpp ****         gYEnc.radius = 29;
  75:Core/Src/parts/devs_config.cpp ****         gYEnc.ppr = 200;
  76:Core/Src/parts/devs_config.cpp **** }
  77:Core/Src/parts/devs_config.cpp **** 
  78:Core/Src/parts/devs_config.cpp **** void Lidars_Init()
  79:Core/Src/parts/devs_config.cpp **** {
  80:Core/Src/parts/devs_config.cpp ****         gXLidar.set_Outliers(Vec2<float>(5000, 0));
  81:Core/Src/parts/devs_config.cpp **** }
 147              		.loc 6 81 0
 148              		.cfi_startproc
 149              		@ args = 0, pretend = 0, frame = 0
ARM GAS  C:\Users\073be\AppData\Local\Temp\ccfMMNVd.s 			page 7


 150              		@ frame_needed = 0, uses_anonymous_args = 0
 151              	.LVL5:
 152 0000 0128     		cmp	r0, #1
 153 0002 00D0     		beq	.L12
 154              	.L9:
 155 0004 7047     		bx	lr
 156              	.L12:
 157              		.loc 6 81 0 is_stmt 0 discriminator 1
 158 0006 4FF6FF73 		movw	r3, #65535
 159 000a 9942     		cmp	r1, r3
 160 000c FAD1     		bne	.L9
 161              		.loc 6 81 0
 162 000e 2DE9F041 		push	{r4, r5, r6, r7, r8, lr}
 163              	.LCFI0:
 164              		.cfi_def_cfa_offset 24
 165              		.cfi_offset 4, -24
 166              		.cfi_offset 5, -20
 167              		.cfi_offset 6, -16
 168              		.cfi_offset 7, -12
 169              		.cfi_offset 8, -8
 170              		.cfi_offset 14, -4
 171              	.LVL6:
 172              	.LBB265:
 173              	.LBB266:
 174              	.LBB267:
 175              	.LBB268:
 176              	.LBB269:
 177              	.LBB270:
 178              		.file 7 "Core/Inc/utils\\math/vec3.h"
   1:Core/Inc/utils\math/vec3.h **** /*
   2:Core/Inc/utils\math/vec3.h ****  * vec3.h
   3:Core/Inc/utils\math/vec3.h ****  * 
   4:Core/Inc/utils\math/vec3.h ****  * Created : 11/9/2018
   5:Core/Inc/utils\math/vec3.h ****  *  Author : n-is
   6:Core/Inc/utils\math/vec3.h ****  *   email : 073bex422.nischal@pcampus.edu.np
   7:Core/Inc/utils\math/vec3.h ****  */
   8:Core/Inc/utils\math/vec3.h **** 
   9:Core/Inc/utils\math/vec3.h **** #ifndef _VEC3_H_
  10:Core/Inc/utils\math/vec3.h **** #define _VEC3_H_
  11:Core/Inc/utils\math/vec3.h **** 
  12:Core/Inc/utils\math/vec3.h **** #include "stm32f4xx_hal.h"
  13:Core/Inc/utils\math/vec3.h **** #include "main.h"
  14:Core/Inc/utils\math/vec3.h **** 
  15:Core/Inc/utils\math/vec3.h **** template <typename T>
  16:Core/Inc/utils\math/vec3.h **** void swap_Element(T &first, T &second)
  17:Core/Inc/utils\math/vec3.h **** {
  18:Core/Inc/utils\math/vec3.h ****         T temp = first;
  19:Core/Inc/utils\math/vec3.h ****         first = second;
  20:Core/Inc/utils\math/vec3.h ****         second = temp;
  21:Core/Inc/utils\math/vec3.h **** }
  22:Core/Inc/utils\math/vec3.h **** 
  23:Core/Inc/utils\math/vec3.h **** template <class T>
  24:Core/Inc/utils\math/vec3.h **** class Vec3
  25:Core/Inc/utils\math/vec3.h **** {
  26:Core/Inc/utils\math/vec3.h **** public:
  27:Core/Inc/utils\math/vec3.h ****         Vec3() { set_Values(0,0,0); }
  28:Core/Inc/utils\math/vec3.h ****         Vec3(T x, T y, T z) { set_Values(x,y,z); }
ARM GAS  C:\Users\073be\AppData\Local\Temp\ccfMMNVd.s 			page 8


  29:Core/Inc/utils\math/vec3.h **** 
  30:Core/Inc/utils\math/vec3.h ****         Vec3(Vec3 &&) = default;
  31:Core/Inc/utils\math/vec3.h ****         Vec3 &operator=(Vec3 &&) = default;
  32:Core/Inc/utils\math/vec3.h ****         ~Vec3() { }
  33:Core/Inc/utils\math/vec3.h **** 
  34:Core/Inc/utils\math/vec3.h ****         T getX() const { return x_; }
  35:Core/Inc/utils\math/vec3.h ****         T getY() const { return y_; }
  36:Core/Inc/utils\math/vec3.h ****         T getZ() const { return z_; }
  37:Core/Inc/utils\math/vec3.h ****         void setX(T x) { x_ = x; }
 179              		.loc 7 37 0 is_stmt 1
 180 0012 2848     		ldr	r0, .L13
 181              	.LVL7:
 182 0014 0023     		movs	r3, #0
 183 0016 8380     		strh	r3, [r0, #4]	@ movhi
 184              	.LVL8:
 185              	.LBE270:
 186              	.LBE269:
 187              	.LBB271:
 188              	.LBB272:
  38:Core/Inc/utils\math/vec3.h ****         void setY(T y) { y_ = y; }
 189              		.loc 7 38 0
 190 0018 C380     		strh	r3, [r0, #6]	@ movhi
 191              	.LVL9:
 192              	.LBE272:
 193              	.LBE271:
 194              	.LBB273:
 195              	.LBB274:
  39:Core/Inc/utils\math/vec3.h ****         void setZ(T z) { z_ = z; }
 196              		.loc 7 39 0
 197 001a 0381     		strh	r3, [r0, #8]	@ movhi
 198              	.LVL10:
 199              	.LBE274:
 200              	.LBE273:
 201              	.LBE268:
 202              	.LBE267:
 203              	.LBE266:
 204              	.LBB275:
 205              	.LBB276:
 206              	.LBB277:
 207              	.LBB278:
 208              	.LBB279:
  37:Core/Inc/utils\math/vec3.h ****         void setY(T y) { y_ = y; }
 209              		.loc 7 37 0
 210 001c 4381     		strh	r3, [r0, #10]	@ movhi
 211              	.LVL11:
 212              	.LBE279:
 213              	.LBE278:
 214              	.LBB280:
 215              	.LBB281:
  38:Core/Inc/utils\math/vec3.h ****         void setY(T y) { y_ = y; }
 216              		.loc 7 38 0
 217 001e 8381     		strh	r3, [r0, #12]	@ movhi
 218              	.LVL12:
 219              	.LBE281:
 220              	.LBE280:
 221              	.LBB282:
 222              	.LBB283:
ARM GAS  C:\Users\073be\AppData\Local\Temp\ccfMMNVd.s 			page 9


 223              		.loc 7 39 0
 224 0020 C381     		strh	r3, [r0, #14]	@ movhi
 225              	.LVL13:
 226              	.LBE283:
 227              	.LBE282:
 228              	.LBE277:
 229              	.LBE276:
 230              	.LBE275:
 231              	.LBB284:
 232              	.LBB285:
 233              	.LBB286:
 234              	.LBB287:
 235              	.LBB288:
  37:Core/Inc/utils\math/vec3.h ****         void setY(T y) { y_ = y; }
 236              		.loc 7 37 0
 237 0022 0024     		movs	r4, #0
 238 0024 0461     		str	r4, [r0, #16]	@ float
 239              	.LVL14:
 240              	.LBE288:
 241              	.LBE287:
 242              	.LBB289:
 243              	.LBB290:
  38:Core/Inc/utils\math/vec3.h ****         void setY(T y) { y_ = y; }
 244              		.loc 7 38 0
 245 0026 4461     		str	r4, [r0, #20]	@ float
 246              	.LVL15:
 247              	.LBE290:
 248              	.LBE289:
 249              	.LBB291:
 250              	.LBB292:
 251              		.loc 7 39 0
 252 0028 8461     		str	r4, [r0, #24]	@ float
 253              	.LVL16:
 254              	.LBE292:
 255              	.LBE291:
 256              	.LBE286:
 257              	.LBE285:
 258              	.LBE284:
 259              	.LBB293:
 260              	.LBB294:
 261              	.LBB295:
 262              	.LBB296:
 263              	.LBB297:
  37:Core/Inc/utils\math/vec3.h ****         void setY(T y) { y_ = y; }
 264              		.loc 7 37 0
 265 002a C461     		str	r4, [r0, #28]	@ float
 266              	.LVL17:
 267              	.LBE297:
 268              	.LBE296:
 269              	.LBB298:
 270              	.LBB299:
  38:Core/Inc/utils\math/vec3.h ****         void setY(T y) { y_ = y; }
 271              		.loc 7 38 0
 272 002c 0462     		str	r4, [r0, #32]	@ float
 273              	.LVL18:
 274              	.LBE299:
 275              	.LBE298:
ARM GAS  C:\Users\073be\AppData\Local\Temp\ccfMMNVd.s 			page 10


 276              	.LBB300:
 277              	.LBB301:
 278              		.loc 7 39 0
 279 002e 4462     		str	r4, [r0, #36]	@ float
 280              	.LVL19:
 281              	.LBE301:
 282              	.LBE300:
 283              	.LBE295:
 284              	.LBE294:
 285              	.LBE293:
 286              	.LBE265:
  18:Core/Src/parts/devs_config.cpp **** struct HMC5883 Body_HMC;
 287              		.loc 6 18 0
 288 0030 214D     		ldr	r5, .L13+4
 289 0032 2A46     		mov	r2, r5
 290 0034 2149     		ldr	r1, .L13+8
 291              	.LVL20:
 292 0036 FFF7FEFF 		bl	__aeabi_atexit
 293              	.LVL21:
 294              	.LBB302:
 295              	.LBB303:
 296              	.LBB304:
 297              	.LBB305:
 298              	.LBB306:
 299              	.LBB307:
  37:Core/Inc/utils\math/vec3.h ****         void setY(T y) { y_ = y; }
 300              		.loc 7 37 0
 301 003a 2148     		ldr	r0, .L13+12
 302 003c 4460     		str	r4, [r0, #4]	@ float
 303              	.LVL22:
 304              	.LBE307:
 305              	.LBE306:
 306              	.LBB308:
 307              	.LBB309:
  38:Core/Inc/utils\math/vec3.h ****         void setZ(T z) { z_ = z; }
 308              		.loc 7 38 0
 309 003e 8460     		str	r4, [r0, #8]	@ float
 310              	.LVL23:
 311              	.LBE309:
 312              	.LBE308:
 313              	.LBB310:
 314              	.LBB311:
 315              		.loc 7 39 0
 316 0040 C460     		str	r4, [r0, #12]	@ float
 317              	.LVL24:
 318              	.LBE311:
 319              	.LBE310:
 320              	.LBE305:
 321              	.LBE304:
 322              	.LBE303:
 323              	.LBB312:
 324              	.LBB313:
 325              	.LBB314:
 326              	.LBB315:
 327              	.LBB316:
  37:Core/Inc/utils\math/vec3.h ****         void setY(T y) { y_ = y; }
 328              		.loc 7 37 0
ARM GAS  C:\Users\073be\AppData\Local\Temp\ccfMMNVd.s 			page 11


 329 0042 4461     		str	r4, [r0, #20]	@ float
 330              	.LVL25:
 331              	.LBE316:
 332              	.LBE315:
 333              	.LBB317:
 334              	.LBB318:
  38:Core/Inc/utils\math/vec3.h ****         void setZ(T z) { z_ = z; }
 335              		.loc 7 38 0
 336 0044 8461     		str	r4, [r0, #24]	@ float
 337              	.LVL26:
 338              	.LBE318:
 339              	.LBE317:
 340              	.LBB319:
 341              	.LBB320:
 342              		.loc 7 39 0
 343 0046 C461     		str	r4, [r0, #28]	@ float
 344              	.LVL27:
 345              	.LBE320:
 346              	.LBE319:
 347              	.LBE314:
 348              	.LBE313:
 349              	.LBE312:
 350              	.LBE302:
  19:Core/Src/parts/devs_config.cpp **** struct A4988 IMU_Stepper;
 351              		.loc 6 19 0
 352 0048 2A46     		mov	r2, r5
 353 004a 1E49     		ldr	r1, .L13+16
 354 004c FFF7FEFF 		bl	__aeabi_atexit
 355              	.LVL28:
  25:Core/Src/parts/devs_config.cpp **** 
 356              		.loc 6 25 0
 357 0050 1D4E     		ldr	r6, .L13+20
 358 0052 0222     		movs	r2, #2
 359 0054 1146     		mov	r1, r2
 360 0056 3046     		mov	r0, r6
 361 0058 FFF7FEFF 		bl	_ZN14Arduino_DeviceC1Ehh
 362              	.LVL29:
 363 005c 2A46     		mov	r2, r5
 364 005e 1B49     		ldr	r1, .L13+24
 365 0060 3046     		mov	r0, r6
 366 0062 FFF7FEFF 		bl	__aeabi_atexit
 367              	.LVL30:
 368              	.LBB321:
 369              	.LBB322:
 370              	.LBB323:
  25:Core/Inc/parts/sensors/encoder.h ****         
  26:Core/Inc/parts/sensors/encoder.h ****         Encoder(struct Enc *enc, SensorName name) {
 371              		.loc 2 26 0
 372 0066 1A48     		ldr	r0, .L13+28
 373 0068 DFF88480 		ldr	r8, .L13+60
 374 006c C0F80080 		str	r8, [r0]
  27:Core/Inc/parts/sensors/encoder.h ****                 enc_ = enc;
 375              		.loc 2 27 0
 376 0070 184B     		ldr	r3, .L13+32
 377 0072 8360     		str	r3, [r0, #8]
  28:Core/Inc/parts/sensors/encoder.h ****                 name_ = name;
 378              		.loc 2 28 0
ARM GAS  C:\Users\073be\AppData\Local\Temp\ccfMMNVd.s 			page 12


 379 0074 0223     		movs	r3, #2
 380 0076 4360     		str	r3, [r0, #4]
 381              	.LVL31:
 382              	.LBE323:
 383              	.LBE322:
 384              	.LBE321:
  30:Core/Src/parts/devs_config.cpp **** Encoder gYEncoder(&gYEnc, SensorName::YEncoder);
 385              		.loc 6 30 0
 386 0078 174F     		ldr	r7, .L13+36
 387 007a 2A46     		mov	r2, r5
 388 007c 3946     		mov	r1, r7
 389 007e FFF7FEFF 		bl	__aeabi_atexit
 390              	.LVL32:
 391              	.LBB324:
 392              	.LBB325:
 393              	.LBB326:
  26:Core/Inc/parts/sensors/encoder.h ****                 enc_ = enc;
 394              		.loc 2 26 0
 395 0082 1648     		ldr	r0, .L13+40
 396 0084 C0F80080 		str	r8, [r0]
  27:Core/Inc/parts/sensors/encoder.h ****                 name_ = name;
 397              		.loc 2 27 0
 398 0088 154B     		ldr	r3, .L13+44
 399 008a 8360     		str	r3, [r0, #8]
 400              		.loc 2 28 0
 401 008c 0323     		movs	r3, #3
 402 008e 4360     		str	r3, [r0, #4]
 403              	.LVL33:
 404              	.LBE326:
 405              	.LBE325:
 406              	.LBE324:
  31:Core/Src/parts/devs_config.cpp **** Lidar   gXLidar(&gXLidar_Dev, SensorName::XLidar);
 407              		.loc 6 31 0
 408 0090 2A46     		mov	r2, r5
 409 0092 3946     		mov	r1, r7
 410 0094 FFF7FEFF 		bl	__aeabi_atexit
 411              	.LVL34:
 412              	.LBB327:
 413              	.LBB328:
 414              	.LBB329:
  25:Core/Inc/parts/sensors/lidar.h ****         
  26:Core/Inc/parts/sensors/lidar.h ****         Lidar(Arduino_Device *adev, SensorName name) {
 415              		.loc 3 26 0
 416 0098 1248     		ldr	r0, .L13+48
 417 009a 134B     		ldr	r3, .L13+52
 418 009c 0360     		str	r3, [r0]
 419              	.LVL35:
 420              	.LBB330:
 421              	.LBB331:
 422              	.LBB332:
 423              	.LBB333:
 424              	.LBB334:
 425              		.file 8 "Core/Inc/utils\\math/vec2.h"
   1:Core/Inc/utils\math/vec2.h **** /*
   2:Core/Inc/utils\math/vec2.h ****  * vec2.h
   3:Core/Inc/utils\math/vec2.h ****  * 
   4:Core/Inc/utils\math/vec2.h ****  * Created : 1/9/2018
ARM GAS  C:\Users\073be\AppData\Local\Temp\ccfMMNVd.s 			page 13


   5:Core/Inc/utils\math/vec2.h ****  *  Author : n-is
   6:Core/Inc/utils\math/vec2.h ****  *   email : 073bex422.nischal@pcampus.edu.np
   7:Core/Inc/utils\math/vec2.h ****  */
   8:Core/Inc/utils\math/vec2.h **** 
   9:Core/Inc/utils\math/vec2.h **** #ifndef _VEC2_H_
  10:Core/Inc/utils\math/vec2.h **** #define _VEC2_H_
  11:Core/Inc/utils\math/vec2.h **** 
  12:Core/Inc/utils\math/vec2.h **** #include "vec3.h"
  13:Core/Inc/utils\math/vec2.h **** 
  14:Core/Inc/utils\math/vec2.h **** template <class T>
  15:Core/Inc/utils\math/vec2.h **** class Vec2
  16:Core/Inc/utils\math/vec2.h **** {
  17:Core/Inc/utils\math/vec2.h **** public:
  18:Core/Inc/utils\math/vec2.h ****         Vec2() { set_Values(0,0); }
  19:Core/Inc/utils\math/vec2.h ****         Vec2(T x, T y) { set_Values(x,y); }
  20:Core/Inc/utils\math/vec2.h **** 
  21:Core/Inc/utils\math/vec2.h ****         Vec2(Vec3<T> v) { set_Values(v.getX(), v.getY()) ;}
  22:Core/Inc/utils\math/vec2.h **** 
  23:Core/Inc/utils\math/vec2.h ****         Vec2(Vec2 &&) = default;
  24:Core/Inc/utils\math/vec2.h ****         Vec2 &operator=(Vec2 &&) = default;
  25:Core/Inc/utils\math/vec2.h ****         ~Vec2() { }
  26:Core/Inc/utils\math/vec2.h **** 
  27:Core/Inc/utils\math/vec2.h ****         T getX() const { return x_; }
  28:Core/Inc/utils\math/vec2.h ****         T getY() const { return y_; }
  29:Core/Inc/utils\math/vec2.h ****         void setX(T x) { x_ = x; }
 426              		.loc 8 29 0
 427 009e C460     		str	r4, [r0, #12]	@ float
 428              	.LVL36:
 429              	.LBE334:
 430              	.LBE333:
 431              	.LBB335:
 432              	.LBB336:
  30:Core/Inc/utils\math/vec2.h ****         void setY(T y) { y_ = y; }
 433              		.loc 8 30 0
 434 00a0 0461     		str	r4, [r0, #16]	@ float
 435              	.LVL37:
 436              	.LBE336:
 437              	.LBE335:
 438              	.LBE332:
 439              	.LBE331:
 440              	.LBE330:
  27:Core/Inc/parts/sensors/lidar.h ****                 adev_ = adev;
 441              		.loc 3 27 0
 442 00a2 8660     		str	r6, [r0, #8]
  28:Core/Inc/parts/sensors/lidar.h ****                 name_ = name;
 443              		.loc 3 28 0
 444 00a4 0423     		movs	r3, #4
 445 00a6 4360     		str	r3, [r0, #4]
 446              	.LVL38:
 447              	.LBE329:
 448              	.LBE328:
 449              	.LBE327:
  32:Core/Src/parts/devs_config.cpp **** 
 450              		.loc 6 32 0
 451 00a8 2A46     		mov	r2, r5
 452 00aa 1049     		ldr	r1, .L13+56
 453 00ac FFF7FEFF 		bl	__aeabi_atexit
ARM GAS  C:\Users\073be\AppData\Local\Temp\ccfMMNVd.s 			page 14


 454              	.LVL39:
 455              		.loc 6 81 0
 456 00b0 BDE8F081 		pop	{r4, r5, r6, r7, r8, pc}
 457              	.L14:
 458              		.align	2
 459              	.L13:
 460 00b4 00000000 		.word	.LANCHOR0
 461 00b8 00000000 		.word	__dso_handle
 462 00bc 00000000 		.word	_ZN7MPU6050D1Ev
 463 00c0 00000000 		.word	.LANCHOR1
 464 00c4 00000000 		.word	_ZN7HMC5883D1Ev
 465 00c8 00000000 		.word	.LANCHOR2
 466 00cc 00000000 		.word	_ZN14Arduino_DeviceD1Ev
 467 00d0 00000000 		.word	.LANCHOR3
 468 00d4 00000000 		.word	.LANCHOR4
 469 00d8 00000000 		.word	_ZN7EncoderD1Ev
 470 00dc 00000000 		.word	.LANCHOR5
 471 00e0 00000000 		.word	.LANCHOR6
 472 00e4 00000000 		.word	.LANCHOR7
 473 00e8 08000000 		.word	_ZTV5Lidar+8
 474 00ec 00000000 		.word	_ZN5LidarD1Ev
 475 00f0 08000000 		.word	_ZTV7Encoder+8
 476              		.cfi_endproc
 477              	.LFE265:
 479              		.section	.text._ZN7EncoderD0Ev,"axG",%progbits,_ZN7EncoderD5Ev,comdat
 480              		.align	1
 481              		.weak	_ZN7EncoderD0Ev
 482              		.syntax unified
 483              		.thumb
 484              		.thumb_func
 485              		.fpu fpv4-sp-d16
 487              	_ZN7EncoderD0Ev:
 488              	.LFB169:
  24:Core/Inc/parts/sensors/encoder.h ****         
 489              		.loc 2 24 0
 490              		.cfi_startproc
 491              		@ args = 0, pretend = 0, frame = 0
 492              		@ frame_needed = 0, uses_anonymous_args = 0
 493              	.LVL40:
 494 0000 10B5     		push	{r4, lr}
 495              	.LCFI1:
 496              		.cfi_def_cfa_offset 8
 497              		.cfi_offset 4, -8
 498              		.cfi_offset 14, -4
 499 0002 0446     		mov	r4, r0
  24:Core/Inc/parts/sensors/encoder.h ****         
 500              		.loc 2 24 0
 501 0004 0C21     		movs	r1, #12
 502 0006 FFF7FEFF 		bl	_ZdlPvj
 503              	.LVL41:
 504 000a 2046     		mov	r0, r4
 505 000c 10BD     		pop	{r4, pc}
 506              		.cfi_endproc
 507              	.LFE169:
 509              		.section	.text._ZN5LidarD0Ev,"axG",%progbits,_ZN5LidarD5Ev,comdat
 510              		.align	1
 511              		.weak	_ZN5LidarD0Ev
ARM GAS  C:\Users\073be\AppData\Local\Temp\ccfMMNVd.s 			page 15


 512              		.syntax unified
 513              		.thumb
 514              		.thumb_func
 515              		.fpu fpv4-sp-d16
 517              	_ZN5LidarD0Ev:
 518              	.LFB204:
  24:Core/Inc/parts/sensors/lidar.h ****         
 519              		.loc 3 24 0
 520              		.cfi_startproc
 521              		@ args = 0, pretend = 0, frame = 0
 522              		@ frame_needed = 0, uses_anonymous_args = 0
 523              	.LVL42:
 524 0000 10B5     		push	{r4, lr}
 525              	.LCFI2:
 526              		.cfi_def_cfa_offset 8
 527              		.cfi_offset 4, -8
 528              		.cfi_offset 14, -4
 529 0002 0446     		mov	r4, r0
  24:Core/Inc/parts/sensors/lidar.h ****         
 530              		.loc 3 24 0
 531 0004 1821     		movs	r1, #24
 532 0006 FFF7FEFF 		bl	_ZdlPvj
 533              	.LVL43:
 534 000a 2046     		mov	r0, r4
 535 000c 10BD     		pop	{r4, pc}
 536              		.cfi_endproc
 537              	.LFE204:
 539              		.section	.text._Z8IMU_Initv,"ax",%progbits
 540              		.align	1
 541              		.global	_Z8IMU_Initv
 542              		.syntax unified
 543              		.thumb
 544              		.thumb_func
 545              		.fpu fpv4-sp-d16
 547              	_Z8IMU_Initv:
 548              	.LFB215:
  35:Core/Src/parts/devs_config.cpp ****         Body_IMU.hi2c = &hi2c1;
 549              		.loc 6 35 0
 550              		.cfi_startproc
 551              		@ args = 0, pretend = 0, frame = 0
 552              		@ frame_needed = 0, uses_anonymous_args = 0
 553 0000 10B5     		push	{r4, lr}
 554              	.LCFI3:
 555              		.cfi_def_cfa_offset 8
 556              		.cfi_offset 4, -8
 557              		.cfi_offset 14, -4
  36:Core/Src/parts/devs_config.cpp ****         Body_IMU.address = 0xD0;
 558              		.loc 6 36 0
 559 0002 0A48     		ldr	r0, .L21
 560 0004 0A4B     		ldr	r3, .L21+4
 561 0006 0360     		str	r3, [r0]
  37:Core/Src/parts/devs_config.cpp ****         Body_IMU.a_scale = Accel_Scale::SCALE_2G;
 562              		.loc 6 37 0
 563 0008 D022     		movs	r2, #208
 564 000a 80F82820 		strb	r2, [r0, #40]
  38:Core/Src/parts/devs_config.cpp ****         Body_IMU.g_scale = Gyro_Scale::SCALE_250;
 565              		.loc 6 38 0
ARM GAS  C:\Users\073be\AppData\Local\Temp\ccfMMNVd.s 			page 16


 566 000e 0022     		movs	r2, #0
 567 0010 80F83020 		strb	r2, [r0, #48]
  39:Core/Src/parts/devs_config.cpp **** 
 568              		.loc 6 39 0
 569 0014 80F83120 		strb	r2, [r0, #49]
  41:Core/Src/parts/devs_config.cpp ****         Body_HMC.address = 0x3C;
 570              		.loc 6 41 0
 571 0018 064C     		ldr	r4, .L21+8
 572 001a 2360     		str	r3, [r4]
  42:Core/Src/parts/devs_config.cpp ****         // Body_HMC.hard_iron_offset.set_Values(43, 45, 0);
 573              		.loc 6 42 0
 574 001c 3C23     		movs	r3, #60
 575 001e 2374     		strb	r3, [r4, #16]
  45:Core/Src/parts/devs_config.cpp ****         HMC5883_Init(&Body_HMC);
 576              		.loc 6 45 0
 577 0020 FFF7FEFF 		bl	_Z12MPU6050_InitP7MPU6050
 578              	.LVL44:
  46:Core/Src/parts/devs_config.cpp **** }
 579              		.loc 6 46 0
 580 0024 2046     		mov	r0, r4
 581 0026 FFF7FEFF 		bl	_Z12HMC5883_InitP7HMC5883
 582              	.LVL45:
  47:Core/Src/parts/devs_config.cpp **** 
 583              		.loc 6 47 0
 584 002a 10BD     		pop	{r4, pc}
 585              	.L22:
 586              		.align	2
 587              	.L21:
 588 002c 00000000 		.word	.LANCHOR0
 589 0030 00000000 		.word	hi2c1
 590 0034 00000000 		.word	.LANCHOR1
 591              		.cfi_endproc
 592              	.LFE215:
 594              		.section	.text._Z12Stepper_Initv,"ax",%progbits
 595              		.align	1
 596              		.global	_Z12Stepper_Initv
 597              		.syntax unified
 598              		.thumb
 599              		.thumb_func
 600              		.fpu fpv4-sp-d16
 602              	_Z12Stepper_Initv:
 603              	.LFB216:
  50:Core/Src/parts/devs_config.cpp ****         IMU_Stepper.steps_per_rev = 200;
 604              		.loc 6 50 0
 605              		.cfi_startproc
 606              		@ args = 0, pretend = 0, frame = 0
 607              		@ frame_needed = 0, uses_anonymous_args = 0
 608 0000 08B5     		push	{r3, lr}
 609              	.LCFI4:
 610              		.cfi_def_cfa_offset 8
 611              		.cfi_offset 3, -8
 612              		.cfi_offset 14, -4
  51:Core/Src/parts/devs_config.cpp ****         IMU_Stepper.dir_port = GPIOD;
 613              		.loc 6 51 0
 614 0002 0A48     		ldr	r0, .L25
 615 0004 C823     		movs	r3, #200
 616 0006 0360     		str	r3, [r0]
ARM GAS  C:\Users\073be\AppData\Local\Temp\ccfMMNVd.s 			page 17


  52:Core/Src/parts/devs_config.cpp ****         IMU_Stepper.dir_pin = GPIO_PIN_10;
 617              		.loc 6 52 0
 618 0008 094B     		ldr	r3, .L25+4
 619 000a 4360     		str	r3, [r0, #4]
  53:Core/Src/parts/devs_config.cpp ****         IMU_Stepper.step_port = GPIOB;
 620              		.loc 6 53 0
 621 000c 4FF48063 		mov	r3, #1024
 622 0010 C360     		str	r3, [r0, #12]
  54:Core/Src/parts/devs_config.cpp ****         IMU_Stepper.step_pin = GPIO_PIN_14;
 623              		.loc 6 54 0
 624 0012 03F18043 		add	r3, r3, #1073741824
 625 0016 03F50033 		add	r3, r3, #131072
 626 001a 8360     		str	r3, [r0, #8]
  55:Core/Src/parts/devs_config.cpp **** 
 627              		.loc 6 55 0
 628 001c 4FF48043 		mov	r3, #16384
 629 0020 0361     		str	r3, [r0, #16]
  57:Core/Src/parts/devs_config.cpp **** }
 630              		.loc 6 57 0
 631 0022 0021     		movs	r1, #0
 632 0024 FFF7FEFF 		bl	_Z18A4988_setDirectionP5A4988m
 633              	.LVL46:
  58:Core/Src/parts/devs_config.cpp **** 
 634              		.loc 6 58 0
 635 0028 08BD     		pop	{r3, pc}
 636              	.L26:
 637 002a 00BF     		.align	2
 638              	.L25:
 639 002c 00000000 		.word	.LANCHOR8
 640 0030 000C0240 		.word	1073875968
 641              		.cfi_endproc
 642              	.LFE216:
 644              		.section	.text._Z13Encoders_Initv,"ax",%progbits
 645              		.align	1
 646              		.global	_Z13Encoders_Initv
 647              		.syntax unified
 648              		.thumb
 649              		.thumb_func
 650              		.fpu fpv4-sp-d16
 652              	_Z13Encoders_Initv:
 653              	.LFB217:
  62:Core/Src/parts/devs_config.cpp ****         gXEnc.id = 'x';
 654              		.loc 6 62 0
 655              		.cfi_startproc
 656              		@ args = 0, pretend = 0, frame = 0
 657              		@ frame_needed = 0, uses_anonymous_args = 0
 658              		@ link register save eliminated.
 659 0000 30B4     		push	{r4, r5}
 660              	.LCFI5:
 661              		.cfi_def_cfa_offset 8
 662              		.cfi_offset 4, -8
 663              		.cfi_offset 5, -4
  63:Core/Src/parts/devs_config.cpp ****         gXEnc.chB_port = GPIOC;
 664              		.loc 6 63 0
 665 0002 0C4B     		ldr	r3, .L29
 666 0004 7822     		movs	r2, #120
 667 0006 1A75     		strb	r2, [r3, #20]
ARM GAS  C:\Users\073be\AppData\Local\Temp\ccfMMNVd.s 			page 18


  64:Core/Src/parts/devs_config.cpp ****         gXEnc.chB_pin = GPIO_PIN_5;
 668              		.loc 6 64 0
 669 0008 0B4C     		ldr	r4, .L29+4
 670 000a 1C60     		str	r4, [r3]
  65:Core/Src/parts/devs_config.cpp ****         gXEnc.count = 0;
 671              		.loc 6 65 0
 672 000c 2022     		movs	r2, #32
 673 000e 9A80     		strh	r2, [r3, #4]	@ movhi
  66:Core/Src/parts/devs_config.cpp ****         gXEnc.radius = 29;
 674              		.loc 6 66 0
 675 0010 0020     		movs	r0, #0
 676 0012 9860     		str	r0, [r3, #8]
  67:Core/Src/parts/devs_config.cpp ****         gXEnc.ppr = 200;
 677              		.loc 6 67 0
 678 0014 0949     		ldr	r1, .L29+8
 679 0016 D960     		str	r1, [r3, #12]	@ float
  68:Core/Src/parts/devs_config.cpp **** 
 680              		.loc 6 68 0
 681 0018 094A     		ldr	r2, .L29+12
 682 001a 1A61     		str	r2, [r3, #16]	@ float
  70:Core/Src/parts/devs_config.cpp ****         gYEnc.chB_port = GPIOC;
 683              		.loc 6 70 0
 684 001c 094B     		ldr	r3, .L29+16
 685 001e 7925     		movs	r5, #121
 686 0020 1D75     		strb	r5, [r3, #20]
  71:Core/Src/parts/devs_config.cpp ****         gYEnc.chB_pin = GPIO_PIN_4;
 687              		.loc 6 71 0
 688 0022 1C60     		str	r4, [r3]
  72:Core/Src/parts/devs_config.cpp ****         gYEnc.count = 0;
 689              		.loc 6 72 0
 690 0024 1024     		movs	r4, #16
 691 0026 9C80     		strh	r4, [r3, #4]	@ movhi
  73:Core/Src/parts/devs_config.cpp ****         gYEnc.radius = 29;
 692              		.loc 6 73 0
 693 0028 9860     		str	r0, [r3, #8]
  74:Core/Src/parts/devs_config.cpp ****         gYEnc.ppr = 200;
 694              		.loc 6 74 0
 695 002a D960     		str	r1, [r3, #12]	@ float
  75:Core/Src/parts/devs_config.cpp **** }
 696              		.loc 6 75 0
 697 002c 1A61     		str	r2, [r3, #16]	@ float
  76:Core/Src/parts/devs_config.cpp **** 
 698              		.loc 6 76 0
 699 002e 30BC     		pop	{r4, r5}
 700              	.LCFI6:
 701              		.cfi_restore 5
 702              		.cfi_restore 4
 703              		.cfi_def_cfa_offset 0
 704 0030 7047     		bx	lr
 705              	.L30:
 706 0032 00BF     		.align	2
 707              	.L29:
 708 0034 00000000 		.word	.LANCHOR4
 709 0038 00080240 		.word	1073874944
 710 003c 0000E841 		.word	1105723392
 711 0040 00004843 		.word	1128792064
 712 0044 00000000 		.word	.LANCHOR6
ARM GAS  C:\Users\073be\AppData\Local\Temp\ccfMMNVd.s 			page 19


 713              		.cfi_endproc
 714              	.LFE217:
 716              		.section	.text._Z12swap_ElementIfEvRT_S1_,"axG",%progbits,_Z12swap_ElementIfEvRT_S1_,comdat
 717              		.align	1
 718              		.weak	_Z12swap_ElementIfEvRT_S1_
 719              		.syntax unified
 720              		.thumb
 721              		.thumb_func
 722              		.fpu fpv4-sp-d16
 724              	_Z12swap_ElementIfEvRT_S1_:
 725              	.LFB258:
  16:Core/Inc/utils\math/vec3.h **** {
 726              		.loc 7 16 0
 727              		.cfi_startproc
 728              		@ args = 0, pretend = 0, frame = 0
 729              		@ frame_needed = 0, uses_anonymous_args = 0
 730              		@ link register save eliminated.
 731              	.LVL47:
  18:Core/Inc/utils\math/vec3.h ****         first = second;
 732              		.loc 7 18 0
 733 0000 0368     		ldr	r3, [r0]	@ float
 734              	.LVL48:
  19:Core/Inc/utils\math/vec3.h ****         second = temp;
 735              		.loc 7 19 0
 736 0002 0A68     		ldr	r2, [r1]	@ float
 737 0004 0260     		str	r2, [r0]	@ float
  20:Core/Inc/utils\math/vec3.h **** }
 738              		.loc 7 20 0
 739 0006 0B60     		str	r3, [r1]	@ float
  21:Core/Inc/utils\math/vec3.h **** 
 740              		.loc 7 21 0
 741 0008 7047     		bx	lr
 742              		.cfi_endproc
 743              	.LFE258:
 745              		.section	.text._Z11Lidars_Initv,"ax",%progbits
 746              		.align	1
 747              		.global	_Z11Lidars_Initv
 748              		.syntax unified
 749              		.thumb
 750              		.thumb_func
 751              		.fpu fpv4-sp-d16
 753              	_Z11Lidars_Initv:
 754              	.LFB218:
  79:Core/Src/parts/devs_config.cpp ****         gXLidar.set_Outliers(Vec2<float>(5000, 0));
 755              		.loc 6 79 0
 756              		.cfi_startproc
 757              		@ args = 0, pretend = 0, frame = 16
 758              		@ frame_needed = 0, uses_anonymous_args = 0
 759 0000 10B5     		push	{r4, lr}
 760              	.LCFI7:
 761              		.cfi_def_cfa_offset 8
 762              		.cfi_offset 4, -8
 763              		.cfi_offset 14, -4
 764 0002 84B0     		sub	sp, sp, #16
 765              	.LCFI8:
 766              		.cfi_def_cfa_offset 24
 767              	.LVL49:
ARM GAS  C:\Users\073be\AppData\Local\Temp\ccfMMNVd.s 			page 20


 768              	.LBB355:
 769              	.LBB356:
 770              	.LBB357:
 771              	.LBB358:
 772              	.LBB359:
 773              	.LBB360:
  31:Core/Inc/utils\math/vec2.h **** 
  32:Core/Inc/utils\math/vec2.h ****         void set_Values(T x, T y) {
  33:Core/Inc/utils\math/vec2.h ****                 setX(x);
  34:Core/Inc/utils\math/vec2.h ****                 setY(y);
  35:Core/Inc/utils\math/vec2.h ****         }
  36:Core/Inc/utils\math/vec2.h **** 
  37:Core/Inc/utils\math/vec2.h **** 
  38:Core/Inc/utils\math/vec2.h ****         Vec2 mult_EW(float num) {
  39:Core/Inc/utils\math/vec2.h ****                 Vec2 temp(*this);
  40:Core/Inc/utils\math/vec2.h ****                 temp.x_ *= num;
  41:Core/Inc/utils\math/vec2.h ****                 temp.y_ *= num;
  42:Core/Inc/utils\math/vec2.h **** 
  43:Core/Inc/utils\math/vec2.h ****                 return temp;
  44:Core/Inc/utils\math/vec2.h ****         }
  45:Core/Inc/utils\math/vec2.h **** 
  46:Core/Inc/utils\math/vec2.h ****         template <typename T1>
  47:Core/Inc/utils\math/vec2.h ****         Vec2 mult_EW(Vec2<T1> v) {
  48:Core/Inc/utils\math/vec2.h ****                 Vec2 temp(v);
  49:Core/Inc/utils\math/vec2.h ****                 temp.x_ *= x_;
  50:Core/Inc/utils\math/vec2.h ****                 temp.y_ *= y_;
  51:Core/Inc/utils\math/vec2.h **** 
  52:Core/Inc/utils\math/vec2.h ****                 return temp;
  53:Core/Inc/utils\math/vec2.h ****         }
  54:Core/Inc/utils\math/vec2.h **** 
  55:Core/Inc/utils\math/vec2.h **** 
  56:Core/Inc/utils\math/vec2.h ****         Vec2 add_EW(float num) {
  57:Core/Inc/utils\math/vec2.h ****                 Vec2 temp(*this);
  58:Core/Inc/utils\math/vec2.h ****                 temp.x_ += num;
  59:Core/Inc/utils\math/vec2.h ****                 temp.y_ += num;
  60:Core/Inc/utils\math/vec2.h **** 
  61:Core/Inc/utils\math/vec2.h ****                 return temp;
  62:Core/Inc/utils\math/vec2.h ****         }
  63:Core/Inc/utils\math/vec2.h **** 
  64:Core/Inc/utils\math/vec2.h ****         template <typename T1>
  65:Core/Inc/utils\math/vec2.h ****         Vec2 add_EW(Vec2<T1> v) {
  66:Core/Inc/utils\math/vec2.h ****                 Vec2 temp(v);
  67:Core/Inc/utils\math/vec2.h ****                 temp.x_ += x_;
  68:Core/Inc/utils\math/vec2.h ****                 temp.y_ += y_;
  69:Core/Inc/utils\math/vec2.h **** 
  70:Core/Inc/utils\math/vec2.h ****                 return temp;
  71:Core/Inc/utils\math/vec2.h ****         }
  72:Core/Inc/utils\math/vec2.h **** 
  73:Core/Inc/utils\math/vec2.h **** 
  74:Core/Inc/utils\math/vec2.h ****         Vec2 sub_EW(float num) {
  75:Core/Inc/utils\math/vec2.h ****                 Vec2 temp(*this);
  76:Core/Inc/utils\math/vec2.h ****                 temp.x_ -= num;
  77:Core/Inc/utils\math/vec2.h ****                 temp.y_ -= num;
  78:Core/Inc/utils\math/vec2.h **** 
  79:Core/Inc/utils\math/vec2.h ****                 return temp;
  80:Core/Inc/utils\math/vec2.h ****         }
  81:Core/Inc/utils\math/vec2.h **** 
ARM GAS  C:\Users\073be\AppData\Local\Temp\ccfMMNVd.s 			page 21


  82:Core/Inc/utils\math/vec2.h ****         template <typename T1>
  83:Core/Inc/utils\math/vec2.h ****         Vec2 sub_EW(Vec2<T1> v) {
  84:Core/Inc/utils\math/vec2.h ****                 Vec2 temp(v);
  85:Core/Inc/utils\math/vec2.h ****                 temp.x_ -= x_;
  86:Core/Inc/utils\math/vec2.h ****                 temp.y_ -= y_;
  87:Core/Inc/utils\math/vec2.h **** 
  88:Core/Inc/utils\math/vec2.h ****                 return temp;
  89:Core/Inc/utils\math/vec2.h ****         }
  90:Core/Inc/utils\math/vec2.h **** 
  91:Core/Inc/utils\math/vec2.h **** 
  92:Core/Inc/utils\math/vec2.h ****         Vec2 div_EW(float num) {
  93:Core/Inc/utils\math/vec2.h ****                 Vec2 temp(*this);
  94:Core/Inc/utils\math/vec2.h ****                 temp.x_ /= (float)num;
  95:Core/Inc/utils\math/vec2.h ****                 temp.y_ /= (float)num;
  96:Core/Inc/utils\math/vec2.h **** 
  97:Core/Inc/utils\math/vec2.h ****                 return temp;
  98:Core/Inc/utils\math/vec2.h ****         }
  99:Core/Inc/utils\math/vec2.h **** 
 100:Core/Inc/utils\math/vec2.h ****         template <typename T1>
 101:Core/Inc/utils\math/vec2.h ****         Vec2 div_EW(Vec2<T1> v) {
 102:Core/Inc/utils\math/vec2.h ****                 Vec2 temp(*this);
 103:Core/Inc/utils\math/vec2.h ****                 temp.x_ /= (float)v.x_;
 104:Core/Inc/utils\math/vec2.h ****                 temp.y_ /= (float)v.y_;
 105:Core/Inc/utils\math/vec2.h **** 
 106:Core/Inc/utils\math/vec2.h ****                 return temp;
 107:Core/Inc/utils\math/vec2.h ****         }
 108:Core/Inc/utils\math/vec2.h **** 
 109:Core/Inc/utils\math/vec2.h ****         
 110:Core/Inc/utils\math/vec2.h ****         Vec2(const Vec2 &v) {
 111:Core/Inc/utils\math/vec2.h ****                 x_ = v.x_;
 774              		.loc 8 111 0
 775 0004 084B     		ldr	r3, .L34
 776 0006 0093     		str	r3, [sp]	@ float
 112:Core/Inc/utils\math/vec2.h ****                 y_ = v.y_;
 777              		.loc 8 112 0
 778 0008 0023     		movs	r3, #0
 779 000a 0193     		str	r3, [sp, #4]	@ float
 780              	.LVL50:
 781              	.LBE360:
 782              	.LBE359:
 783              	.LBE358:
 784              	.LBB361:
 785              	.LBB362:
 113:Core/Inc/utils\math/vec2.h ****         }
 114:Core/Inc/utils\math/vec2.h ****         
 115:Core/Inc/utils\math/vec2.h ****         Vec2 &operator=(const Vec2 &v) {
 116:Core/Inc/utils\math/vec2.h ****                 Vec2 temp(v);
 117:Core/Inc/utils\math/vec2.h ****                 swap(*this, temp);
 118:Core/Inc/utils\math/vec2.h **** 
 119:Core/Inc/utils\math/vec2.h ****                 return *this;
 120:Core/Inc/utils\math/vec2.h ****         }
 121:Core/Inc/utils\math/vec2.h **** 
 122:Core/Inc/utils\math/vec2.h ****         Vec2 &operator+=(const Vec2 &rhs) {
 123:Core/Inc/utils\math/vec2.h ****                 x_ += rhs.x_;
 124:Core/Inc/utils\math/vec2.h ****                 y_ += rhs.y_;
 125:Core/Inc/utils\math/vec2.h **** 
 126:Core/Inc/utils\math/vec2.h ****                 return *this;
ARM GAS  C:\Users\073be\AppData\Local\Temp\ccfMMNVd.s 			page 22


 127:Core/Inc/utils\math/vec2.h ****         }
 128:Core/Inc/utils\math/vec2.h ****         
 129:Core/Inc/utils\math/vec2.h ****         Vec2 &operator-=(const Vec2 &rhs) {
 130:Core/Inc/utils\math/vec2.h ****                 x_ -= rhs.x_;
 131:Core/Inc/utils\math/vec2.h ****                 y_ -= rhs.y_;
 132:Core/Inc/utils\math/vec2.h **** 
 133:Core/Inc/utils\math/vec2.h ****                 return *this;
 134:Core/Inc/utils\math/vec2.h ****         }
 135:Core/Inc/utils\math/vec2.h **** 
 136:Core/Inc/utils\math/vec2.h ****         friend Vec2 operator+(Vec2 lhs, const Vec2 &rhs) {
 137:Core/Inc/utils\math/vec2.h ****                 lhs += rhs;
 138:Core/Inc/utils\math/vec2.h ****                 return lhs;
 139:Core/Inc/utils\math/vec2.h ****         }
 140:Core/Inc/utils\math/vec2.h **** 
 141:Core/Inc/utils\math/vec2.h ****         friend Vec2 operator-(Vec2 lhs, const Vec2 &rhs) {
 142:Core/Inc/utils\math/vec2.h ****                 lhs -= rhs;
 143:Core/Inc/utils\math/vec2.h ****                 return lhs;
 144:Core/Inc/utils\math/vec2.h ****         }
 145:Core/Inc/utils\math/vec2.h **** 
 146:Core/Inc/utils\math/vec2.h ****         void print() const {
 147:Core/Inc/utils\math/vec2.h ****                 printf("%ld, %ld", (int32_t)x_, (int32_t)y_);
 148:Core/Inc/utils\math/vec2.h ****         }
 149:Core/Inc/utils\math/vec2.h **** 
 150:Core/Inc/utils\math/vec2.h **** private:
 151:Core/Inc/utils\math/vec2.h ****         T x_,y_;
 152:Core/Inc/utils\math/vec2.h **** 
 153:Core/Inc/utils\math/vec2.h ****         friend void swap(Vec2 &first, Vec2 &second) {
 154:Core/Inc/utils\math/vec2.h ****                 swap_Element(first.x_, second.x_);
 786              		.loc 8 154 0
 787 000c 074C     		ldr	r4, .L34+4
 788 000e 6946     		mov	r1, sp
 789 0010 04F10C00 		add	r0, r4, #12
 790 0014 FFF7FEFF 		bl	_Z12swap_ElementIfEvRT_S1_
 791              	.LVL51:
 155:Core/Inc/utils\math/vec2.h ****                 swap_Element(first.y_, second.y_);
 792              		.loc 8 155 0
 793 0018 01A9     		add	r1, sp, #4
 794 001a 04F11000 		add	r0, r4, #16
 795 001e FFF7FEFF 		bl	_Z12swap_ElementIfEvRT_S1_
 796              	.LVL52:
 797              	.LBE362:
 798              	.LBE361:
 799              	.LBE357:
 800              	.LBE356:
 801              	.LBE355:
 802              		.loc 6 81 0
 803 0022 04B0     		add	sp, sp, #16
 804              	.LCFI9:
 805              		.cfi_def_cfa_offset 8
 806              		@ sp needed
 807 0024 10BD     		pop	{r4, pc}
 808              	.L35:
 809 0026 00BF     		.align	2
 810              	.L34:
 811 0028 00409C45 		.word	1167867904
 812 002c 00000000 		.word	.LANCHOR7
 813              		.cfi_endproc
ARM GAS  C:\Users\073be\AppData\Local\Temp\ccfMMNVd.s 			page 23


 814              	.LFE218:
 816              		.section	.text._GLOBAL__sub_I_Body_IMU,"ax",%progbits
 817              		.align	1
 818              		.syntax unified
 819              		.thumb
 820              		.thumb_func
 821              		.fpu fpv4-sp-d16
 823              	_GLOBAL__sub_I_Body_IMU:
 824              	.LFB272:
 825              		.loc 6 81 0
 826              		.cfi_startproc
 827              		@ args = 0, pretend = 0, frame = 0
 828              		@ frame_needed = 0, uses_anonymous_args = 0
 829 0000 08B5     		push	{r3, lr}
 830              	.LCFI10:
 831              		.cfi_def_cfa_offset 8
 832              		.cfi_offset 3, -8
 833              		.cfi_offset 14, -4
 834              		.loc 6 81 0
 835 0002 4FF6FF71 		movw	r1, #65535
 836 0006 0120     		movs	r0, #1
 837 0008 FFF7FEFF 		bl	_Z41__static_initialization_and_destruction_0ii
 838              	.LVL53:
 839 000c 08BD     		pop	{r3, pc}
 840              		.cfi_endproc
 841              	.LFE272:
 843              		.section	.init_array,"aw",%init_array
 844              		.align	2
 845 0000 00000000 		.word	_GLOBAL__sub_I_Body_IMU(target1)
 846              		.global	gXLidar
 847              		.global	gYEncoder
 848              		.global	gXEncoder
 849              		.global	gMax_Robo_Velocity
 850              		.global	gXLidar_Dev
 851              		.global	gYEnc
 852              		.global	gXEnc
 853              		.global	IMU_Stepper
 854              		.global	Body_HMC
 855              		.global	Body_IMU
 856              		.section	.bss.Body_HMC,"aw",%nobits
 857              		.align	2
 858              		.set	.LANCHOR1,. + 0
 861              	Body_HMC:
 862 0000 00000000 		.space	32
 862      00000000 
 862      00000000 
 862      00000000 
 862      00000000 
 863              		.section	.bss.Body_IMU,"aw",%nobits
 864              		.align	2
 865              		.set	.LANCHOR0,. + 0
 868              	Body_IMU:
 869 0000 00000000 		.space	52
 869      00000000 
 869      00000000 
 869      00000000 
 869      00000000 
ARM GAS  C:\Users\073be\AppData\Local\Temp\ccfMMNVd.s 			page 24


 870              		.section	.bss.IMU_Stepper,"aw",%nobits
 871              		.align	2
 872              		.set	.LANCHOR8,. + 0
 875              	IMU_Stepper:
 876 0000 00000000 		.space	24
 876      00000000 
 876      00000000 
 876      00000000 
 876      00000000 
 877              		.section	.bss.gXEnc,"aw",%nobits
 878              		.align	2
 879              		.set	.LANCHOR4,. + 0
 882              	gXEnc:
 883 0000 00000000 		.space	24
 883      00000000 
 883      00000000 
 883      00000000 
 883      00000000 
 884              		.section	.bss.gXEncoder,"aw",%nobits
 885              		.align	2
 886              		.set	.LANCHOR3,. + 0
 889              	gXEncoder:
 890 0000 00000000 		.space	12
 890      00000000 
 890      00000000 
 891              		.section	.bss.gXLidar,"aw",%nobits
 892              		.align	2
 893              		.set	.LANCHOR7,. + 0
 896              	gXLidar:
 897 0000 00000000 		.space	24
 897      00000000 
 897      00000000 
 897      00000000 
 897      00000000 
 898              		.section	.bss.gXLidar_Dev,"aw",%nobits
 899              		.align	2
 900              		.set	.LANCHOR2,. + 0
 903              	gXLidar_Dev:
 904 0000 00000000 		.space	24
 904      00000000 
 904      00000000 
 904      00000000 
 904      00000000 
 905              		.section	.bss.gYEnc,"aw",%nobits
 906              		.align	2
 907              		.set	.LANCHOR6,. + 0
 910              	gYEnc:
 911 0000 00000000 		.space	24
 911      00000000 
 911      00000000 
 911      00000000 
 911      00000000 
 912              		.section	.bss.gYEncoder,"aw",%nobits
 913              		.align	2
 914              		.set	.LANCHOR5,. + 0
 917              	gYEncoder:
 918 0000 00000000 		.space	12
ARM GAS  C:\Users\073be\AppData\Local\Temp\ccfMMNVd.s 			page 25


 918      00000000 
 918      00000000 
 919              		.section	.rodata.gMax_Robo_Velocity,"a",%progbits
 920              		.align	2
 923              	gMax_Robo_Velocity:
 924 0000 90010000 		.word	400
 925              		.text
 926              	.Letext0:
 927              		.file 9 "c:\\program files (x86)\\gnu tools arm embedded\\7 2017-q4-major\\arm-none-eabi\\include\
 928              		.file 10 "c:\\program files (x86)\\gnu tools arm embedded\\7 2017-q4-major\\arm-none-eabi\\include
 929              		.file 11 "C:/Users/n-is/STM32Cube/Repository/STM32Cube_FW_F4_V1.23.0/Drivers/CMSIS/Include/core_cm
 930              		.file 12 "C:/Users/n-is/STM32Cube/Repository/STM32Cube_FW_F4_V1.23.0/Drivers/CMSIS/Device/ST/STM32
 931              		.file 13 "C:/Users/n-is/STM32Cube/Repository/STM32Cube_FW_F4_V1.23.0/Drivers/CMSIS/Device/ST/STM32
 932              		.file 14 "c:\\program files (x86)\\gnu tools arm embedded\\7 2017-q4-major\\arm-none-eabi\\include
 933              		.file 15 "c:\\program files (x86)\\gnu tools arm embedded\\7 2017-q4-major\\arm-none-eabi\\include
 934              		.file 16 "c:\\program files (x86)\\gnu tools arm embedded\\7 2017-q4-major\\lib\\gcc\\arm-none-eab
 935              		.file 17 "c:\\program files (x86)\\gnu tools arm embedded\\7 2017-q4-major\\arm-none-eabi\\include
 936              		.file 18 "C:/Users/n-is/STM32Cube/Repository/STM32Cube_FW_F4_V1.23.0/Drivers/STM32F4xx_HAL_Driver/
 937              		.file 19 "C:/Users/n-is/STM32Cube/Repository/STM32Cube_FW_F4_V1.23.0/Drivers/STM32F4xx_HAL_Driver/
 938              		.file 20 "C:/Users/n-is/STM32Cube/Repository/STM32Cube_FW_F4_V1.23.0/Drivers/STM32F4xx_HAL_Driver/
 939              		.file 21 "C:/Users/n-is/STM32Cube/Repository/STM32Cube_FW_F4_V1.23.0/Drivers/STM32F4xx_HAL_Driver/
 940              		.file 22 "Core/Inc/periphs/tim.h"
 941              		.file 23 "Core/Inc/devs/a4988.h"
 942              		.file 24 "Core/Inc/utils\\container/queue_custom.h"
 943              		.file 25 "Core/Inc/devs/freewheel.h"
 944              		.file 26 "Core/Inc/periphs/i2c.h"
 945              		.file 27 "Core/Inc/parts/devs_config.h"
 946              		.file 28 "Core/Inc/parts/sensors/sensor.h"
ARM GAS  C:\Users\073be\AppData\Local\Temp\ccfMMNVd.s 			page 26

