ARM GAS  C:\Users\073be\AppData\Local\Temp\ccw6vWpz.s 			page 1


   1              		.cpu cortex-m4
   2              		.eabi_attribute 27, 1
   3              		.eabi_attribute 28, 1
   4              		.eabi_attribute 20, 1
   5              		.eabi_attribute 21, 1
   6              		.eabi_attribute 23, 3
   7              		.eabi_attribute 24, 1
   8              		.eabi_attribute 25, 1
   9              		.eabi_attribute 26, 1
  10              		.eabi_attribute 30, 1
  11              		.eabi_attribute 34, 1
  12              		.eabi_attribute 18, 4
  13              		.file	"encoder.cpp"
  14              		.text
  15              	.Ltext0:
  16              		.cfi_sections	.debug_frame
  17              		.section	.text._ZN7EncoderD2Ev,"axG",%progbits,_ZN7EncoderD5Ev,comdat
  18              		.align	1
  19              		.weak	_ZN7EncoderD2Ev
  20              		.syntax unified
  21              		.thumb
  22              		.thumb_func
  23              		.fpu fpv4-sp-d16
  25              	_ZN7EncoderD2Ev:
  26              	.LFB129:
  27              		.file 1 "Core/Inc/parts/sensors/encoder.h"
   1:Core/Inc/parts/sensors/encoder.h **** /*
   2:Core/Inc/parts/sensors/encoder.h ****  * encoder.h
   3:Core/Inc/parts/sensors/encoder.h ****  * 
   4:Core/Inc/parts/sensors/encoder.h ****  * Created : 11/16/2018
   5:Core/Inc/parts/sensors/encoder.h ****  *  Author : n-is
   6:Core/Inc/parts/sensors/encoder.h ****  *   email : 073bex422.nischal@pcampus.edu.np
   7:Core/Inc/parts/sensors/encoder.h ****  */
   8:Core/Inc/parts/sensors/encoder.h **** 
   9:Core/Inc/parts/sensors/encoder.h **** #ifndef _ENCODER_H_
  10:Core/Inc/parts/sensors/encoder.h **** #define _ENCODER_H_
  11:Core/Inc/parts/sensors/encoder.h **** 
  12:Core/Inc/parts/sensors/encoder.h **** #include "sensor.h"
  13:Core/Inc/parts/sensors/encoder.h **** #include "freewheel.h"
  14:Core/Inc/parts/sensors/encoder.h **** 
  15:Core/Inc/parts/sensors/encoder.h **** 
  16:Core/Inc/parts/sensors/encoder.h **** class Encoder : public Sensor<float>
  17:Core/Inc/parts/sensors/encoder.h **** {
  18:Core/Inc/parts/sensors/encoder.h **** public:
  19:Core/Inc/parts/sensors/encoder.h ****         Encoder() = default;
  20:Core/Inc/parts/sensors/encoder.h ****         Encoder(Encoder &&) = default;
  21:Core/Inc/parts/sensors/encoder.h ****         Encoder(const Encoder &) = default;
  22:Core/Inc/parts/sensors/encoder.h ****         Encoder &operator=(Encoder &&) = default;
  23:Core/Inc/parts/sensors/encoder.h ****         Encoder &operator=(const Encoder &) = default;
  24:Core/Inc/parts/sensors/encoder.h ****         ~Encoder() { }
  28              		.loc 1 24 0
  29              		.cfi_startproc
  30              		@ args = 0, pretend = 0, frame = 0
  31              		@ frame_needed = 0, uses_anonymous_args = 0
  32              		@ link register save eliminated.
  33              	.LVL0:
  34              		.loc 1 24 0
ARM GAS  C:\Users\073be\AppData\Local\Temp\ccw6vWpz.s 			page 2


  35 0000 7047     		bx	lr
  36              		.cfi_endproc
  37              	.LFE129:
  39              		.weak	_ZN7EncoderD1Ev
  40              		.thumb_set _ZN7EncoderD1Ev,_ZN7EncoderD2Ev
  41              		.section	.text._ZN7Encoder4initEv,"ax",%progbits
  42              		.align	1
  43              		.global	_ZN7Encoder4initEv
  44              		.syntax unified
  45              		.thumb
  46              		.thumb_func
  47              		.fpu fpv4-sp-d16
  49              	_ZN7Encoder4initEv:
  50              	.LFB138:
  51              		.file 2 "Core/Src/parts/sensors/encoder.cpp"
   1:Core/Src/parts/sensors/encoder.cpp **** /*
   2:Core/Src/parts/sensors/encoder.cpp ****  * encoder.cpp
   3:Core/Src/parts/sensors/encoder.cpp ****  * 
   4:Core/Src/parts/sensors/encoder.cpp ****  * Created : 11/16/2018
   5:Core/Src/parts/sensors/encoder.cpp ****  *  Author : n-is
   6:Core/Src/parts/sensors/encoder.cpp ****  *   email : 073bex422.nischal@pcampus.edu.np
   7:Core/Src/parts/sensors/encoder.cpp ****  */
   8:Core/Src/parts/sensors/encoder.cpp **** 
   9:Core/Src/parts/sensors/encoder.cpp **** #include "encoder.h"
  10:Core/Src/parts/sensors/encoder.cpp **** 
  11:Core/Src/parts/sensors/encoder.cpp **** int Encoder::init()
  12:Core/Src/parts/sensors/encoder.cpp **** {
  52              		.loc 2 12 0
  53              		.cfi_startproc
  54              		@ args = 0, pretend = 0, frame = 0
  55              		@ frame_needed = 0, uses_anonymous_args = 0
  56              		@ link register save eliminated.
  57              	.LVL1:
  13:Core/Src/parts/sensors/encoder.cpp ****         return 0;
  14:Core/Src/parts/sensors/encoder.cpp **** }
  58              		.loc 2 14 0
  59 0000 0020     		movs	r0, #0
  60              	.LVL2:
  61 0002 7047     		bx	lr
  62              		.cfi_endproc
  63              	.LFE138:
  65              		.section	.text._ZN7Encoder9availableEv,"ax",%progbits
  66              		.align	1
  67              		.global	_ZN7Encoder9availableEv
  68              		.syntax unified
  69              		.thumb
  70              		.thumb_func
  71              		.fpu fpv4-sp-d16
  73              	_ZN7Encoder9availableEv:
  74              	.LFB140:
  15:Core/Src/parts/sensors/encoder.cpp **** 
  16:Core/Src/parts/sensors/encoder.cpp **** // static float gYDist = 0;
  17:Core/Src/parts/sensors/encoder.cpp **** 
  18:Core/Src/parts/sensors/encoder.cpp **** float Encoder::read()
  19:Core/Src/parts/sensors/encoder.cpp **** {
  20:Core/Src/parts/sensors/encoder.cpp ****         float dist = Enc_get_DeltaDist(enc_);
  21:Core/Src/parts/sensors/encoder.cpp ****         // printf("%c : %ld\n", enc_->id, (int32_t)(dist*1000));
ARM GAS  C:\Users\073be\AppData\Local\Temp\ccw6vWpz.s 			page 3


  22:Core/Src/parts/sensors/encoder.cpp ****         
  23:Core/Src/parts/sensors/encoder.cpp ****         
  24:Core/Src/parts/sensors/encoder.cpp ****         // if (enc_->id == 'y') {
  25:Core/Src/parts/sensors/encoder.cpp ****         //         gYDist += dist;
  26:Core/Src/parts/sensors/encoder.cpp ****         //         printf("%c : %ld\n", enc_->id, (int32_t)(gYDist*1000));
  27:Core/Src/parts/sensors/encoder.cpp ****         // }
  28:Core/Src/parts/sensors/encoder.cpp **** 
  29:Core/Src/parts/sensors/encoder.cpp ****         return dist;
  30:Core/Src/parts/sensors/encoder.cpp **** }
  31:Core/Src/parts/sensors/encoder.cpp **** 
  32:Core/Src/parts/sensors/encoder.cpp **** bool Encoder::available()
  33:Core/Src/parts/sensors/encoder.cpp **** {
  75              		.loc 2 33 0
  76              		.cfi_startproc
  77              		@ args = 0, pretend = 0, frame = 0
  78              		@ frame_needed = 0, uses_anonymous_args = 0
  79              		@ link register save eliminated.
  80              	.LVL3:
  34:Core/Src/parts/sensors/encoder.cpp ****         return true;
  35:Core/Src/parts/sensors/encoder.cpp **** }
  81              		.loc 2 35 0
  82 0000 0120     		movs	r0, #1
  83              	.LVL4:
  84 0002 7047     		bx	lr
  85              		.cfi_endproc
  86              	.LFE140:
  88              		.section	.text._ZN7Encoder5denitEv,"ax",%progbits
  89              		.align	1
  90              		.global	_ZN7Encoder5denitEv
  91              		.syntax unified
  92              		.thumb
  93              		.thumb_func
  94              		.fpu fpv4-sp-d16
  96              	_ZN7Encoder5denitEv:
  97              	.LFB141:
  36:Core/Src/parts/sensors/encoder.cpp **** 
  37:Core/Src/parts/sensors/encoder.cpp **** void Encoder::denit()
  38:Core/Src/parts/sensors/encoder.cpp **** {
  98              		.loc 2 38 0
  99              		.cfi_startproc
 100              		@ args = 0, pretend = 0, frame = 0
 101              		@ frame_needed = 0, uses_anonymous_args = 0
 102              		@ link register save eliminated.
 103              	.LVL5:
  39:Core/Src/parts/sensors/encoder.cpp ****         
  40:Core/Src/parts/sensors/encoder.cpp **** }
 104              		.loc 2 40 0
 105 0000 7047     		bx	lr
 106              		.cfi_endproc
 107              	.LFE141:
 109              		.section	.text._ZN7Encoder4readEv,"ax",%progbits
 110              		.align	1
 111              		.global	_ZN7Encoder4readEv
 112              		.syntax unified
 113              		.thumb
 114              		.thumb_func
 115              		.fpu fpv4-sp-d16
ARM GAS  C:\Users\073be\AppData\Local\Temp\ccw6vWpz.s 			page 4


 117              	_ZN7Encoder4readEv:
 118              	.LFB139:
  19:Core/Src/parts/sensors/encoder.cpp ****         float dist = Enc_get_DeltaDist(enc_);
 119              		.loc 2 19 0
 120              		.cfi_startproc
 121              		@ args = 0, pretend = 0, frame = 0
 122              		@ frame_needed = 0, uses_anonymous_args = 0
 123              	.LVL6:
 124 0000 08B5     		push	{r3, lr}
 125              	.LCFI0:
 126              		.cfi_def_cfa_offset 8
 127              		.cfi_offset 3, -8
 128              		.cfi_offset 14, -4
  20:Core/Src/parts/sensors/encoder.cpp ****         // printf("%c : %ld\n", enc_->id, (int32_t)(dist*1000));
 129              		.loc 2 20 0
 130 0002 8068     		ldr	r0, [r0, #8]
 131              	.LVL7:
 132 0004 FFF7FEFF 		bl	_Z17Enc_get_DeltaDistP3Enc
 133              	.LVL8:
  30:Core/Src/parts/sensors/encoder.cpp **** 
 134              		.loc 2 30 0
 135 0008 08BD     		pop	{r3, pc}
 136              		.cfi_endproc
 137              	.LFE139:
 139              		.section	.text._ZN7EncoderD0Ev,"axG",%progbits,_ZN7EncoderD5Ev,comdat
 140              		.align	1
 141              		.weak	_ZN7EncoderD0Ev
 142              		.syntax unified
 143              		.thumb
 144              		.thumb_func
 145              		.fpu fpv4-sp-d16
 147              	_ZN7EncoderD0Ev:
 148              	.LFB131:
 149              		.loc 1 24 0
 150              		.cfi_startproc
 151              		@ args = 0, pretend = 0, frame = 0
 152              		@ frame_needed = 0, uses_anonymous_args = 0
 153              	.LVL9:
 154 0000 10B5     		push	{r4, lr}
 155              	.LCFI1:
 156              		.cfi_def_cfa_offset 8
 157              		.cfi_offset 4, -8
 158              		.cfi_offset 14, -4
 159 0002 0446     		mov	r4, r0
 160              		.loc 1 24 0
 161 0004 0C21     		movs	r1, #12
 162 0006 FFF7FEFF 		bl	_ZdlPvj
 163              	.LVL10:
 164 000a 2046     		mov	r0, r4
 165 000c 10BD     		pop	{r4, pc}
 166              		.cfi_endproc
 167              	.LFE131:
 169              		.weak	_ZTS6SensorIfE
 170              		.section	.rodata._ZTS6SensorIfE,"aG",%progbits,_ZTS6SensorIfE,comdat
 171              		.align	2
 174              	_ZTS6SensorIfE:
 175 0000 3653656E 		.ascii	"6SensorIfE\000"
ARM GAS  C:\Users\073be\AppData\Local\Temp\ccw6vWpz.s 			page 5


 175      736F7249 
 175      664500
 176              		.weak	_ZTI6SensorIfE
 177              		.section	.rodata._ZTI6SensorIfE,"aG",%progbits,_ZTI6SensorIfE,comdat
 178              		.align	2
 181              	_ZTI6SensorIfE:
 182 0000 08000000 		.word	_ZTVN10__cxxabiv117__class_type_infoE+8
 183 0004 00000000 		.word	_ZTS6SensorIfE
 184              		.global	_ZTS7Encoder
 185              		.global	_ZTI7Encoder
 186              		.global	_ZTV7Encoder
 187              		.section	.rodata._ZTI7Encoder,"a",%progbits
 188              		.align	2
 191              	_ZTI7Encoder:
 192 0000 08000000 		.word	_ZTVN10__cxxabiv120__si_class_type_infoE+8
 193 0004 00000000 		.word	_ZTS7Encoder
 194 0008 00000000 		.word	_ZTI6SensorIfE
 195              		.section	.rodata._ZTS7Encoder,"a",%progbits
 196              		.align	2
 199              	_ZTS7Encoder:
 200 0000 37456E63 		.ascii	"7Encoder\000"
 200      6F646572 
 200      00
 201              		.section	.rodata._ZTV7Encoder,"a",%progbits
 202              		.align	2
 205              	_ZTV7Encoder:
 206 0000 00000000 		.word	0
 207 0004 00000000 		.word	_ZTI7Encoder
 208 0008 00000000 		.word	_ZN7EncoderD1Ev
 209 000c 00000000 		.word	_ZN7EncoderD0Ev
 210 0010 00000000 		.word	_ZN7Encoder4initEv
 211 0014 00000000 		.word	_ZN7Encoder4readEv
 212 0018 00000000 		.word	_ZN7Encoder9availableEv
 213 001c 00000000 		.word	_ZN7Encoder5denitEv
 214              		.text
 215              	.Letext0:
 216              		.file 3 "c:\\program files (x86)\\gnu tools arm embedded\\7 2017-q4-major\\arm-none-eabi\\include\
 217              		.file 4 "c:\\program files (x86)\\gnu tools arm embedded\\7 2017-q4-major\\arm-none-eabi\\include\
 218              		.file 5 "C:/Users/n-is/STM32Cube/Repository/STM32Cube_FW_F4_V1.23.0/Drivers/CMSIS/Include/core_cm4
 219              		.file 6 "C:/Users/n-is/STM32Cube/Repository/STM32Cube_FW_F4_V1.23.0/Drivers/CMSIS/Device/ST/STM32F
 220              		.file 7 "C:/Users/n-is/STM32Cube/Repository/STM32Cube_FW_F4_V1.23.0/Drivers/CMSIS/Device/ST/STM32F
 221              		.file 8 "C:/Users/n-is/STM32Cube/Repository/STM32Cube_FW_F4_V1.23.0/Drivers/CMSIS/Device/ST/STM32F
 222              		.file 9 "c:\\program files (x86)\\gnu tools arm embedded\\7 2017-q4-major\\arm-none-eabi\\include\
 223              		.file 10 "c:\\program files (x86)\\gnu tools arm embedded\\7 2017-q4-major\\arm-none-eabi\\include
 224              		.file 11 "c:\\program files (x86)\\gnu tools arm embedded\\7 2017-q4-major\\lib\\gcc\\arm-none-eab
 225              		.file 12 "c:\\program files (x86)\\gnu tools arm embedded\\7 2017-q4-major\\arm-none-eabi\\include
 226              		.file 13 "C:/Users/n-is/STM32Cube/Repository/STM32Cube_FW_F4_V1.23.0/Drivers/STM32F4xx_HAL_Driver/
 227              		.file 14 "Core/Inc/devs/freewheel.h"
 228              		.file 15 "Core/Inc/parts/sensors/sensor.h"
ARM GAS  C:\Users\073be\AppData\Local\Temp\ccw6vWpz.s 			page 6

