ARM GAS  C:\Users\073be\AppData\Local\Temp\ccqf6vun.s 			page 1


   1              		.cpu cortex-m4
   2              		.eabi_attribute 27, 1
   3              		.eabi_attribute 28, 1
   4              		.eabi_attribute 20, 1
   5              		.eabi_attribute 21, 1
   6              		.eabi_attribute 23, 3
   7              		.eabi_attribute 24, 1
   8              		.eabi_attribute 25, 1
   9              		.eabi_attribute 26, 1
  10              		.eabi_attribute 30, 1
  11              		.eabi_attribute 34, 1
  12              		.eabi_attribute 18, 4
  13              		.file	"gpio.c"
  14              		.text
  15              	.Ltext0:
  16              		.cfi_sections	.debug_frame
  17              		.section	.text.MX_GPIO_Init,"ax",%progbits
  18              		.align	1
  19              		.global	MX_GPIO_Init
  20              		.syntax unified
  21              		.thumb
  22              		.thumb_func
  23              		.fpu fpv4-sp-d16
  25              	MX_GPIO_Init:
  26              	.LFB126:
  27              		.file 1 "Core/Src/periphs/gpio.c"
   1:Core/Src/periphs/gpio.c **** /**
   2:Core/Src/periphs/gpio.c ****   ******************************************************************************
   3:Core/Src/periphs/gpio.c ****   * File Name          : gpio.c
   4:Core/Src/periphs/gpio.c ****   * Description        : This file provides code for the configuration
   5:Core/Src/periphs/gpio.c ****   *                      of all used GPIO pins.
   6:Core/Src/periphs/gpio.c ****   ******************************************************************************
   7:Core/Src/periphs/gpio.c ****   * This notice applies to any and all portions of this file
   8:Core/Src/periphs/gpio.c ****   * that are not between comment pairs USER CODE BEGIN and
   9:Core/Src/periphs/gpio.c ****   * USER CODE END. Other portions of this file, whether 
  10:Core/Src/periphs/gpio.c ****   * inserted by the user or by software development tools
  11:Core/Src/periphs/gpio.c ****   * are owned by their respective copyright owners.
  12:Core/Src/periphs/gpio.c ****   *
  13:Core/Src/periphs/gpio.c ****   * Copyright (c) 2019 STMicroelectronics International N.V. 
  14:Core/Src/periphs/gpio.c ****   * All rights reserved.
  15:Core/Src/periphs/gpio.c ****   *
  16:Core/Src/periphs/gpio.c ****   * Redistribution and use in source and binary forms, with or without 
  17:Core/Src/periphs/gpio.c ****   * modification, are permitted, provided that the following conditions are met:
  18:Core/Src/periphs/gpio.c ****   *
  19:Core/Src/periphs/gpio.c ****   * 1. Redistribution of source code must retain the above copyright notice, 
  20:Core/Src/periphs/gpio.c ****   *    this list of conditions and the following disclaimer.
  21:Core/Src/periphs/gpio.c ****   * 2. Redistributions in binary form must reproduce the above copyright notice,
  22:Core/Src/periphs/gpio.c ****   *    this list of conditions and the following disclaimer in the documentation
  23:Core/Src/periphs/gpio.c ****   *    and/or other materials provided with the distribution.
  24:Core/Src/periphs/gpio.c ****   * 3. Neither the name of STMicroelectronics nor the names of other 
  25:Core/Src/periphs/gpio.c ****   *    contributors to this software may be used to endorse or promote products 
  26:Core/Src/periphs/gpio.c ****   *    derived from this software without specific written permission.
  27:Core/Src/periphs/gpio.c ****   * 4. This software, including modifications and/or derivative works of this 
  28:Core/Src/periphs/gpio.c ****   *    software, must execute solely and exclusively on microcontroller or
  29:Core/Src/periphs/gpio.c ****   *    microprocessor devices manufactured by or for STMicroelectronics.
  30:Core/Src/periphs/gpio.c ****   * 5. Redistribution and use of this software other than as permitted under 
  31:Core/Src/periphs/gpio.c ****   *    this license is void and will automatically terminate your rights under 
ARM GAS  C:\Users\073be\AppData\Local\Temp\ccqf6vun.s 			page 2


  32:Core/Src/periphs/gpio.c ****   *    this license. 
  33:Core/Src/periphs/gpio.c ****   *
  34:Core/Src/periphs/gpio.c ****   * THIS SOFTWARE IS PROVIDED BY STMICROELECTRONICS AND CONTRIBUTORS "AS IS" 
  35:Core/Src/periphs/gpio.c ****   * AND ANY EXPRESS, IMPLIED OR STATUTORY WARRANTIES, INCLUDING, BUT NOT 
  36:Core/Src/periphs/gpio.c ****   * LIMITED TO, THE IMPLIED WARRANTIES OF MERCHANTABILITY, FITNESS FOR A 
  37:Core/Src/periphs/gpio.c ****   * PARTICULAR PURPOSE AND NON-INFRINGEMENT OF THIRD PARTY INTELLECTUAL PROPERTY
  38:Core/Src/periphs/gpio.c ****   * RIGHTS ARE DISCLAIMED TO THE FULLEST EXTENT PERMITTED BY LAW. IN NO EVENT 
  39:Core/Src/periphs/gpio.c ****   * SHALL STMICROELECTRONICS OR CONTRIBUTORS BE LIABLE FOR ANY DIRECT, INDIRECT,
  40:Core/Src/periphs/gpio.c ****   * INCIDENTAL, SPECIAL, EXEMPLARY, OR CONSEQUENTIAL DAMAGES (INCLUDING, BUT NOT
  41:Core/Src/periphs/gpio.c ****   * LIMITED TO, PROCUREMENT OF SUBSTITUTE GOODS OR SERVICES; LOSS OF USE, DATA, 
  42:Core/Src/periphs/gpio.c ****   * OR PROFITS; OR BUSINESS INTERRUPTION) HOWEVER CAUSED AND ON ANY THEORY OF 
  43:Core/Src/periphs/gpio.c ****   * LIABILITY, WHETHER IN CONTRACT, STRICT LIABILITY, OR TORT (INCLUDING 
  44:Core/Src/periphs/gpio.c ****   * NEGLIGENCE OR OTHERWISE) ARISING IN ANY WAY OUT OF THE USE OF THIS SOFTWARE,
  45:Core/Src/periphs/gpio.c ****   * EVEN IF ADVISED OF THE POSSIBILITY OF SUCH DAMAGE.
  46:Core/Src/periphs/gpio.c ****   *
  47:Core/Src/periphs/gpio.c ****   ******************************************************************************
  48:Core/Src/periphs/gpio.c ****   */
  49:Core/Src/periphs/gpio.c **** 
  50:Core/Src/periphs/gpio.c **** /* Includes ------------------------------------------------------------------*/
  51:Core/Src/periphs/gpio.c **** #include "gpio.h"
  52:Core/Src/periphs/gpio.c **** /* USER CODE BEGIN 0 */
  53:Core/Src/periphs/gpio.c **** 
  54:Core/Src/periphs/gpio.c **** /* USER CODE END 0 */
  55:Core/Src/periphs/gpio.c **** 
  56:Core/Src/periphs/gpio.c **** /*----------------------------------------------------------------------------*/
  57:Core/Src/periphs/gpio.c **** /* Configure GPIO                                                             */
  58:Core/Src/periphs/gpio.c **** /*----------------------------------------------------------------------------*/
  59:Core/Src/periphs/gpio.c **** /* USER CODE BEGIN 1 */
  60:Core/Src/periphs/gpio.c **** 
  61:Core/Src/periphs/gpio.c **** /* USER CODE END 1 */
  62:Core/Src/periphs/gpio.c **** 
  63:Core/Src/periphs/gpio.c **** /** Configure pins as 
  64:Core/Src/periphs/gpio.c ****         * Analog 
  65:Core/Src/periphs/gpio.c ****         * Input 
  66:Core/Src/periphs/gpio.c ****         * Output
  67:Core/Src/periphs/gpio.c ****         * EVENT_OUT
  68:Core/Src/periphs/gpio.c ****         * EXTI
  69:Core/Src/periphs/gpio.c ****         * Free pins are configured automatically as Analog (this feature is enabled through 
  70:Core/Src/periphs/gpio.c ****         * the Code Generation settings)
  71:Core/Src/periphs/gpio.c **** */
  72:Core/Src/periphs/gpio.c **** void MX_GPIO_Init(void)
  73:Core/Src/periphs/gpio.c **** {
  28              		.loc 1 73 0
  29              		.cfi_startproc
  30              		@ args = 0, pretend = 0, frame = 48
  31              		@ frame_needed = 0, uses_anonymous_args = 0
  32 0000 2DE9F04F 		push	{r4, r5, r6, r7, r8, r9, r10, fp, lr}
  33              	.LCFI0:
  34              		.cfi_def_cfa_offset 36
  35              		.cfi_offset 4, -36
  36              		.cfi_offset 5, -32
  37              		.cfi_offset 6, -28
  38              		.cfi_offset 7, -24
  39              		.cfi_offset 8, -20
  40              		.cfi_offset 9, -16
  41              		.cfi_offset 10, -12
  42              		.cfi_offset 11, -8
ARM GAS  C:\Users\073be\AppData\Local\Temp\ccqf6vun.s 			page 3


  43              		.cfi_offset 14, -4
  44 0004 8DB0     		sub	sp, sp, #52
  45              	.LCFI1:
  46              		.cfi_def_cfa_offset 88
  74:Core/Src/periphs/gpio.c **** 
  75:Core/Src/periphs/gpio.c ****   GPIO_InitTypeDef GPIO_InitStruct = {0};
  47              		.loc 1 75 0
  48 0006 0024     		movs	r4, #0
  49 0008 0794     		str	r4, [sp, #28]
  50 000a 0894     		str	r4, [sp, #32]
  51 000c 0994     		str	r4, [sp, #36]
  52 000e 0A94     		str	r4, [sp, #40]
  53 0010 0B94     		str	r4, [sp, #44]
  54              	.LBB2:
  76:Core/Src/periphs/gpio.c **** 
  77:Core/Src/periphs/gpio.c ****   /* GPIO Ports Clock Enable */
  78:Core/Src/periphs/gpio.c ****   __HAL_RCC_GPIOE_CLK_ENABLE();
  55              		.loc 1 78 0
  56 0012 0194     		str	r4, [sp, #4]
  57 0014 984B     		ldr	r3, .L3
  58 0016 1A6B     		ldr	r2, [r3, #48]
  59 0018 42F01002 		orr	r2, r2, #16
  60 001c 1A63     		str	r2, [r3, #48]
  61 001e 1A6B     		ldr	r2, [r3, #48]
  62 0020 02F01002 		and	r2, r2, #16
  63 0024 0192     		str	r2, [sp, #4]
  64 0026 019A     		ldr	r2, [sp, #4]
  65              	.LBE2:
  66              	.LBB3:
  79:Core/Src/periphs/gpio.c ****   __HAL_RCC_GPIOC_CLK_ENABLE();
  67              		.loc 1 79 0
  68 0028 0294     		str	r4, [sp, #8]
  69 002a 1A6B     		ldr	r2, [r3, #48]
  70 002c 42F00402 		orr	r2, r2, #4
  71 0030 1A63     		str	r2, [r3, #48]
  72 0032 1A6B     		ldr	r2, [r3, #48]
  73 0034 02F00402 		and	r2, r2, #4
  74 0038 0292     		str	r2, [sp, #8]
  75 003a 029A     		ldr	r2, [sp, #8]
  76              	.LBE3:
  77              	.LBB4:
  80:Core/Src/periphs/gpio.c ****   __HAL_RCC_GPIOH_CLK_ENABLE();
  78              		.loc 1 80 0
  79 003c 0394     		str	r4, [sp, #12]
  80 003e 1A6B     		ldr	r2, [r3, #48]
  81 0040 42F08002 		orr	r2, r2, #128
  82 0044 1A63     		str	r2, [r3, #48]
  83 0046 1A6B     		ldr	r2, [r3, #48]
  84 0048 02F08002 		and	r2, r2, #128
  85 004c 0392     		str	r2, [sp, #12]
  86 004e 039A     		ldr	r2, [sp, #12]
  87              	.LBE4:
  88              	.LBB5:
  81:Core/Src/periphs/gpio.c ****   __HAL_RCC_GPIOA_CLK_ENABLE();
  89              		.loc 1 81 0
  90 0050 0494     		str	r4, [sp, #16]
  91 0052 1A6B     		ldr	r2, [r3, #48]
ARM GAS  C:\Users\073be\AppData\Local\Temp\ccqf6vun.s 			page 4


  92 0054 42F00102 		orr	r2, r2, #1
  93 0058 1A63     		str	r2, [r3, #48]
  94 005a 1A6B     		ldr	r2, [r3, #48]
  95 005c 02F00102 		and	r2, r2, #1
  96 0060 0492     		str	r2, [sp, #16]
  97 0062 049A     		ldr	r2, [sp, #16]
  98              	.LBE5:
  99              	.LBB6:
  82:Core/Src/periphs/gpio.c ****   __HAL_RCC_GPIOB_CLK_ENABLE();
 100              		.loc 1 82 0
 101 0064 0594     		str	r4, [sp, #20]
 102 0066 1A6B     		ldr	r2, [r3, #48]
 103 0068 42F00202 		orr	r2, r2, #2
 104 006c 1A63     		str	r2, [r3, #48]
 105 006e 1A6B     		ldr	r2, [r3, #48]
 106 0070 02F00202 		and	r2, r2, #2
 107 0074 0592     		str	r2, [sp, #20]
 108 0076 059A     		ldr	r2, [sp, #20]
 109              	.LBE6:
 110              	.LBB7:
  83:Core/Src/periphs/gpio.c ****   __HAL_RCC_GPIOD_CLK_ENABLE();
 111              		.loc 1 83 0
 112 0078 0694     		str	r4, [sp, #24]
 113 007a 1A6B     		ldr	r2, [r3, #48]
 114 007c 42F00802 		orr	r2, r2, #8
 115 0080 1A63     		str	r2, [r3, #48]
 116 0082 1B6B     		ldr	r3, [r3, #48]
 117 0084 03F00803 		and	r3, r3, #8
 118 0088 0693     		str	r3, [sp, #24]
 119 008a 069B     		ldr	r3, [sp, #24]
 120              	.LBE7:
  84:Core/Src/periphs/gpio.c **** 
  85:Core/Src/periphs/gpio.c ****   /*Configure GPIO pin Output Level */
  86:Core/Src/periphs/gpio.c ****   HAL_GPIO_WritePin(GPIOE, GPIO_PIN_3|GPIO_PIN_5|GPIO_PIN_1, GPIO_PIN_RESET);
 121              		.loc 1 86 0
 122 008c 7B4F     		ldr	r7, .L3+4
 123 008e 2246     		mov	r2, r4
 124 0090 2A21     		movs	r1, #42
 125 0092 3846     		mov	r0, r7
 126 0094 FFF7FEFF 		bl	HAL_GPIO_WritePin
 127              	.LVL0:
  87:Core/Src/periphs/gpio.c **** 
  88:Core/Src/periphs/gpio.c ****   /*Configure GPIO pin Output Level */
  89:Core/Src/periphs/gpio.c ****   HAL_GPIO_WritePin(GPIOC, GPIO_PIN_13, GPIO_PIN_RESET);
 128              		.loc 1 89 0
 129 0098 DFF8EC81 		ldr	r8, .L3+16
 130 009c 2246     		mov	r2, r4
 131 009e 4FF40051 		mov	r1, #8192
 132 00a2 4046     		mov	r0, r8
 133 00a4 FFF7FEFF 		bl	HAL_GPIO_WritePin
 134              	.LVL1:
  90:Core/Src/periphs/gpio.c **** 
  91:Core/Src/periphs/gpio.c ****   /*Configure GPIO pin Output Level */
  92:Core/Src/periphs/gpio.c ****   HAL_GPIO_WritePin(SPI2_CS_GPIO_Port, SPI2_CS_Pin, GPIO_PIN_SET);
 135              		.loc 1 92 0
 136 00a8 0122     		movs	r2, #1
 137 00aa 0221     		movs	r1, #2
ARM GAS  C:\Users\073be\AppData\Local\Temp\ccqf6vun.s 			page 5


 138 00ac 4046     		mov	r0, r8
 139 00ae FFF7FEFF 		bl	HAL_GPIO_WritePin
 140              	.LVL2:
  93:Core/Src/periphs/gpio.c **** 
  94:Core/Src/periphs/gpio.c ****   /*Configure GPIO pin Output Level */
  95:Core/Src/periphs/gpio.c ****   HAL_GPIO_WritePin(GPIOB, GPIO_PIN_14|GPIO_PIN_5, GPIO_PIN_RESET);
 141              		.loc 1 95 0
 142 00b2 2246     		mov	r2, r4
 143 00b4 44F22001 		movw	r1, #16416
 144 00b8 7148     		ldr	r0, .L3+8
 145 00ba FFF7FEFF 		bl	HAL_GPIO_WritePin
 146              	.LVL3:
  96:Core/Src/periphs/gpio.c **** 
  97:Core/Src/periphs/gpio.c ****   /*Configure GPIO pin Output Level */
  98:Core/Src/periphs/gpio.c ****   HAL_GPIO_WritePin(GPIOD, GPIO_PIN_10|B_GreenLED_Pin|B_OrangeLED_Pin|B_RedLED_Pin 
 147              		.loc 1 98 0
 148 00be 2246     		mov	r2, r4
 149 00c0 4FF20541 		movw	r1, #62469
 150 00c4 6F48     		ldr	r0, .L3+12
 151 00c6 FFF7FEFF 		bl	HAL_GPIO_WritePin
 152              	.LVL4:
  99:Core/Src/periphs/gpio.c ****                           |B_BlueLED_Pin|GPIO_PIN_0|GPIO_PIN_2, GPIO_PIN_RESET);
 100:Core/Src/periphs/gpio.c **** 
 101:Core/Src/periphs/gpio.c ****   /*Configure GPIO pin Output Level */
 102:Core/Src/periphs/gpio.c ****   HAL_GPIO_WritePin(GPIOA, GPIO_PIN_10, GPIO_PIN_RESET);
 153              		.loc 1 102 0
 154 00ca DFF8C091 		ldr	r9, .L3+20
 155 00ce 2246     		mov	r2, r4
 156 00d0 4FF48061 		mov	r1, #1024
 157 00d4 4846     		mov	r0, r9
 158 00d6 FFF7FEFF 		bl	HAL_GPIO_WritePin
 159              	.LVL5:
 103:Core/Src/periphs/gpio.c **** 
 104:Core/Src/periphs/gpio.c ****   /*Configure GPIO pins : PE2 PE4 PE6 PE8 
 105:Core/Src/periphs/gpio.c ****                            PE10 PE12 PE13 PE14 
 106:Core/Src/periphs/gpio.c ****                            PE0 */
 107:Core/Src/periphs/gpio.c ****   GPIO_InitStruct.Pin = GPIO_PIN_2|GPIO_PIN_4|GPIO_PIN_6|GPIO_PIN_8 
 160              		.loc 1 107 0
 161 00da 47F25553 		movw	r3, #30037
 162 00de 0793     		str	r3, [sp, #28]
 108:Core/Src/periphs/gpio.c ****                           |GPIO_PIN_10|GPIO_PIN_12|GPIO_PIN_13|GPIO_PIN_14 
 109:Core/Src/periphs/gpio.c ****                           |GPIO_PIN_0;
 110:Core/Src/periphs/gpio.c ****   GPIO_InitStruct.Mode = GPIO_MODE_ANALOG;
 163              		.loc 1 110 0
 164 00e0 0326     		movs	r6, #3
 165 00e2 0896     		str	r6, [sp, #32]
 111:Core/Src/periphs/gpio.c ****   GPIO_InitStruct.Pull = GPIO_NOPULL;
 166              		.loc 1 111 0
 167 00e4 0994     		str	r4, [sp, #36]
 112:Core/Src/periphs/gpio.c ****   HAL_GPIO_Init(GPIOE, &GPIO_InitStruct);
 168              		.loc 1 112 0
 169 00e6 07A9     		add	r1, sp, #28
 170 00e8 3846     		mov	r0, r7
 171 00ea FFF7FEFF 		bl	HAL_GPIO_Init
 172              	.LVL6:
 113:Core/Src/periphs/gpio.c **** 
 114:Core/Src/periphs/gpio.c ****   /*Configure GPIO pins : PE3 PE5 PE1 */
ARM GAS  C:\Users\073be\AppData\Local\Temp\ccqf6vun.s 			page 6


 115:Core/Src/periphs/gpio.c ****   GPIO_InitStruct.Pin = GPIO_PIN_3|GPIO_PIN_5|GPIO_PIN_1;
 173              		.loc 1 115 0
 174 00ee 2A23     		movs	r3, #42
 175 00f0 0793     		str	r3, [sp, #28]
 116:Core/Src/periphs/gpio.c ****   GPIO_InitStruct.Mode = GPIO_MODE_OUTPUT_PP;
 176              		.loc 1 116 0
 177 00f2 0125     		movs	r5, #1
 178 00f4 0895     		str	r5, [sp, #32]
 117:Core/Src/periphs/gpio.c ****   GPIO_InitStruct.Pull = GPIO_NOPULL;
 179              		.loc 1 117 0
 180 00f6 0994     		str	r4, [sp, #36]
 118:Core/Src/periphs/gpio.c ****   GPIO_InitStruct.Speed = GPIO_SPEED_FREQ_LOW;
 181              		.loc 1 118 0
 182 00f8 0A94     		str	r4, [sp, #40]
 119:Core/Src/periphs/gpio.c ****   HAL_GPIO_Init(GPIOE, &GPIO_InitStruct);
 183              		.loc 1 119 0
 184 00fa 07A9     		add	r1, sp, #28
 185 00fc 3846     		mov	r0, r7
 186 00fe FFF7FEFF 		bl	HAL_GPIO_Init
 187              	.LVL7:
 120:Core/Src/periphs/gpio.c **** 
 121:Core/Src/periphs/gpio.c ****   /*Configure GPIO pin : PC13 */
 122:Core/Src/periphs/gpio.c ****   GPIO_InitStruct.Pin = GPIO_PIN_13;
 188              		.loc 1 122 0
 189 0102 4FF40053 		mov	r3, #8192
 190 0106 0793     		str	r3, [sp, #28]
 123:Core/Src/periphs/gpio.c ****   GPIO_InitStruct.Mode = GPIO_MODE_OUTPUT_PP;
 191              		.loc 1 123 0
 192 0108 0895     		str	r5, [sp, #32]
 124:Core/Src/periphs/gpio.c ****   GPIO_InitStruct.Pull = GPIO_NOPULL;
 193              		.loc 1 124 0
 194 010a 0994     		str	r4, [sp, #36]
 125:Core/Src/periphs/gpio.c ****   GPIO_InitStruct.Speed = GPIO_SPEED_FREQ_LOW;
 195              		.loc 1 125 0
 196 010c 0A94     		str	r4, [sp, #40]
 126:Core/Src/periphs/gpio.c ****   HAL_GPIO_Init(GPIOC, &GPIO_InitStruct);
 197              		.loc 1 126 0
 198 010e 07A9     		add	r1, sp, #28
 199 0110 4046     		mov	r0, r8
 200 0112 FFF7FEFF 		bl	HAL_GPIO_Init
 201              	.LVL8:
 127:Core/Src/periphs/gpio.c **** 
 128:Core/Src/periphs/gpio.c ****   /*Configure GPIO pins : PC14 PC15 PC0 PC12 */
 129:Core/Src/periphs/gpio.c ****   GPIO_InitStruct.Pin = GPIO_PIN_14|GPIO_PIN_15|GPIO_PIN_0|GPIO_PIN_12;
 202              		.loc 1 129 0
 203 0116 4DF20103 		movw	r3, #53249
 204 011a 0793     		str	r3, [sp, #28]
 130:Core/Src/periphs/gpio.c ****   GPIO_InitStruct.Mode = GPIO_MODE_ANALOG;
 205              		.loc 1 130 0
 206 011c 0896     		str	r6, [sp, #32]
 131:Core/Src/periphs/gpio.c ****   GPIO_InitStruct.Pull = GPIO_NOPULL;
 207              		.loc 1 131 0
 208 011e 0994     		str	r4, [sp, #36]
 132:Core/Src/periphs/gpio.c ****   HAL_GPIO_Init(GPIOC, &GPIO_InitStruct);
 209              		.loc 1 132 0
 210 0120 07A9     		add	r1, sp, #28
 211 0122 4046     		mov	r0, r8
ARM GAS  C:\Users\073be\AppData\Local\Temp\ccqf6vun.s 			page 7


 212 0124 FFF7FEFF 		bl	HAL_GPIO_Init
 213              	.LVL9:
 133:Core/Src/periphs/gpio.c **** 
 134:Core/Src/periphs/gpio.c ****   /*Configure GPIO pin : PtPin */
 135:Core/Src/periphs/gpio.c ****   GPIO_InitStruct.Pin = SPI2_CS_Pin;
 214              		.loc 1 135 0
 215 0128 0223     		movs	r3, #2
 216 012a 0793     		str	r3, [sp, #28]
 136:Core/Src/periphs/gpio.c ****   GPIO_InitStruct.Mode = GPIO_MODE_OUTPUT_PP;
 217              		.loc 1 136 0
 218 012c 0895     		str	r5, [sp, #32]
 137:Core/Src/periphs/gpio.c ****   GPIO_InitStruct.Pull = GPIO_NOPULL;
 219              		.loc 1 137 0
 220 012e 0994     		str	r4, [sp, #36]
 138:Core/Src/periphs/gpio.c ****   GPIO_InitStruct.Speed = GPIO_SPEED_FREQ_VERY_HIGH;
 221              		.loc 1 138 0
 222 0130 0A96     		str	r6, [sp, #40]
 139:Core/Src/periphs/gpio.c ****   HAL_GPIO_Init(SPI2_CS_GPIO_Port, &GPIO_InitStruct);
 223              		.loc 1 139 0
 224 0132 07A9     		add	r1, sp, #28
 225 0134 4046     		mov	r0, r8
 226 0136 FFF7FEFF 		bl	HAL_GPIO_Init
 227              	.LVL10:
 140:Core/Src/periphs/gpio.c **** 
 141:Core/Src/periphs/gpio.c ****   /*Configure GPIO pin : PtPin */
 142:Core/Src/periphs/gpio.c ****   GPIO_InitStruct.Pin = B_PushButton_Pin;
 228              		.loc 1 142 0
 229 013a 0795     		str	r5, [sp, #28]
 143:Core/Src/periphs/gpio.c ****   GPIO_InitStruct.Mode = GPIO_MODE_INPUT;
 230              		.loc 1 143 0
 231 013c 0894     		str	r4, [sp, #32]
 144:Core/Src/periphs/gpio.c ****   GPIO_InitStruct.Pull = GPIO_PULLUP;
 232              		.loc 1 144 0
 233 013e 0995     		str	r5, [sp, #36]
 145:Core/Src/periphs/gpio.c ****   HAL_GPIO_Init(B_PushButton_GPIO_Port, &GPIO_InitStruct);
 234              		.loc 1 145 0
 235 0140 07A9     		add	r1, sp, #28
 236 0142 4846     		mov	r0, r9
 237 0144 FFF7FEFF 		bl	HAL_GPIO_Init
 238              	.LVL11:
 146:Core/Src/periphs/gpio.c **** 
 147:Core/Src/periphs/gpio.c ****   /*Configure GPIO pins : PA4 PA5 PA9 */
 148:Core/Src/periphs/gpio.c ****   GPIO_InitStruct.Pin = GPIO_PIN_4|GPIO_PIN_5|GPIO_PIN_9;
 239              		.loc 1 148 0
 240 0148 4FF40C73 		mov	r3, #560
 241 014c 0793     		str	r3, [sp, #28]
 149:Core/Src/periphs/gpio.c ****   GPIO_InitStruct.Mode = GPIO_MODE_ANALOG;
 242              		.loc 1 149 0
 243 014e 0896     		str	r6, [sp, #32]
 150:Core/Src/periphs/gpio.c ****   GPIO_InitStruct.Pull = GPIO_NOPULL;
 244              		.loc 1 150 0
 245 0150 0994     		str	r4, [sp, #36]
 151:Core/Src/periphs/gpio.c ****   HAL_GPIO_Init(GPIOA, &GPIO_InitStruct);
 246              		.loc 1 151 0
 247 0152 07A9     		add	r1, sp, #28
 248 0154 4846     		mov	r0, r9
 249 0156 FFF7FEFF 		bl	HAL_GPIO_Init
ARM GAS  C:\Users\073be\AppData\Local\Temp\ccqf6vun.s 			page 8


 250              	.LVL12:
 152:Core/Src/periphs/gpio.c **** 
 153:Core/Src/periphs/gpio.c ****   /*Configure GPIO pin : PC4 */
 154:Core/Src/periphs/gpio.c ****   GPIO_InitStruct.Pin = GPIO_PIN_4;
 251              		.loc 1 154 0
 252 015a 4FF0100A 		mov	r10, #16
 253 015e CDF81CA0 		str	r10, [sp, #28]
 155:Core/Src/periphs/gpio.c ****   GPIO_InitStruct.Mode = GPIO_MODE_INPUT;
 254              		.loc 1 155 0
 255 0162 0894     		str	r4, [sp, #32]
 156:Core/Src/periphs/gpio.c ****   GPIO_InitStruct.Pull = GPIO_PULLUP;
 256              		.loc 1 156 0
 257 0164 0995     		str	r5, [sp, #36]
 157:Core/Src/periphs/gpio.c ****   HAL_GPIO_Init(GPIOC, &GPIO_InitStruct);
 258              		.loc 1 157 0
 259 0166 07A9     		add	r1, sp, #28
 260 0168 4046     		mov	r0, r8
 261 016a FFF7FEFF 		bl	HAL_GPIO_Init
 262              	.LVL13:
 158:Core/Src/periphs/gpio.c **** 
 159:Core/Src/periphs/gpio.c ****   /*Configure GPIO pin : PC5 */
 160:Core/Src/periphs/gpio.c ****   GPIO_InitStruct.Pin = GPIO_PIN_5;
 263              		.loc 1 160 0
 264 016e 2023     		movs	r3, #32
 265 0170 0793     		str	r3, [sp, #28]
 161:Core/Src/periphs/gpio.c ****   GPIO_InitStruct.Mode = GPIO_MODE_INPUT;
 266              		.loc 1 161 0
 267 0172 0894     		str	r4, [sp, #32]
 162:Core/Src/periphs/gpio.c ****   GPIO_InitStruct.Pull = GPIO_NOPULL;
 268              		.loc 1 162 0
 269 0174 0994     		str	r4, [sp, #36]
 163:Core/Src/periphs/gpio.c ****   HAL_GPIO_Init(GPIOC, &GPIO_InitStruct);
 270              		.loc 1 163 0
 271 0176 07A9     		add	r1, sp, #28
 272 0178 4046     		mov	r0, r8
 273 017a FFF7FEFF 		bl	HAL_GPIO_Init
 274              	.LVL14:
 164:Core/Src/periphs/gpio.c **** 
 165:Core/Src/periphs/gpio.c ****   /*Configure GPIO pins : PB0 PB1 PB2 PB12 
 166:Core/Src/periphs/gpio.c ****                            PB15 */
 167:Core/Src/periphs/gpio.c ****   GPIO_InitStruct.Pin = GPIO_PIN_0|GPIO_PIN_1|GPIO_PIN_2|GPIO_PIN_12 
 275              		.loc 1 167 0
 276 017e 49F20703 		movw	r3, #36871
 277 0182 0793     		str	r3, [sp, #28]
 168:Core/Src/periphs/gpio.c ****                           |GPIO_PIN_15;
 169:Core/Src/periphs/gpio.c ****   GPIO_InitStruct.Mode = GPIO_MODE_ANALOG;
 278              		.loc 1 169 0
 279 0184 0896     		str	r6, [sp, #32]
 170:Core/Src/periphs/gpio.c ****   GPIO_InitStruct.Pull = GPIO_NOPULL;
 280              		.loc 1 170 0
 281 0186 0994     		str	r4, [sp, #36]
 171:Core/Src/periphs/gpio.c ****   HAL_GPIO_Init(GPIOB, &GPIO_InitStruct);
 282              		.loc 1 171 0
 283 0188 07A9     		add	r1, sp, #28
 284 018a 3D48     		ldr	r0, .L3+8
 285 018c FFF7FEFF 		bl	HAL_GPIO_Init
 286              	.LVL15:
ARM GAS  C:\Users\073be\AppData\Local\Temp\ccqf6vun.s 			page 9


 172:Core/Src/periphs/gpio.c **** 
 173:Core/Src/periphs/gpio.c ****   /*Configure GPIO pin : PE7 */
 174:Core/Src/periphs/gpio.c ****   GPIO_InitStruct.Pin = GPIO_PIN_7;
 287              		.loc 1 174 0
 288 0190 4FF0800B 		mov	fp, #128
 289 0194 CDF81CB0 		str	fp, [sp, #28]
 175:Core/Src/periphs/gpio.c ****   GPIO_InitStruct.Mode = GPIO_MODE_INPUT;
 290              		.loc 1 175 0
 291 0198 0894     		str	r4, [sp, #32]
 176:Core/Src/periphs/gpio.c ****   GPIO_InitStruct.Pull = GPIO_PULLUP;
 292              		.loc 1 176 0
 293 019a 0995     		str	r5, [sp, #36]
 177:Core/Src/periphs/gpio.c ****   HAL_GPIO_Init(GPIOE, &GPIO_InitStruct);
 294              		.loc 1 177 0
 295 019c 07A9     		add	r1, sp, #28
 296 019e 3846     		mov	r0, r7
 297 01a0 FFF7FEFF 		bl	HAL_GPIO_Init
 298              	.LVL16:
 178:Core/Src/periphs/gpio.c **** 
 179:Core/Src/periphs/gpio.c ****   /*Configure GPIO pin : PE9 */
 180:Core/Src/periphs/gpio.c ****   GPIO_InitStruct.Pin = GPIO_PIN_9;
 299              		.loc 1 180 0
 300 01a4 4FF40073 		mov	r3, #512
 301 01a8 0793     		str	r3, [sp, #28]
 181:Core/Src/periphs/gpio.c ****   GPIO_InitStruct.Mode = GPIO_MODE_IT_RISING;
 302              		.loc 1 181 0
 303 01aa DFF8E480 		ldr	r8, .L3+24
 304 01ae CDF82080 		str	r8, [sp, #32]
 182:Core/Src/periphs/gpio.c ****   GPIO_InitStruct.Pull = GPIO_NOPULL;
 305              		.loc 1 182 0
 306 01b2 0994     		str	r4, [sp, #36]
 183:Core/Src/periphs/gpio.c ****   HAL_GPIO_Init(GPIOE, &GPIO_InitStruct);
 307              		.loc 1 183 0
 308 01b4 07A9     		add	r1, sp, #28
 309 01b6 3846     		mov	r0, r7
 310 01b8 FFF7FEFF 		bl	HAL_GPIO_Init
 311              	.LVL17:
 184:Core/Src/periphs/gpio.c **** 
 185:Core/Src/periphs/gpio.c ****   /*Configure GPIO pin : PE15 */
 186:Core/Src/periphs/gpio.c ****   GPIO_InitStruct.Pin = GPIO_PIN_15;
 312              		.loc 1 186 0
 313 01bc 4FF40043 		mov	r3, #32768
 314 01c0 0793     		str	r3, [sp, #28]
 187:Core/Src/periphs/gpio.c ****   GPIO_InitStruct.Mode = GPIO_MODE_IT_RISING;
 315              		.loc 1 187 0
 316 01c2 CDF82080 		str	r8, [sp, #32]
 188:Core/Src/periphs/gpio.c ****   GPIO_InitStruct.Pull = GPIO_PULLUP;
 317              		.loc 1 188 0
 318 01c6 0995     		str	r5, [sp, #36]
 189:Core/Src/periphs/gpio.c ****   HAL_GPIO_Init(GPIOE, &GPIO_InitStruct);
 319              		.loc 1 189 0
 320 01c8 07A9     		add	r1, sp, #28
 321 01ca 3846     		mov	r0, r7
 322 01cc FFF7FEFF 		bl	HAL_GPIO_Init
 323              	.LVL18:
 190:Core/Src/periphs/gpio.c **** 
 191:Core/Src/periphs/gpio.c ****   /*Configure GPIO pins : PB14 PB5 */
ARM GAS  C:\Users\073be\AppData\Local\Temp\ccqf6vun.s 			page 10


 192:Core/Src/periphs/gpio.c ****   GPIO_InitStruct.Pin = GPIO_PIN_14|GPIO_PIN_5;
 324              		.loc 1 192 0
 325 01d0 44F22003 		movw	r3, #16416
 326 01d4 0793     		str	r3, [sp, #28]
 193:Core/Src/periphs/gpio.c ****   GPIO_InitStruct.Mode = GPIO_MODE_OUTPUT_PP;
 327              		.loc 1 193 0
 328 01d6 0895     		str	r5, [sp, #32]
 194:Core/Src/periphs/gpio.c ****   GPIO_InitStruct.Pull = GPIO_NOPULL;
 329              		.loc 1 194 0
 330 01d8 0994     		str	r4, [sp, #36]
 195:Core/Src/periphs/gpio.c ****   GPIO_InitStruct.Speed = GPIO_SPEED_FREQ_LOW;
 331              		.loc 1 195 0
 332 01da 0A94     		str	r4, [sp, #40]
 196:Core/Src/periphs/gpio.c ****   HAL_GPIO_Init(GPIOB, &GPIO_InitStruct);
 333              		.loc 1 196 0
 334 01dc 07A9     		add	r1, sp, #28
 335 01de 2848     		ldr	r0, .L3+8
 336 01e0 FFF7FEFF 		bl	HAL_GPIO_Init
 337              	.LVL19:
 197:Core/Src/periphs/gpio.c **** 
 198:Core/Src/periphs/gpio.c ****   /*Configure GPIO pins : PD10 PDPin PDPin PDPin 
 199:Core/Src/periphs/gpio.c ****                            PDPin PD0 PD2 */
 200:Core/Src/periphs/gpio.c ****   GPIO_InitStruct.Pin = GPIO_PIN_10|B_GreenLED_Pin|B_OrangeLED_Pin|B_RedLED_Pin 
 338              		.loc 1 200 0
 339 01e4 4FF20543 		movw	r3, #62469
 340 01e8 0793     		str	r3, [sp, #28]
 201:Core/Src/periphs/gpio.c ****                           |B_BlueLED_Pin|GPIO_PIN_0|GPIO_PIN_2;
 202:Core/Src/periphs/gpio.c ****   GPIO_InitStruct.Mode = GPIO_MODE_OUTPUT_PP;
 341              		.loc 1 202 0
 342 01ea 0895     		str	r5, [sp, #32]
 203:Core/Src/periphs/gpio.c ****   GPIO_InitStruct.Pull = GPIO_NOPULL;
 343              		.loc 1 203 0
 344 01ec 0994     		str	r4, [sp, #36]
 204:Core/Src/periphs/gpio.c ****   GPIO_InitStruct.Speed = GPIO_SPEED_FREQ_LOW;
 345              		.loc 1 204 0
 346 01ee 0A94     		str	r4, [sp, #40]
 205:Core/Src/periphs/gpio.c ****   HAL_GPIO_Init(GPIOD, &GPIO_InitStruct);
 347              		.loc 1 205 0
 348 01f0 07A9     		add	r1, sp, #28
 349 01f2 2448     		ldr	r0, .L3+12
 350 01f4 FFF7FEFF 		bl	HAL_GPIO_Init
 351              	.LVL20:
 206:Core/Src/periphs/gpio.c **** 
 207:Core/Src/periphs/gpio.c ****   /*Configure GPIO pins : PD11 PD1 PD3 PD4 */
 208:Core/Src/periphs/gpio.c ****   GPIO_InitStruct.Pin = GPIO_PIN_11|GPIO_PIN_1|GPIO_PIN_3|GPIO_PIN_4;
 352              		.loc 1 208 0
 353 01f8 40F61A03 		movw	r3, #2074
 354 01fc 0793     		str	r3, [sp, #28]
 209:Core/Src/periphs/gpio.c ****   GPIO_InitStruct.Mode = GPIO_MODE_ANALOG;
 355              		.loc 1 209 0
 356 01fe 0896     		str	r6, [sp, #32]
 210:Core/Src/periphs/gpio.c ****   GPIO_InitStruct.Pull = GPIO_NOPULL;
 357              		.loc 1 210 0
 358 0200 0994     		str	r4, [sp, #36]
 211:Core/Src/periphs/gpio.c ****   HAL_GPIO_Init(GPIOD, &GPIO_InitStruct);
 359              		.loc 1 211 0
 360 0202 07A9     		add	r1, sp, #28
ARM GAS  C:\Users\073be\AppData\Local\Temp\ccqf6vun.s 			page 11


 361 0204 1F48     		ldr	r0, .L3+12
 362 0206 FFF7FEFF 		bl	HAL_GPIO_Init
 363              	.LVL21:
 212:Core/Src/periphs/gpio.c **** 
 213:Core/Src/periphs/gpio.c ****   /*Configure GPIO pin : PA10 */
 214:Core/Src/periphs/gpio.c ****   GPIO_InitStruct.Pin = GPIO_PIN_10;
 364              		.loc 1 214 0
 365 020a 4FF48063 		mov	r3, #1024
 366 020e 0793     		str	r3, [sp, #28]
 215:Core/Src/periphs/gpio.c ****   GPIO_InitStruct.Mode = GPIO_MODE_OUTPUT_PP;
 367              		.loc 1 215 0
 368 0210 0895     		str	r5, [sp, #32]
 216:Core/Src/periphs/gpio.c ****   GPIO_InitStruct.Pull = GPIO_NOPULL;
 369              		.loc 1 216 0
 370 0212 0994     		str	r4, [sp, #36]
 217:Core/Src/periphs/gpio.c ****   GPIO_InitStruct.Speed = GPIO_SPEED_FREQ_LOW;
 371              		.loc 1 217 0
 372 0214 0A94     		str	r4, [sp, #40]
 218:Core/Src/periphs/gpio.c ****   HAL_GPIO_Init(GPIOA, &GPIO_InitStruct);
 373              		.loc 1 218 0
 374 0216 07A9     		add	r1, sp, #28
 375 0218 4846     		mov	r0, r9
 376 021a FFF7FEFF 		bl	HAL_GPIO_Init
 377              	.LVL22:
 219:Core/Src/periphs/gpio.c **** 
 220:Core/Src/periphs/gpio.c ****   /*Configure GPIO pin : PD7 */
 221:Core/Src/periphs/gpio.c ****   GPIO_InitStruct.Pin = GPIO_PIN_7;
 378              		.loc 1 221 0
 379 021e CDF81CB0 		str	fp, [sp, #28]
 222:Core/Src/periphs/gpio.c ****   GPIO_InitStruct.Mode = GPIO_MODE_IT_RISING;
 380              		.loc 1 222 0
 381 0222 CDF82080 		str	r8, [sp, #32]
 223:Core/Src/periphs/gpio.c ****   GPIO_InitStruct.Pull = GPIO_PULLUP;
 382              		.loc 1 223 0
 383 0226 0995     		str	r5, [sp, #36]
 224:Core/Src/periphs/gpio.c ****   HAL_GPIO_Init(GPIOD, &GPIO_InitStruct);
 384              		.loc 1 224 0
 385 0228 07A9     		add	r1, sp, #28
 386 022a 1648     		ldr	r0, .L3+12
 387 022c FFF7FEFF 		bl	HAL_GPIO_Init
 388              	.LVL23:
 225:Core/Src/periphs/gpio.c **** 
 226:Core/Src/periphs/gpio.c ****   /*Configure GPIO pin : PB4 */
 227:Core/Src/periphs/gpio.c ****   GPIO_InitStruct.Pin = GPIO_PIN_4;
 389              		.loc 1 227 0
 390 0230 CDF81CA0 		str	r10, [sp, #28]
 228:Core/Src/periphs/gpio.c ****   GPIO_InitStruct.Mode = GPIO_MODE_IT_RISING;
 391              		.loc 1 228 0
 392 0234 CDF82080 		str	r8, [sp, #32]
 229:Core/Src/periphs/gpio.c ****   GPIO_InitStruct.Pull = GPIO_NOPULL;
 393              		.loc 1 229 0
 394 0238 0994     		str	r4, [sp, #36]
 230:Core/Src/periphs/gpio.c ****   HAL_GPIO_Init(GPIOB, &GPIO_InitStruct);
 395              		.loc 1 230 0
 396 023a 07A9     		add	r1, sp, #28
 397 023c 1048     		ldr	r0, .L3+8
 398 023e FFF7FEFF 		bl	HAL_GPIO_Init
ARM GAS  C:\Users\073be\AppData\Local\Temp\ccqf6vun.s 			page 12


 399              	.LVL24:
 231:Core/Src/periphs/gpio.c **** 
 232:Core/Src/periphs/gpio.c ****   /* EXTI interrupt init*/
 233:Core/Src/periphs/gpio.c ****   HAL_NVIC_SetPriority(EXTI4_IRQn, 5, 0);
 400              		.loc 1 233 0
 401 0242 2246     		mov	r2, r4
 402 0244 0521     		movs	r1, #5
 403 0246 0A20     		movs	r0, #10
 404 0248 FFF7FEFF 		bl	HAL_NVIC_SetPriority
 405              	.LVL25:
 234:Core/Src/periphs/gpio.c ****   HAL_NVIC_EnableIRQ(EXTI4_IRQn);
 406              		.loc 1 234 0
 407 024c 0A20     		movs	r0, #10
 408 024e FFF7FEFF 		bl	HAL_NVIC_EnableIRQ
 409              	.LVL26:
 235:Core/Src/periphs/gpio.c **** 
 236:Core/Src/periphs/gpio.c ****   HAL_NVIC_SetPriority(EXTI9_5_IRQn, 5, 0);
 410              		.loc 1 236 0
 411 0252 2246     		mov	r2, r4
 412 0254 0521     		movs	r1, #5
 413 0256 1720     		movs	r0, #23
 414 0258 FFF7FEFF 		bl	HAL_NVIC_SetPriority
 415              	.LVL27:
 237:Core/Src/periphs/gpio.c ****   HAL_NVIC_EnableIRQ(EXTI9_5_IRQn);
 416              		.loc 1 237 0
 417 025c 1720     		movs	r0, #23
 418 025e FFF7FEFF 		bl	HAL_NVIC_EnableIRQ
 419              	.LVL28:
 238:Core/Src/periphs/gpio.c **** 
 239:Core/Src/periphs/gpio.c ****   HAL_NVIC_SetPriority(EXTI15_10_IRQn, 5, 0);
 420              		.loc 1 239 0
 421 0262 2246     		mov	r2, r4
 422 0264 0521     		movs	r1, #5
 423 0266 2820     		movs	r0, #40
 424 0268 FFF7FEFF 		bl	HAL_NVIC_SetPriority
 425              	.LVL29:
 240:Core/Src/periphs/gpio.c ****   HAL_NVIC_EnableIRQ(EXTI15_10_IRQn);
 426              		.loc 1 240 0
 427 026c 2820     		movs	r0, #40
 428 026e FFF7FEFF 		bl	HAL_NVIC_EnableIRQ
 429              	.LVL30:
 241:Core/Src/periphs/gpio.c **** 
 242:Core/Src/periphs/gpio.c **** }
 430              		.loc 1 242 0
 431 0272 0DB0     		add	sp, sp, #52
 432              	.LCFI2:
 433              		.cfi_def_cfa_offset 36
 434              		@ sp needed
 435 0274 BDE8F08F 		pop	{r4, r5, r6, r7, r8, r9, r10, fp, pc}
 436              	.L4:
 437              		.align	2
 438              	.L3:
 439 0278 00380240 		.word	1073887232
 440 027c 00100240 		.word	1073876992
 441 0280 00040240 		.word	1073873920
 442 0284 000C0240 		.word	1073875968
 443 0288 00080240 		.word	1073874944
ARM GAS  C:\Users\073be\AppData\Local\Temp\ccqf6vun.s 			page 13


 444 028c 00000240 		.word	1073872896
 445 0290 00001110 		.word	269549568
 446              		.cfi_endproc
 447              	.LFE126:
 449              		.text
 450              	.Letext0:
 451              		.file 2 "c:\\program files (x86)\\gnu tools arm embedded\\7 2017-q4-major\\arm-none-eabi\\include\
 452              		.file 3 "c:\\program files (x86)\\gnu tools arm embedded\\7 2017-q4-major\\arm-none-eabi\\include\
 453              		.file 4 "C:/Users/n-is/STM32Cube/Repository/STM32Cube_FW_F4_V1.23.0/Drivers/CMSIS/Include/core_cm4
 454              		.file 5 "C:/Users/n-is/STM32Cube/Repository/STM32Cube_FW_F4_V1.23.0/Drivers/CMSIS/Device/ST/STM32F
 455              		.file 6 "C:/Users/n-is/STM32Cube/Repository/STM32Cube_FW_F4_V1.23.0/Drivers/CMSIS/Device/ST/STM32F
 456              		.file 7 "c:\\program files (x86)\\gnu tools arm embedded\\7 2017-q4-major\\arm-none-eabi\\include\
 457              		.file 8 "c:\\program files (x86)\\gnu tools arm embedded\\7 2017-q4-major\\arm-none-eabi\\include\
 458              		.file 9 "c:\\program files (x86)\\gnu tools arm embedded\\7 2017-q4-major\\lib\\gcc\\arm-none-eabi
 459              		.file 10 "c:\\program files (x86)\\gnu tools arm embedded\\7 2017-q4-major\\arm-none-eabi\\include
 460              		.file 11 "C:/Users/n-is/STM32Cube/Repository/STM32Cube_FW_F4_V1.23.0/Drivers/STM32F4xx_HAL_Driver/
 461              		.file 12 "C:/Users/n-is/STM32Cube/Repository/STM32Cube_FW_F4_V1.23.0/Drivers/STM32F4xx_HAL_Driver/
ARM GAS  C:\Users\073be\AppData\Local\Temp\ccqf6vun.s 			page 14

