ARM GAS  C:\Users\073be\AppData\Local\Temp\ccbq7EDA.s 			page 1


   1              		.cpu cortex-m4
   2              		.eabi_attribute 27, 1
   3              		.eabi_attribute 28, 1
   4              		.eabi_attribute 20, 1
   5              		.eabi_attribute 21, 1
   6              		.eabi_attribute 23, 3
   7              		.eabi_attribute 24, 1
   8              		.eabi_attribute 25, 1
   9              		.eabi_attribute 26, 1
  10              		.eabi_attribute 30, 1
  11              		.eabi_attribute 34, 1
  12              		.eabi_attribute 18, 4
  13              		.file	"robot.cpp"
  14              		.text
  15              	.Ltext0:
  16              		.cfi_sections	.debug_frame
  17              		.section	.text._ZN5RobotD2Ev,"axG",%progbits,_ZN5RobotD5Ev,comdat
  18              		.align	1
  19              		.weak	_ZN5RobotD2Ev
  20              		.syntax unified
  21              		.thumb
  22              		.thumb_func
  23              		.fpu fpv4-sp-d16
  25              	_ZN5RobotD2Ev:
  26              	.LFB561:
  27              		.file 1 "Core/Inc/robot/robot.h"
   1:Core/Inc/robot/robot.h **** /*
   2:Core/Inc/robot/robot.h ****  * robot.h
   3:Core/Inc/robot/robot.h ****  *
   4:Core/Inc/robot/robot.h ****  * Created : 12/31/2018
   5:Core/Inc/robot/robot.h ****  *  Author : n-is
   6:Core/Inc/robot/robot.h ****  *   email : 073bex422.nischal@pcampus.edu.np
   7:Core/Inc/robot/robot.h ****  */
   8:Core/Inc/robot/robot.h **** 
   9:Core/Inc/robot/robot.h **** #ifndef _ROBOT_H_
  10:Core/Inc/robot/robot.h **** #define _ROBOT_H_
  11:Core/Inc/robot/robot.h **** 
  12:Core/Inc/robot/robot.h **** #include "wheel.h"
  13:Core/Inc/robot/robot.h **** #include "vec3.h"
  14:Core/Inc/robot/robot.h **** 
  15:Core/Inc/robot/robot.h **** #include "actuator.h"
  16:Core/Inc/robot/robot.h **** #include "processor.h"
  17:Core/Inc/robot/robot.h **** #include "state_sensor.h"
  18:Core/Inc/robot/robot.h **** 
  19:Core/Inc/robot/robot.h **** /**
  20:Core/Inc/robot/robot.h ****  * @class Robot
  21:Core/Inc/robot/robot.h ****  * @brief A Singleton class that handles all the robot's sequence
  22:Core/Inc/robot/robot.h ****  * 
  23:Core/Inc/robot/robot.h ****  * Robot class is responsible for handling all the sequence to be taken by the
  24:Core/Inc/robot/robot.h ****  * <b>Khangai Robot</b> in the game field.
  25:Core/Inc/robot/robot.h ****  * <pre>
  26:Core/Inc/robot/robot.h ****  * Tasks that can be delegated to the Robot class :
  27:Core/Inc/robot/robot.h ****  * 1) Read the robot's state, i.e, the position and orientation of the robot
  28:Core/Inc/robot/robot.h ****  *    using the available OrientationSensor and PositionSensor.
  29:Core/Inc/robot/robot.h ****  * 2) Determine the next action to be taken by the robot.
  30:Core/Inc/robot/robot.h ****  * 3) Give motor commands and tune the motors.
  31:Core/Inc/robot/robot.h ****  * 4) Stop the robot using the appropriate ramping.
ARM GAS  C:\Users\073be\AppData\Local\Temp\ccbq7EDA.s 			page 2


  32:Core/Inc/robot/robot.h ****  * </pre>
  33:Core/Inc/robot/robot.h ****  */
  34:Core/Inc/robot/robot.h **** class Robot final
  35:Core/Inc/robot/robot.h **** {
  36:Core/Inc/robot/robot.h **** public:
  37:Core/Inc/robot/robot.h ****         Robot(Robot &&) = default;
  38:Core/Inc/robot/robot.h ****         Robot(const Robot &) = default;
  39:Core/Inc/robot/robot.h ****         Robot &operator=(Robot &&) = default;
  40:Core/Inc/robot/robot.h ****         Robot &operator=(const Robot &) = default;
  41:Core/Inc/robot/robot.h **** 
  42:Core/Inc/robot/robot.h ****         ~Robot() { }
  28              		.loc 1 42 0
  29              		.cfi_startproc
  30              		@ args = 0, pretend = 0, frame = 0
  31              		@ frame_needed = 0, uses_anonymous_args = 0
  32              		@ link register save eliminated.
  33              	.LVL0:
  34              		.loc 1 42 0
  35 0000 7047     		bx	lr
  36              		.cfi_endproc
  37              	.LFE561:
  39              		.weak	_ZN5RobotD1Ev
  40              		.thumb_set _ZN5RobotD1Ev,_ZN5RobotD2Ev
  41              		.section	.text._ZN5Robot12get_InstanceEv,"ax",%progbits
  42              		.align	1
  43              		.global	_ZN5Robot12get_InstanceEv
  44              		.syntax unified
  45              		.thumb
  46              		.thumb_func
  47              		.fpu fpv4-sp-d16
  49              	_ZN5Robot12get_InstanceEv:
  50              	.LFB571:
  51              		.file 2 "Core/Src/robot/robot.cpp"
   1:Core/Src/robot/robot.cpp **** /*
   2:Core/Src/robot/robot.cpp ****  * robot.cpp
   3:Core/Src/robot/robot.cpp ****  *
   4:Core/Src/robot/robot.cpp ****  * Created : 12/31/2018
   5:Core/Src/robot/robot.cpp ****  *  Author : n-is
   6:Core/Src/robot/robot.cpp ****  *   email : 073bex422.nischal@pcampus.edu.np
   7:Core/Src/robot/robot.cpp ****  */
   8:Core/Src/robot/robot.cpp **** 
   9:Core/Src/robot/robot.cpp **** #include "robot.h"
  10:Core/Src/robot/robot.cpp **** #include "main.h"
  11:Core/Src/robot/robot.cpp **** #include "FreeRTOS.h"
  12:Core/Src/robot/robot.cpp **** #include "task.h"
  13:Core/Src/robot/robot.cpp **** 
  14:Core/Src/robot/robot.cpp **** 
  15:Core/Src/robot/robot.cpp **** extern State_Vars gStateA_Data;
  16:Core/Src/robot/robot.cpp **** 
  17:Core/Src/robot/robot.cpp **** // We should make sure that the robot ony have one instance and it is properly
  18:Core/Src/robot/robot.cpp **** // instantiated
  19:Core/Src/robot/robot.cpp **** Robot& Robot::get_Instance()
  20:Core/Src/robot/robot.cpp **** {
  52              		.loc 2 20 0
  53              		.cfi_startproc
  54              		@ args = 0, pretend = 0, frame = 0
  55              		@ frame_needed = 0, uses_anonymous_args = 0
ARM GAS  C:\Users\073be\AppData\Local\Temp\ccbq7EDA.s 			page 3


  56 0000 10B5     		push	{r4, lr}
  57              	.LCFI0:
  58              		.cfi_def_cfa_offset 8
  59              		.cfi_offset 4, -8
  60              		.cfi_offset 14, -4
  21:Core/Src/robot/robot.cpp ****         static Robot sRobo_Instance;
  61              		.loc 2 21 0
  62 0002 174B     		ldr	r3, .L6
  63 0004 1B78     		ldrb	r3, [r3]	@ zero_extendqisi2
  64 0006 BFF35B8F 		dmb	ish
  65 000a 13F0010F 		tst	r3, #1
  66 000e 0BD0     		beq	.L5
  67              	.L3:
  22:Core/Src/robot/robot.cpp **** 
  23:Core/Src/robot/robot.cpp ****         // Since all the parts follow singleton pattern, we should create them
  24:Core/Src/robot/robot.cpp ****         // when the robot is instantiated
  25:Core/Src/robot/robot.cpp ****         State_Sensor &stsn = State_Sensor::get_Instance();
  68              		.loc 2 25 0
  69 0010 FFF7FEFF 		bl	_ZN12State_Sensor12get_InstanceEv
  70              	.LVL1:
  26:Core/Src/robot/robot.cpp ****         sRobo_Instance.sensor_ = &stsn;
  71              		.loc 2 26 0
  72 0014 134C     		ldr	r4, .L6+4
  73 0016 2060     		str	r0, [r4]
  27:Core/Src/robot/robot.cpp **** 
  28:Core/Src/robot/robot.cpp ****         Processor &proc = Processor::get_Instance(sRobo_Instance.sensor_);
  74              		.loc 2 28 0
  75 0018 FFF7FEFF 		bl	_ZN9Processor12get_InstanceEP12State_Sensor
  76              	.LVL2:
  29:Core/Src/robot/robot.cpp ****         sRobo_Instance.cpu_ = &proc;
  77              		.loc 2 29 0
  78 001c 6060     		str	r0, [r4, #4]
  30:Core/Src/robot/robot.cpp **** 
  31:Core/Src/robot/robot.cpp ****         Actuator &act = Actuator::get_Instance();
  79              		.loc 2 31 0
  80 001e FFF7FEFF 		bl	_ZN8Actuator12get_InstanceEv
  81              	.LVL3:
  32:Core/Src/robot/robot.cpp ****         sRobo_Instance.base_ = &act;
  82              		.loc 2 32 0
  83 0022 A060     		str	r0, [r4, #8]
  33:Core/Src/robot/robot.cpp ****         
  34:Core/Src/robot/robot.cpp ****         return sRobo_Instance;
  35:Core/Src/robot/robot.cpp **** }
  84              		.loc 2 35 0
  85 0024 2046     		mov	r0, r4
  86              	.LVL4:
  87 0026 10BD     		pop	{r4, pc}
  88              	.LVL5:
  89              	.L5:
  21:Core/Src/robot/robot.cpp **** 
  90              		.loc 2 21 0 discriminator 1
  91 0028 0D48     		ldr	r0, .L6
  92 002a FFF7FEFF 		bl	__cxa_guard_acquire
  93              	.LVL6:
  94 002e 0028     		cmp	r0, #0
  95 0030 EED0     		beq	.L3
  96              	.LVL7:
ARM GAS  C:\Users\073be\AppData\Local\Temp\ccbq7EDA.s 			page 4


  97              	.LBB138:
  98              	.LBB139:
  99              	.LBB140:
 100              	.LBB141:
 101              	.LBB142:
 102              	.LBB143:
 103              	.LBB144:
 104              	.LBB145:
 105              		.file 3 "Core/Inc/utils\\math/vec3.h"
   1:Core/Inc/utils\math/vec3.h **** /*
   2:Core/Inc/utils\math/vec3.h ****  * vec3.h
   3:Core/Inc/utils\math/vec3.h ****  * 
   4:Core/Inc/utils\math/vec3.h ****  * Created : 11/9/2018
   5:Core/Inc/utils\math/vec3.h ****  *  Author : n-is
   6:Core/Inc/utils\math/vec3.h ****  *   email : 073bex422.nischal@pcampus.edu.np
   7:Core/Inc/utils\math/vec3.h ****  */
   8:Core/Inc/utils\math/vec3.h **** 
   9:Core/Inc/utils\math/vec3.h **** #ifndef _VEC3_H_
  10:Core/Inc/utils\math/vec3.h **** #define _VEC3_H_
  11:Core/Inc/utils\math/vec3.h **** 
  12:Core/Inc/utils\math/vec3.h **** #include "stm32f4xx_hal.h"
  13:Core/Inc/utils\math/vec3.h **** #include "main.h"
  14:Core/Inc/utils\math/vec3.h **** 
  15:Core/Inc/utils\math/vec3.h **** template <typename T>
  16:Core/Inc/utils\math/vec3.h **** void swap_Element(T &first, T &second)
  17:Core/Inc/utils\math/vec3.h **** {
  18:Core/Inc/utils\math/vec3.h ****         T temp = first;
  19:Core/Inc/utils\math/vec3.h ****         first = second;
  20:Core/Inc/utils\math/vec3.h ****         second = temp;
  21:Core/Inc/utils\math/vec3.h **** }
  22:Core/Inc/utils\math/vec3.h **** 
  23:Core/Inc/utils\math/vec3.h **** template <class T>
  24:Core/Inc/utils\math/vec3.h **** class Vec3
  25:Core/Inc/utils\math/vec3.h **** {
  26:Core/Inc/utils\math/vec3.h **** public:
  27:Core/Inc/utils\math/vec3.h ****         Vec3() { set_Values(0,0,0); }
  28:Core/Inc/utils\math/vec3.h ****         Vec3(T x, T y, T z) { set_Values(x,y,z); }
  29:Core/Inc/utils\math/vec3.h **** 
  30:Core/Inc/utils\math/vec3.h ****         Vec3(Vec3 &&) = default;
  31:Core/Inc/utils\math/vec3.h ****         Vec3 &operator=(Vec3 &&) = default;
  32:Core/Inc/utils\math/vec3.h ****         ~Vec3() { }
  33:Core/Inc/utils\math/vec3.h **** 
  34:Core/Inc/utils\math/vec3.h ****         T getX() const { return x_; }
  35:Core/Inc/utils\math/vec3.h ****         T getY() const { return y_; }
  36:Core/Inc/utils\math/vec3.h ****         T getZ() const { return z_; }
  37:Core/Inc/utils\math/vec3.h ****         void setX(T x) { x_ = x; }
 106              		.loc 3 37 0 discriminator 2
 107 0032 0C4C     		ldr	r4, .L6+4
 108 0034 0023     		movs	r3, #0
 109 0036 2361     		str	r3, [r4, #16]	@ float
 110              	.LVL8:
 111              	.LBE145:
 112              	.LBE144:
 113              	.LBB146:
 114              	.LBB147:
  38:Core/Inc/utils\math/vec3.h ****         void setY(T y) { y_ = y; }
 115              		.loc 3 38 0 discriminator 2
ARM GAS  C:\Users\073be\AppData\Local\Temp\ccbq7EDA.s 			page 5


 116 0038 6361     		str	r3, [r4, #20]	@ float
 117              	.LVL9:
 118              	.LBE147:
 119              	.LBE146:
 120              	.LBB148:
 121              	.LBB149:
  39:Core/Inc/utils\math/vec3.h ****         void setZ(T z) { z_ = z; }
 122              		.loc 3 39 0 discriminator 2
 123 003a A361     		str	r3, [r4, #24]	@ float
 124              	.LVL10:
 125              	.LBE149:
 126              	.LBE148:
 127              	.LBE143:
 128              	.LBE142:
 129              	.LBE141:
 130              	.LBB150:
 131              	.LBB151:
 132              	.LBB152:
 133              	.LBB153:
 134              	.LBB154:
  37:Core/Inc/utils\math/vec3.h ****         void setY(T y) { y_ = y; }
 135              		.loc 3 37 0 discriminator 2
 136 003c E361     		str	r3, [r4, #28]	@ float
 137              	.LVL11:
 138              	.LBE154:
 139              	.LBE153:
 140              	.LBB155:
 141              	.LBB156:
  38:Core/Inc/utils\math/vec3.h ****         void setY(T y) { y_ = y; }
 142              		.loc 3 38 0 discriminator 2
 143 003e 2362     		str	r3, [r4, #32]	@ float
 144              	.LVL12:
 145              	.LBE156:
 146              	.LBE155:
 147              	.LBB157:
 148              	.LBB158:
 149              		.loc 3 39 0 discriminator 2
 150 0040 6362     		str	r3, [r4, #36]	@ float
 151              	.LVL13:
 152              	.LBE158:
 153              	.LBE157:
 154              	.LBE152:
 155              	.LBE151:
 156              	.LBE150:
 157              	.LBB159:
 158              	.LBB160:
 159              	.LBB161:
 160              	.LBB162:
 161              	.LBB163:
  37:Core/Inc/utils\math/vec3.h ****         void setY(T y) { y_ = y; }
 162              		.loc 3 37 0 discriminator 2
 163 0042 A362     		str	r3, [r4, #40]	@ float
 164              	.LVL14:
 165              	.LBE163:
 166              	.LBE162:
 167              	.LBB164:
 168              	.LBB165:
ARM GAS  C:\Users\073be\AppData\Local\Temp\ccbq7EDA.s 			page 6


  38:Core/Inc/utils\math/vec3.h ****         void setY(T y) { y_ = y; }
 169              		.loc 3 38 0 discriminator 2
 170 0044 E362     		str	r3, [r4, #44]	@ float
 171              	.LVL15:
 172              	.LBE165:
 173              	.LBE164:
 174              	.LBB166:
 175              	.LBB167:
 176              		.loc 3 39 0 discriminator 2
 177 0046 2363     		str	r3, [r4, #48]	@ float
 178              	.LVL16:
 179              	.LBE167:
 180              	.LBE166:
 181              	.LBE161:
 182              	.LBE160:
 183              	.LBE159:
  43:Core/Inc/robot/robot.h ****         static Robot& get_Instance();
  44:Core/Inc/robot/robot.h **** 
  45:Core/Inc/robot/robot.h ****         int init(uint32_t dt_millis);
  46:Core/Inc/robot/robot.h ****         void update(uint32_t dt_millis);
  47:Core/Inc/robot/robot.h ****         void run(uint32_t dt_millis);
  48:Core/Inc/robot/robot.h ****         bool is_Initiated() const;
  49:Core/Inc/robot/robot.h **** 
  50:Core/Inc/robot/robot.h ****         void profile_Actuators(Vec3<float> vel, uint32_t dt_millis);
  51:Core/Inc/robot/robot.h ****         void check_Actuators();
  52:Core/Inc/robot/robot.h **** 
  53:Core/Inc/robot/robot.h **** private:
  54:Core/Inc/robot/robot.h ****         State_Sensor *sensor_;
  55:Core/Inc/robot/robot.h ****         Processor *cpu_;
  56:Core/Inc/robot/robot.h ****         Actuator *base_;
  57:Core/Inc/robot/robot.h **** 
  58:Core/Inc/robot/robot.h ****         // Robot class makes sure that this variable is not modified by any other
  59:Core/Inc/robot/robot.h ****         // entity except the Processor
  60:Core/Inc/robot/robot.h ****         State_Vars *robot_state_vars_;
  61:Core/Inc/robot/robot.h **** 
  62:Core/Inc/robot/robot.h ****         Vec3<float> state_;
  63:Core/Inc/robot/robot.h ****         Vec3<float> state_from_base_;
  64:Core/Inc/robot/robot.h ****         Vec3<float> velocities_;
  65:Core/Inc/robot/robot.h **** 
  66:Core/Inc/robot/robot.h ****         bool initiated_;
  67:Core/Inc/robot/robot.h ****         Robot() {
  68:Core/Inc/robot/robot.h ****                 initiated_ = false;
 184              		.loc 1 68 0 discriminator 2
 185 0048 0023     		movs	r3, #0
 186 004a 84F83430 		strb	r3, [r4, #52]
 187              	.LVL17:
 188              	.LBE140:
 189              	.LBE139:
 190              	.LBE138:
  21:Core/Src/robot/robot.cpp **** 
 191              		.loc 2 21 0 discriminator 2
 192 004e 0448     		ldr	r0, .L6
 193 0050 FFF7FEFF 		bl	__cxa_guard_release
 194              	.LVL18:
 195 0054 044A     		ldr	r2, .L6+8
 196 0056 0549     		ldr	r1, .L6+12
 197 0058 2046     		mov	r0, r4
ARM GAS  C:\Users\073be\AppData\Local\Temp\ccbq7EDA.s 			page 7


 198 005a FFF7FEFF 		bl	__aeabi_atexit
 199              	.LVL19:
 200 005e D7E7     		b	.L3
 201              	.L7:
 202              		.align	2
 203              	.L6:
 204 0060 00000000 		.word	.LANCHOR0
 205 0064 00000000 		.word	.LANCHOR1
 206 0068 00000000 		.word	__dso_handle
 207 006c 00000000 		.word	_ZN5RobotD1Ev
 208              		.cfi_endproc
 209              	.LFE571:
 211              		.section	.text._ZN5Robot4initEm,"ax",%progbits
 212              		.align	1
 213              		.global	_ZN5Robot4initEm
 214              		.syntax unified
 215              		.thumb
 216              		.thumb_func
 217              		.fpu fpv4-sp-d16
 219              	_ZN5Robot4initEm:
 220              	.LFB572:
  36:Core/Src/robot/robot.cpp **** 
  37:Core/Src/robot/robot.cpp **** int Robot::init(uint32_t dt_millis)
  38:Core/Src/robot/robot.cpp **** {
 221              		.loc 2 38 0
 222              		.cfi_startproc
 223              		@ args = 0, pretend = 0, frame = 0
 224              		@ frame_needed = 0, uses_anonymous_args = 0
 225              	.LVL20:
 226 0000 F8B5     		push	{r3, r4, r5, r6, r7, lr}
 227              	.LCFI1:
 228              		.cfi_def_cfa_offset 24
 229              		.cfi_offset 3, -24
 230              		.cfi_offset 4, -20
 231              		.cfi_offset 5, -16
 232              		.cfi_offset 6, -12
 233              		.cfi_offset 7, -8
 234              		.cfi_offset 14, -4
 235 0002 0446     		mov	r4, r0
 236 0004 0F46     		mov	r7, r1
  39:Core/Src/robot/robot.cpp ****         int sensor_status = sensor_->init(dt_millis);
 237              		.loc 2 39 0
 238 0006 0068     		ldr	r0, [r0]
 239              	.LVL21:
 240 0008 FFF7FEFF 		bl	_ZN12State_Sensor4initEm
 241              	.LVL22:
 242 000c 0546     		mov	r5, r0
 243              	.LVL23:
  40:Core/Src/robot/robot.cpp ****         int base_status = base_->init();
 244              		.loc 2 40 0
 245 000e A068     		ldr	r0, [r4, #8]
 246              	.LVL24:
 247 0010 FFF7FEFF 		bl	_ZN8Actuator4initEv
 248              	.LVL25:
 249 0014 0646     		mov	r6, r0
 250              	.LVL26:
  41:Core/Src/robot/robot.cpp ****         int cpu_status = cpu_->init(dt_millis);
ARM GAS  C:\Users\073be\AppData\Local\Temp\ccbq7EDA.s 			page 8


 251              		.loc 2 41 0
 252 0016 3946     		mov	r1, r7
 253 0018 6068     		ldr	r0, [r4, #4]
 254              	.LVL27:
 255 001a FFF7FEFF 		bl	_ZN9Processor4initEm
 256              	.LVL28:
  42:Core/Src/robot/robot.cpp **** 
  43:Core/Src/robot/robot.cpp ****         int status = (base_status | sensor_status | cpu_status);
 257              		.loc 2 43 0
 258 001e 3543     		orrs	r5, r5, r6
 259              	.LVL29:
  44:Core/Src/robot/robot.cpp **** 
  45:Core/Src/robot/robot.cpp ****         initiated_ = true;
 260              		.loc 2 45 0
 261 0020 0123     		movs	r3, #1
 262 0022 84F83430 		strb	r3, [r4, #52]
  46:Core/Src/robot/robot.cpp ****         robot_state_vars_ = &gStateA_Data;
 263              		.loc 2 46 0
 264 0026 024B     		ldr	r3, .L10
 265 0028 E360     		str	r3, [r4, #12]
  47:Core/Src/robot/robot.cpp **** 
  48:Core/Src/robot/robot.cpp ****         return status;
  49:Core/Src/robot/robot.cpp **** }
 266              		.loc 2 49 0
 267 002a 2843     		orrs	r0, r0, r5
 268              	.LVL30:
 269 002c F8BD     		pop	{r3, r4, r5, r6, r7, pc}
 270              	.LVL31:
 271              	.L11:
 272 002e 00BF     		.align	2
 273              	.L10:
 274 0030 00000000 		.word	gStateA_Data
 275              		.cfi_endproc
 276              	.LFE572:
 278              		.section	.text._ZN5Robot3runEm,"ax",%progbits
 279              		.align	1
 280              		.global	_ZN5Robot3runEm
 281              		.syntax unified
 282              		.thumb
 283              		.thumb_func
 284              		.fpu fpv4-sp-d16
 286              	_ZN5Robot3runEm:
 287              	.LFB574:
  50:Core/Src/robot/robot.cpp **** 
  51:Core/Src/robot/robot.cpp **** // This function is called by the RobotThread
  52:Core/Src/robot/robot.cpp **** void Robot::update(uint32_t dt_millis)
  53:Core/Src/robot/robot.cpp **** {
  54:Core/Src/robot/robot.cpp ****         state_ = sensor_->read_State(state_from_base_,robot_state_vars_, dt_millis);
  55:Core/Src/robot/robot.cpp ****         // state_.print();
  56:Core/Src/robot/robot.cpp ****         // printf("\n");
  57:Core/Src/robot/robot.cpp ****         Vec3<float> vels = cpu_->process(state_, robot_state_vars_, dt_millis);
  58:Core/Src/robot/robot.cpp **** 
  59:Core/Src/robot/robot.cpp ****         // vels.print();
  60:Core/Src/robot/robot.cpp ****         // printf("\n");
  61:Core/Src/robot/robot.cpp **** 
  62:Core/Src/robot/robot.cpp ****         // This is for correcting units and the inverted co-ordinate system
  63:Core/Src/robot/robot.cpp ****         float vx = -vels.getX() / (float)1000.0;
ARM GAS  C:\Users\073be\AppData\Local\Temp\ccbq7EDA.s 			page 9


  64:Core/Src/robot/robot.cpp ****         float vy = vels.getY()  / (float)1000.0;
  65:Core/Src/robot/robot.cpp ****         // float rw = vels.getZ()  / (float)1000.0;
  66:Core/Src/robot/robot.cpp ****         vels.setX(vx);
  67:Core/Src/robot/robot.cpp ****         vels.setY(vy);
  68:Core/Src/robot/robot.cpp ****         // vels.setZ(rw);
  69:Core/Src/robot/robot.cpp ****         // vels.print();
  70:Core/Src/robot/robot.cpp ****         // printf("\n");
  71:Core/Src/robot/robot.cpp ****         // Vec3<float> vels(0, -5, 0.5);
  72:Core/Src/robot/robot.cpp **** 
  73:Core/Src/robot/robot.cpp ****         taskENTER_CRITICAL();
  74:Core/Src/robot/robot.cpp ****         velocities_ = vels;
  75:Core/Src/robot/robot.cpp ****         taskEXIT_CRITICAL();
  76:Core/Src/robot/robot.cpp **** }
  77:Core/Src/robot/robot.cpp **** 
  78:Core/Src/robot/robot.cpp **** // This function is called by the MotorThread
  79:Core/Src/robot/robot.cpp **** void Robot::run(uint32_t dt_millis)
  80:Core/Src/robot/robot.cpp **** {
 288              		.loc 2 80 0
 289              		.cfi_startproc
 290              		@ args = 0, pretend = 0, frame = 24
 291              		@ frame_needed = 0, uses_anonymous_args = 0
 292              	.LVL32:
 293 0000 30B5     		push	{r4, r5, lr}
 294              	.LCFI2:
 295              		.cfi_def_cfa_offset 12
 296              		.cfi_offset 4, -12
 297              		.cfi_offset 5, -8
 298              		.cfi_offset 14, -4
 299 0002 87B0     		sub	sp, sp, #28
 300              	.LCFI3:
 301              		.cfi_def_cfa_offset 40
 302 0004 0446     		mov	r4, r0
 303              	.LVL33:
 304              	.LBB168:
 305              	.LBB169:
 306              	.LBB170:
  40:Core/Inc/utils\math/vec3.h **** 
  41:Core/Inc/utils\math/vec3.h ****         void set_Values(T x, T y, T z) {
  42:Core/Inc/utils\math/vec3.h ****                 setX(x);
  43:Core/Inc/utils\math/vec3.h ****                 setY(y);
  44:Core/Inc/utils\math/vec3.h ****                 setZ(z);
  45:Core/Inc/utils\math/vec3.h ****         }
  46:Core/Inc/utils\math/vec3.h **** 
  47:Core/Inc/utils\math/vec3.h **** 
  48:Core/Inc/utils\math/vec3.h ****         Vec3 mult_EW(float num) {
  49:Core/Inc/utils\math/vec3.h ****                 Vec3 temp(*this);
  50:Core/Inc/utils\math/vec3.h ****                 temp.x_ *= num;
  51:Core/Inc/utils\math/vec3.h ****                 temp.y_ *= num;
  52:Core/Inc/utils\math/vec3.h ****                 temp.z_ *= num;
  53:Core/Inc/utils\math/vec3.h **** 
  54:Core/Inc/utils\math/vec3.h ****                 return temp;
  55:Core/Inc/utils\math/vec3.h ****         }
  56:Core/Inc/utils\math/vec3.h **** 
  57:Core/Inc/utils\math/vec3.h ****         template <typename T1>
  58:Core/Inc/utils\math/vec3.h ****         Vec3 mult_EW(Vec3<T1> v) {
  59:Core/Inc/utils\math/vec3.h ****                 Vec3 temp(v);
  60:Core/Inc/utils\math/vec3.h ****                 temp.x_ *= x_;
ARM GAS  C:\Users\073be\AppData\Local\Temp\ccbq7EDA.s 			page 10


  61:Core/Inc/utils\math/vec3.h ****                 temp.y_ *= y_;
  62:Core/Inc/utils\math/vec3.h ****                 temp.z_ *= z_;
  63:Core/Inc/utils\math/vec3.h **** 
  64:Core/Inc/utils\math/vec3.h ****                 return temp;
  65:Core/Inc/utils\math/vec3.h ****         }
  66:Core/Inc/utils\math/vec3.h **** 
  67:Core/Inc/utils\math/vec3.h **** 
  68:Core/Inc/utils\math/vec3.h ****         Vec3 add_EW(float num) {
  69:Core/Inc/utils\math/vec3.h ****                 Vec3 temp(*this);
  70:Core/Inc/utils\math/vec3.h ****                 temp.x_ += num;
  71:Core/Inc/utils\math/vec3.h ****                 temp.y_ += num;
  72:Core/Inc/utils\math/vec3.h ****                 temp.z_ += num;
  73:Core/Inc/utils\math/vec3.h **** 
  74:Core/Inc/utils\math/vec3.h ****                 return temp;
  75:Core/Inc/utils\math/vec3.h ****         }
  76:Core/Inc/utils\math/vec3.h **** 
  77:Core/Inc/utils\math/vec3.h ****         template <typename T1>
  78:Core/Inc/utils\math/vec3.h ****         Vec3 add_EW(Vec3<T1> v) {
  79:Core/Inc/utils\math/vec3.h ****                 Vec3 temp(v);
  80:Core/Inc/utils\math/vec3.h ****                 temp.x_ += x_;
  81:Core/Inc/utils\math/vec3.h ****                 temp.y_ += y_;
  82:Core/Inc/utils\math/vec3.h ****                 temp.z_ += z_;
  83:Core/Inc/utils\math/vec3.h **** 
  84:Core/Inc/utils\math/vec3.h ****                 return temp;
  85:Core/Inc/utils\math/vec3.h ****         }
  86:Core/Inc/utils\math/vec3.h **** 
  87:Core/Inc/utils\math/vec3.h **** 
  88:Core/Inc/utils\math/vec3.h ****         Vec3 sub_EW(float num) {
  89:Core/Inc/utils\math/vec3.h ****                 Vec3 temp(*this);
  90:Core/Inc/utils\math/vec3.h ****                 temp.x_ -= num;
  91:Core/Inc/utils\math/vec3.h ****                 temp.y_ -= num;
  92:Core/Inc/utils\math/vec3.h ****                 temp.z_ -= num;
  93:Core/Inc/utils\math/vec3.h **** 
  94:Core/Inc/utils\math/vec3.h ****                 return temp;
  95:Core/Inc/utils\math/vec3.h ****         }
  96:Core/Inc/utils\math/vec3.h **** 
  97:Core/Inc/utils\math/vec3.h ****         template <typename T1>
  98:Core/Inc/utils\math/vec3.h ****         Vec3 sub_EW(Vec3<T1> v) {
  99:Core/Inc/utils\math/vec3.h ****                 Vec3 temp(v);
 100:Core/Inc/utils\math/vec3.h ****                 temp.x_ -= x_;
 101:Core/Inc/utils\math/vec3.h ****                 temp.y_ -= y_;
 102:Core/Inc/utils\math/vec3.h ****                 temp.z_ -= z_;
 103:Core/Inc/utils\math/vec3.h **** 
 104:Core/Inc/utils\math/vec3.h ****                 return temp;
 105:Core/Inc/utils\math/vec3.h ****         }
 106:Core/Inc/utils\math/vec3.h **** 
 107:Core/Inc/utils\math/vec3.h **** 
 108:Core/Inc/utils\math/vec3.h ****         Vec3 div_EW(float num) {
 109:Core/Inc/utils\math/vec3.h ****                 Vec3 temp(*this);
 110:Core/Inc/utils\math/vec3.h ****                 temp.x_ /= (float)num;
 111:Core/Inc/utils\math/vec3.h ****                 temp.y_ /= (float)num;
 112:Core/Inc/utils\math/vec3.h ****                 temp.z_ /= (float)num;
 113:Core/Inc/utils\math/vec3.h **** 
 114:Core/Inc/utils\math/vec3.h ****                 return temp;
 115:Core/Inc/utils\math/vec3.h ****         }
 116:Core/Inc/utils\math/vec3.h **** 
 117:Core/Inc/utils\math/vec3.h ****         template <typename T1>
ARM GAS  C:\Users\073be\AppData\Local\Temp\ccbq7EDA.s 			page 11


 118:Core/Inc/utils\math/vec3.h ****         Vec3 div_EW(Vec3<T1> v) {
 119:Core/Inc/utils\math/vec3.h ****                 Vec3 temp(*this);
 120:Core/Inc/utils\math/vec3.h ****                 temp.x_ /= (float)v.x_;
 121:Core/Inc/utils\math/vec3.h ****                 temp.y_ /= (float)v.y_;
 122:Core/Inc/utils\math/vec3.h ****                 temp.z_ /= (float)v.z_;
 123:Core/Inc/utils\math/vec3.h **** 
 124:Core/Inc/utils\math/vec3.h ****                 return temp;
 125:Core/Inc/utils\math/vec3.h ****         }
 126:Core/Inc/utils\math/vec3.h **** 
 127:Core/Inc/utils\math/vec3.h ****         
 128:Core/Inc/utils\math/vec3.h ****         Vec3(const Vec3 &v) {
 129:Core/Inc/utils\math/vec3.h ****                 x_ = v.x_;
 307              		.loc 3 129 0
 308 0006 836A     		ldr	r3, [r0, #40]	@ float
 309 0008 0393     		str	r3, [sp, #12]	@ float
 130:Core/Inc/utils\math/vec3.h ****                 y_ = v.y_;
 310              		.loc 3 130 0
 311 000a C36A     		ldr	r3, [r0, #44]	@ float
 312 000c 0493     		str	r3, [sp, #16]	@ float
 131:Core/Inc/utils\math/vec3.h ****                 z_ = v.z_;
 313              		.loc 3 131 0
 314 000e 036B     		ldr	r3, [r0, #48]	@ float
 315 0010 0593     		str	r3, [sp, #20]	@ float
 316              	.LVL34:
 317              	.LBE170:
 318              	.LBE169:
 319              	.LBE168:
  81:Core/Src/robot/robot.cpp ****         // velocities_.set_Values(0, 0.5, 0);
  82:Core/Src/robot/robot.cpp ****         // (velocities_.mult_EW(1000)).print();
  83:Core/Src/robot/robot.cpp ****         // printf("\n");
  84:Core/Src/robot/robot.cpp ****         state_from_base_ = base_->actuate(velocities_, dt_millis);
 320              		.loc 2 84 0
 321 0012 6D46     		mov	r5, sp
 322 0014 0B46     		mov	r3, r1
 323 0016 03AA     		add	r2, sp, #12
 324 0018 8168     		ldr	r1, [r0, #8]
 325              	.LVL35:
 326 001a 2846     		mov	r0, r5
 327              	.LVL36:
 328 001c FFF7FEFF 		bl	_ZN8Actuator7actuateE4Vec3IfEm
 329              	.LVL37:
 330 0020 1C34     		adds	r4, r4, #28
 331              	.LVL38:
 332 0022 95E80700 		ldm	r5, {r0, r1, r2}
 333 0026 84E80700 		stm	r4, {r0, r1, r2}
  85:Core/Src/robot/robot.cpp **** }
 334              		.loc 2 85 0
 335 002a 07B0     		add	sp, sp, #28
 336              	.LCFI4:
 337              		.cfi_def_cfa_offset 12
 338              		@ sp needed
 339 002c 30BD     		pop	{r4, r5, pc}
 340              		.cfi_endproc
 341              	.LFE574:
 343              		.section	.text._ZNK5Robot12is_InitiatedEv,"ax",%progbits
 344              		.align	1
 345              		.global	_ZNK5Robot12is_InitiatedEv
ARM GAS  C:\Users\073be\AppData\Local\Temp\ccbq7EDA.s 			page 12


 346              		.syntax unified
 347              		.thumb
 348              		.thumb_func
 349              		.fpu fpv4-sp-d16
 351              	_ZNK5Robot12is_InitiatedEv:
 352              	.LFB575:
  86:Core/Src/robot/robot.cpp **** 
  87:Core/Src/robot/robot.cpp **** bool Robot::is_Initiated() const
  88:Core/Src/robot/robot.cpp **** {
 353              		.loc 2 88 0
 354              		.cfi_startproc
 355              		@ args = 0, pretend = 0, frame = 0
 356              		@ frame_needed = 0, uses_anonymous_args = 0
 357              		@ link register save eliminated.
 358              	.LVL39:
  89:Core/Src/robot/robot.cpp ****         return initiated_;
  90:Core/Src/robot/robot.cpp **** }
 359              		.loc 2 90 0
 360 0000 90F83400 		ldrb	r0, [r0, #52]	@ zero_extendqisi2
 361              	.LVL40:
 362 0004 7047     		bx	lr
 363              		.cfi_endproc
 364              	.LFE575:
 366              		.section	.text._ZN5Robot17profile_ActuatorsE4Vec3IfEm,"ax",%progbits
 367              		.align	1
 368              		.global	_ZN5Robot17profile_ActuatorsE4Vec3IfEm
 369              		.syntax unified
 370              		.thumb
 371              		.thumb_func
 372              		.fpu fpv4-sp-d16
 374              	_ZN5Robot17profile_ActuatorsE4Vec3IfEm:
 375              	.LFB576:
  91:Core/Src/robot/robot.cpp **** 
  92:Core/Src/robot/robot.cpp **** void Robot::profile_Actuators(Vec3<float> vel, uint32_t dt_millis)
  93:Core/Src/robot/robot.cpp **** {
 376              		.loc 2 93 0
 377              		.cfi_startproc
 378              		@ args = 0, pretend = 0, frame = 16
 379              		@ frame_needed = 0, uses_anonymous_args = 0
 380              	.LVL41:
 381 0000 00B5     		push	{lr}
 382              	.LCFI5:
 383              		.cfi_def_cfa_offset 4
 384              		.cfi_offset 14, -4
 385 0002 85B0     		sub	sp, sp, #20
 386              	.LCFI6:
 387              		.cfi_def_cfa_offset 24
  94:Core/Src/robot/robot.cpp ****         base_->profile(vel, dt_millis);
 388              		.loc 2 94 0
 389 0004 8068     		ldr	r0, [r0, #8]
 390              	.LVL42:
 391              	.LBB171:
 392              	.LBB172:
 393              	.LBB173:
 129:Core/Inc/utils\math/vec3.h ****                 y_ = v.y_;
 394              		.loc 3 129 0
 395 0006 0B68     		ldr	r3, [r1]	@ float
ARM GAS  C:\Users\073be\AppData\Local\Temp\ccbq7EDA.s 			page 13


 396 0008 0193     		str	r3, [sp, #4]	@ float
 130:Core/Inc/utils\math/vec3.h ****                 z_ = v.z_;
 397              		.loc 3 130 0
 398 000a 4B68     		ldr	r3, [r1, #4]	@ float
 399 000c 0293     		str	r3, [sp, #8]	@ float
 400              		.loc 3 131 0
 401 000e 8B68     		ldr	r3, [r1, #8]	@ float
 402 0010 0393     		str	r3, [sp, #12]	@ float
 403              	.LVL43:
 404              	.LBE173:
 405              	.LBE172:
 406              	.LBE171:
 407              		.loc 2 94 0
 408 0012 01A9     		add	r1, sp, #4
 409              	.LVL44:
 410 0014 FFF7FEFF 		bl	_ZN8Actuator7profileE4Vec3IfEm
 411              	.LVL45:
  95:Core/Src/robot/robot.cpp **** }
 412              		.loc 2 95 0
 413 0018 05B0     		add	sp, sp, #20
 414              	.LCFI7:
 415              		.cfi_def_cfa_offset 4
 416              		@ sp needed
 417 001a 5DF804FB 		ldr	pc, [sp], #4
 418              		.cfi_endproc
 419              	.LFE576:
 421              		.section	.text._ZN5Robot15check_ActuatorsEv,"ax",%progbits
 422              		.align	1
 423              		.global	_ZN5Robot15check_ActuatorsEv
 424              		.syntax unified
 425              		.thumb
 426              		.thumb_func
 427              		.fpu fpv4-sp-d16
 429              	_ZN5Robot15check_ActuatorsEv:
 430              	.LFB577:
  96:Core/Src/robot/robot.cpp **** 
  97:Core/Src/robot/robot.cpp **** void Robot::check_Actuators()
  98:Core/Src/robot/robot.cpp **** {
 431              		.loc 2 98 0
 432              		.cfi_startproc
 433              		@ args = 0, pretend = 0, frame = 0
 434              		@ frame_needed = 0, uses_anonymous_args = 0
 435              	.LVL46:
 436 0000 08B5     		push	{r3, lr}
 437              	.LCFI8:
 438              		.cfi_def_cfa_offset 8
 439              		.cfi_offset 3, -8
 440              		.cfi_offset 14, -4
  99:Core/Src/robot/robot.cpp ****         base_->check();
 441              		.loc 2 99 0
 442 0002 8068     		ldr	r0, [r0, #8]
 443              	.LVL47:
 444 0004 FFF7FEFF 		bl	_ZN8Actuator5checkEv
 445              	.LVL48:
 100:Core/Src/robot/robot.cpp **** }...
 446              		.loc 2 100 0
 447 0008 08BD     		pop	{r3, pc}
ARM GAS  C:\Users\073be\AppData\Local\Temp\ccbq7EDA.s 			page 14


 448              		.cfi_endproc
 449              	.LFE577:
 451              		.section	.text._Z12swap_ElementIfEvRT_S1_,"axG",%progbits,_Z12swap_ElementIfEvRT_S1_,comdat
 452              		.align	1
 453              		.weak	_Z12swap_ElementIfEvRT_S1_
 454              		.syntax unified
 455              		.thumb
 456              		.thumb_func
 457              		.fpu fpv4-sp-d16
 459              	_Z12swap_ElementIfEvRT_S1_:
 460              	.LFB596:
  16:Core/Inc/utils\math/vec3.h **** {
 461              		.loc 3 16 0
 462              		.cfi_startproc
 463              		@ args = 0, pretend = 0, frame = 0
 464              		@ frame_needed = 0, uses_anonymous_args = 0
 465              		@ link register save eliminated.
 466              	.LVL49:
  18:Core/Inc/utils\math/vec3.h ****         first = second;
 467              		.loc 3 18 0
 468 0000 0368     		ldr	r3, [r0]	@ float
 469              	.LVL50:
  19:Core/Inc/utils\math/vec3.h ****         second = temp;
 470              		.loc 3 19 0
 471 0002 0A68     		ldr	r2, [r1]	@ float
 472 0004 0260     		str	r2, [r0]	@ float
  20:Core/Inc/utils\math/vec3.h **** }
 473              		.loc 3 20 0
 474 0006 0B60     		str	r3, [r1]	@ float
  21:Core/Inc/utils\math/vec3.h **** 
 475              		.loc 3 21 0
 476 0008 7047     		bx	lr
 477              		.cfi_endproc
 478              	.LFE596:
 480              		.section	.text._ZN5Robot6updateEm,"ax",%progbits
 481              		.align	1
 482              		.global	_ZN5Robot6updateEm
 483              		.syntax unified
 484              		.thumb
 485              		.thumb_func
 486              		.fpu fpv4-sp-d16
 488              	_ZN5Robot6updateEm:
 489              	.LFB573:
  53:Core/Src/robot/robot.cpp **** {
 490              		.loc 2 53 0
 491              		.cfi_startproc
 492              		@ args = 0, pretend = 0, frame = 64
 493              		@ frame_needed = 0, uses_anonymous_args = 0
 494              	.LVL51:
 495 0000 70B5     		push	{r4, r5, r6, lr}
 496              	.LCFI9:
 497              		.cfi_def_cfa_offset 16
 498              		.cfi_offset 4, -16
 499              		.cfi_offset 5, -12
 500              		.cfi_offset 6, -8
 501              		.cfi_offset 14, -4
 502 0002 92B0     		sub	sp, sp, #72
ARM GAS  C:\Users\073be\AppData\Local\Temp\ccbq7EDA.s 			page 15


 503              	.LCFI10:
 504              		.cfi_def_cfa_offset 88
 505 0004 0446     		mov	r4, r0
 506 0006 0E46     		mov	r6, r1
 507              	.LVL52:
 508              	.LBB200:
 509              	.LBB201:
 510              	.LBB202:
 129:Core/Inc/utils\math/vec3.h ****                 y_ = v.y_;
 511              		.loc 3 129 0
 512 0008 C369     		ldr	r3, [r0, #28]	@ float
 513 000a 0C93     		str	r3, [sp, #48]	@ float
 130:Core/Inc/utils\math/vec3.h ****                 z_ = v.z_;
 514              		.loc 3 130 0
 515 000c 036A     		ldr	r3, [r0, #32]	@ float
 516 000e 0D93     		str	r3, [sp, #52]	@ float
 517              		.loc 3 131 0
 518 0010 436A     		ldr	r3, [r0, #36]	@ float
 519 0012 0E93     		str	r3, [sp, #56]	@ float
 520              	.LVL53:
 521              	.LBE202:
 522              	.LBE201:
 523              	.LBE200:
  54:Core/Src/robot/robot.cpp ****         state_ = sensor_->read_State(state_from_base_,robot_state_vars_, dt_millis);
 524              		.loc 2 54 0
 525 0014 09AD     		add	r5, sp, #36
 526 0016 0091     		str	r1, [sp]
 527 0018 C368     		ldr	r3, [r0, #12]
 528 001a 0CAA     		add	r2, sp, #48
 529 001c 0168     		ldr	r1, [r0]
 530              	.LVL54:
 531 001e 2846     		mov	r0, r5
 532              	.LVL55:
 533 0020 FFF7FEFF 		bl	_ZN12State_Sensor10read_StateE4Vec3IfEPK10State_Varsm
 534              	.LVL56:
 535 0024 04F11003 		add	r3, r4, #16
 536 0028 95E80700 		ldm	r5, {r0, r1, r2}
 537 002c 83E80700 		stm	r3, {r0, r1, r2}
 538              	.LVL57:
 539              	.LBB203:
 540              	.LBB204:
 541              	.LBB205:
 129:Core/Inc/utils\math/vec3.h ****                 y_ = v.y_;
 542              		.loc 3 129 0
 543 0030 2369     		ldr	r3, [r4, #16]	@ float
 544              	.LVL58:
 545 0032 0F93     		str	r3, [sp, #60]	@ float
 130:Core/Inc/utils\math/vec3.h ****                 z_ = v.z_;
 546              		.loc 3 130 0
 547 0034 6369     		ldr	r3, [r4, #20]	@ float
 548 0036 1093     		str	r3, [sp, #64]	@ float
 549              		.loc 3 131 0
 550 0038 A369     		ldr	r3, [r4, #24]	@ float
 551 003a 1193     		str	r3, [sp, #68]	@ float
 552              	.LVL59:
 553              	.LBE205:
 554              	.LBE204:
ARM GAS  C:\Users\073be\AppData\Local\Temp\ccbq7EDA.s 			page 16


 555              	.LBE203:
  57:Core/Src/robot/robot.cpp ****         Vec3<float> vels = cpu_->process(state_, robot_state_vars_, dt_millis);
 556              		.loc 2 57 0
 557 003c 0096     		str	r6, [sp]
 558 003e E368     		ldr	r3, [r4, #12]
 559 0040 0FAA     		add	r2, sp, #60
 560 0042 6168     		ldr	r1, [r4, #4]
 561 0044 06A8     		add	r0, sp, #24
 562 0046 FFF7FEFF 		bl	_ZN9Processor7processE4Vec3IfEP10State_Varsm
 563              	.LVL60:
 564              	.LBB206:
 565              	.LBB207:
  34:Core/Inc/utils\math/vec3.h ****         T getY() const { return y_; }
 566              		.loc 3 34 0
 567 004a DDED067A 		vldr.32	s15, [sp, #24]
 568              	.LVL61:
 569              	.LBE207:
 570              	.LBE206:
  63:Core/Src/robot/robot.cpp ****         float vx = -vels.getX() / (float)1000.0;
 571              		.loc 2 63 0
 572 004e F1EE677A 		vneg.f32	s15, s15
 573 0052 9FED137A 		vldr.32	s14, .L22
 574 0056 C7EE876A 		vdiv.f32	s13, s15, s14
 575              	.LVL62:
 576              	.LBB208:
 577              	.LBB209:
  35:Core/Inc/utils\math/vec3.h ****         T getZ() const { return z_; }
 578              		.loc 3 35 0
 579 005a 9DED076A 		vldr.32	s12, [sp, #28]
 580              	.LVL63:
 581              	.LBE209:
 582              	.LBE208:
  64:Core/Src/robot/robot.cpp ****         float vy = vels.getY()  / (float)1000.0;
 583              		.loc 2 64 0
 584 005e C6EE077A 		vdiv.f32	s15, s12, s14
 585              	.LVL64:
 586              	.LBB210:
 587              	.LBB211:
  37:Core/Inc/utils\math/vec3.h ****         void setY(T y) { y_ = y; }
 588              		.loc 3 37 0
 589 0062 CDED066A 		vstr.32	s13, [sp, #24]
 590              	.LVL65:
 591              	.LBE211:
 592              	.LBE210:
 593              	.LBB212:
 594              	.LBB213:
  38:Core/Inc/utils\math/vec3.h ****         void setZ(T z) { z_ = z; }
 595              		.loc 3 38 0
 596 0066 CDED077A 		vstr.32	s15, [sp, #28]
 597              	.LVL66:
 598              	.LBE213:
 599              	.LBE212:
  73:Core/Src/robot/robot.cpp ****         taskENTER_CRITICAL();
 600              		.loc 2 73 0
 601 006a FFF7FEFF 		bl	vPortEnterCritical
 602              	.LVL67:
 603              	.LBB214:
ARM GAS  C:\Users\073be\AppData\Local\Temp\ccbq7EDA.s 			page 17


 604              	.LBB215:
 605              	.LBB216:
 606              	.LBB217:
 607              	.LBB218:
 129:Core/Inc/utils\math/vec3.h ****                 y_ = v.y_;
 608              		.loc 3 129 0
 609 006e 069B     		ldr	r3, [sp, #24]	@ float
 610 0070 0393     		str	r3, [sp, #12]	@ float
 130:Core/Inc/utils\math/vec3.h ****                 z_ = v.z_;
 611              		.loc 3 130 0
 612 0072 079B     		ldr	r3, [sp, #28]	@ float
 613 0074 0493     		str	r3, [sp, #16]	@ float
 614              		.loc 3 131 0
 615 0076 089B     		ldr	r3, [sp, #32]	@ float
 616 0078 0593     		str	r3, [sp, #20]	@ float
 617              	.LVL68:
 618              	.LBE218:
 619              	.LBE217:
 620              	.LBE216:
 621              	.LBB219:
 622              	.LBB220:
 132:Core/Inc/utils\math/vec3.h ****         }
 133:Core/Inc/utils\math/vec3.h ****         
 134:Core/Inc/utils\math/vec3.h ****         Vec3 &operator=(const Vec3 &v) {
 135:Core/Inc/utils\math/vec3.h ****                 Vec3 temp(v);
 136:Core/Inc/utils\math/vec3.h ****                 swap(*this, temp);
 137:Core/Inc/utils\math/vec3.h **** 
 138:Core/Inc/utils\math/vec3.h ****                 return *this;
 139:Core/Inc/utils\math/vec3.h ****         }
 140:Core/Inc/utils\math/vec3.h **** 
 141:Core/Inc/utils\math/vec3.h ****         Vec3 &operator+=(const Vec3 &rhs) {
 142:Core/Inc/utils\math/vec3.h ****                 x_ += rhs.x_;
 143:Core/Inc/utils\math/vec3.h ****                 y_ += rhs.y_;
 144:Core/Inc/utils\math/vec3.h ****                 z_ += rhs.z_;
 145:Core/Inc/utils\math/vec3.h **** 
 146:Core/Inc/utils\math/vec3.h ****                 return *this;
 147:Core/Inc/utils\math/vec3.h ****         }
 148:Core/Inc/utils\math/vec3.h ****         
 149:Core/Inc/utils\math/vec3.h ****         Vec3 &operator-=(const Vec3 &rhs) {
 150:Core/Inc/utils\math/vec3.h ****                 x_ -= rhs.x_;
 151:Core/Inc/utils\math/vec3.h ****                 y_ -= rhs.y_;
 152:Core/Inc/utils\math/vec3.h ****                 z_ -= rhs.z_;
 153:Core/Inc/utils\math/vec3.h **** 
 154:Core/Inc/utils\math/vec3.h ****                 return *this;
 155:Core/Inc/utils\math/vec3.h ****         }
 156:Core/Inc/utils\math/vec3.h **** 
 157:Core/Inc/utils\math/vec3.h ****         friend Vec3 operator+(Vec3 lhs, const Vec3 &rhs) {
 158:Core/Inc/utils\math/vec3.h ****                 lhs += rhs;
 159:Core/Inc/utils\math/vec3.h ****                 return lhs;
 160:Core/Inc/utils\math/vec3.h ****         }
 161:Core/Inc/utils\math/vec3.h **** 
 162:Core/Inc/utils\math/vec3.h ****         friend Vec3 operator-(Vec3 lhs, const Vec3 &rhs) {
 163:Core/Inc/utils\math/vec3.h ****                 lhs -= rhs;
 164:Core/Inc/utils\math/vec3.h ****                 return lhs;
 165:Core/Inc/utils\math/vec3.h ****         }
 166:Core/Inc/utils\math/vec3.h **** 
 167:Core/Inc/utils\math/vec3.h ****         void print() const {
ARM GAS  C:\Users\073be\AppData\Local\Temp\ccbq7EDA.s 			page 18


 168:Core/Inc/utils\math/vec3.h ****                 printf("%ld, %ld, %ld", (int32_t)x_, (int32_t)y_, (int32_t)z_);
 169:Core/Inc/utils\math/vec3.h ****         }
 170:Core/Inc/utils\math/vec3.h **** 
 171:Core/Inc/utils\math/vec3.h **** private:
 172:Core/Inc/utils\math/vec3.h ****         T x_,y_,z_;
 173:Core/Inc/utils\math/vec3.h **** 
 174:Core/Inc/utils\math/vec3.h ****         friend void swap(Vec3 &first, Vec3 &second) {
 175:Core/Inc/utils\math/vec3.h ****                 swap_Element(first.x_, second.x_);
 623              		.loc 3 175 0
 624 007a 03A9     		add	r1, sp, #12
 625              	.LVL69:
 626 007c 04F12800 		add	r0, r4, #40
 627              	.LVL70:
 628 0080 FFF7FEFF 		bl	_Z12swap_ElementIfEvRT_S1_
 629              	.LVL71:
 176:Core/Inc/utils\math/vec3.h ****                 swap_Element(first.y_, second.y_);
 630              		.loc 3 176 0
 631 0084 04A9     		add	r1, sp, #16
 632 0086 04F12C00 		add	r0, r4, #44
 633 008a FFF7FEFF 		bl	_Z12swap_ElementIfEvRT_S1_
 634              	.LVL72:
 177:Core/Inc/utils\math/vec3.h ****                 swap_Element(first.z_, second.z_);
 635              		.loc 3 177 0
 636 008e 05A9     		add	r1, sp, #20
 637 0090 04F13000 		add	r0, r4, #48
 638 0094 FFF7FEFF 		bl	_Z12swap_ElementIfEvRT_S1_
 639              	.LVL73:
 640              	.LBE220:
 641              	.LBE219:
 642              	.LBE215:
 643              	.LBE214:
  75:Core/Src/robot/robot.cpp ****         taskEXIT_CRITICAL();
 644              		.loc 2 75 0
 645 0098 FFF7FEFF 		bl	vPortExitCritical
 646              	.LVL74:
  76:Core/Src/robot/robot.cpp **** }
 647              		.loc 2 76 0
 648 009c 12B0     		add	sp, sp, #72
 649              	.LCFI11:
 650              		.cfi_def_cfa_offset 16
 651              		@ sp needed
 652 009e 70BD     		pop	{r4, r5, r6, pc}
 653              	.LVL75:
 654              	.L23:
 655              		.align	2
 656              	.L22:
 657 00a0 00007A44 		.word	1148846080
 658              		.cfi_endproc
 659              	.LFE573:
 661              		.section	.bss._ZGVZN5Robot12get_InstanceEvE14sRobo_Instance,"aw",%nobits
 662              		.align	2
 663              		.set	.LANCHOR0,. + 0
 666              	_ZGVZN5Robot12get_InstanceEvE14sRobo_Instance:
 667 0000 00000000 		.space	4
 668              		.section	.bss._ZZN5Robot12get_InstanceEvE14sRobo_Instance,"aw",%nobits
 669              		.align	2
 670              		.set	.LANCHOR1,. + 0
ARM GAS  C:\Users\073be\AppData\Local\Temp\ccbq7EDA.s 			page 19


 673              	_ZZN5Robot12get_InstanceEvE14sRobo_Instance:
 674 0000 00000000 		.space	56
 674      00000000 
 674      00000000 
 674      00000000 
 674      00000000 
 675              		.text
 676              	.Letext0:
 677              		.file 4 "c:\\program files (x86)\\gnu tools arm embedded\\7 2017-q4-major\\arm-none-eabi\\include\
 678              		.file 5 "c:\\program files (x86)\\gnu tools arm embedded\\7 2017-q4-major\\arm-none-eabi\\include\
 679              		.file 6 "C:/Users/n-is/STM32Cube/Repository/STM32Cube_FW_F4_V1.23.0/Drivers/CMSIS/Include/core_cm4
 680              		.file 7 "C:/Users/n-is/STM32Cube/Repository/STM32Cube_FW_F4_V1.23.0/Drivers/CMSIS/Device/ST/STM32F
 681              		.file 8 "C:/Users/n-is/STM32Cube/Repository/STM32Cube_FW_F4_V1.23.0/Drivers/CMSIS/Device/ST/STM32F
 682              		.file 9 "c:\\program files (x86)\\gnu tools arm embedded\\7 2017-q4-major\\lib\\gcc\\arm-none-eabi
 683              		.file 10 "c:\\program files (x86)\\gnu tools arm embedded\\7 2017-q4-major\\arm-none-eabi\\include
 684              		.file 11 "c:\\program files (x86)\\gnu tools arm embedded\\7 2017-q4-major\\arm-none-eabi\\include
 685              		.file 12 "c:\\program files (x86)\\gnu tools arm embedded\\7 2017-q4-major\\arm-none-eabi\\include
 686              		.file 13 "C:/Users/n-is/STM32Cube/Repository/STM32Cube_FW_F4_V1.23.0/Drivers/STM32F4xx_HAL_Driver/
 687              		.file 14 "C:/Users/n-is/STM32Cube/Repository/STM32Cube_FW_F4_V1.23.0/Drivers/STM32F4xx_HAL_Driver/
 688              		.file 15 "C:/Users/n-is/STM32Cube/Repository/STM32Cube_FW_F4_V1.23.0/Drivers/STM32F4xx_HAL_Driver/
 689              		.file 16 "Core/Inc/periphs/tim.h"
 690              		.file 17 "Core/Inc/utils\\control/pid.h"
 691              		.file 18 "Core/Inc/utils\\control/pid_algorithms.h"
 692              		.file 19 "Core/Inc/devs/wheel.h"
 693              		.file 20 "Core/Inc/parts/actuator.h"
 694              		.file 21 "c:\\program files (x86)\\gnu tools arm embedded\\7 2017-q4-major\\arm-none-eabi\\include
 695              		.file 22 "c:\\program files (x86)\\gnu tools arm embedded\\7 2017-q4-major\\arm-none-eabi\\include
 696              		.file 23 "c:\\program files (x86)\\gnu tools arm embedded\\7 2017-q4-major\\arm-none-eabi\\include
 697              		.file 24 "c:\\program files (x86)\\gnu tools arm embedded\\7 2017-q4-major\\arm-none-eabi\\include
 698              		.file 25 "c:\\program files (x86)\\gnu tools arm embedded\\7 2017-q4-major\\arm-none-eabi\\include
 699              		.file 26 "Core/Inc/utils\\math/mat.h"
 700              		.file 27 "Core/Inc/utils\\filter/kalman.h"
 701              		.file 28 "Core/Inc/parts/sensors/position_sensor.h"
 702              		.file 29 "Core/Inc/parts/processor/robo_states.h"
 703              		.file 30 "Core/Inc/parts/state_sensor.h"
 704              		.file 31 "Core/Inc/utils\\math/vec2.h"
 705              		.file 32 "Core/Inc/parts/processor.h"
 706              		.file 33 "C:/Users/n-is/STM32Cube/Repository/STM32Cube_FW_F4_V1.23.0/Middlewares/Third_Party/FreeR
 707              		.file 34 "<built-in>"
ARM GAS  C:\Users\073be\AppData\Local\Temp\ccbq7EDA.s 			page 20

