ARM GAS  C:\Users\073be\AppData\Local\Temp\ccFR07Qb.s 			page 1


   1              		.cpu cortex-m4
   2              		.eabi_attribute 27, 1
   3              		.eabi_attribute 28, 1
   4              		.eabi_attribute 20, 1
   5              		.eabi_attribute 21, 1
   6              		.eabi_attribute 23, 3
   7              		.eabi_attribute 24, 1
   8              		.eabi_attribute 25, 1
   9              		.eabi_attribute 26, 1
  10              		.eabi_attribute 30, 1
  11              		.eabi_attribute 34, 1
  12              		.eabi_attribute 18, 4
  13              		.file	"stm32f4xx_it.c"
  14              		.text
  15              	.Ltext0:
  16              		.cfi_sections	.debug_frame
  17              		.section	.text.NMI_Handler,"ax",%progbits
  18              		.align	1
  19              		.global	NMI_Handler
  20              		.syntax unified
  21              		.thumb
  22              		.thumb_func
  23              		.fpu fpv4-sp-d16
  25              	NMI_Handler:
  26              	.LFB131:
  27              		.file 1 "Core/Src/sys/stm32f4xx_it.c"
   1:Core/Src/sys/stm32f4xx_it.c **** /* USER CODE BEGIN Header */
   2:Core/Src/sys/stm32f4xx_it.c **** /**
   3:Core/Src/sys/stm32f4xx_it.c ****   ******************************************************************************
   4:Core/Src/sys/stm32f4xx_it.c ****   * @file    stm32f4xx_it.c
   5:Core/Src/sys/stm32f4xx_it.c ****   * @brief   Interrupt Service Routines.
   6:Core/Src/sys/stm32f4xx_it.c ****   ******************************************************************************
   7:Core/Src/sys/stm32f4xx_it.c ****   *
   8:Core/Src/sys/stm32f4xx_it.c ****   * COPYRIGHT(c) 2019 STMicroelectronics
   9:Core/Src/sys/stm32f4xx_it.c ****   *
  10:Core/Src/sys/stm32f4xx_it.c ****   * Redistribution and use in source and binary forms, with or without modification,
  11:Core/Src/sys/stm32f4xx_it.c ****   * are permitted provided that the following conditions are met:
  12:Core/Src/sys/stm32f4xx_it.c ****   *   1. Redistributions of source code must retain the above copyright notice,
  13:Core/Src/sys/stm32f4xx_it.c ****   *      this list of conditions and the following disclaimer.
  14:Core/Src/sys/stm32f4xx_it.c ****   *   2. Redistributions in binary form must reproduce the above copyright notice,
  15:Core/Src/sys/stm32f4xx_it.c ****   *      this list of conditions and the following disclaimer in the documentation
  16:Core/Src/sys/stm32f4xx_it.c ****   *      and/or other materials provided with the distribution.
  17:Core/Src/sys/stm32f4xx_it.c ****   *   3. Neither the name of STMicroelectronics nor the names of its contributors
  18:Core/Src/sys/stm32f4xx_it.c ****   *      may be used to endorse or promote products derived from this software
  19:Core/Src/sys/stm32f4xx_it.c ****   *      without specific prior written permission.
  20:Core/Src/sys/stm32f4xx_it.c ****   *
  21:Core/Src/sys/stm32f4xx_it.c ****   * THIS SOFTWARE IS PROVIDED BY THE COPYRIGHT HOLDERS AND CONTRIBUTORS "AS IS"
  22:Core/Src/sys/stm32f4xx_it.c ****   * AND ANY EXPRESS OR IMPLIED WARRANTIES, INCLUDING, BUT NOT LIMITED TO, THE
  23:Core/Src/sys/stm32f4xx_it.c ****   * IMPLIED WARRANTIES OF MERCHANTABILITY AND FITNESS FOR A PARTICULAR PURPOSE ARE
  24:Core/Src/sys/stm32f4xx_it.c ****   * DISCLAIMED. IN NO EVENT SHALL THE COPYRIGHT HOLDER OR CONTRIBUTORS BE LIABLE
  25:Core/Src/sys/stm32f4xx_it.c ****   * FOR ANY DIRECT, INDIRECT, INCIDENTAL, SPECIAL, EXEMPLARY, OR CONSEQUENTIAL
  26:Core/Src/sys/stm32f4xx_it.c ****   * DAMAGES (INCLUDING, BUT NOT LIMITED TO, PROCUREMENT OF SUBSTITUTE GOODS OR
  27:Core/Src/sys/stm32f4xx_it.c ****   * SERVICES; LOSS OF USE, DATA, OR PROFITS; OR BUSINESS INTERRUPTION) HOWEVER
  28:Core/Src/sys/stm32f4xx_it.c ****   * CAUSED AND ON ANY THEORY OF LIABILITY, WHETHER IN CONTRACT, STRICT LIABILITY,
  29:Core/Src/sys/stm32f4xx_it.c ****   * OR TORT (INCLUDING NEGLIGENCE OR OTHERWISE) ARISING IN ANY WAY OUT OF THE USE
  30:Core/Src/sys/stm32f4xx_it.c ****   * OF THIS SOFTWARE, EVEN IF ADVISED OF THE POSSIBILITY OF SUCH DAMAGE.
  31:Core/Src/sys/stm32f4xx_it.c ****   *
ARM GAS  C:\Users\073be\AppData\Local\Temp\ccFR07Qb.s 			page 2


  32:Core/Src/sys/stm32f4xx_it.c ****   ******************************************************************************
  33:Core/Src/sys/stm32f4xx_it.c ****   */
  34:Core/Src/sys/stm32f4xx_it.c **** /* USER CODE END Header */
  35:Core/Src/sys/stm32f4xx_it.c **** 
  36:Core/Src/sys/stm32f4xx_it.c **** /* Includes ------------------------------------------------------------------*/
  37:Core/Src/sys/stm32f4xx_it.c **** #include "main.h"
  38:Core/Src/sys/stm32f4xx_it.c **** #include "stm32f4xx_it.h"
  39:Core/Src/sys/stm32f4xx_it.c **** #include "cmsis_os.h"
  40:Core/Src/sys/stm32f4xx_it.c **** /* Private includes ----------------------------------------------------------*/
  41:Core/Src/sys/stm32f4xx_it.c **** /* USER CODE BEGIN Includes */
  42:Core/Src/sys/stm32f4xx_it.c **** /* USER CODE END Includes */
  43:Core/Src/sys/stm32f4xx_it.c **** 
  44:Core/Src/sys/stm32f4xx_it.c **** /* Private typedef -----------------------------------------------------------*/
  45:Core/Src/sys/stm32f4xx_it.c **** /* USER CODE BEGIN TD */
  46:Core/Src/sys/stm32f4xx_it.c **** 
  47:Core/Src/sys/stm32f4xx_it.c **** /* USER CODE END TD */
  48:Core/Src/sys/stm32f4xx_it.c **** 
  49:Core/Src/sys/stm32f4xx_it.c **** /* Private define ------------------------------------------------------------*/
  50:Core/Src/sys/stm32f4xx_it.c **** /* USER CODE BEGIN PD */
  51:Core/Src/sys/stm32f4xx_it.c ****  
  52:Core/Src/sys/stm32f4xx_it.c **** /* USER CODE END PD */
  53:Core/Src/sys/stm32f4xx_it.c **** 
  54:Core/Src/sys/stm32f4xx_it.c **** /* Private macro -------------------------------------------------------------*/
  55:Core/Src/sys/stm32f4xx_it.c **** /* USER CODE BEGIN PM */
  56:Core/Src/sys/stm32f4xx_it.c **** 
  57:Core/Src/sys/stm32f4xx_it.c **** /* USER CODE END PM */
  58:Core/Src/sys/stm32f4xx_it.c **** 
  59:Core/Src/sys/stm32f4xx_it.c **** /* Private variables ---------------------------------------------------------*/
  60:Core/Src/sys/stm32f4xx_it.c **** /* USER CODE BEGIN PV */
  61:Core/Src/sys/stm32f4xx_it.c **** 
  62:Core/Src/sys/stm32f4xx_it.c **** /* USER CODE END PV */
  63:Core/Src/sys/stm32f4xx_it.c **** 
  64:Core/Src/sys/stm32f4xx_it.c **** /* Private function prototypes -----------------------------------------------*/
  65:Core/Src/sys/stm32f4xx_it.c **** /* USER CODE BEGIN PFP */
  66:Core/Src/sys/stm32f4xx_it.c **** 
  67:Core/Src/sys/stm32f4xx_it.c **** /* USER CODE END PFP */
  68:Core/Src/sys/stm32f4xx_it.c **** 
  69:Core/Src/sys/stm32f4xx_it.c **** /* Private user code ---------------------------------------------------------*/
  70:Core/Src/sys/stm32f4xx_it.c **** /* USER CODE BEGIN 0 */
  71:Core/Src/sys/stm32f4xx_it.c **** 
  72:Core/Src/sys/stm32f4xx_it.c **** /* USER CODE END 0 */
  73:Core/Src/sys/stm32f4xx_it.c **** 
  74:Core/Src/sys/stm32f4xx_it.c **** /* External variables --------------------------------------------------------*/
  75:Core/Src/sys/stm32f4xx_it.c **** extern PCD_HandleTypeDef hpcd_USB_OTG_FS;
  76:Core/Src/sys/stm32f4xx_it.c **** extern DMA_HandleTypeDef hdma_usart3_rx;
  77:Core/Src/sys/stm32f4xx_it.c **** extern UART_HandleTypeDef huart3;
  78:Core/Src/sys/stm32f4xx_it.c **** extern TIM_HandleTypeDef htim5;
  79:Core/Src/sys/stm32f4xx_it.c **** 
  80:Core/Src/sys/stm32f4xx_it.c **** /* USER CODE BEGIN EV */
  81:Core/Src/sys/stm32f4xx_it.c **** 
  82:Core/Src/sys/stm32f4xx_it.c **** /* USER CODE END EV */
  83:Core/Src/sys/stm32f4xx_it.c **** 
  84:Core/Src/sys/stm32f4xx_it.c **** /******************************************************************************/
  85:Core/Src/sys/stm32f4xx_it.c **** /*           Cortex-M4 Processor Interruption and Exception Handlers          */ 
  86:Core/Src/sys/stm32f4xx_it.c **** /******************************************************************************/
  87:Core/Src/sys/stm32f4xx_it.c **** /**
  88:Core/Src/sys/stm32f4xx_it.c ****   * @brief This function handles Non maskable interrupt.
ARM GAS  C:\Users\073be\AppData\Local\Temp\ccFR07Qb.s 			page 3


  89:Core/Src/sys/stm32f4xx_it.c ****   */
  90:Core/Src/sys/stm32f4xx_it.c **** void NMI_Handler(void)
  91:Core/Src/sys/stm32f4xx_it.c **** {
  28              		.loc 1 91 0
  29              		.cfi_startproc
  30              		@ args = 0, pretend = 0, frame = 0
  31              		@ frame_needed = 0, uses_anonymous_args = 0
  32              		@ link register save eliminated.
  92:Core/Src/sys/stm32f4xx_it.c ****   /* USER CODE BEGIN NonMaskableInt_IRQn 0 */
  93:Core/Src/sys/stm32f4xx_it.c **** 
  94:Core/Src/sys/stm32f4xx_it.c ****   /* USER CODE END NonMaskableInt_IRQn 0 */
  95:Core/Src/sys/stm32f4xx_it.c ****   /* USER CODE BEGIN NonMaskableInt_IRQn 1 */
  96:Core/Src/sys/stm32f4xx_it.c **** 
  97:Core/Src/sys/stm32f4xx_it.c ****   /* USER CODE END NonMaskableInt_IRQn 1 */
  98:Core/Src/sys/stm32f4xx_it.c **** }
  33              		.loc 1 98 0
  34 0000 7047     		bx	lr
  35              		.cfi_endproc
  36              	.LFE131:
  38              		.section	.text.HardFault_Handler,"ax",%progbits
  39              		.align	1
  40              		.global	HardFault_Handler
  41              		.syntax unified
  42              		.thumb
  43              		.thumb_func
  44              		.fpu fpv4-sp-d16
  46              	HardFault_Handler:
  47              	.LFB132:
  99:Core/Src/sys/stm32f4xx_it.c **** 
 100:Core/Src/sys/stm32f4xx_it.c **** /**
 101:Core/Src/sys/stm32f4xx_it.c ****   * @brief This function handles Hard fault interrupt.
 102:Core/Src/sys/stm32f4xx_it.c ****   */
 103:Core/Src/sys/stm32f4xx_it.c **** void HardFault_Handler(void)
 104:Core/Src/sys/stm32f4xx_it.c **** {
  48              		.loc 1 104 0
  49              		.cfi_startproc
  50              		@ Volatile: function does not return.
  51              		@ args = 0, pretend = 0, frame = 0
  52              		@ frame_needed = 0, uses_anonymous_args = 0
  53              		@ link register save eliminated.
  54              	.L3:
  55 0000 FEE7     		b	.L3
  56              		.cfi_endproc
  57              	.LFE132:
  59              		.section	.text.MemManage_Handler,"ax",%progbits
  60              		.align	1
  61              		.global	MemManage_Handler
  62              		.syntax unified
  63              		.thumb
  64              		.thumb_func
  65              		.fpu fpv4-sp-d16
  67              	MemManage_Handler:
  68              	.LFB133:
 105:Core/Src/sys/stm32f4xx_it.c ****   /* USER CODE BEGIN HardFault_IRQn 0 */
 106:Core/Src/sys/stm32f4xx_it.c **** 
 107:Core/Src/sys/stm32f4xx_it.c ****   /* USER CODE END HardFault_IRQn 0 */
 108:Core/Src/sys/stm32f4xx_it.c ****   while (1)
ARM GAS  C:\Users\073be\AppData\Local\Temp\ccFR07Qb.s 			page 4


 109:Core/Src/sys/stm32f4xx_it.c ****   {
 110:Core/Src/sys/stm32f4xx_it.c ****     /* USER CODE BEGIN W1_HardFault_IRQn 0 */
 111:Core/Src/sys/stm32f4xx_it.c ****     /* USER CODE END W1_HardFault_IRQn 0 */
 112:Core/Src/sys/stm32f4xx_it.c ****   }
 113:Core/Src/sys/stm32f4xx_it.c **** }
 114:Core/Src/sys/stm32f4xx_it.c **** 
 115:Core/Src/sys/stm32f4xx_it.c **** /**
 116:Core/Src/sys/stm32f4xx_it.c ****   * @brief This function handles Memory management fault.
 117:Core/Src/sys/stm32f4xx_it.c ****   */
 118:Core/Src/sys/stm32f4xx_it.c **** void MemManage_Handler(void)
 119:Core/Src/sys/stm32f4xx_it.c **** {
  69              		.loc 1 119 0
  70              		.cfi_startproc
  71              		@ Volatile: function does not return.
  72              		@ args = 0, pretend = 0, frame = 0
  73              		@ frame_needed = 0, uses_anonymous_args = 0
  74              		@ link register save eliminated.
  75              	.L5:
  76 0000 FEE7     		b	.L5
  77              		.cfi_endproc
  78              	.LFE133:
  80              		.section	.text.BusFault_Handler,"ax",%progbits
  81              		.align	1
  82              		.global	BusFault_Handler
  83              		.syntax unified
  84              		.thumb
  85              		.thumb_func
  86              		.fpu fpv4-sp-d16
  88              	BusFault_Handler:
  89              	.LFB134:
 120:Core/Src/sys/stm32f4xx_it.c ****   /* USER CODE BEGIN MemoryManagement_IRQn 0 */
 121:Core/Src/sys/stm32f4xx_it.c **** 
 122:Core/Src/sys/stm32f4xx_it.c ****   /* USER CODE END MemoryManagement_IRQn 0 */
 123:Core/Src/sys/stm32f4xx_it.c ****   while (1)
 124:Core/Src/sys/stm32f4xx_it.c ****   {
 125:Core/Src/sys/stm32f4xx_it.c ****     /* USER CODE BEGIN W1_MemoryManagement_IRQn 0 */
 126:Core/Src/sys/stm32f4xx_it.c ****     /* USER CODE END W1_MemoryManagement_IRQn 0 */
 127:Core/Src/sys/stm32f4xx_it.c ****   }
 128:Core/Src/sys/stm32f4xx_it.c **** }
 129:Core/Src/sys/stm32f4xx_it.c **** 
 130:Core/Src/sys/stm32f4xx_it.c **** /**
 131:Core/Src/sys/stm32f4xx_it.c ****   * @brief This function handles Pre-fetch fault, memory access fault.
 132:Core/Src/sys/stm32f4xx_it.c ****   */
 133:Core/Src/sys/stm32f4xx_it.c **** void BusFault_Handler(void)
 134:Core/Src/sys/stm32f4xx_it.c **** {
  90              		.loc 1 134 0
  91              		.cfi_startproc
  92              		@ Volatile: function does not return.
  93              		@ args = 0, pretend = 0, frame = 0
  94              		@ frame_needed = 0, uses_anonymous_args = 0
  95              		@ link register save eliminated.
  96              	.L7:
  97 0000 FEE7     		b	.L7
  98              		.cfi_endproc
  99              	.LFE134:
 101              		.section	.text.UsageFault_Handler,"ax",%progbits
 102              		.align	1
ARM GAS  C:\Users\073be\AppData\Local\Temp\ccFR07Qb.s 			page 5


 103              		.global	UsageFault_Handler
 104              		.syntax unified
 105              		.thumb
 106              		.thumb_func
 107              		.fpu fpv4-sp-d16
 109              	UsageFault_Handler:
 110              	.LFB135:
 135:Core/Src/sys/stm32f4xx_it.c ****   /* USER CODE BEGIN BusFault_IRQn 0 */
 136:Core/Src/sys/stm32f4xx_it.c **** 
 137:Core/Src/sys/stm32f4xx_it.c ****   /* USER CODE END BusFault_IRQn 0 */
 138:Core/Src/sys/stm32f4xx_it.c ****   while (1)
 139:Core/Src/sys/stm32f4xx_it.c ****   {
 140:Core/Src/sys/stm32f4xx_it.c ****     /* USER CODE BEGIN W1_BusFault_IRQn 0 */
 141:Core/Src/sys/stm32f4xx_it.c ****     /* USER CODE END W1_BusFault_IRQn 0 */
 142:Core/Src/sys/stm32f4xx_it.c ****   }
 143:Core/Src/sys/stm32f4xx_it.c **** }
 144:Core/Src/sys/stm32f4xx_it.c **** 
 145:Core/Src/sys/stm32f4xx_it.c **** /**
 146:Core/Src/sys/stm32f4xx_it.c ****   * @brief This function handles Undefined instruction or illegal state.
 147:Core/Src/sys/stm32f4xx_it.c ****   */
 148:Core/Src/sys/stm32f4xx_it.c **** void UsageFault_Handler(void)
 149:Core/Src/sys/stm32f4xx_it.c **** {
 111              		.loc 1 149 0
 112              		.cfi_startproc
 113              		@ Volatile: function does not return.
 114              		@ args = 0, pretend = 0, frame = 0
 115              		@ frame_needed = 0, uses_anonymous_args = 0
 116              		@ link register save eliminated.
 117              	.L9:
 118 0000 FEE7     		b	.L9
 119              		.cfi_endproc
 120              	.LFE135:
 122              		.section	.text.DebugMon_Handler,"ax",%progbits
 123              		.align	1
 124              		.global	DebugMon_Handler
 125              		.syntax unified
 126              		.thumb
 127              		.thumb_func
 128              		.fpu fpv4-sp-d16
 130              	DebugMon_Handler:
 131              	.LFB136:
 150:Core/Src/sys/stm32f4xx_it.c ****   /* USER CODE BEGIN UsageFault_IRQn 0 */
 151:Core/Src/sys/stm32f4xx_it.c **** 
 152:Core/Src/sys/stm32f4xx_it.c ****   /* USER CODE END UsageFault_IRQn 0 */
 153:Core/Src/sys/stm32f4xx_it.c ****   while (1)
 154:Core/Src/sys/stm32f4xx_it.c ****   {
 155:Core/Src/sys/stm32f4xx_it.c ****     /* USER CODE BEGIN W1_UsageFault_IRQn 0 */
 156:Core/Src/sys/stm32f4xx_it.c ****     /* USER CODE END W1_UsageFault_IRQn 0 */
 157:Core/Src/sys/stm32f4xx_it.c ****   }
 158:Core/Src/sys/stm32f4xx_it.c **** }
 159:Core/Src/sys/stm32f4xx_it.c **** 
 160:Core/Src/sys/stm32f4xx_it.c **** /**
 161:Core/Src/sys/stm32f4xx_it.c ****   * @brief This function handles Debug monitor.
 162:Core/Src/sys/stm32f4xx_it.c ****   */
 163:Core/Src/sys/stm32f4xx_it.c **** void DebugMon_Handler(void)
 164:Core/Src/sys/stm32f4xx_it.c **** {
 132              		.loc 1 164 0
ARM GAS  C:\Users\073be\AppData\Local\Temp\ccFR07Qb.s 			page 6


 133              		.cfi_startproc
 134              		@ args = 0, pretend = 0, frame = 0
 135              		@ frame_needed = 0, uses_anonymous_args = 0
 136              		@ link register save eliminated.
 165:Core/Src/sys/stm32f4xx_it.c ****   /* USER CODE BEGIN DebugMonitor_IRQn 0 */
 166:Core/Src/sys/stm32f4xx_it.c **** 
 167:Core/Src/sys/stm32f4xx_it.c ****   /* USER CODE END DebugMonitor_IRQn 0 */
 168:Core/Src/sys/stm32f4xx_it.c ****   /* USER CODE BEGIN DebugMonitor_IRQn 1 */
 169:Core/Src/sys/stm32f4xx_it.c **** 
 170:Core/Src/sys/stm32f4xx_it.c ****   /* USER CODE END DebugMonitor_IRQn 1 */
 171:Core/Src/sys/stm32f4xx_it.c **** }
 137              		.loc 1 171 0
 138 0000 7047     		bx	lr
 139              		.cfi_endproc
 140              	.LFE136:
 142              		.section	.text.EXTI4_IRQHandler,"ax",%progbits
 143              		.align	1
 144              		.global	EXTI4_IRQHandler
 145              		.syntax unified
 146              		.thumb
 147              		.thumb_func
 148              		.fpu fpv4-sp-d16
 150              	EXTI4_IRQHandler:
 151              	.LFB137:
 172:Core/Src/sys/stm32f4xx_it.c **** 
 173:Core/Src/sys/stm32f4xx_it.c **** /******************************************************************************/
 174:Core/Src/sys/stm32f4xx_it.c **** /* STM32F4xx Peripheral Interrupt Handlers                                    */
 175:Core/Src/sys/stm32f4xx_it.c **** /* Add here the Interrupt Handlers for the used peripherals.                  */
 176:Core/Src/sys/stm32f4xx_it.c **** /* For the available peripheral interrupt handler names,                      */
 177:Core/Src/sys/stm32f4xx_it.c **** /* please refer to the startup file (startup_stm32f4xx.s).                    */
 178:Core/Src/sys/stm32f4xx_it.c **** /******************************************************************************/
 179:Core/Src/sys/stm32f4xx_it.c **** 
 180:Core/Src/sys/stm32f4xx_it.c **** /**
 181:Core/Src/sys/stm32f4xx_it.c ****   * @brief This function handles EXTI line4 interrupt.
 182:Core/Src/sys/stm32f4xx_it.c ****   */
 183:Core/Src/sys/stm32f4xx_it.c **** void EXTI4_IRQHandler(void)
 184:Core/Src/sys/stm32f4xx_it.c **** {
 152              		.loc 1 184 0
 153              		.cfi_startproc
 154              		@ args = 0, pretend = 0, frame = 0
 155              		@ frame_needed = 0, uses_anonymous_args = 0
 156 0000 08B5     		push	{r3, lr}
 157              	.LCFI0:
 158              		.cfi_def_cfa_offset 8
 159              		.cfi_offset 3, -8
 160              		.cfi_offset 14, -4
 185:Core/Src/sys/stm32f4xx_it.c ****   /* USER CODE BEGIN EXTI4_IRQn 0 */
 186:Core/Src/sys/stm32f4xx_it.c **** 
 187:Core/Src/sys/stm32f4xx_it.c ****   /* USER CODE END EXTI4_IRQn 0 */
 188:Core/Src/sys/stm32f4xx_it.c ****   HAL_GPIO_EXTI_IRQHandler(GPIO_PIN_4);
 161              		.loc 1 188 0
 162 0002 1020     		movs	r0, #16
 163 0004 FFF7FEFF 		bl	HAL_GPIO_EXTI_IRQHandler
 164              	.LVL0:
 189:Core/Src/sys/stm32f4xx_it.c ****   /* USER CODE BEGIN EXTI4_IRQn 1 */
 190:Core/Src/sys/stm32f4xx_it.c **** 
 191:Core/Src/sys/stm32f4xx_it.c ****   /* USER CODE END EXTI4_IRQn 1 */
ARM GAS  C:\Users\073be\AppData\Local\Temp\ccFR07Qb.s 			page 7


 192:Core/Src/sys/stm32f4xx_it.c **** }
 165              		.loc 1 192 0
 166 0008 08BD     		pop	{r3, pc}
 167              		.cfi_endproc
 168              	.LFE137:
 170              		.section	.text.DMA1_Stream1_IRQHandler,"ax",%progbits
 171              		.align	1
 172              		.global	DMA1_Stream1_IRQHandler
 173              		.syntax unified
 174              		.thumb
 175              		.thumb_func
 176              		.fpu fpv4-sp-d16
 178              	DMA1_Stream1_IRQHandler:
 179              	.LFB138:
 193:Core/Src/sys/stm32f4xx_it.c **** 
 194:Core/Src/sys/stm32f4xx_it.c **** /**
 195:Core/Src/sys/stm32f4xx_it.c ****   * @brief This function handles DMA1 stream1 global interrupt.
 196:Core/Src/sys/stm32f4xx_it.c ****   */
 197:Core/Src/sys/stm32f4xx_it.c **** void DMA1_Stream1_IRQHandler(void)
 198:Core/Src/sys/stm32f4xx_it.c **** {
 180              		.loc 1 198 0
 181              		.cfi_startproc
 182              		@ args = 0, pretend = 0, frame = 0
 183              		@ frame_needed = 0, uses_anonymous_args = 0
 184 0000 08B5     		push	{r3, lr}
 185              	.LCFI1:
 186              		.cfi_def_cfa_offset 8
 187              		.cfi_offset 3, -8
 188              		.cfi_offset 14, -4
 199:Core/Src/sys/stm32f4xx_it.c ****   /* USER CODE BEGIN DMA1_Stream1_IRQn 0 */
 200:Core/Src/sys/stm32f4xx_it.c **** 
 201:Core/Src/sys/stm32f4xx_it.c ****   /* USER CODE END DMA1_Stream1_IRQn 0 */
 202:Core/Src/sys/stm32f4xx_it.c ****   HAL_DMA_IRQHandler(&hdma_usart3_rx);
 189              		.loc 1 202 0
 190 0002 0248     		ldr	r0, .L15
 191 0004 FFF7FEFF 		bl	HAL_DMA_IRQHandler
 192              	.LVL1:
 203:Core/Src/sys/stm32f4xx_it.c ****   /* USER CODE BEGIN DMA1_Stream1_IRQn 1 */
 204:Core/Src/sys/stm32f4xx_it.c **** 
 205:Core/Src/sys/stm32f4xx_it.c ****   /* USER CODE END DMA1_Stream1_IRQn 1 */
 206:Core/Src/sys/stm32f4xx_it.c **** }
 193              		.loc 1 206 0
 194 0008 08BD     		pop	{r3, pc}
 195              	.L16:
 196 000a 00BF     		.align	2
 197              	.L15:
 198 000c 00000000 		.word	hdma_usart3_rx
 199              		.cfi_endproc
 200              	.LFE138:
 202              		.section	.text.EXTI9_5_IRQHandler,"ax",%progbits
 203              		.align	1
 204              		.global	EXTI9_5_IRQHandler
 205              		.syntax unified
 206              		.thumb
 207              		.thumb_func
 208              		.fpu fpv4-sp-d16
 210              	EXTI9_5_IRQHandler:
ARM GAS  C:\Users\073be\AppData\Local\Temp\ccFR07Qb.s 			page 8


 211              	.LFB139:
 207:Core/Src/sys/stm32f4xx_it.c **** 
 208:Core/Src/sys/stm32f4xx_it.c **** /**
 209:Core/Src/sys/stm32f4xx_it.c ****   * @brief This function handles EXTI line[9:5] interrupts.
 210:Core/Src/sys/stm32f4xx_it.c ****   */
 211:Core/Src/sys/stm32f4xx_it.c **** void EXTI9_5_IRQHandler(void)
 212:Core/Src/sys/stm32f4xx_it.c **** {
 212              		.loc 1 212 0
 213              		.cfi_startproc
 214              		@ args = 0, pretend = 0, frame = 0
 215              		@ frame_needed = 0, uses_anonymous_args = 0
 216 0000 08B5     		push	{r3, lr}
 217              	.LCFI2:
 218              		.cfi_def_cfa_offset 8
 219              		.cfi_offset 3, -8
 220              		.cfi_offset 14, -4
 213:Core/Src/sys/stm32f4xx_it.c ****   /* USER CODE BEGIN EXTI9_5_IRQn 0 */
 214:Core/Src/sys/stm32f4xx_it.c **** 
 215:Core/Src/sys/stm32f4xx_it.c ****   /* USER CODE END EXTI9_5_IRQn 0 */
 216:Core/Src/sys/stm32f4xx_it.c ****   HAL_GPIO_EXTI_IRQHandler(GPIO_PIN_7);
 221              		.loc 1 216 0
 222 0002 8020     		movs	r0, #128
 223 0004 FFF7FEFF 		bl	HAL_GPIO_EXTI_IRQHandler
 224              	.LVL2:
 217:Core/Src/sys/stm32f4xx_it.c ****   HAL_GPIO_EXTI_IRQHandler(GPIO_PIN_9);
 225              		.loc 1 217 0
 226 0008 4FF40070 		mov	r0, #512
 227 000c FFF7FEFF 		bl	HAL_GPIO_EXTI_IRQHandler
 228              	.LVL3:
 218:Core/Src/sys/stm32f4xx_it.c ****   /* USER CODE BEGIN EXTI9_5_IRQn 1 */
 219:Core/Src/sys/stm32f4xx_it.c **** 
 220:Core/Src/sys/stm32f4xx_it.c ****   /* USER CODE END EXTI9_5_IRQn 1 */
 221:Core/Src/sys/stm32f4xx_it.c **** }
 229              		.loc 1 221 0
 230 0010 08BD     		pop	{r3, pc}
 231              		.cfi_endproc
 232              	.LFE139:
 234              		.section	.text.USART3_IRQHandler,"ax",%progbits
 235              		.align	1
 236              		.global	USART3_IRQHandler
 237              		.syntax unified
 238              		.thumb
 239              		.thumb_func
 240              		.fpu fpv4-sp-d16
 242              	USART3_IRQHandler:
 243              	.LFB140:
 222:Core/Src/sys/stm32f4xx_it.c **** 
 223:Core/Src/sys/stm32f4xx_it.c **** /**
 224:Core/Src/sys/stm32f4xx_it.c ****   * @brief This function handles USART3 global interrupt.
 225:Core/Src/sys/stm32f4xx_it.c ****   */
 226:Core/Src/sys/stm32f4xx_it.c **** void USART3_IRQHandler(void)
 227:Core/Src/sys/stm32f4xx_it.c **** {
 244              		.loc 1 227 0
 245              		.cfi_startproc
 246              		@ args = 0, pretend = 0, frame = 0
 247              		@ frame_needed = 0, uses_anonymous_args = 0
 248 0000 08B5     		push	{r3, lr}
ARM GAS  C:\Users\073be\AppData\Local\Temp\ccFR07Qb.s 			page 9


 249              	.LCFI3:
 250              		.cfi_def_cfa_offset 8
 251              		.cfi_offset 3, -8
 252              		.cfi_offset 14, -4
 228:Core/Src/sys/stm32f4xx_it.c ****   /* USER CODE BEGIN USART3_IRQn 0 */
 229:Core/Src/sys/stm32f4xx_it.c **** 
 230:Core/Src/sys/stm32f4xx_it.c ****   /* USER CODE END USART3_IRQn 0 */
 231:Core/Src/sys/stm32f4xx_it.c ****   HAL_UART_IRQHandler(&huart3);
 253              		.loc 1 231 0
 254 0002 0248     		ldr	r0, .L21
 255 0004 FFF7FEFF 		bl	HAL_UART_IRQHandler
 256              	.LVL4:
 232:Core/Src/sys/stm32f4xx_it.c ****   /* USER CODE BEGIN USART3_IRQn 1 */
 233:Core/Src/sys/stm32f4xx_it.c **** 
 234:Core/Src/sys/stm32f4xx_it.c ****   /* USER CODE END USART3_IRQn 1 */
 235:Core/Src/sys/stm32f4xx_it.c **** }
 257              		.loc 1 235 0
 258 0008 08BD     		pop	{r3, pc}
 259              	.L22:
 260 000a 00BF     		.align	2
 261              	.L21:
 262 000c 00000000 		.word	huart3
 263              		.cfi_endproc
 264              	.LFE140:
 266              		.section	.text.EXTI15_10_IRQHandler,"ax",%progbits
 267              		.align	1
 268              		.global	EXTI15_10_IRQHandler
 269              		.syntax unified
 270              		.thumb
 271              		.thumb_func
 272              		.fpu fpv4-sp-d16
 274              	EXTI15_10_IRQHandler:
 275              	.LFB141:
 236:Core/Src/sys/stm32f4xx_it.c **** 
 237:Core/Src/sys/stm32f4xx_it.c **** /**
 238:Core/Src/sys/stm32f4xx_it.c ****   * @brief This function handles EXTI line[15:10] interrupts.
 239:Core/Src/sys/stm32f4xx_it.c ****   */
 240:Core/Src/sys/stm32f4xx_it.c **** void EXTI15_10_IRQHandler(void)
 241:Core/Src/sys/stm32f4xx_it.c **** {
 276              		.loc 1 241 0
 277              		.cfi_startproc
 278              		@ args = 0, pretend = 0, frame = 0
 279              		@ frame_needed = 0, uses_anonymous_args = 0
 280 0000 08B5     		push	{r3, lr}
 281              	.LCFI4:
 282              		.cfi_def_cfa_offset 8
 283              		.cfi_offset 3, -8
 284              		.cfi_offset 14, -4
 242:Core/Src/sys/stm32f4xx_it.c ****   /* USER CODE BEGIN EXTI15_10_IRQn 0 */
 243:Core/Src/sys/stm32f4xx_it.c **** 
 244:Core/Src/sys/stm32f4xx_it.c ****   /* USER CODE END EXTI15_10_IRQn 0 */
 245:Core/Src/sys/stm32f4xx_it.c ****   HAL_GPIO_EXTI_IRQHandler(GPIO_PIN_15);
 285              		.loc 1 245 0
 286 0002 4FF40040 		mov	r0, #32768
 287 0006 FFF7FEFF 		bl	HAL_GPIO_EXTI_IRQHandler
 288              	.LVL5:
 246:Core/Src/sys/stm32f4xx_it.c ****   /* USER CODE BEGIN EXTI15_10_IRQn 1 */
ARM GAS  C:\Users\073be\AppData\Local\Temp\ccFR07Qb.s 			page 10


 247:Core/Src/sys/stm32f4xx_it.c **** 
 248:Core/Src/sys/stm32f4xx_it.c ****   /* USER CODE END EXTI15_10_IRQn 1 */
 249:Core/Src/sys/stm32f4xx_it.c **** }
 289              		.loc 1 249 0
 290 000a 08BD     		pop	{r3, pc}
 291              		.cfi_endproc
 292              	.LFE141:
 294              		.section	.text.TIM5_IRQHandler,"ax",%progbits
 295              		.align	1
 296              		.global	TIM5_IRQHandler
 297              		.syntax unified
 298              		.thumb
 299              		.thumb_func
 300              		.fpu fpv4-sp-d16
 302              	TIM5_IRQHandler:
 303              	.LFB142:
 250:Core/Src/sys/stm32f4xx_it.c **** 
 251:Core/Src/sys/stm32f4xx_it.c **** /**
 252:Core/Src/sys/stm32f4xx_it.c ****   * @brief This function handles TIM5 global interrupt.
 253:Core/Src/sys/stm32f4xx_it.c ****   */
 254:Core/Src/sys/stm32f4xx_it.c **** void TIM5_IRQHandler(void)
 255:Core/Src/sys/stm32f4xx_it.c **** {
 304              		.loc 1 255 0
 305              		.cfi_startproc
 306              		@ args = 0, pretend = 0, frame = 0
 307              		@ frame_needed = 0, uses_anonymous_args = 0
 308 0000 08B5     		push	{r3, lr}
 309              	.LCFI5:
 310              		.cfi_def_cfa_offset 8
 311              		.cfi_offset 3, -8
 312              		.cfi_offset 14, -4
 256:Core/Src/sys/stm32f4xx_it.c ****   /* USER CODE BEGIN TIM5_IRQn 0 */
 257:Core/Src/sys/stm32f4xx_it.c **** 
 258:Core/Src/sys/stm32f4xx_it.c ****   /* USER CODE END TIM5_IRQn 0 */
 259:Core/Src/sys/stm32f4xx_it.c ****   HAL_TIM_IRQHandler(&htim5);
 313              		.loc 1 259 0
 314 0002 0248     		ldr	r0, .L27
 315 0004 FFF7FEFF 		bl	HAL_TIM_IRQHandler
 316              	.LVL6:
 260:Core/Src/sys/stm32f4xx_it.c ****   /* USER CODE BEGIN TIM5_IRQn 1 */
 261:Core/Src/sys/stm32f4xx_it.c **** 
 262:Core/Src/sys/stm32f4xx_it.c ****   /* USER CODE END TIM5_IRQn 1 */
 263:Core/Src/sys/stm32f4xx_it.c **** }
 317              		.loc 1 263 0
 318 0008 08BD     		pop	{r3, pc}
 319              	.L28:
 320 000a 00BF     		.align	2
 321              	.L27:
 322 000c 00000000 		.word	htim5
 323              		.cfi_endproc
 324              	.LFE142:
 326              		.section	.text.OTG_FS_IRQHandler,"ax",%progbits
 327              		.align	1
 328              		.global	OTG_FS_IRQHandler
 329              		.syntax unified
 330              		.thumb
 331              		.thumb_func
ARM GAS  C:\Users\073be\AppData\Local\Temp\ccFR07Qb.s 			page 11


 332              		.fpu fpv4-sp-d16
 334              	OTG_FS_IRQHandler:
 335              	.LFB143:
 264:Core/Src/sys/stm32f4xx_it.c **** 
 265:Core/Src/sys/stm32f4xx_it.c **** /**
 266:Core/Src/sys/stm32f4xx_it.c ****   * @brief This function handles USB On The Go FS global interrupt.
 267:Core/Src/sys/stm32f4xx_it.c ****   */
 268:Core/Src/sys/stm32f4xx_it.c **** void OTG_FS_IRQHandler(void)
 269:Core/Src/sys/stm32f4xx_it.c **** {
 336              		.loc 1 269 0
 337              		.cfi_startproc
 338              		@ args = 0, pretend = 0, frame = 0
 339              		@ frame_needed = 0, uses_anonymous_args = 0
 340 0000 08B5     		push	{r3, lr}
 341              	.LCFI6:
 342              		.cfi_def_cfa_offset 8
 343              		.cfi_offset 3, -8
 344              		.cfi_offset 14, -4
 270:Core/Src/sys/stm32f4xx_it.c ****   /* USER CODE BEGIN OTG_FS_IRQn 0 */
 271:Core/Src/sys/stm32f4xx_it.c **** 
 272:Core/Src/sys/stm32f4xx_it.c ****   /* USER CODE END OTG_FS_IRQn 0 */
 273:Core/Src/sys/stm32f4xx_it.c ****   HAL_PCD_IRQHandler(&hpcd_USB_OTG_FS);
 345              		.loc 1 273 0
 346 0002 0248     		ldr	r0, .L31
 347 0004 FFF7FEFF 		bl	HAL_PCD_IRQHandler
 348              	.LVL7:
 274:Core/Src/sys/stm32f4xx_it.c ****   /* USER CODE BEGIN OTG_FS_IRQn 1 */
 275:Core/Src/sys/stm32f4xx_it.c **** 
 276:Core/Src/sys/stm32f4xx_it.c ****   /* USER CODE END OTG_FS_IRQn 1 */
 277:Core/Src/sys/stm32f4xx_it.c **** }
 349              		.loc 1 277 0
 350 0008 08BD     		pop	{r3, pc}
 351              	.L32:
 352 000a 00BF     		.align	2
 353              	.L31:
 354 000c 00000000 		.word	hpcd_USB_OTG_FS
 355              		.cfi_endproc
 356              	.LFE143:
 358              		.text
 359              	.Letext0:
 360              		.file 2 "c:\\program files (x86)\\gnu tools arm embedded\\7 2017-q4-major\\arm-none-eabi\\include\
 361              		.file 3 "c:\\program files (x86)\\gnu tools arm embedded\\7 2017-q4-major\\arm-none-eabi\\include\
 362              		.file 4 "C:/Users/n-is/STM32Cube/Repository/STM32Cube_FW_F4_V1.23.0/Drivers/CMSIS/Include/core_cm4
 363              		.file 5 "C:/Users/n-is/STM32Cube/Repository/STM32Cube_FW_F4_V1.23.0/Drivers/CMSIS/Device/ST/STM32F
 364              		.file 6 "C:/Users/n-is/STM32Cube/Repository/STM32Cube_FW_F4_V1.23.0/Drivers/CMSIS/Device/ST/STM32F
 365              		.file 7 "c:\\program files (x86)\\gnu tools arm embedded\\7 2017-q4-major\\arm-none-eabi\\include\
 366              		.file 8 "c:\\program files (x86)\\gnu tools arm embedded\\7 2017-q4-major\\arm-none-eabi\\include\
 367              		.file 9 "c:\\program files (x86)\\gnu tools arm embedded\\7 2017-q4-major\\lib\\gcc\\arm-none-eabi
 368              		.file 10 "c:\\program files (x86)\\gnu tools arm embedded\\7 2017-q4-major\\arm-none-eabi\\include
 369              		.file 11 "C:/Users/n-is/STM32Cube/Repository/STM32Cube_FW_F4_V1.23.0/Drivers/STM32F4xx_HAL_Driver/
 370              		.file 12 "C:/Users/n-is/STM32Cube/Repository/STM32Cube_FW_F4_V1.23.0/Drivers/STM32F4xx_HAL_Driver/
 371              		.file 13 "C:/Users/n-is/STM32Cube/Repository/STM32Cube_FW_F4_V1.23.0/Drivers/STM32F4xx_HAL_Driver/
 372              		.file 14 "C:/Users/n-is/STM32Cube/Repository/STM32Cube_FW_F4_V1.23.0/Drivers/STM32F4xx_HAL_Driver/
 373              		.file 15 "C:/Users/n-is/STM32Cube/Repository/STM32Cube_FW_F4_V1.23.0/Drivers/STM32F4xx_HAL_Driver/
 374              		.file 16 "C:/Users/n-is/STM32Cube/Repository/STM32Cube_FW_F4_V1.23.0/Drivers/STM32F4xx_HAL_Driver/
 375              		.file 17 "C:/Users/n-is/STM32Cube/Repository/STM32Cube_FW_F4_V1.23.0/Drivers/STM32F4xx_HAL_Driver/
ARM GAS  C:\Users\073be\AppData\Local\Temp\ccFR07Qb.s 			page 12

