ARM GAS  C:\Users\Prashant\AppData\Local\Temp\ccVV64rg.s 			page 1


   1              		.cpu cortex-m4
   2              		.eabi_attribute 27, 1
   3              		.eabi_attribute 28, 1
   4              		.eabi_attribute 20, 1
   5              		.eabi_attribute 21, 1
   6              		.eabi_attribute 23, 3
   7              		.eabi_attribute 24, 1
   8              		.eabi_attribute 25, 1
   9              		.eabi_attribute 26, 1
  10              		.eabi_attribute 30, 1
  11              		.eabi_attribute 34, 1
  12              		.eabi_attribute 18, 4
  13              		.file	"encoder.cpp"
  14              		.text
  15              	.Ltext0:
  16              		.cfi_sections	.debug_frame
  17              		.global	__aeabi_i2d
  18              		.global	__aeabi_dmul
  19              		.global	__aeabi_ddiv
  20              		.global	__aeabi_d2f
  21              		.section	.text._ZN7encoder15calculate_omegaEv,"ax",%progbits
  22              		.align	1
  23              		.global	_ZN7encoder15calculate_omegaEv
  24              		.syntax unified
  25              		.thumb
  26              		.thumb_func
  27              		.fpu fpv4-sp-d16
  29              	_ZN7encoder15calculate_omegaEv:
  30              	.LFB451:
  31              		.file 1 "Core/Src/devs/encoder.cpp"
   1:Core/Src/devs/encoder.cpp **** #include"encoder.h"
   2:Core/Src/devs/encoder.cpp **** #include "leg.h"
   3:Core/Src/devs/encoder.cpp **** 
   4:Core/Src/devs/encoder.cpp **** extern leg leg[1];
   5:Core/Src/devs/encoder.cpp **** void encoder::calculate_omega(){
  32              		.loc 1 5 0
  33              		.cfi_startproc
  34              		@ args = 0, pretend = 0, frame = 0
  35              		@ frame_needed = 0, uses_anonymous_args = 0
  36              	.LVL0:
  37 0000 F8B5     		push	{r3, r4, r5, r6, r7, lr}
  38              	.LCFI0:
  39              		.cfi_def_cfa_offset 24
  40              		.cfi_offset 3, -24
  41              		.cfi_offset 4, -20
  42              		.cfi_offset 5, -16
  43              		.cfi_offset 6, -12
  44              		.cfi_offset 7, -8
  45              		.cfi_offset 14, -4
  46 0002 0446     		mov	r4, r0
   6:Core/Src/devs/encoder.cpp **** 	omega_ = (2 * PI * (int16_t)encoder_->henc->Instance->CNT * 1000)/(encoder_->ppr * SAMPLE_TIME);	/
  47              		.loc 1 6 0
  48 0004 0568     		ldr	r5, [r0]
  49 0006 6B68     		ldr	r3, [r5, #4]
  50 0008 1B68     		ldr	r3, [r3]
  51 000a 586A     		ldr	r0, [r3, #36]
  52              	.LVL1:
ARM GAS  C:\Users\Prashant\AppData\Local\Temp\ccVV64rg.s 			page 2


  53 000c 00B2     		sxth	r0, r0
  54 000e FFF7FEFF 		bl	__aeabi_i2d
  55              	.LVL2:
  56 0012 18A3     		adr	r3, .L3+4
  57 0014 D3E90023 		ldrd	r2, [r3]
  58 0018 FFF7FEFF 		bl	__aeabi_dmul
  59              	.LVL3:
  60 001c 0022     		movs	r2, #0
  61 001e 144B     		ldr	r3, .L3
  62 0020 FFF7FEFF 		bl	__aeabi_dmul
  63              	.LVL4:
  64 0024 0646     		mov	r6, r0
  65 0026 0F46     		mov	r7, r1
  66 0028 2B89     		ldrh	r3, [r5, #8]
  67 002a 03EB8303 		add	r3, r3, r3, lsl #2
  68 002e 5800     		lsls	r0, r3, #1
  69 0030 FFF7FEFF 		bl	__aeabi_i2d
  70              	.LVL5:
  71 0034 0246     		mov	r2, r0
  72 0036 0B46     		mov	r3, r1
  73 0038 3046     		mov	r0, r6
  74 003a 3946     		mov	r1, r7
  75 003c FFF7FEFF 		bl	__aeabi_ddiv
  76              	.LVL6:
  77 0040 FFF7FEFF 		bl	__aeabi_d2f
  78              	.LVL7:
  79 0044 A060     		str	r0, [r4, #8]	@ float
   7:Core/Src/devs/encoder.cpp **** 	count_ += (int16_t)encoder_->henc->Instance->CNT;
  80              		.loc 1 7 0
  81 0046 6B68     		ldr	r3, [r5, #4]
  82 0048 1B68     		ldr	r3, [r3]
  83 004a 5B6A     		ldr	r3, [r3, #36]
  84 004c 6268     		ldr	r2, [r4, #4]
  85 004e 02FA83F3 		sxtah	r3, r2, r3
  86 0052 6360     		str	r3, [r4, #4]
   8:Core/Src/devs/encoder.cpp **** 	actual_count_ += (int16_t)encoder_->henc->Instance->CNT;
  87              		.loc 1 8 0
  88 0054 6B68     		ldr	r3, [r5, #4]
  89 0056 1B68     		ldr	r3, [r3]
  90 0058 5B6A     		ldr	r3, [r3, #36]
  91 005a 6269     		ldr	r2, [r4, #20]
  92 005c 02FA83F3 		sxtah	r3, r2, r3
  93 0060 6361     		str	r3, [r4, #20]
   9:Core/Src/devs/encoder.cpp **** 	encoder_->henc->Instance->CNT = 0;
  94              		.loc 1 9 0
  95 0062 6B68     		ldr	r3, [r5, #4]
  96 0064 1B68     		ldr	r3, [r3]
  97 0066 0022     		movs	r2, #0
  98 0068 5A62     		str	r2, [r3, #36]
  10:Core/Src/devs/encoder.cpp **** }
  99              		.loc 1 10 0
 100 006a F8BD     		pop	{r3, r4, r5, r6, r7, pc}
 101              	.LVL8:
 102              	.L4:
 103 006c AFF30080 		.align	3
 104              	.L3:
 105 0070 00408F40 		.word	1083129856
ARM GAS  C:\Users\Prashant\AppData\Local\Temp\ccVV64rg.s 			page 3


 106 0074 182D4454 		.word	1413754136
 107 0078 FB211940 		.word	1075388923
 108              		.cfi_endproc
 109              	.LFE451:
 111              		.section	.text._ZN7encoder9get_omegaEv,"ax",%progbits
 112              		.align	1
 113              		.global	_ZN7encoder9get_omegaEv
 114              		.syntax unified
 115              		.thumb
 116              		.thumb_func
 117              		.fpu fpv4-sp-d16
 119              	_ZN7encoder9get_omegaEv:
 120              	.LFB452:
  11:Core/Src/devs/encoder.cpp **** 
  12:Core/Src/devs/encoder.cpp **** float encoder::get_omega(){
 121              		.loc 1 12 0
 122              		.cfi_startproc
 123              		@ args = 0, pretend = 0, frame = 0
 124              		@ frame_needed = 0, uses_anonymous_args = 0
 125              		@ link register save eliminated.
 126              	.LVL9:
  13:Core/Src/devs/encoder.cpp **** 	return omega_;
  14:Core/Src/devs/encoder.cpp **** }
 127              		.loc 1 14 0
 128 0000 90ED020A 		vldr.32	s0, [r0, #8]
 129 0004 7047     		bx	lr
 130              		.cfi_endproc
 131              	.LFE452:
 133              		.section	.text._ZN7encoder16get_actual_angleEv,"ax",%progbits
 134              		.align	1
 135              		.global	_ZN7encoder16get_actual_angleEv
 136              		.syntax unified
 137              		.thumb
 138              		.thumb_func
 139              		.fpu fpv4-sp-d16
 141              	_ZN7encoder16get_actual_angleEv:
 142              	.LFB454:
  15:Core/Src/devs/encoder.cpp **** 
  16:Core/Src/devs/encoder.cpp **** float encoder::get_angle(){
  17:Core/Src/devs/encoder.cpp **** 	
  18:Core/Src/devs/encoder.cpp **** 	angle_ = ((2*PI)*(count_+(int16_t)encoder_->henc->Instance->CNT)/(encoder_->ppr));
  19:Core/Src/devs/encoder.cpp **** 	if(angle_>(2*PI)){
  20:Core/Src/devs/encoder.cpp **** 		leg[encoder_->id].steps++;
  21:Core/Src/devs/encoder.cpp **** 		reset_angle(angle_-(2*PI));
  22:Core/Src/devs/encoder.cpp **** 	}
  23:Core/Src/devs/encoder.cpp **** 	if(angle_<(-2*PI)){
  24:Core/Src/devs/encoder.cpp **** 		leg[encoder_->id].steps++;
  25:Core/Src/devs/encoder.cpp **** 		reset_angle(angle_+(2*PI));
  26:Core/Src/devs/encoder.cpp **** 	}
  27:Core/Src/devs/encoder.cpp **** 	return angle_;
  28:Core/Src/devs/encoder.cpp **** }
  29:Core/Src/devs/encoder.cpp **** 
  30:Core/Src/devs/encoder.cpp **** float encoder::get_actual_angle(void){
 143              		.loc 1 30 0
 144              		.cfi_startproc
 145              		@ args = 0, pretend = 0, frame = 0
 146              		@ frame_needed = 0, uses_anonymous_args = 0
ARM GAS  C:\Users\Prashant\AppData\Local\Temp\ccVV64rg.s 			page 4


 147              	.LVL10:
 148 0000 F8B5     		push	{r3, r4, r5, r6, r7, lr}
 149              	.LCFI1:
 150              		.cfi_def_cfa_offset 24
 151              		.cfi_offset 3, -24
 152              		.cfi_offset 4, -20
 153              		.cfi_offset 5, -16
 154              		.cfi_offset 6, -12
 155              		.cfi_offset 7, -8
 156              		.cfi_offset 14, -4
 157 0002 0446     		mov	r4, r0
  31:Core/Src/devs/encoder.cpp **** 	actual_angle_ = ((2*PI)*(actual_count_+(int16_t)encoder_->henc->Instance->CNT)/(encoder_->ppr));
 158              		.loc 1 31 0
 159 0004 4369     		ldr	r3, [r0, #20]
 160 0006 0568     		ldr	r5, [r0]
 161 0008 6A68     		ldr	r2, [r5, #4]
 162 000a 1268     		ldr	r2, [r2]
 163 000c 506A     		ldr	r0, [r2, #36]
 164              	.LVL11:
 165 000e 03FA80F0 		sxtah	r0, r3, r0
 166 0012 FFF7FEFF 		bl	__aeabi_i2d
 167              	.LVL12:
 168 0016 0CA3     		adr	r3, .L8
 169 0018 D3E90023 		ldrd	r2, [r3]
 170 001c FFF7FEFF 		bl	__aeabi_dmul
 171              	.LVL13:
 172 0020 0646     		mov	r6, r0
 173 0022 0F46     		mov	r7, r1
 174 0024 2889     		ldrh	r0, [r5, #8]
 175 0026 FFF7FEFF 		bl	__aeabi_i2d
 176              	.LVL14:
 177 002a 0246     		mov	r2, r0
 178 002c 0B46     		mov	r3, r1
 179 002e 3046     		mov	r0, r6
 180 0030 3946     		mov	r1, r7
 181 0032 FFF7FEFF 		bl	__aeabi_ddiv
 182              	.LVL15:
 183 0036 FFF7FEFF 		bl	__aeabi_d2f
 184              	.LVL16:
 185 003a 2061     		str	r0, [r4, #16]	@ float
  32:Core/Src/devs/encoder.cpp **** 	return actual_angle_;
  33:Core/Src/devs/encoder.cpp **** }
 186              		.loc 1 33 0
 187 003c 00EE100A 		vmov	s0, r0
 188 0040 F8BD     		pop	{r3, r4, r5, r6, r7, pc}
 189              	.LVL17:
 190              	.L9:
 191 0042 00BFAFF3 		.align	3
 191      0080
 192              	.L8:
 193 0048 182D4454 		.word	1413754136
 194 004c FB211940 		.word	1075388923
 195              		.cfi_endproc
 196              	.LFE454:
 198              		.global	__aeabi_f2d
 199              		.global	__aeabi_d2iz
 200              		.section	.text._ZN7encoder11reset_angleEf,"ax",%progbits
ARM GAS  C:\Users\Prashant\AppData\Local\Temp\ccVV64rg.s 			page 5


 201              		.align	1
 202              		.global	_ZN7encoder11reset_angleEf
 203              		.syntax unified
 204              		.thumb
 205              		.thumb_func
 206              		.fpu fpv4-sp-d16
 208              	_ZN7encoder11reset_angleEf:
 209              	.LFB455:
  34:Core/Src/devs/encoder.cpp **** 
  35:Core/Src/devs/encoder.cpp **** void encoder::reset_angle(float angle_in_radian){
 210              		.loc 1 35 0
 211              		.cfi_startproc
 212              		@ args = 0, pretend = 0, frame = 0
 213              		@ frame_needed = 0, uses_anonymous_args = 0
 214              	.LVL18:
 215 0000 10B5     		push	{r4, lr}
 216              	.LCFI2:
 217              		.cfi_def_cfa_offset 8
 218              		.cfi_offset 4, -8
 219              		.cfi_offset 14, -4
 220 0002 0446     		mov	r4, r0
  36:Core/Src/devs/encoder.cpp **** 	angle_ = angle_in_radian;
 221              		.loc 1 36 0
 222 0004 80ED030A 		vstr.32	s0, [r0, #12]
  37:Core/Src/devs/encoder.cpp **** 	count_ = (angle_*encoder_->ppr)/(2*PI);
 223              		.loc 1 37 0
 224 0008 0368     		ldr	r3, [r0]
 225 000a 1B89     		ldrh	r3, [r3, #8]
 226 000c 07EE903A 		vmov	s15, r3	@ int
 227 0010 F8EEE77A 		vcvt.f32.s32	s15, s15
 228 0014 67EE807A 		vmul.f32	s15, s15, s0
 229 0018 17EE900A 		vmov	r0, s15
 230              	.LVL19:
 231 001c FFF7FEFF 		bl	__aeabi_f2d
 232              	.LVL20:
 233 0020 05A3     		adr	r3, .L12
 234 0022 D3E90023 		ldrd	r2, [r3]
 235 0026 FFF7FEFF 		bl	__aeabi_ddiv
 236              	.LVL21:
 237 002a FFF7FEFF 		bl	__aeabi_d2iz
 238              	.LVL22:
 239 002e 6060     		str	r0, [r4, #4]
  38:Core/Src/devs/encoder.cpp **** }
 240              		.loc 1 38 0
 241 0030 10BD     		pop	{r4, pc}
 242              	.LVL23:
 243              	.L13:
 244 0032 00BFAFF3 		.align	3
 244      0080
 245              	.L12:
 246 0038 182D4454 		.word	1413754136
 247 003c FB211940 		.word	1075388923
 248              		.cfi_endproc
 249              	.LFE455:
 251              		.global	__aeabi_dcmpgt
 252              		.global	__aeabi_dsub
 253              		.global	__aeabi_dcmplt
ARM GAS  C:\Users\Prashant\AppData\Local\Temp\ccVV64rg.s 			page 6


 254              		.global	__aeabi_dadd
 255              		.section	.text._ZN7encoder9get_angleEv,"ax",%progbits
 256              		.align	1
 257              		.global	_ZN7encoder9get_angleEv
 258              		.syntax unified
 259              		.thumb
 260              		.thumb_func
 261              		.fpu fpv4-sp-d16
 263              	_ZN7encoder9get_angleEv:
 264              	.LFB453:
  16:Core/Src/devs/encoder.cpp **** 	
 265              		.loc 1 16 0
 266              		.cfi_startproc
 267              		@ args = 0, pretend = 0, frame = 0
 268              		@ frame_needed = 0, uses_anonymous_args = 0
 269              	.LVL24:
 270 0000 F8B5     		push	{r3, r4, r5, r6, r7, lr}
 271              	.LCFI3:
 272              		.cfi_def_cfa_offset 24
 273              		.cfi_offset 3, -24
 274              		.cfi_offset 4, -20
 275              		.cfi_offset 5, -16
 276              		.cfi_offset 6, -12
 277              		.cfi_offset 7, -8
 278              		.cfi_offset 14, -4
 279 0002 0446     		mov	r4, r0
  18:Core/Src/devs/encoder.cpp **** 	if(angle_>(2*PI)){
 280              		.loc 1 18 0
 281 0004 4368     		ldr	r3, [r0, #4]
 282 0006 0568     		ldr	r5, [r0]
 283 0008 6A68     		ldr	r2, [r5, #4]
 284 000a 1268     		ldr	r2, [r2]
 285 000c 506A     		ldr	r0, [r2, #36]
 286              	.LVL25:
 287 000e 03FA80F0 		sxtah	r0, r3, r0
 288 0012 FFF7FEFF 		bl	__aeabi_i2d
 289              	.LVL26:
 290 0016 2CA3     		adr	r3, .L24
 291 0018 D3E90023 		ldrd	r2, [r3]
 292 001c FFF7FEFF 		bl	__aeabi_dmul
 293              	.LVL27:
 294 0020 0646     		mov	r6, r0
 295 0022 0F46     		mov	r7, r1
 296 0024 2889     		ldrh	r0, [r5, #8]
 297 0026 FFF7FEFF 		bl	__aeabi_i2d
 298              	.LVL28:
 299 002a 0246     		mov	r2, r0
 300 002c 0B46     		mov	r3, r1
 301 002e 3046     		mov	r0, r6
 302 0030 3946     		mov	r1, r7
 303 0032 FFF7FEFF 		bl	__aeabi_ddiv
 304              	.LVL29:
 305 0036 FFF7FEFF 		bl	__aeabi_d2f
 306              	.LVL30:
 307 003a E060     		str	r0, [r4, #12]	@ float
  19:Core/Src/devs/encoder.cpp **** 		leg[encoder_->id].steps++;
 308              		.loc 1 19 0
ARM GAS  C:\Users\Prashant\AppData\Local\Temp\ccVV64rg.s 			page 7


 309 003c FFF7FEFF 		bl	__aeabi_f2d
 310              	.LVL31:
 311 0040 21A3     		adr	r3, .L24
 312 0042 D3E90023 		ldrd	r2, [r3]
 313 0046 FFF7FEFF 		bl	__aeabi_dcmpgt
 314              	.LVL32:
 315 004a 58B9     		cbnz	r0, .L22
 316              	.L15:
  23:Core/Src/devs/encoder.cpp **** 		leg[encoder_->id].steps++;
 317              		.loc 1 23 0
 318 004c E068     		ldr	r0, [r4, #12]	@ float
 319 004e FFF7FEFF 		bl	__aeabi_f2d
 320              	.LVL33:
 321 0052 20A3     		adr	r3, .L24+12
 322 0054 D3E90023 		ldrd	r2, [r3]
 323 0058 FFF7FEFF 		bl	__aeabi_dcmplt
 324              	.LVL34:
 325 005c D0B9     		cbnz	r0, .L23
 326              	.L17:
  28:Core/Src/devs/encoder.cpp **** 
 327              		.loc 1 28 0
 328 005e 94ED030A 		vldr.32	s0, [r4, #12]
 329 0062 F8BD     		pop	{r3, r4, r5, r6, r7, pc}
 330              	.LVL35:
 331              	.L22:
  20:Core/Src/devs/encoder.cpp **** 		reset_angle(angle_-(2*PI));
 332              		.loc 1 20 0
 333 0064 2B78     		ldrb	r3, [r5]	@ zero_extendqisi2
 334 0066 1A4A     		ldr	r2, .L24+8
 335 0068 5821     		movs	r1, #88
 336 006a 01FB0323 		mla	r3, r1, r3, r2
 337 006e 1A69     		ldr	r2, [r3, #16]
 338 0070 0132     		adds	r2, r2, #1
 339 0072 1A61     		str	r2, [r3, #16]
  21:Core/Src/devs/encoder.cpp **** 	}
 340              		.loc 1 21 0
 341 0074 E068     		ldr	r0, [r4, #12]	@ float
 342 0076 FFF7FEFF 		bl	__aeabi_f2d
 343              	.LVL36:
 344 007a 13A3     		adr	r3, .L24
 345 007c D3E90023 		ldrd	r2, [r3]
 346 0080 FFF7FEFF 		bl	__aeabi_dsub
 347              	.LVL37:
 348 0084 FFF7FEFF 		bl	__aeabi_d2f
 349              	.LVL38:
 350 0088 00EE100A 		vmov	s0, r0
 351 008c 2046     		mov	r0, r4
 352 008e FFF7FEFF 		bl	_ZN7encoder11reset_angleEf
 353              	.LVL39:
 354 0092 DBE7     		b	.L15
 355              	.L23:
  24:Core/Src/devs/encoder.cpp **** 		reset_angle(angle_+(2*PI));
 356              		.loc 1 24 0
 357 0094 2368     		ldr	r3, [r4]
 358 0096 1B78     		ldrb	r3, [r3]	@ zero_extendqisi2
 359 0098 0D4A     		ldr	r2, .L24+8
 360 009a 5821     		movs	r1, #88
ARM GAS  C:\Users\Prashant\AppData\Local\Temp\ccVV64rg.s 			page 8


 361 009c 01FB0323 		mla	r3, r1, r3, r2
 362 00a0 1A69     		ldr	r2, [r3, #16]
 363 00a2 0132     		adds	r2, r2, #1
 364 00a4 1A61     		str	r2, [r3, #16]
  25:Core/Src/devs/encoder.cpp **** 	}
 365              		.loc 1 25 0
 366 00a6 E068     		ldr	r0, [r4, #12]	@ float
 367 00a8 FFF7FEFF 		bl	__aeabi_f2d
 368              	.LVL40:
 369 00ac 06A3     		adr	r3, .L24
 370 00ae D3E90023 		ldrd	r2, [r3]
 371 00b2 FFF7FEFF 		bl	__aeabi_dadd
 372              	.LVL41:
 373 00b6 FFF7FEFF 		bl	__aeabi_d2f
 374              	.LVL42:
 375 00ba 00EE100A 		vmov	s0, r0
 376 00be 2046     		mov	r0, r4
 377 00c0 FFF7FEFF 		bl	_ZN7encoder11reset_angleEf
 378              	.LVL43:
 379 00c4 CBE7     		b	.L17
 380              	.L25:
 381 00c6 00BF     		.align	3
 382              	.L24:
 383 00c8 182D4454 		.word	1413754136
 384 00cc FB211940 		.word	1075388923
 385 00d0 00000000 		.word	leg
 386 00d4 182D4454 		.word	1413754136
 387 00d8 FB2119C0 		.word	-1072094725
 388              		.cfi_endproc
 389              	.LFE453:
 391              		.section	.text._ZN7encoder18reset_actual_angleEf,"ax",%progbits
 392              		.align	1
 393              		.global	_ZN7encoder18reset_actual_angleEf
 394              		.syntax unified
 395              		.thumb
 396              		.thumb_func
 397              		.fpu fpv4-sp-d16
 399              	_ZN7encoder18reset_actual_angleEf:
 400              	.LFB456:
  39:Core/Src/devs/encoder.cpp **** void encoder::reset_actual_angle(float angle_in_radian){
 401              		.loc 1 39 0
 402              		.cfi_startproc
 403              		@ args = 0, pretend = 0, frame = 0
 404              		@ frame_needed = 0, uses_anonymous_args = 0
 405              	.LVL44:
 406 0000 10B5     		push	{r4, lr}
 407              	.LCFI4:
 408              		.cfi_def_cfa_offset 8
 409              		.cfi_offset 4, -8
 410              		.cfi_offset 14, -4
 411 0002 0446     		mov	r4, r0
  40:Core/Src/devs/encoder.cpp **** 	actual_angle_ = angle_in_radian;
 412              		.loc 1 40 0
 413 0004 80ED040A 		vstr.32	s0, [r0, #16]
  41:Core/Src/devs/encoder.cpp **** 	actual_count_ = (actual_angle_*encoder_->ppr)/(2*PI);
 414              		.loc 1 41 0
 415 0008 0368     		ldr	r3, [r0]
ARM GAS  C:\Users\Prashant\AppData\Local\Temp\ccVV64rg.s 			page 9


 416 000a 1B89     		ldrh	r3, [r3, #8]
 417 000c 07EE903A 		vmov	s15, r3	@ int
 418 0010 F8EEE77A 		vcvt.f32.s32	s15, s15
 419 0014 67EE807A 		vmul.f32	s15, s15, s0
 420 0018 17EE900A 		vmov	r0, s15
 421              	.LVL45:
 422 001c FFF7FEFF 		bl	__aeabi_f2d
 423              	.LVL46:
 424 0020 05A3     		adr	r3, .L28
 425 0022 D3E90023 		ldrd	r2, [r3]
 426 0026 FFF7FEFF 		bl	__aeabi_ddiv
 427              	.LVL47:
 428 002a FFF7FEFF 		bl	__aeabi_d2iz
 429              	.LVL48:
 430 002e 6061     		str	r0, [r4, #20]
  42:Core/Src/devs/encoder.cpp **** }
 431              		.loc 1 42 0
 432 0030 10BD     		pop	{r4, pc}
 433              	.LVL49:
 434              	.L29:
 435 0032 00BFAFF3 		.align	3
 435      0080
 436              	.L28:
 437 0038 182D4454 		.word	1413754136
 438 003c FB211940 		.word	1075388923
 439              		.cfi_endproc
 440              	.LFE456:
 442              		.section	.text._ZN7encoder9get_countEv,"ax",%progbits
 443              		.align	1
 444              		.global	_ZN7encoder9get_countEv
 445              		.syntax unified
 446              		.thumb
 447              		.thumb_func
 448              		.fpu fpv4-sp-d16
 450              	_ZN7encoder9get_countEv:
 451              	.LFB457:
  43:Core/Src/devs/encoder.cpp **** 
  44:Core/Src/devs/encoder.cpp **** int32_t encoder::get_count(){
 452              		.loc 1 44 0
 453              		.cfi_startproc
 454              		@ args = 0, pretend = 0, frame = 0
 455              		@ frame_needed = 0, uses_anonymous_args = 0
 456              		@ link register save eliminated.
 457              	.LVL50:
  45:Core/Src/devs/encoder.cpp **** 	return count_;
  46:Core/Src/devs/encoder.cpp **** }...
 458              		.loc 1 46 0
 459 0000 4068     		ldr	r0, [r0, #4]
 460              	.LVL51:
 461 0002 7047     		bx	lr
 462              		.cfi_endproc
 463              	.LFE457:
 465              		.text
 466              	.Letext0:
 467              		.file 2 "c:\\program files (x86)\\gnu tools arm embedded\\7 2017-q4-major\\arm-none-eabi\\include\
 468              		.file 3 "c:\\program files (x86)\\gnu tools arm embedded\\7 2017-q4-major\\arm-none-eabi\\include\
 469              		.file 4 "Drivers/CMSIS/Include/core_cm4.h"
ARM GAS  C:\Users\Prashant\AppData\Local\Temp\ccVV64rg.s 			page 10


 470              		.file 5 "Drivers/CMSIS/Device/ST/STM32F4xx/Include/system_stm32f4xx.h"
 471              		.file 6 "Drivers/CMSIS/Device/ST/STM32F4xx/Include/stm32f407xx.h"
 472              		.file 7 "c:\\program files (x86)\\gnu tools arm embedded\\7 2017-q4-major\\arm-none-eabi\\include\
 473              		.file 8 "c:\\program files (x86)\\gnu tools arm embedded\\7 2017-q4-major\\arm-none-eabi\\include\
 474              		.file 9 "c:\\program files (x86)\\gnu tools arm embedded\\7 2017-q4-major\\lib\\gcc\\arm-none-eabi
 475              		.file 10 "c:\\program files (x86)\\gnu tools arm embedded\\7 2017-q4-major\\arm-none-eabi\\include
 476              		.file 11 "Drivers/STM32F4xx_HAL_Driver/Inc/stm32f4xx_hal_def.h"
 477              		.file 12 "Drivers/STM32F4xx_HAL_Driver/Inc/stm32f4xx_hal_dma.h"
 478              		.file 13 "Drivers/STM32F4xx_HAL_Driver/Inc/stm32f4xx_hal_tim.h"
 479              		.file 14 "Core/Inc/periphs/tim.h"
 480              		.file 15 "c:\\program files (x86)\\gnu tools arm embedded\\7 2017-q4-major\\arm-none-eabi\\include
 481              		.file 16 "c:\\program files (x86)\\gnu tools arm embedded\\7 2017-q4-major\\arm-none-eabi\\include
 482              		.file 17 "c:\\program files (x86)\\gnu tools arm embedded\\7 2017-q4-major\\arm-none-eabi\\include
 483              		.file 18 "c:\\program files (x86)\\gnu tools arm embedded\\7 2017-q4-major\\arm-none-eabi\\include
 484              		.file 19 "c:\\program files (x86)\\gnu tools arm embedded\\7 2017-q4-major\\arm-none-eabi\\include
 485              		.file 20 "Core/Inc/devs/encoder.h"
 486              		.file 21 "Core/Inc/devs/motor.h"
 487              		.file 22 "Core/Inc/utils/pid_algorithms.h"
 488              		.file 23 "Core/Inc/devs/limit_switch.h"
 489              		.file 24 "Core/Inc/devs/leg.h"
 490              		.file 25 "<built-in>"
ARM GAS  C:\Users\Prashant\AppData\Local\Temp\ccVV64rg.s 			page 11

