ARM GAS  C:\Users\Prashant\AppData\Local\Temp\ccHurjFz.s 			page 1


   1              		.cpu cortex-m4
   2              		.eabi_attribute 27, 1
   3              		.eabi_attribute 28, 1
   4              		.eabi_attribute 20, 1
   5              		.eabi_attribute 21, 1
   6              		.eabi_attribute 23, 3
   7              		.eabi_attribute 24, 1
   8              		.eabi_attribute 25, 1
   9              		.eabi_attribute 26, 1
  10              		.eabi_attribute 30, 1
  11              		.eabi_attribute 34, 1
  12              		.eabi_attribute 18, 4
  13              		.file	"robot_tasks.cpp"
  14              		.text
  15              	.Ltext0:
  16              		.cfi_sections	.debug_frame
  17              		.section	.text.StartDefaultTask,"ax",%progbits
  18              		.align	1
  19              		.global	StartDefaultTask
  20              		.syntax unified
  21              		.thumb
  22              		.thumb_func
  23              		.fpu fpv4-sp-d16
  25              	StartDefaultTask:
  26              	.LFB497:
  27              		.file 1 "Core/Src/robot/robot_tasks.cpp"
   1:Core/Src/robot/robot_tasks.cpp **** #include "FreeRTOS.h"
   2:Core/Src/robot/robot_tasks.cpp **** #include "task.h"
   3:Core/Src/robot/robot_tasks.cpp **** #include "main.h"
   4:Core/Src/robot/robot_tasks.cpp **** #include "cmsis_os.h"
   5:Core/Src/robot/robot_tasks.cpp **** #include "robot.h"
   6:Core/Src/robot/robot_tasks.cpp **** #include "robot_functions.h"
   7:Core/Src/robot/robot_tasks.cpp **** 
   8:Core/Src/robot/robot_tasks.cpp **** extern bool ROBOT_START_FLAG;
   9:Core/Src/robot/robot_tasks.cpp **** extern Robot_States robo_state;
  10:Core/Src/robot/robot_tasks.cpp **** extern float angles[7];
  11:Core/Src/robot/robot_tasks.cpp **** extern leg leg[2];
  12:Core/Src/robot/robot_tasks.cpp **** extern steering steering;
  13:Core/Src/robot/robot_tasks.cpp **** extern bool USE_IMU_FLAG;
  14:Core/Src/robot/robot_tasks.cpp **** extern "C" void StartDefaultTask(void const *argument);
  15:Core/Src/robot/robot_tasks.cpp **** extern "C" void StartRobotTask(void const *argument);
  16:Core/Src/robot/robot_tasks.cpp **** extern "C" void StartLoggerTask(void const *argument);
  17:Core/Src/robot/robot_tasks.cpp **** extern "C" void StartCalculationTask(void const *argument);
  18:Core/Src/robot/robot_tasks.cpp **** 
  19:Core/Src/robot/robot_tasks.cpp **** float leg0_omega, leg1_omega, leg0_angle, leg1_angle;
  20:Core/Src/robot/robot_tasks.cpp **** 
  21:Core/Src/robot/robot_tasks.cpp **** 
  22:Core/Src/robot/robot_tasks.cpp **** /* USER CODE BEGIN Header_StartDefaultTask */
  23:Core/Src/robot/robot_tasks.cpp **** /**
  24:Core/Src/robot/robot_tasks.cpp ****   * @brief  Function implementing the defaultTask thread.
  25:Core/Src/robot/robot_tasks.cpp ****   * @param  argument: Not used 
  26:Core/Src/robot/robot_tasks.cpp ****   * @retval None
  27:Core/Src/robot/robot_tasks.cpp ****   */
  28:Core/Src/robot/robot_tasks.cpp **** /* USER CODE END Header_StartDefaultTask */
  29:Core/Src/robot/robot_tasks.cpp **** void StartDefaultTask(void const *argument)
  30:Core/Src/robot/robot_tasks.cpp **** {
  28              		.loc 1 30 0
ARM GAS  C:\Users\Prashant\AppData\Local\Temp\ccHurjFz.s 			page 2


  29              		.cfi_startproc
  30              		@ Volatile: function does not return.
  31              		@ args = 0, pretend = 0, frame = 0
  32              		@ frame_needed = 0, uses_anonymous_args = 0
  33              	.LVL0:
  34 0000 08B5     		push	{r3, lr}
  35              	.LCFI0:
  36              		.cfi_def_cfa_offset 8
  37              		.cfi_offset 3, -8
  38              		.cfi_offset 14, -4
  39              	.LVL1:
  40              	.L2:
  31:Core/Src/robot/robot_tasks.cpp **** 
  32:Core/Src/robot/robot_tasks.cpp **** 	/* USER CODE BEGIN StartDefaultTask */
  33:Core/Src/robot/robot_tasks.cpp **** 	/* Infinite loop */
  34:Core/Src/robot/robot_tasks.cpp **** 	for (;;)
  35:Core/Src/robot/robot_tasks.cpp **** 	{
  36:Core/Src/robot/robot_tasks.cpp **** 		osDelay(1);
  41              		.loc 1 36 0 discriminator 1
  42 0002 0120     		movs	r0, #1
  43 0004 FFF7FEFF 		bl	osDelay
  44              	.LVL2:
  45 0008 FBE7     		b	.L2
  46              		.cfi_endproc
  47              	.LFE497:
  49              		.section	.text.StartRobotTask,"ax",%progbits
  50              		.align	1
  51              		.global	StartRobotTask
  52              		.syntax unified
  53              		.thumb
  54              		.thumb_func
  55              		.fpu fpv4-sp-d16
  57              	StartRobotTask:
  58              	.LFB498:
  37:Core/Src/robot/robot_tasks.cpp **** 	}
  38:Core/Src/robot/robot_tasks.cpp **** 	/* USER CODE END StartDefaultTask */
  39:Core/Src/robot/robot_tasks.cpp **** }
  40:Core/Src/robot/robot_tasks.cpp **** 
  41:Core/Src/robot/robot_tasks.cpp **** /* USER CODE BEGIN Header_StartRobotTask */
  42:Core/Src/robot/robot_tasks.cpp **** /**
  43:Core/Src/robot/robot_tasks.cpp **** * @brief Function implementing the RobotTask thread.
  44:Core/Src/robot/robot_tasks.cpp **** * @param argument: Not used
  45:Core/Src/robot/robot_tasks.cpp **** * @retval None
  46:Core/Src/robot/robot_tasks.cpp **** */
  47:Core/Src/robot/robot_tasks.cpp **** /* USER CODE END Header_StartRobotTask */
  48:Core/Src/robot/robot_tasks.cpp **** void StartRobotTask(void const *argument)
  49:Core/Src/robot/robot_tasks.cpp **** {
  59              		.loc 1 49 0
  60              		.cfi_startproc
  61              		@ args = 0, pretend = 0, frame = 0
  62              		@ frame_needed = 0, uses_anonymous_args = 0
  63              	.LVL3:
  64 0000 10B5     		push	{r4, lr}
  65              	.LCFI1:
  66              		.cfi_def_cfa_offset 8
  67              		.cfi_offset 4, -8
  68              		.cfi_offset 14, -4
ARM GAS  C:\Users\Prashant\AppData\Local\Temp\ccHurjFz.s 			page 3


  69 0002 2DED028B 		vpush.64	{d8}
  70              	.LCFI2:
  71              		.cfi_def_cfa_offset 16
  72              		.cfi_offset 80, -16
  73              		.cfi_offset 81, -12
  74              	.LVL4:
  50:Core/Src/robot/robot_tasks.cpp **** 	/* USER CODE BEGIN StartRobotTask */
  51:Core/Src/robot/robot_tasks.cpp **** 	uint8_t sample_time = 10;
  52:Core/Src/robot/robot_tasks.cpp **** 	uint32_t dt = HAL_GetTick();
  75              		.loc 1 52 0
  76 0006 FFF7FEFF 		bl	HAL_GetTick
  77              	.LVL5:
  53:Core/Src/robot/robot_tasks.cpp **** 	robo_state = HOME;
  78              		.loc 1 53 0
  79 000a 1E4B     		ldr	r3, .L9
  80 000c 0022     		movs	r2, #0
  81 000e 1A70     		strb	r2, [r3]
  54:Core/Src/robot/robot_tasks.cpp **** 	leg[0].reset_angle(90 * PI / 180);
  82              		.loc 1 54 0
  83 0010 DFED1D8A 		vldr.32	s17, .L9+4
  84 0014 1D4C     		ldr	r4, .L9+8
  85 0016 B0EE680A 		vmov.f32	s0, s17
  86 001a 2046     		mov	r0, r4
  87 001c FFF7FEFF 		bl	_ZN3leg11reset_angleEf
  88              	.LVL6:
  55:Core/Src/robot/robot_tasks.cpp **** 	leg[1].reset_angle(270 * PI / 180);
  89              		.loc 1 55 0
  90 0020 9FED1B8A 		vldr.32	s16, .L9+12
  91 0024 B0EE480A 		vmov.f32	s0, s16
  92 0028 04F15800 		add	r0, r4, #88
  93 002c FFF7FEFF 		bl	_ZN3leg11reset_angleEf
  94              	.LVL7:
  95              	.LBB6:
  96              	.LBB7:
  97              		.file 2 "Core/Inc/devs/leg.h"
   1:Core/Inc/devs/leg.h **** #ifndef _LEG_H_
   2:Core/Inc/devs/leg.h **** #define _LEG_H_
   3:Core/Inc/devs/leg.h **** 
   4:Core/Inc/devs/leg.h **** #include "motor.h"
   5:Core/Inc/devs/leg.h **** #include "encoder.h"
   6:Core/Inc/devs/leg.h **** #include "pid.h"
   7:Core/Inc/devs/leg.h **** #include "limit_switch.h"
   8:Core/Inc/devs/leg.h **** #include "defines.h"
   9:Core/Inc/devs/leg.h **** #include "pid_algorithms.h"
  10:Core/Inc/devs/leg.h **** 
  11:Core/Inc/devs/leg.h **** enum Leg_condition{	RAISED, 
  12:Core/Inc/devs/leg.h **** 			FALLEN, 
  13:Core/Inc/devs/leg.h **** 			UNDEFINED};
  14:Core/Inc/devs/leg.h **** 
  15:Core/Inc/devs/leg.h **** class leg
  16:Core/Inc/devs/leg.h **** {
  17:Core/Inc/devs/leg.h **** public:
  18:Core/Inc/devs/leg.h **** 	leg() {}
  19:Core/Inc/devs/leg.h **** 	leg(leg &&) = default;
  20:Core/Inc/devs/leg.h **** 	leg(const leg &) = default;
  21:Core/Inc/devs/leg.h **** 	leg &operator=(leg &&) = default;
  22:Core/Inc/devs/leg.h **** 	leg &operator=(const leg &) = default;
ARM GAS  C:\Users\Prashant\AppData\Local\Temp\ccHurjFz.s 			page 4


  23:Core/Inc/devs/leg.h **** 	~leg(){}
  24:Core/Inc/devs/leg.h ****         void set_config(motor_config *motor, encoder_config *encoder) { 
  25:Core/Inc/devs/leg.h **** 		motor__.set_config(motor);
  26:Core/Inc/devs/leg.h **** 		encoder__.set_config(encoder);
  27:Core/Inc/devs/leg.h **** 	}
  28:Core/Inc/devs/leg.h **** 	void set_PID_constants(float kp, float ki, float kd, float lower_limit, float upper_limit) {
  29:Core/Inc/devs/leg.h **** 		dpid_.set_P(kp);
  30:Core/Inc/devs/leg.h **** 		dpid_.set_I(ki);
  31:Core/Inc/devs/leg.h **** 		dpid_.set_D(kd);
  32:Core/Inc/devs/leg.h **** 		dpid_.set_Limits(upper_limit, lower_limit);
  33:Core/Inc/devs/leg.h **** 	}
  34:Core/Inc/devs/leg.h **** 
  35:Core/Inc/devs/leg.h **** 	
  36:Core/Inc/devs/leg.h **** 	void set_omega(float omega);
  37:Core/Inc/devs/leg.h **** 	float ramp(float omega);
  38:Core/Inc/devs/leg.h **** 	void set_gravity_compensator_constant(float kgravity){kg_ = kgravity;}
  39:Core/Inc/devs/leg.h **** 	void reset_angle(float angle_in_radians);
  40:Core/Inc/devs/leg.h **** 	void reset_actual_angle(float angle_in_radians){encoder__.reset_actual_angle(angle_in_radians);}
  98              		.loc 2 40 0
  99 0030 B0EE680A 		vmov.f32	s0, s17
 100 0034 04F13C00 		add	r0, r4, #60
 101 0038 FFF7FEFF 		bl	_ZN7encoder18reset_actual_angleEf
 102              	.LVL8:
 103              	.LBE7:
 104              	.LBE6:
 105              	.LBB8:
 106              	.LBB9:
 107 003c B0EE480A 		vmov.f32	s0, s16
 108 0040 04F19400 		add	r0, r4, #148
 109 0044 FFF7FEFF 		bl	_ZN7encoder18reset_actual_angleEf
 110              	.LVL9:
 111 0048 08E0     		b	.L7
 112              	.LVL10:
 113              	.L5:
 114              	.LBE9:
 115              	.LBE8:
  56:Core/Src/robot/robot_tasks.cpp **** 	leg[0].reset_actual_angle(90 * PI / 180);
  57:Core/Src/robot/robot_tasks.cpp **** 	leg[1].reset_actual_angle(270 * PI / 180);
  58:Core/Src/robot/robot_tasks.cpp **** 	/* Infinite loop */
  59:Core/Src/robot/robot_tasks.cpp **** 	for (;;)
  60:Core/Src/robot/robot_tasks.cpp **** 	{
  61:Core/Src/robot/robot_tasks.cpp **** 		dt = HAL_GetTick();
  62:Core/Src/robot/robot_tasks.cpp **** 		if((HAL_GPIO_ReadPin(ZONE_RED_GPIO_Port, ZONE_RED_Pin)==GPIO_PIN_RESET) &&
  63:Core/Src/robot/robot_tasks.cpp **** 		   (HAL_GPIO_ReadPin(ZONE_BLUE_GPIO_Port, ZONE_BLUE_Pin)==GPIO_PIN_RESET)){
  64:Core/Src/robot/robot_tasks.cpp **** 			zone_select();
  65:Core/Src/robot/robot_tasks.cpp **** 		}
  66:Core/Src/robot/robot_tasks.cpp **** 		else{
  67:Core/Src/robot/robot_tasks.cpp **** 			play();
 116              		.loc 1 67 0 discriminator 4
 117 004a FFF7FEFF 		bl	_Z4playv
 118              	.LVL11:
 119              	.L6:
  68:Core/Src/robot/robot_tasks.cpp **** 		}
  69:Core/Src/robot/robot_tasks.cpp **** 		// leg[1].set_omega(10);
  70:Core/Src/robot/robot_tasks.cpp **** 		// leg0_omega = leg[0].get_omega();
  71:Core/Src/robot/robot_tasks.cpp **** 		// leg1_omega = leg[1].get_omega();
  72:Core/Src/robot/robot_tasks.cpp **** 		// leg0_angle = leg[0].get_angle();
ARM GAS  C:\Users\Prashant\AppData\Local\Temp\ccHurjFz.s 			page 5


  73:Core/Src/robot/robot_tasks.cpp **** 		// leg1_angle = leg[1].get_angle();
  74:Core/Src/robot/robot_tasks.cpp **** 		dt = HAL_GetTick() - dt;
 120              		.loc 1 74 0
 121 004e FFF7FEFF 		bl	HAL_GetTick
 122              	.LVL12:
 123 0052 001B     		subs	r0, r0, r4
 124              	.LVL13:
  75:Core/Src/robot/robot_tasks.cpp **** 		osDelay(sample_time - dt);
 125              		.loc 1 75 0
 126 0054 C0F10A00 		rsb	r0, r0, #10
 127              	.LVL14:
 128 0058 FFF7FEFF 		bl	osDelay
 129              	.LVL15:
 130              	.L7:
  61:Core/Src/robot/robot_tasks.cpp **** 		if((HAL_GPIO_ReadPin(ZONE_RED_GPIO_Port, ZONE_RED_Pin)==GPIO_PIN_RESET) &&
 131              		.loc 1 61 0
 132 005c FFF7FEFF 		bl	HAL_GetTick
 133              	.LVL16:
 134 0060 0446     		mov	r4, r0
 135              	.LVL17:
  62:Core/Src/robot/robot_tasks.cpp **** 		   (HAL_GPIO_ReadPin(ZONE_BLUE_GPIO_Port, ZONE_BLUE_Pin)==GPIO_PIN_RESET)){
 136              		.loc 1 62 0
 137 0062 4FF48051 		mov	r1, #4096
 138 0066 0B48     		ldr	r0, .L9+16
 139              	.LVL18:
 140 0068 FFF7FEFF 		bl	HAL_GPIO_ReadPin
 141              	.LVL19:
 142 006c 0028     		cmp	r0, #0
 143 006e ECD1     		bne	.L5
  63:Core/Src/robot/robot_tasks.cpp **** 			zone_select();
 144              		.loc 1 63 0 discriminator 1
 145 0070 2021     		movs	r1, #32
 146 0072 0948     		ldr	r0, .L9+20
 147 0074 FFF7FEFF 		bl	HAL_GPIO_ReadPin
 148              	.LVL20:
  62:Core/Src/robot/robot_tasks.cpp **** 		   (HAL_GPIO_ReadPin(ZONE_BLUE_GPIO_Port, ZONE_BLUE_Pin)==GPIO_PIN_RESET)){
 149              		.loc 1 62 0 discriminator 1
 150 0078 0028     		cmp	r0, #0
 151 007a E6D1     		bne	.L5
  64:Core/Src/robot/robot_tasks.cpp **** 		}
 152              		.loc 1 64 0
 153 007c FFF7FEFF 		bl	_Z11zone_selectv
 154              	.LVL21:
 155 0080 E5E7     		b	.L6
 156              	.L10:
 157 0082 00BF     		.align	2
 158              	.L9:
 159 0084 00000000 		.word	robo_state
 160 0088 DB0FC93F 		.word	1070141403
 161 008c 00000000 		.word	leg
 162 0090 E4CB9640 		.word	1083624420
 163 0094 00080240 		.word	1073874944
 164 0098 000C0240 		.word	1073875968
 165              		.cfi_endproc
 166              	.LFE498:
 168              		.section	.text.StartLoggerTask,"ax",%progbits
 169              		.align	1
ARM GAS  C:\Users\Prashant\AppData\Local\Temp\ccHurjFz.s 			page 6


 170              		.global	StartLoggerTask
 171              		.syntax unified
 172              		.thumb
 173              		.thumb_func
 174              		.fpu fpv4-sp-d16
 176              	StartLoggerTask:
 177              	.LFB499:
  76:Core/Src/robot/robot_tasks.cpp **** 	}
  77:Core/Src/robot/robot_tasks.cpp **** 	/* USER CODE END StartRobotTask */
  78:Core/Src/robot/robot_tasks.cpp **** }
  79:Core/Src/robot/robot_tasks.cpp **** 
  80:Core/Src/robot/robot_tasks.cpp **** /* USER CODE BEGIN Header_StartLoggerTask */
  81:Core/Src/robot/robot_tasks.cpp **** /**
  82:Core/Src/robot/robot_tasks.cpp **** * @brief Function implementing the LoggerTask thread.
  83:Core/Src/robot/robot_tasks.cpp **** * @param argument: Not used
  84:Core/Src/robot/robot_tasks.cpp **** * @retval None
  85:Core/Src/robot/robot_tasks.cpp **** */
  86:Core/Src/robot/robot_tasks.cpp **** /* USER CODE END Header_StartLoggerTask */
  87:Core/Src/robot/robot_tasks.cpp **** void StartLoggerTask(void const *argument)
  88:Core/Src/robot/robot_tasks.cpp **** {
 178              		.loc 1 88 0
 179              		.cfi_startproc
 180              		@ args = 0, pretend = 0, frame = 0
 181              		@ frame_needed = 0, uses_anonymous_args = 0
 182              	.LVL22:
 183 0000 10B5     		push	{r4, lr}
 184              	.LCFI3:
 185              		.cfi_def_cfa_offset 8
 186              		.cfi_offset 4, -8
 187              		.cfi_offset 14, -4
 188              	.LVL23:
  89:Core/Src/robot/robot_tasks.cpp **** 	/* USER CODE BEGIN StartLoggerTask */
  90:Core/Src/robot/robot_tasks.cpp **** 	/* Infinite loop */
  91:Core/Src/robot/robot_tasks.cpp **** 	uint8_t sample_time = 50;
  92:Core/Src/robot/robot_tasks.cpp **** 	uint32_t dt = HAL_GetTick();
 189              		.loc 1 92 0
 190 0002 FFF7FEFF 		bl	HAL_GetTick
 191              	.LVL24:
 192              	.L12:
  93:Core/Src/robot/robot_tasks.cpp **** 	for (;;)
  94:Core/Src/robot/robot_tasks.cpp **** 	{
  95:Core/Src/robot/robot_tasks.cpp **** 		dt = HAL_GetTick();
 193              		.loc 1 95 0 discriminator 1
 194 0006 FFF7FEFF 		bl	HAL_GetTick
 195              	.LVL25:
 196 000a 0446     		mov	r4, r0
 197              	.LVL26:
  96:Core/Src/robot/robot_tasks.cpp **** 
  97:Core/Src/robot/robot_tasks.cpp **** 		dt = HAL_GetTick() - dt;
 198              		.loc 1 97 0 discriminator 1
 199 000c FFF7FEFF 		bl	HAL_GetTick
 200              	.LVL27:
 201 0010 001B     		subs	r0, r0, r4
 202              	.LVL28:
  98:Core/Src/robot/robot_tasks.cpp **** 		osDelay(sample_time - dt);
 203              		.loc 1 98 0 discriminator 1
 204 0012 C0F13200 		rsb	r0, r0, #50
ARM GAS  C:\Users\Prashant\AppData\Local\Temp\ccHurjFz.s 			page 7


 205              	.LVL29:
 206 0016 FFF7FEFF 		bl	osDelay
 207              	.LVL30:
 208 001a F4E7     		b	.L12
 209              		.cfi_endproc
 210              	.LFE499:
 212              		.section	.text.StartCalculationTask,"ax",%progbits
 213              		.align	1
 214              		.global	StartCalculationTask
 215              		.syntax unified
 216              		.thumb
 217              		.thumb_func
 218              		.fpu fpv4-sp-d16
 220              	StartCalculationTask:
 221              	.LFB500:
  99:Core/Src/robot/robot_tasks.cpp **** 	}
 100:Core/Src/robot/robot_tasks.cpp **** 	/* USER CODE END StartLoggerTask */
 101:Core/Src/robot/robot_tasks.cpp **** }
 102:Core/Src/robot/robot_tasks.cpp **** 
 103:Core/Src/robot/robot_tasks.cpp **** /* USER CODE BEGIN Header_StartCalculationTask */
 104:Core/Src/robot/robot_tasks.cpp **** /**
 105:Core/Src/robot/robot_tasks.cpp **** * @brief Function implementing the CalculationTask thread.
 106:Core/Src/robot/robot_tasks.cpp **** * @param argument: Not used
 107:Core/Src/robot/robot_tasks.cpp **** * @retval None
 108:Core/Src/robot/robot_tasks.cpp **** */
 109:Core/Src/robot/robot_tasks.cpp **** /* USER CODE END Header_StartCalculationTask */
 110:Core/Src/robot/robot_tasks.cpp **** void StartCalculationTask(void const *argument)
 111:Core/Src/robot/robot_tasks.cpp **** {
 222              		.loc 1 111 0
 223              		.cfi_startproc
 224              		@ args = 0, pretend = 0, frame = 0
 225              		@ frame_needed = 0, uses_anonymous_args = 0
 226              	.LVL31:
 227 0000 10B5     		push	{r4, lr}
 228              	.LCFI4:
 229              		.cfi_def_cfa_offset 8
 230              		.cfi_offset 4, -8
 231              		.cfi_offset 14, -4
 232              	.LVL32:
 112:Core/Src/robot/robot_tasks.cpp **** 	/* USER CODE BEGIN StartCalculationTask */
 113:Core/Src/robot/robot_tasks.cpp **** 	/* Infinite loop */
 114:Core/Src/robot/robot_tasks.cpp **** 	uint8_t sample_time = 10;
 115:Core/Src/robot/robot_tasks.cpp **** 	uint32_t dt = HAL_GetTick();
 233              		.loc 1 115 0
 234 0002 FFF7FEFF 		bl	HAL_GetTick
 235              	.LVL33:
 236 0006 0BE0     		b	.L17
 237              	.LVL34:
 238              	.L15:
 116:Core/Src/robot/robot_tasks.cpp **** 	for (;;)
 117:Core/Src/robot/robot_tasks.cpp **** 	{
 118:Core/Src/robot/robot_tasks.cpp **** 		dt = HAL_GetTick();
 119:Core/Src/robot/robot_tasks.cpp **** 		if(HAL_GPIO_ReadPin(IMU_Detect_GPIO_Port, IMU_Detect_Pin) == GPIO_PIN_RESET){
 120:Core/Src/robot/robot_tasks.cpp **** 			USE_IMU_FLAG = true;
 121:Core/Src/robot/robot_tasks.cpp **** 		}
 122:Core/Src/robot/robot_tasks.cpp **** 		else{
 123:Core/Src/robot/robot_tasks.cpp **** 			USE_IMU_FLAG = false;
ARM GAS  C:\Users\Prashant\AppData\Local\Temp\ccHurjFz.s 			page 8


 239              		.loc 1 123 0
 240 0008 0C4B     		ldr	r3, .L19
 241 000a 0022     		movs	r2, #0
 242 000c 1A70     		strb	r2, [r3]
 243              	.L16:
 124:Core/Src/robot/robot_tasks.cpp **** 		}
 125:Core/Src/robot/robot_tasks.cpp **** 		calculate_datas();
 244              		.loc 1 125 0
 245 000e FFF7FEFF 		bl	_Z15calculate_datasv
 246              	.LVL35:
 126:Core/Src/robot/robot_tasks.cpp **** 		dt = HAL_GetTick() - dt;
 247              		.loc 1 126 0
 248 0012 FFF7FEFF 		bl	HAL_GetTick
 249              	.LVL36:
 250 0016 001B     		subs	r0, r0, r4
 251              	.LVL37:
 127:Core/Src/robot/robot_tasks.cpp **** 		osDelay(sample_time - dt);
 252              		.loc 1 127 0
 253 0018 C0F10A00 		rsb	r0, r0, #10
 254              	.LVL38:
 255 001c FFF7FEFF 		bl	osDelay
 256              	.LVL39:
 257              	.L17:
 118:Core/Src/robot/robot_tasks.cpp **** 		if(HAL_GPIO_ReadPin(IMU_Detect_GPIO_Port, IMU_Detect_Pin) == GPIO_PIN_RESET){
 258              		.loc 1 118 0
 259 0020 FFF7FEFF 		bl	HAL_GetTick
 260              	.LVL40:
 261 0024 0446     		mov	r4, r0
 262              	.LVL41:
 119:Core/Src/robot/robot_tasks.cpp **** 			USE_IMU_FLAG = true;
 263              		.loc 1 119 0
 264 0026 4021     		movs	r1, #64
 265 0028 0548     		ldr	r0, .L19+4
 266              	.LVL42:
 267 002a FFF7FEFF 		bl	HAL_GPIO_ReadPin
 268              	.LVL43:
 269 002e 0028     		cmp	r0, #0
 270 0030 EAD1     		bne	.L15
 120:Core/Src/robot/robot_tasks.cpp **** 		}
 271              		.loc 1 120 0
 272 0032 024B     		ldr	r3, .L19
 273 0034 0122     		movs	r2, #1
 274 0036 1A70     		strb	r2, [r3]
 275 0038 E9E7     		b	.L16
 276              	.L20:
 277 003a 00BF     		.align	2
 278              	.L19:
 279 003c 00000000 		.word	USE_IMU_FLAG
 280 0040 00100240 		.word	1073876992
 281              		.cfi_endproc
 282              	.LFE500:
 284              		.global	leg1_angle
 285              		.global	leg0_angle
 286              		.global	leg1_omega
 287              		.global	leg0_omega
 288              		.section	.bss.leg0_angle,"aw",%nobits
 289              		.align	2
ARM GAS  C:\Users\Prashant\AppData\Local\Temp\ccHurjFz.s 			page 9


 292              	leg0_angle:
 293 0000 00000000 		.space	4
 294              		.section	.bss.leg0_omega,"aw",%nobits
 295              		.align	2
 298              	leg0_omega:
 299 0000 00000000 		.space	4
 300              		.section	.bss.leg1_angle,"aw",%nobits
 301              		.align	2
 304              	leg1_angle:
 305 0000 00000000 		.space	4
 306              		.section	.bss.leg1_omega,"aw",%nobits
 307              		.align	2
 310              	leg1_omega:
 311 0000 00000000 		.space	4
 312              		.text
 313              	.Letext0:
 314              		.file 3 "c:\\program files (x86)\\gnu tools arm embedded\\7 2017-q4-major\\arm-none-eabi\\include\
 315              		.file 4 "c:\\program files (x86)\\gnu tools arm embedded\\7 2017-q4-major\\arm-none-eabi\\include\
 316              		.file 5 "Core/Inc/sys/FreeRTOSConfig.h"
 317              		.file 6 "Drivers/CMSIS/Include/core_cm4.h"
 318              		.file 7 "Drivers/CMSIS/Device/ST/STM32F4xx/Include/system_stm32f4xx.h"
 319              		.file 8 "Drivers/CMSIS/Device/ST/STM32F4xx/Include/stm32f407xx.h"
 320              		.file 9 "c:\\program files (x86)\\gnu tools arm embedded\\7 2017-q4-major\\arm-none-eabi\\include\
 321              		.file 10 "c:\\program files (x86)\\gnu tools arm embedded\\7 2017-q4-major\\arm-none-eabi\\include
 322              		.file 11 "c:\\program files (x86)\\gnu tools arm embedded\\7 2017-q4-major\\lib\\gcc\\arm-none-eab
 323              		.file 12 "c:\\program files (x86)\\gnu tools arm embedded\\7 2017-q4-major\\arm-none-eabi\\include
 324              		.file 13 "Drivers/STM32F4xx_HAL_Driver/Inc/stm32f4xx_hal_def.h"
 325              		.file 14 "Drivers/STM32F4xx_HAL_Driver/Inc/stm32f4xx_hal_gpio.h"
 326              		.file 15 "Drivers/STM32F4xx_HAL_Driver/Inc/stm32f4xx_hal_dma.h"
 327              		.file 16 "Drivers/STM32F4xx_HAL_Driver/Inc/stm32f4xx_hal_tim.h"
 328              		.file 17 "Core/Inc/periphs/tim.h"
 329              		.file 18 "c:\\program files (x86)\\gnu tools arm embedded\\7 2017-q4-major\\arm-none-eabi\\include
 330              		.file 19 "c:\\program files (x86)\\gnu tools arm embedded\\7 2017-q4-major\\arm-none-eabi\\include
 331              		.file 20 "c:\\program files (x86)\\gnu tools arm embedded\\7 2017-q4-major\\arm-none-eabi\\include
 332              		.file 21 "c:\\program files (x86)\\gnu tools arm embedded\\7 2017-q4-major\\arm-none-eabi\\include
 333              		.file 22 "c:\\program files (x86)\\gnu tools arm embedded\\7 2017-q4-major\\arm-none-eabi\\include
 334              		.file 23 "Core/Inc/devs/motor.h"
 335              		.file 24 "Core/Inc/devs/encoder.h"
 336              		.file 25 "Core/Inc/utils/pid_algorithms.h"
 337              		.file 26 "Core/Inc/devs/limit_switch.h"
 338              		.file 27 "Core/Inc/devs/steering.h"
 339              		.file 28 "Core/Inc/robot/robot.h"
 340              		.file 29 "Drivers/STM32F4xx_HAL_Driver/Inc/stm32f4xx_hal.h"
 341              		.file 30 "Middlewares/Third_Party/FreeRTOS/Source/CMSIS_RTOS/cmsis_os.h"
 342              		.file 31 "Core/Inc/robot/robot_functions.h"
 343              		.file 32 "<built-in>"
ARM GAS  C:\Users\Prashant\AppData\Local\Temp\ccHurjFz.s 			page 10

