ARM GAS  C:\Users\Prashant\AppData\Local\Temp\cceYw8Jk.s 			page 1


   1              		.cpu cortex-m4
   2              		.eabi_attribute 27, 1
   3              		.eabi_attribute 28, 1
   4              		.eabi_attribute 20, 1
   5              		.eabi_attribute 21, 1
   6              		.eabi_attribute 23, 3
   7              		.eabi_attribute 24, 1
   8              		.eabi_attribute 25, 1
   9              		.eabi_attribute 26, 1
  10              		.eabi_attribute 30, 2
  11              		.eabi_attribute 34, 1
  12              		.eabi_attribute 18, 4
  13              		.file	"drive.c"
  14              		.text
  15              	.Ltext0:
  16              		.cfi_sections	.debug_frame
  17              		.section	.text.robot_speed,"ax",%progbits
  18              		.align	1
  19              		.p2align 2,,3
  20              		.global	robot_speed
  21              		.syntax unified
  22              		.thumb
  23              		.thumb_func
  24              		.fpu fpv4-sp-d16
  26              	robot_speed:
  27              	.LFB126:
  28              		.file 1 "Core/Src/drive.c"
   1:Core/Src/drive.c **** #include "drive.h"
   2:Core/Src/drive.c **** /*
   3:Core/Src/drive.c **** void robot_direction(enum robot_direction dir)
   4:Core/Src/drive.c **** {
   5:Core/Src/drive.c **** 	
   6:Core/Src/drive.c **** 	if(dir == FORWARD)
   7:Core/Src/drive.c **** 	{
   8:Core/Src/drive.c **** 		set_Direction(&Wheel_arr[0], DIR_ANTICLOCKWISE);
   9:Core/Src/drive.c **** 		set_Direction(&Wheel_arr[1], DIR_CLOCKWISE);
  10:Core/Src/drive.c **** 		set_Direction(&Wheel_arr[2], DIR_CLOCKWISE);
  11:Core/Src/drive.c **** 		set_Direction(&Wheel_arr[3], DIR_ANTICLOCKWISE);
  12:Core/Src/drive.c **** 	}
  13:Core/Src/drive.c **** 	if(dir == BACKWARD)
  14:Core/Src/drive.c **** 	{
  15:Core/Src/drive.c **** 		set_Direction(&Wheel_arr[0], DIR_CLOCKWISE);
  16:Core/Src/drive.c **** 		set_Direction(&Wheel_arr[1], DIR_ANTICLOCKWISE);
  17:Core/Src/drive.c **** 		set_Direction(&Wheel_arr[2], DIR_ANTICLOCKWISE);
  18:Core/Src/drive.c **** 		set_Direction(&Wheel_arr[3], DIR_CLOCKWISE);
  19:Core/Src/drive.c **** 	}
  20:Core/Src/drive.c **** 	if(dir == ROTATE)
  21:Core/Src/drive.c **** 	{
  22:Core/Src/drive.c **** 		set_Direction(&Wheel_arr[0], DIR_ANTICLOCKWISE);
  23:Core/Src/drive.c **** 		set_Direction(&Wheel_arr[1], DIR_ANTICLOCKWISE);
  24:Core/Src/drive.c **** 		set_Direction(&Wheel_arr[2], DIR_ANTICLOCKWISE);
  25:Core/Src/drive.c **** 		set_Direction(&Wheel_arr[3], DIR_ANTICLOCKWISE);
  26:Core/Src/drive.c **** 	}
  27:Core/Src/drive.c **** 	if(dir == STOP)
  28:Core/Src/drive.c **** 	{
  29:Core/Src/drive.c **** 		set_Direction(&Wheel_arr[0], DIR_HALT);
  30:Core/Src/drive.c **** 		set_Direction(&Wheel_arr[1], DIR_HALT);
ARM GAS  C:\Users\Prashant\AppData\Local\Temp\cceYw8Jk.s 			page 2


  31:Core/Src/drive.c **** 		set_Direction(&Wheel_arr[2], DIR_HALT);
  32:Core/Src/drive.c **** 		set_Direction(&Wheel_arr[3], DIR_HALT);
  33:Core/Src/drive.c **** 	}
  34:Core/Src/drive.c **** 	
  35:Core/Src/drive.c **** 	
  36:Core/Src/drive.c **** }*/
  37:Core/Src/drive.c **** 
  38:Core/Src/drive.c **** void robot_speed(int16_t speed)
  39:Core/Src/drive.c **** {
  29              		.loc 1 39 0
  30              		.cfi_startproc
  31              		@ args = 0, pretend = 0, frame = 0
  32              		@ frame_needed = 0, uses_anonymous_args = 0
  33              	.LVL0:
  34 0000 38B5     		push	{r3, r4, r5, lr}
  35              	.LCFI0:
  36              		.cfi_def_cfa_offset 16
  37              		.cfi_offset 3, -16
  38              		.cfi_offset 4, -12
  39              		.cfi_offset 5, -8
  40              		.cfi_offset 14, -4
  41              	.LBB2:
  40:Core/Src/drive.c **** 	for(int i=0; i<4; i++)
  41:Core/Src/drive.c **** 	{
  42:Core/Src/drive.c **** 	set_DutyCycle(&Wheel_arr[i], speed);
  42              		.loc 1 42 0
  43 0002 0B4C     		ldr	r4, .L4
  44 0004 85B2     		uxth	r5, r0
  45 0006 2946     		mov	r1, r5
  46 0008 2046     		mov	r0, r4
  47              	.LVL1:
  48 000a FFF7FEFF 		bl	set_DutyCycle
  49              	.LVL2:
  50 000e 2946     		mov	r1, r5
  51 0010 04F12800 		add	r0, r4, #40
  52 0014 FFF7FEFF 		bl	set_DutyCycle
  53              	.LVL3:
  54 0018 2946     		mov	r1, r5
  55 001a 04F15000 		add	r0, r4, #80
  56 001e FFF7FEFF 		bl	set_DutyCycle
  57              	.LVL4:
  58 0022 2946     		mov	r1, r5
  59 0024 04F17800 		add	r0, r4, #120
  60              	.LBE2:
  43:Core/Src/drive.c **** 	}
  44:Core/Src/drive.c **** }
  61              		.loc 1 44 0
  62 0028 BDE83840 		pop	{r3, r4, r5, lr}
  63              	.LCFI1:
  64              		.cfi_restore 14
  65              		.cfi_restore 5
  66              		.cfi_restore 4
  67              		.cfi_restore 3
  68              		.cfi_def_cfa_offset 0
  69              	.LVL5:
  70              	.LBB3:
  42:Core/Src/drive.c **** 	}
ARM GAS  C:\Users\Prashant\AppData\Local\Temp\cceYw8Jk.s 			page 3


  71              		.loc 1 42 0
  72 002c FFF7FEBF 		b	set_DutyCycle
  73              	.LVL6:
  74              	.L5:
  75              		.align	2
  76              	.L4:
  77 0030 00000000 		.word	Wheel_arr
  78              	.LBE3:
  79              		.cfi_endproc
  80              	.LFE126:
  82              		.text
  83              	.Letext0:
  84              		.file 2 "c:\\program files (x86)\\gnu tools arm embedded\\7 2017-q4-major\\arm-none-eabi\\include\
  85              		.file 3 "c:\\program files (x86)\\gnu tools arm embedded\\7 2017-q4-major\\arm-none-eabi\\include\
  86              		.file 4 "Drivers/CMSIS/Include/core_cm4.h"
  87              		.file 5 "Drivers/CMSIS/Device/ST/STM32F4xx/Include/system_stm32f4xx.h"
  88              		.file 6 "Drivers/CMSIS/Device/ST/STM32F4xx/Include/stm32f407xx.h"
  89              		.file 7 "c:\\program files (x86)\\gnu tools arm embedded\\7 2017-q4-major\\arm-none-eabi\\include\
  90              		.file 8 "c:\\program files (x86)\\gnu tools arm embedded\\7 2017-q4-major\\arm-none-eabi\\include\
  91              		.file 9 "c:\\program files (x86)\\gnu tools arm embedded\\7 2017-q4-major\\lib\\gcc\\arm-none-eabi
  92              		.file 10 "c:\\program files (x86)\\gnu tools arm embedded\\7 2017-q4-major\\arm-none-eabi\\include
  93              		.file 11 "Drivers/STM32F4xx_HAL_Driver/Inc/stm32f4xx_hal_def.h"
  94              		.file 12 "Drivers/STM32F4xx_HAL_Driver/Inc/stm32f4xx_hal_dma.h"
  95              		.file 13 "Drivers/STM32F4xx_HAL_Driver/Inc/stm32f4xx_hal_tim.h"
  96              		.file 14 "Drivers/STM32F4xx_HAL_Driver/Inc/stm32f4xx_hal_uart.h"
  97              		.file 15 "Core/Inc/tim.h"
  98              		.file 16 "Core/Inc/wheel.h"
  99              		.file 17 "Core/Inc/usart.h"
 100              		.file 18 "c:\\program files (x86)\\gnu tools arm embedded\\7 2017-q4-major\\arm-none-eabi\\include
 101              		.file 19 "Core/Inc/robo_init.h"
ARM GAS  C:\Users\Prashant\AppData\Local\Temp\cceYw8Jk.s 			page 4

