ARM GAS  C:\Users\Prashant\AppData\Local\Temp\cc3SEtem.s 			page 1


   1              		.cpu cortex-m4
   2              		.eabi_attribute 27, 1
   3              		.eabi_attribute 28, 1
   4              		.eabi_attribute 20, 1
   5              		.eabi_attribute 21, 1
   6              		.eabi_attribute 23, 3
   7              		.eabi_attribute 24, 1
   8              		.eabi_attribute 25, 1
   9              		.eabi_attribute 26, 1
  10              		.eabi_attribute 30, 2
  11              		.eabi_attribute 34, 1
  12              		.eabi_attribute 18, 4
  13              		.file	"gpio.c"
  14              		.text
  15              	.Ltext0:
  16              		.cfi_sections	.debug_frame
  17              		.section	.text.MX_GPIO_Init,"ax",%progbits
  18              		.align	1
  19              		.p2align 2,,3
  20              		.global	MX_GPIO_Init
  21              		.syntax unified
  22              		.thumb
  23              		.thumb_func
  24              		.fpu fpv4-sp-d16
  26              	MX_GPIO_Init:
  27              	.LFB126:
  28              		.file 1 "Core/Src/gpio.c"
   1:Core/Src/gpio.c **** /**
   2:Core/Src/gpio.c ****   ******************************************************************************
   3:Core/Src/gpio.c ****   * File Name          : gpio.c
   4:Core/Src/gpio.c ****   * Description        : This file provides code for the configuration
   5:Core/Src/gpio.c ****   *                      of all used GPIO pins.
   6:Core/Src/gpio.c ****   ******************************************************************************
   7:Core/Src/gpio.c ****   ** This notice applies to any and all portions of this file
   8:Core/Src/gpio.c ****   * that are not between comment pairs USER CODE BEGIN and
   9:Core/Src/gpio.c ****   * USER CODE END. Other portions of this file, whether 
  10:Core/Src/gpio.c ****   * inserted by the user or by software development tools
  11:Core/Src/gpio.c ****   * are owned by their respective copyright owners.
  12:Core/Src/gpio.c ****   *
  13:Core/Src/gpio.c ****   * COPYRIGHT(c) 2019 STMicroelectronics
  14:Core/Src/gpio.c ****   *
  15:Core/Src/gpio.c ****   * Redistribution and use in source and binary forms, with or without modification,
  16:Core/Src/gpio.c ****   * are permitted provided that the following conditions are met:
  17:Core/Src/gpio.c ****   *   1. Redistributions of source code must retain the above copyright notice,
  18:Core/Src/gpio.c ****   *      this list of conditions and the following disclaimer.
  19:Core/Src/gpio.c ****   *   2. Redistributions in binary form must reproduce the above copyright notice,
  20:Core/Src/gpio.c ****   *      this list of conditions and the following disclaimer in the documentation
  21:Core/Src/gpio.c ****   *      and/or other materials provided with the distribution.
  22:Core/Src/gpio.c ****   *   3. Neither the name of STMicroelectronics nor the names of its contributors
  23:Core/Src/gpio.c ****   *      may be used to endorse or promote products derived from this software
  24:Core/Src/gpio.c ****   *      without specific prior written permission.
  25:Core/Src/gpio.c ****   *
  26:Core/Src/gpio.c ****   * THIS SOFTWARE IS PROVIDED BY THE COPYRIGHT HOLDERS AND CONTRIBUTORS "AS IS"
  27:Core/Src/gpio.c ****   * AND ANY EXPRESS OR IMPLIED WARRANTIES, INCLUDING, BUT NOT LIMITED TO, THE
  28:Core/Src/gpio.c ****   * IMPLIED WARRANTIES OF MERCHANTABILITY AND FITNESS FOR A PARTICULAR PURPOSE ARE
  29:Core/Src/gpio.c ****   * DISCLAIMED. IN NO EVENT SHALL THE COPYRIGHT HOLDER OR CONTRIBUTORS BE LIABLE
  30:Core/Src/gpio.c ****   * FOR ANY DIRECT, INDIRECT, INCIDENTAL, SPECIAL, EXEMPLARY, OR CONSEQUENTIAL
ARM GAS  C:\Users\Prashant\AppData\Local\Temp\cc3SEtem.s 			page 2


  31:Core/Src/gpio.c ****   * DAMAGES (INCLUDING, BUT NOT LIMITED TO, PROCUREMENT OF SUBSTITUTE GOODS OR
  32:Core/Src/gpio.c ****   * SERVICES; LOSS OF USE, DATA, OR PROFITS; OR BUSINESS INTERRUPTION) HOWEVER
  33:Core/Src/gpio.c ****   * CAUSED AND ON ANY THEORY OF LIABILITY, WHETHER IN CONTRACT, STRICT LIABILITY,
  34:Core/Src/gpio.c ****   * OR TORT (INCLUDING NEGLIGENCE OR OTHERWISE) ARISING IN ANY WAY OUT OF THE USE
  35:Core/Src/gpio.c ****   * OF THIS SOFTWARE, EVEN IF ADVISED OF THE POSSIBILITY OF SUCH DAMAGE.
  36:Core/Src/gpio.c ****   *
  37:Core/Src/gpio.c ****   ******************************************************************************
  38:Core/Src/gpio.c ****   */
  39:Core/Src/gpio.c **** 
  40:Core/Src/gpio.c **** /* Includes ------------------------------------------------------------------*/
  41:Core/Src/gpio.c **** #include "gpio.h"
  42:Core/Src/gpio.c **** /* USER CODE BEGIN 0 */
  43:Core/Src/gpio.c **** 
  44:Core/Src/gpio.c **** /* USER CODE END 0 */
  45:Core/Src/gpio.c **** 
  46:Core/Src/gpio.c **** /*----------------------------------------------------------------------------*/
  47:Core/Src/gpio.c **** /* Configure GPIO                                                             */
  48:Core/Src/gpio.c **** /*----------------------------------------------------------------------------*/
  49:Core/Src/gpio.c **** /* USER CODE BEGIN 1 */
  50:Core/Src/gpio.c **** 
  51:Core/Src/gpio.c **** /* USER CODE END 1 */
  52:Core/Src/gpio.c **** 
  53:Core/Src/gpio.c **** /** Configure pins as 
  54:Core/Src/gpio.c ****         * Analog 
  55:Core/Src/gpio.c ****         * Input 
  56:Core/Src/gpio.c ****         * Output
  57:Core/Src/gpio.c ****         * EVENT_OUT
  58:Core/Src/gpio.c ****         * EXTI
  59:Core/Src/gpio.c ****         * Free pins are configured automatically as Analog (this feature is enabled through 
  60:Core/Src/gpio.c ****         * the Code Generation settings)
  61:Core/Src/gpio.c **** */
  62:Core/Src/gpio.c **** void MX_GPIO_Init(void)
  63:Core/Src/gpio.c **** {
  29              		.loc 1 63 0
  30              		.cfi_startproc
  31              		@ args = 0, pretend = 0, frame = 48
  32              		@ frame_needed = 0, uses_anonymous_args = 0
  33 0000 2DE9F043 		push	{r4, r5, r6, r7, r8, r9, lr}
  34              	.LCFI0:
  35              		.cfi_def_cfa_offset 28
  36              		.cfi_offset 4, -28
  37              		.cfi_offset 5, -24
  38              		.cfi_offset 6, -20
  39              		.cfi_offset 7, -16
  40              		.cfi_offset 8, -12
  41              		.cfi_offset 9, -8
  42              		.cfi_offset 14, -4
  43 0004 8DB0     		sub	sp, sp, #52
  44              	.LCFI1:
  45              		.cfi_def_cfa_offset 80
  46              	.LBB2:
  64:Core/Src/gpio.c **** 
  65:Core/Src/gpio.c ****   GPIO_InitTypeDef GPIO_InitStruct;
  66:Core/Src/gpio.c **** 
  67:Core/Src/gpio.c ****   /* GPIO Ports Clock Enable */
  68:Core/Src/gpio.c ****   __HAL_RCC_GPIOE_CLK_ENABLE();
  47              		.loc 1 68 0
ARM GAS  C:\Users\Prashant\AppData\Local\Temp\cc3SEtem.s 			page 3


  48 0006 0024     		movs	r4, #0
  49 0008 5A4B     		ldr	r3, .L4
  50 000a 0194     		str	r4, [sp, #4]
  51 000c 1A6B     		ldr	r2, [r3, #48]
  52              	.LBE2:
  69:Core/Src/gpio.c ****   __HAL_RCC_GPIOC_CLK_ENABLE();
  70:Core/Src/gpio.c ****   __HAL_RCC_GPIOH_CLK_ENABLE();
  71:Core/Src/gpio.c ****   __HAL_RCC_GPIOA_CLK_ENABLE();
  72:Core/Src/gpio.c ****   __HAL_RCC_GPIOB_CLK_ENABLE();
  73:Core/Src/gpio.c ****   __HAL_RCC_GPIOD_CLK_ENABLE();
  74:Core/Src/gpio.c **** 
  75:Core/Src/gpio.c ****   /*Configure GPIO pin Output Level */
  76:Core/Src/gpio.c ****   HAL_GPIO_WritePin(GPIOD, GPIO_PIN_12|GPIO_PIN_14|GPIO_PIN_15|GPIO_PIN_2 
  53              		.loc 1 76 0
  54 000e 5A4E     		ldr	r6, .L4+4
  77:Core/Src/gpio.c ****                           |GPIO_PIN_4, GPIO_PIN_RESET);
  78:Core/Src/gpio.c **** 
  79:Core/Src/gpio.c ****   /*Configure GPIO pin Output Level */
  80:Core/Src/gpio.c ****   HAL_GPIO_WritePin(GPIOA, GPIO_PIN_15, GPIO_PIN_RESET);
  55              		.loc 1 80 0
  56 0010 DFF87091 		ldr	r9, .L4+16
  81:Core/Src/gpio.c **** 
  82:Core/Src/gpio.c ****   /*Configure GPIO pin Output Level */
  83:Core/Src/gpio.c ****   HAL_GPIO_WritePin(GPIOC, GPIO_PIN_11, GPIO_PIN_RESET);
  57              		.loc 1 83 0
  58 0014 DFF87081 		ldr	r8, .L4+20
  59              	.LBB3:
  68:Core/Src/gpio.c ****   __HAL_RCC_GPIOC_CLK_ENABLE();
  60              		.loc 1 68 0
  61 0018 42F01002 		orr	r2, r2, #16
  62 001c 1A63     		str	r2, [r3, #48]
  63 001e 1A6B     		ldr	r2, [r3, #48]
  64 0020 02F01002 		and	r2, r2, #16
  65 0024 0192     		str	r2, [sp, #4]
  66 0026 019A     		ldr	r2, [sp, #4]
  67              	.LBE3:
  68              	.LBB4:
  69:Core/Src/gpio.c ****   __HAL_RCC_GPIOH_CLK_ENABLE();
  69              		.loc 1 69 0
  70 0028 0294     		str	r4, [sp, #8]
  71 002a 1A6B     		ldr	r2, [r3, #48]
  72 002c 42F00402 		orr	r2, r2, #4
  73 0030 1A63     		str	r2, [r3, #48]
  74 0032 1A6B     		ldr	r2, [r3, #48]
  75 0034 02F00402 		and	r2, r2, #4
  76 0038 0292     		str	r2, [sp, #8]
  77 003a 029A     		ldr	r2, [sp, #8]
  78              	.LBE4:
  79              	.LBB5:
  70:Core/Src/gpio.c ****   __HAL_RCC_GPIOA_CLK_ENABLE();
  80              		.loc 1 70 0
  81 003c 0394     		str	r4, [sp, #12]
  82 003e 1A6B     		ldr	r2, [r3, #48]
  83 0040 42F08002 		orr	r2, r2, #128
  84 0044 1A63     		str	r2, [r3, #48]
  85 0046 1A6B     		ldr	r2, [r3, #48]
  86 0048 02F08002 		and	r2, r2, #128
ARM GAS  C:\Users\Prashant\AppData\Local\Temp\cc3SEtem.s 			page 4


  87 004c 0392     		str	r2, [sp, #12]
  88 004e 039A     		ldr	r2, [sp, #12]
  89              	.LBE5:
  90              	.LBB6:
  71:Core/Src/gpio.c ****   __HAL_RCC_GPIOB_CLK_ENABLE();
  91              		.loc 1 71 0
  92 0050 0494     		str	r4, [sp, #16]
  93 0052 1A6B     		ldr	r2, [r3, #48]
  94 0054 42F00102 		orr	r2, r2, #1
  95 0058 1A63     		str	r2, [r3, #48]
  96 005a 1A6B     		ldr	r2, [r3, #48]
  97 005c 02F00102 		and	r2, r2, #1
  98 0060 0492     		str	r2, [sp, #16]
  99 0062 049A     		ldr	r2, [sp, #16]
 100              	.LBE6:
 101              	.LBB7:
  72:Core/Src/gpio.c ****   __HAL_RCC_GPIOD_CLK_ENABLE();
 102              		.loc 1 72 0
 103 0064 0594     		str	r4, [sp, #20]
 104 0066 1A6B     		ldr	r2, [r3, #48]
 105 0068 42F00202 		orr	r2, r2, #2
 106 006c 1A63     		str	r2, [r3, #48]
 107 006e 1A6B     		ldr	r2, [r3, #48]
 108 0070 02F00202 		and	r2, r2, #2
 109 0074 0592     		str	r2, [sp, #20]
 110 0076 059A     		ldr	r2, [sp, #20]
 111              	.LBE7:
 112              	.LBB8:
  73:Core/Src/gpio.c **** 
 113              		.loc 1 73 0
 114 0078 0694     		str	r4, [sp, #24]
 115 007a 1A6B     		ldr	r2, [r3, #48]
 116 007c 42F00802 		orr	r2, r2, #8
 117 0080 1A63     		str	r2, [r3, #48]
 118 0082 1B6B     		ldr	r3, [r3, #48]
 119 0084 03F00803 		and	r3, r3, #8
 120 0088 0693     		str	r3, [sp, #24]
 121              	.LBE8:
  76:Core/Src/gpio.c ****                           |GPIO_PIN_4, GPIO_PIN_RESET);
 122              		.loc 1 76 0
 123 008a 2246     		mov	r2, r4
 124 008c 3046     		mov	r0, r6
 125 008e 4DF21401 		movw	r1, #53268
 126              	.LBB9:
  73:Core/Src/gpio.c **** 
 127              		.loc 1 73 0
 128 0092 069B     		ldr	r3, [sp, #24]
 129              	.LBE9:
  76:Core/Src/gpio.c ****                           |GPIO_PIN_4, GPIO_PIN_RESET);
 130              		.loc 1 76 0
 131 0094 FFF7FEFF 		bl	HAL_GPIO_WritePin
 132              	.LVL0:
  80:Core/Src/gpio.c **** 
 133              		.loc 1 80 0
 134 0098 2246     		mov	r2, r4
 135 009a 4846     		mov	r0, r9
 136 009c 4FF40041 		mov	r1, #32768
ARM GAS  C:\Users\Prashant\AppData\Local\Temp\cc3SEtem.s 			page 5


 137 00a0 FFF7FEFF 		bl	HAL_GPIO_WritePin
 138              	.LVL1:
 139              		.loc 1 83 0
 140 00a4 2246     		mov	r2, r4
 141 00a6 4046     		mov	r0, r8
 142 00a8 4FF40061 		mov	r1, #2048
 143 00ac FFF7FEFF 		bl	HAL_GPIO_WritePin
 144              	.LVL2:
  84:Core/Src/gpio.c **** 
  85:Core/Src/gpio.c ****   /*Configure GPIO pins : PE2 PE3 PE4 PE5 
  86:Core/Src/gpio.c ****                            PE6 PE7 PE8 PE9 
  87:Core/Src/gpio.c ****                            PE10 PE11 PE12 PE13 
  88:Core/Src/gpio.c ****                            PE14 PE15 PE0 PE1 */
  89:Core/Src/gpio.c ****   GPIO_InitStruct.Pin = GPIO_PIN_2|GPIO_PIN_3|GPIO_PIN_4|GPIO_PIN_5 
  90:Core/Src/gpio.c ****                           |GPIO_PIN_6|GPIO_PIN_7|GPIO_PIN_8|GPIO_PIN_9 
  91:Core/Src/gpio.c ****                           |GPIO_PIN_10|GPIO_PIN_11|GPIO_PIN_12|GPIO_PIN_13 
  92:Core/Src/gpio.c ****                           |GPIO_PIN_14|GPIO_PIN_15|GPIO_PIN_0|GPIO_PIN_1;
  93:Core/Src/gpio.c ****   GPIO_InitStruct.Mode = GPIO_MODE_ANALOG;
 145              		.loc 1 93 0
 146 00b0 0325     		movs	r5, #3
  94:Core/Src/gpio.c ****   GPIO_InitStruct.Pull = GPIO_NOPULL;
  95:Core/Src/gpio.c ****   HAL_GPIO_Init(GPIOE, &GPIO_InitStruct);
 147              		.loc 1 95 0
 148 00b2 07A9     		add	r1, sp, #28
  89:Core/Src/gpio.c ****                           |GPIO_PIN_6|GPIO_PIN_7|GPIO_PIN_8|GPIO_PIN_9 
 149              		.loc 1 89 0
 150 00b4 4FF6FF73 		movw	r3, #65535
 151              		.loc 1 95 0
 152 00b8 3048     		ldr	r0, .L4+8
  94:Core/Src/gpio.c ****   GPIO_InitStruct.Pull = GPIO_NOPULL;
 153              		.loc 1 94 0
 154 00ba 0994     		str	r4, [sp, #36]
  93:Core/Src/gpio.c ****   GPIO_InitStruct.Pull = GPIO_NOPULL;
 155              		.loc 1 93 0
 156 00bc CDE90735 		strd	r3, r5, [sp, #28]
 157              		.loc 1 95 0
 158 00c0 FFF7FEFF 		bl	HAL_GPIO_Init
 159              	.LVL3:
  96:Core/Src/gpio.c **** 
  97:Core/Src/gpio.c ****   /*Configure GPIO pins : PC13 PC14 PC15 PC0 
  98:Core/Src/gpio.c ****                            PC1 PC2 PC3 PC4 
  99:Core/Src/gpio.c ****                            PC5 PC10 PC12 */
 100:Core/Src/gpio.c ****   GPIO_InitStruct.Pin = GPIO_PIN_13|GPIO_PIN_14|GPIO_PIN_15|GPIO_PIN_0 
 101:Core/Src/gpio.c ****                           |GPIO_PIN_1|GPIO_PIN_2|GPIO_PIN_3|GPIO_PIN_4 
 102:Core/Src/gpio.c ****                           |GPIO_PIN_5|GPIO_PIN_10|GPIO_PIN_12;
 103:Core/Src/gpio.c ****   GPIO_InitStruct.Mode = GPIO_MODE_ANALOG;
 104:Core/Src/gpio.c ****   GPIO_InitStruct.Pull = GPIO_NOPULL;
 105:Core/Src/gpio.c ****   HAL_GPIO_Init(GPIOC, &GPIO_InitStruct);
 160              		.loc 1 105 0
 161 00c4 07A9     		add	r1, sp, #28
 162 00c6 4046     		mov	r0, r8
 100:Core/Src/gpio.c ****                           |GPIO_PIN_1|GPIO_PIN_2|GPIO_PIN_3|GPIO_PIN_4 
 163              		.loc 1 100 0
 164 00c8 4FF23F43 		movw	r3, #62527
 165 00cc 0793     		str	r3, [sp, #28]
 104:Core/Src/gpio.c ****   HAL_GPIO_Init(GPIOC, &GPIO_InitStruct);
 166              		.loc 1 104 0
ARM GAS  C:\Users\Prashant\AppData\Local\Temp\cc3SEtem.s 			page 6


 167 00ce CDE90854 		strd	r5, r4, [sp, #32]
 168              		.loc 1 105 0
 169 00d2 FFF7FEFF 		bl	HAL_GPIO_Init
 170              	.LVL4:
 106:Core/Src/gpio.c **** 
 107:Core/Src/gpio.c ****   /*Configure GPIO pins : PA0 PA1 PA2 PA3 
 108:Core/Src/gpio.c ****                            PA4 PA5 PA6 PA7 
 109:Core/Src/gpio.c ****                            PA8 PA11 PA12 */
 110:Core/Src/gpio.c ****   GPIO_InitStruct.Pin = GPIO_PIN_0|GPIO_PIN_1|GPIO_PIN_2|GPIO_PIN_3 
 111:Core/Src/gpio.c ****                           |GPIO_PIN_4|GPIO_PIN_5|GPIO_PIN_6|GPIO_PIN_7 
 112:Core/Src/gpio.c ****                           |GPIO_PIN_8|GPIO_PIN_11|GPIO_PIN_12;
 113:Core/Src/gpio.c ****   GPIO_InitStruct.Mode = GPIO_MODE_ANALOG;
 114:Core/Src/gpio.c ****   GPIO_InitStruct.Pull = GPIO_NOPULL;
 115:Core/Src/gpio.c ****   HAL_GPIO_Init(GPIOA, &GPIO_InitStruct);
 171              		.loc 1 115 0
 172 00d6 07A9     		add	r1, sp, #28
 173 00d8 4846     		mov	r0, r9
 110:Core/Src/gpio.c ****                           |GPIO_PIN_4|GPIO_PIN_5|GPIO_PIN_6|GPIO_PIN_7 
 174              		.loc 1 110 0
 175 00da 41F6FF13 		movw	r3, #6655
 176 00de 0793     		str	r3, [sp, #28]
 114:Core/Src/gpio.c ****   HAL_GPIO_Init(GPIOA, &GPIO_InitStruct);
 177              		.loc 1 114 0
 178 00e0 CDE90854 		strd	r5, r4, [sp, #32]
 179              		.loc 1 115 0
 180 00e4 FFF7FEFF 		bl	HAL_GPIO_Init
 181              	.LVL5:
 116:Core/Src/gpio.c **** 
 117:Core/Src/gpio.c ****   /*Configure GPIO pins : PB0 PB1 PB2 PB12 
 118:Core/Src/gpio.c ****                            PB13 PB14 PB15 PB4 
 119:Core/Src/gpio.c ****                            PB5 PB6 PB7 PB8 
 120:Core/Src/gpio.c ****                            PB9 */
 121:Core/Src/gpio.c ****   GPIO_InitStruct.Pin = GPIO_PIN_0|GPIO_PIN_1|GPIO_PIN_2|GPIO_PIN_12 
 122:Core/Src/gpio.c ****                           |GPIO_PIN_13|GPIO_PIN_14|GPIO_PIN_15|GPIO_PIN_4 
 123:Core/Src/gpio.c ****                           |GPIO_PIN_5|GPIO_PIN_6|GPIO_PIN_7|GPIO_PIN_8 
 124:Core/Src/gpio.c ****                           |GPIO_PIN_9;
 125:Core/Src/gpio.c ****   GPIO_InitStruct.Mode = GPIO_MODE_ANALOG;
 126:Core/Src/gpio.c ****   GPIO_InitStruct.Pull = GPIO_NOPULL;
 127:Core/Src/gpio.c ****   HAL_GPIO_Init(GPIOB, &GPIO_InitStruct);
 182              		.loc 1 127 0
 183 00e8 07A9     		add	r1, sp, #28
 121:Core/Src/gpio.c ****                           |GPIO_PIN_13|GPIO_PIN_14|GPIO_PIN_15|GPIO_PIN_4 
 184              		.loc 1 121 0
 185 00ea 4FF2F733 		movw	r3, #62455
 186              		.loc 1 127 0
 187 00ee 2448     		ldr	r0, .L4+12
 121:Core/Src/gpio.c ****                           |GPIO_PIN_13|GPIO_PIN_14|GPIO_PIN_15|GPIO_PIN_4 
 188              		.loc 1 121 0
 189 00f0 0793     		str	r3, [sp, #28]
 126:Core/Src/gpio.c ****   HAL_GPIO_Init(GPIOB, &GPIO_InitStruct);
 190              		.loc 1 126 0
 191 00f2 CDE90854 		strd	r5, r4, [sp, #32]
 192              		.loc 1 127 0
 193 00f6 FFF7FEFF 		bl	HAL_GPIO_Init
 194              	.LVL6:
 128:Core/Src/gpio.c **** 
 129:Core/Src/gpio.c ****   /*Configure GPIO pins : PD8 PD9 PD10 PD11 
ARM GAS  C:\Users\Prashant\AppData\Local\Temp\cc3SEtem.s 			page 7


 130:Core/Src/gpio.c ****                            PD0 PD1 PD3 PD5 
 131:Core/Src/gpio.c ****                            PD6 PD7 */
 132:Core/Src/gpio.c ****   GPIO_InitStruct.Pin = GPIO_PIN_8|GPIO_PIN_9|GPIO_PIN_10|GPIO_PIN_11 
 133:Core/Src/gpio.c ****                           |GPIO_PIN_0|GPIO_PIN_1|GPIO_PIN_3|GPIO_PIN_5 
 134:Core/Src/gpio.c ****                           |GPIO_PIN_6|GPIO_PIN_7;
 135:Core/Src/gpio.c ****   GPIO_InitStruct.Mode = GPIO_MODE_ANALOG;
 136:Core/Src/gpio.c ****   GPIO_InitStruct.Pull = GPIO_NOPULL;
 137:Core/Src/gpio.c ****   HAL_GPIO_Init(GPIOD, &GPIO_InitStruct);
 195              		.loc 1 137 0
 196 00fa 07A9     		add	r1, sp, #28
 197 00fc 3046     		mov	r0, r6
 132:Core/Src/gpio.c ****                           |GPIO_PIN_0|GPIO_PIN_1|GPIO_PIN_3|GPIO_PIN_5 
 198              		.loc 1 132 0
 199 00fe 40F6EB73 		movw	r3, #4075
 138:Core/Src/gpio.c **** 
 139:Core/Src/gpio.c ****   /*Configure GPIO pins : PD12 PD14 PD15 */
 140:Core/Src/gpio.c ****   GPIO_InitStruct.Pin = GPIO_PIN_12|GPIO_PIN_14|GPIO_PIN_15;
 141:Core/Src/gpio.c ****   GPIO_InitStruct.Mode = GPIO_MODE_OUTPUT_PP;
 200              		.loc 1 141 0
 201 0102 0127     		movs	r7, #1
 132:Core/Src/gpio.c ****                           |GPIO_PIN_0|GPIO_PIN_1|GPIO_PIN_3|GPIO_PIN_5 
 202              		.loc 1 132 0
 203 0104 0793     		str	r3, [sp, #28]
 136:Core/Src/gpio.c ****   HAL_GPIO_Init(GPIOD, &GPIO_InitStruct);
 204              		.loc 1 136 0
 205 0106 CDE90854 		strd	r5, r4, [sp, #32]
 137:Core/Src/gpio.c **** 
 206              		.loc 1 137 0
 207 010a FFF7FEFF 		bl	HAL_GPIO_Init
 208              	.LVL7:
 142:Core/Src/gpio.c ****   GPIO_InitStruct.Pull = GPIO_NOPULL;
 143:Core/Src/gpio.c ****   GPIO_InitStruct.Speed = GPIO_SPEED_FREQ_LOW;
 144:Core/Src/gpio.c ****   HAL_GPIO_Init(GPIOD, &GPIO_InitStruct);
 209              		.loc 1 144 0
 210 010e 07A9     		add	r1, sp, #28
 211 0110 3046     		mov	r0, r6
 140:Core/Src/gpio.c ****   GPIO_InitStruct.Mode = GPIO_MODE_OUTPUT_PP;
 212              		.loc 1 140 0
 213 0112 4FF45043 		mov	r3, #53248
 141:Core/Src/gpio.c ****   GPIO_InitStruct.Pull = GPIO_NOPULL;
 214              		.loc 1 141 0
 215 0116 CDE90737 		strd	r3, r7, [sp, #28]
 143:Core/Src/gpio.c ****   HAL_GPIO_Init(GPIOD, &GPIO_InitStruct);
 216              		.loc 1 143 0
 217 011a CDE90944 		strd	r4, r4, [sp, #36]
 218              		.loc 1 144 0
 219 011e FFF7FEFF 		bl	HAL_GPIO_Init
 220              	.LVL8:
 145:Core/Src/gpio.c **** 
 146:Core/Src/gpio.c ****   /*Configure GPIO pin : PD13 */
 147:Core/Src/gpio.c ****   GPIO_InitStruct.Pin = GPIO_PIN_13;
 148:Core/Src/gpio.c ****   GPIO_InitStruct.Mode = GPIO_MODE_INPUT;
 149:Core/Src/gpio.c ****   GPIO_InitStruct.Pull = GPIO_NOPULL;
 150:Core/Src/gpio.c ****   HAL_GPIO_Init(GPIOD, &GPIO_InitStruct);
 221              		.loc 1 150 0
 222 0122 07A9     		add	r1, sp, #28
 223 0124 3046     		mov	r0, r6
ARM GAS  C:\Users\Prashant\AppData\Local\Temp\cc3SEtem.s 			page 8


 147:Core/Src/gpio.c ****   GPIO_InitStruct.Mode = GPIO_MODE_INPUT;
 224              		.loc 1 147 0
 225 0126 4FF40053 		mov	r3, #8192
 226 012a 0793     		str	r3, [sp, #28]
 149:Core/Src/gpio.c ****   HAL_GPIO_Init(GPIOD, &GPIO_InitStruct);
 227              		.loc 1 149 0
 228 012c CDE90844 		strd	r4, r4, [sp, #32]
 229              		.loc 1 150 0
 230 0130 FFF7FEFF 		bl	HAL_GPIO_Init
 231              	.LVL9:
 151:Core/Src/gpio.c **** 
 152:Core/Src/gpio.c ****   /*Configure GPIO pin : PA15 */
 153:Core/Src/gpio.c ****   GPIO_InitStruct.Pin = GPIO_PIN_15;
 154:Core/Src/gpio.c ****   GPIO_InitStruct.Mode = GPIO_MODE_OUTPUT_PP;
 155:Core/Src/gpio.c ****   GPIO_InitStruct.Pull = GPIO_NOPULL;
 156:Core/Src/gpio.c ****   GPIO_InitStruct.Speed = GPIO_SPEED_FREQ_VERY_HIGH;
 157:Core/Src/gpio.c ****   HAL_GPIO_Init(GPIOA, &GPIO_InitStruct);
 232              		.loc 1 157 0
 233 0134 4846     		mov	r0, r9
 234 0136 07A9     		add	r1, sp, #28
 153:Core/Src/gpio.c ****   GPIO_InitStruct.Mode = GPIO_MODE_OUTPUT_PP;
 235              		.loc 1 153 0
 236 0138 4FF40043 		mov	r3, #32768
 237 013c 0793     		str	r3, [sp, #28]
 155:Core/Src/gpio.c ****   GPIO_InitStruct.Speed = GPIO_SPEED_FREQ_VERY_HIGH;
 238              		.loc 1 155 0
 239 013e CDE90874 		strd	r7, r4, [sp, #32]
 156:Core/Src/gpio.c ****   HAL_GPIO_Init(GPIOA, &GPIO_InitStruct);
 240              		.loc 1 156 0
 241 0142 0A95     		str	r5, [sp, #40]
 242              		.loc 1 157 0
 243 0144 FFF7FEFF 		bl	HAL_GPIO_Init
 244              	.LVL10:
 158:Core/Src/gpio.c **** 
 159:Core/Src/gpio.c ****   /*Configure GPIO pin : PC11 */
 160:Core/Src/gpio.c ****   GPIO_InitStruct.Pin = GPIO_PIN_11;
 161:Core/Src/gpio.c ****   GPIO_InitStruct.Mode = GPIO_MODE_OUTPUT_PP;
 162:Core/Src/gpio.c ****   GPIO_InitStruct.Pull = GPIO_NOPULL;
 163:Core/Src/gpio.c ****   GPIO_InitStruct.Speed = GPIO_SPEED_FREQ_VERY_HIGH;
 164:Core/Src/gpio.c ****   HAL_GPIO_Init(GPIOC, &GPIO_InitStruct);
 245              		.loc 1 164 0
 246 0148 4046     		mov	r0, r8
 247 014a 07A9     		add	r1, sp, #28
 160:Core/Src/gpio.c ****   GPIO_InitStruct.Mode = GPIO_MODE_OUTPUT_PP;
 248              		.loc 1 160 0
 249 014c 4FF40063 		mov	r3, #2048
 250 0150 0793     		str	r3, [sp, #28]
 162:Core/Src/gpio.c ****   GPIO_InitStruct.Speed = GPIO_SPEED_FREQ_VERY_HIGH;
 251              		.loc 1 162 0
 252 0152 CDE90874 		strd	r7, r4, [sp, #32]
 163:Core/Src/gpio.c ****   HAL_GPIO_Init(GPIOC, &GPIO_InitStruct);
 253              		.loc 1 163 0
 254 0156 0A95     		str	r5, [sp, #40]
 255              		.loc 1 164 0
 256 0158 FFF7FEFF 		bl	HAL_GPIO_Init
 257              	.LVL11:
 165:Core/Src/gpio.c **** 
ARM GAS  C:\Users\Prashant\AppData\Local\Temp\cc3SEtem.s 			page 9


 166:Core/Src/gpio.c ****   /*Configure GPIO pins : PD2 PD4 */
 167:Core/Src/gpio.c ****   GPIO_InitStruct.Pin = GPIO_PIN_2|GPIO_PIN_4;
 258              		.loc 1 167 0
 259 015c 1423     		movs	r3, #20
 168:Core/Src/gpio.c ****   GPIO_InitStruct.Mode = GPIO_MODE_OUTPUT_PP;
 169:Core/Src/gpio.c ****   GPIO_InitStruct.Pull = GPIO_NOPULL;
 170:Core/Src/gpio.c ****   GPIO_InitStruct.Speed = GPIO_SPEED_FREQ_VERY_HIGH;
 171:Core/Src/gpio.c ****   HAL_GPIO_Init(GPIOD, &GPIO_InitStruct);
 260              		.loc 1 171 0
 261 015e 07A9     		add	r1, sp, #28
 262 0160 3046     		mov	r0, r6
 169:Core/Src/gpio.c ****   GPIO_InitStruct.Speed = GPIO_SPEED_FREQ_VERY_HIGH;
 263              		.loc 1 169 0
 264 0162 CDE90874 		strd	r7, r4, [sp, #32]
 170:Core/Src/gpio.c ****   HAL_GPIO_Init(GPIOD, &GPIO_InitStruct);
 265              		.loc 1 170 0
 266 0166 0A95     		str	r5, [sp, #40]
 167:Core/Src/gpio.c ****   GPIO_InitStruct.Mode = GPIO_MODE_OUTPUT_PP;
 267              		.loc 1 167 0
 268 0168 0793     		str	r3, [sp, #28]
 269              		.loc 1 171 0
 270 016a FFF7FEFF 		bl	HAL_GPIO_Init
 271              	.LVL12:
 172:Core/Src/gpio.c **** 
 173:Core/Src/gpio.c **** }
 272              		.loc 1 173 0
 273 016e 0DB0     		add	sp, sp, #52
 274              	.LCFI2:
 275              		.cfi_def_cfa_offset 28
 276              		@ sp needed
 277 0170 BDE8F083 		pop	{r4, r5, r6, r7, r8, r9, pc}
 278              	.L5:
 279              		.align	2
 280              	.L4:
 281 0174 00380240 		.word	1073887232
 282 0178 000C0240 		.word	1073875968
 283 017c 00100240 		.word	1073876992
 284 0180 00040240 		.word	1073873920
 285 0184 00000240 		.word	1073872896
 286 0188 00080240 		.word	1073874944
 287              		.cfi_endproc
 288              	.LFE126:
 290              		.text
 291              	.Letext0:
 292              		.file 2 "c:\\program files (x86)\\gnu tools arm embedded\\7 2017-q4-major\\arm-none-eabi\\include\
 293              		.file 3 "c:\\program files (x86)\\gnu tools arm embedded\\7 2017-q4-major\\arm-none-eabi\\include\
 294              		.file 4 "Drivers/CMSIS/Include/core_cm4.h"
 295              		.file 5 "Drivers/CMSIS/Device/ST/STM32F4xx/Include/system_stm32f4xx.h"
 296              		.file 6 "Drivers/CMSIS/Device/ST/STM32F4xx/Include/stm32f407xx.h"
 297              		.file 7 "c:\\program files (x86)\\gnu tools arm embedded\\7 2017-q4-major\\arm-none-eabi\\include\
 298              		.file 8 "c:\\program files (x86)\\gnu tools arm embedded\\7 2017-q4-major\\arm-none-eabi\\include\
 299              		.file 9 "c:\\program files (x86)\\gnu tools arm embedded\\7 2017-q4-major\\lib\\gcc\\arm-none-eabi
 300              		.file 10 "c:\\program files (x86)\\gnu tools arm embedded\\7 2017-q4-major\\arm-none-eabi\\include
 301              		.file 11 "Drivers/STM32F4xx_HAL_Driver/Inc/stm32f4xx_hal_gpio.h"
ARM GAS  C:\Users\Prashant\AppData\Local\Temp\cc3SEtem.s 			page 10

