ARM GAS  C:\Users\Prashant\AppData\Local\Temp\ccluRU9O.s 			page 1


   1              		.cpu cortex-m4
   2              		.eabi_attribute 27, 1
   3              		.eabi_attribute 28, 1
   4              		.eabi_attribute 20, 1
   5              		.eabi_attribute 21, 1
   6              		.eabi_attribute 23, 3
   7              		.eabi_attribute 24, 1
   8              		.eabi_attribute 25, 1
   9              		.eabi_attribute 26, 1
  10              		.eabi_attribute 30, 2
  11              		.eabi_attribute 34, 1
  12              		.eabi_attribute 18, 4
  13              		.file	"robot.c"
  14              		.text
  15              	.Ltext0:
  16              		.cfi_sections	.debug_frame
  17              		.section	.text.play,"ax",%progbits
  18              		.align	1
  19              		.p2align 2,,3
  20              		.global	play
  21              		.syntax unified
  22              		.thumb
  23              		.thumb_func
  24              		.fpu fpv4-sp-d16
  26              	play:
  27              	.LFB126:
  28              		.file 1 "Core/Src/robot.c"
   1:Core/Src/robot.c **** /*
   2:Core/Src/robot.c ****  * robot.c
   3:Core/Src/robot.c ****  *
   4:Core/Src/robot.c ****  * Created : 10/1/2018
   5:Core/Src/robot.c ****  */
   6:Core/Src/robot.c **** 
   7:Core/Src/robot.c **** #include "robo_init.h"
   8:Core/Src/robot.c **** extern struct Wheel Wheel_arr[4];
   9:Core/Src/robot.c **** 
  10:Core/Src/robot.c **** void play(void)
  11:Core/Src/robot.c **** {
  29              		.loc 1 11 0
  30              		.cfi_startproc
  31              		@ args = 0, pretend = 0, frame = 8
  32              		@ frame_needed = 0, uses_anonymous_args = 0
  33              	.LVL0:
  34 0000 2DE9F041 		push	{r4, r5, r6, r7, r8, lr}
  35              	.LCFI0:
  36              		.cfi_def_cfa_offset 24
  37              		.cfi_offset 4, -24
  38              		.cfi_offset 5, -20
  39              		.cfi_offset 6, -16
  40              		.cfi_offset 7, -12
  41              		.cfi_offset 8, -8
  42              		.cfi_offset 14, -4
  12:Core/Src/robot.c ****        uint16_t speed=0;
  13:Core/Src/robot.c **** 	int downcount=0;
  14:Core/Src/robot.c ****         uint8_t buffer[1];
  15:Core/Src/robot.c ****         while (1) {
  16:Core/Src/robot.c ****                 if (HAL_UART_Receive(&huart1, buffer, 1, 2) == HAL_OK)
ARM GAS  C:\Users\Prashant\AppData\Local\Temp\ccluRU9O.s 			page 2


  17:Core/Src/robot.c **** 			printf("%c",buffer[0]);
  18:Core/Src/robot.c **** 		buffer[0] = 'F';		
  19:Core/Src/robot.c **** 		if(speed<38000)
  20:Core/Src/robot.c **** 			speed += 500;
  21:Core/Src/robot.c **** 		robot_speed(speed);
  22:Core/Src/robot.c **** 		if(buffer[0]!='S')
  23:Core/Src/robot.c **** 			downcount=20;
  24:Core/Src/robot.c **** 		switch (buffer[0])
  25:Core/Src/robot.c **** 		{
  26:Core/Src/robot.c **** 			case 'F':
  27:Core/Src/robot.c **** 			{
  28:Core/Src/robot.c **** 				set_Direction(&Wheel_arr[0], DIR_ANTICLOCKWISE);
  43              		.loc 1 28 0
  44 0004 264F     		ldr	r7, .L21
  16:Core/Src/robot.c **** 			printf("%c",buffer[0]);
  45              		.loc 1 16 0
  46 0006 274E     		ldr	r6, .L21+4
  13:Core/Src/robot.c ****         uint8_t buffer[1];
  47              		.loc 1 13 0
  48 0008 0025     		movs	r5, #0
  11:Core/Src/robot.c ****        uint16_t speed=0;
  49              		.loc 1 11 0
  50 000a 82B0     		sub	sp, sp, #8
  51              	.LCFI1:
  52              		.cfi_def_cfa_offset 32
  29:Core/Src/robot.c **** 				set_Direction(&Wheel_arr[1], DIR_CLOCKWISE);
  53              		.loc 1 29 0
  54 000c 07F12808 		add	r8, r7, #40
  12:Core/Src/robot.c **** 	int downcount=0;
  55              		.loc 1 12 0
  56 0010 2C46     		mov	r4, r5
  57              	.LVL1:
  58              	.L2:
  16:Core/Src/robot.c **** 			printf("%c",buffer[0]);
  59              		.loc 1 16 0
  60 0012 0223     		movs	r3, #2
  61 0014 0122     		movs	r2, #1
  62 0016 01A9     		add	r1, sp, #4
  63 0018 3046     		mov	r0, r6
  64 001a FFF7FEFF 		bl	HAL_UART_Receive
  65              	.LVL2:
  66 001e E0B1     		cbz	r0, .L18
  67              	.L4:
  19:Core/Src/robot.c **** 			speed += 500;
  68              		.loc 1 19 0
  69 0020 49F26F43 		movw	r3, #37999
  70 0024 9C42     		cmp	r4, r3
  20:Core/Src/robot.c **** 		robot_speed(speed);
  71              		.loc 1 20 0
  72 0026 9CBF     		itt	ls
  73 0028 04F5FA74 		addls	r4, r4, #500
  74              	.LVL3:
  75 002c A4B2     		uxthls	r4, r4
  76              	.LVL4:
  18:Core/Src/robot.c **** 		if(speed<38000)
  77              		.loc 1 18 0
  78 002e 4622     		movs	r2, #70
ARM GAS  C:\Users\Prashant\AppData\Local\Temp\ccluRU9O.s 			page 3


  21:Core/Src/robot.c **** 		if(buffer[0]!='S')
  79              		.loc 1 21 0
  80 0030 20B2     		sxth	r0, r4
  18:Core/Src/robot.c **** 		if(speed<38000)
  81              		.loc 1 18 0
  82 0032 8DF80420 		strb	r2, [sp, #4]
  21:Core/Src/robot.c **** 		if(buffer[0]!='S')
  83              		.loc 1 21 0
  84 0036 FFF7FEFF 		bl	robot_speed
  85              	.LVL5:
  22:Core/Src/robot.c **** 			downcount=20;
  86              		.loc 1 22 0
  87 003a 9DF80430 		ldrb	r3, [sp, #4]	@ zero_extendqisi2
  88 003e 532B     		cmp	r3, #83
  89 0040 05D0     		beq	.L19
  90              	.LVL6:
  24:Core/Src/robot.c **** 		{
  91              		.loc 1 24 0
  92 0042 422B     		cmp	r3, #66
  93 0044 18D0     		beq	.L9
  94 0046 462B     		cmp	r3, #70
  95 0048 0CD0     		beq	.L8
  23:Core/Src/robot.c **** 		switch (buffer[0])
  96              		.loc 1 23 0
  97 004a 1425     		movs	r5, #20
  98 004c E1E7     		b	.L2
  99              	.LVL7:
 100              	.L19:
  30:Core/Src/robot.c **** 				break;
  31:Core/Src/robot.c **** 			}
  32:Core/Src/robot.c **** 			case 'B':
  33:Core/Src/robot.c **** 			{
  34:Core/Src/robot.c **** 				set_Direction(&Wheel_arr[0], DIR_CLOCKWISE);
  35:Core/Src/robot.c **** 				set_Direction(&Wheel_arr[1], DIR_ANTICLOCKWISE);
  36:Core/Src/robot.c **** 				break;
  37:Core/Src/robot.c **** 			}
  38:Core/Src/robot.c **** 			/*case 'L':
  39:Core/Src/robot.c **** 			{
  40:Core/Src/robot.c **** 				set_Direction(&Wheel_arr[0], DIR_CLOCKWISE);
  41:Core/Src/robot.c **** 				set_Direction(&Wheel_arr[1], DIR_CLOCKWISE);
  42:Core/Src/robot.c **** 				set_Direction(&Wheel_arr[2], DIR_ANTICLOCKWISE);
  43:Core/Src/robot.c **** 				set_Direction(&Wheel_arr[3], DIR_ANTICLOCKWISE);
  44:Core/Src/robot.c **** 				break;
  45:Core/Src/robot.c **** 			}
  46:Core/Src/robot.c **** 			case 'R':
  47:Core/Src/robot.c **** 			{
  48:Core/Src/robot.c **** 				set_Direction(&Wheel_arr[0], DIR_ANTICLOCKWISE);
  49:Core/Src/robot.c **** 				set_Direction(&Wheel_arr[1], DIR_ANTICLOCKWISE);
  50:Core/Src/robot.c **** 				set_Direction(&Wheel_arr[2], DIR_CLOCKWISE);
  51:Core/Src/robot.c **** 				set_Direction(&Wheel_arr[3], DIR_CLOCKWISE);
  52:Core/Src/robot.c **** 				break;
  53:Core/Src/robot.c **** 			}
  54:Core/Src/robot.c **** 			case 'G':
  55:Core/Src/robot.c **** 			{
  56:Core/Src/robot.c **** 				set_Direction(&Wheel_arr[0], DIR_HALT);
  57:Core/Src/robot.c **** 				set_Direction(&Wheel_arr[1], DIR_CLOCKWISE);
  58:Core/Src/robot.c **** 				set_Direction(&Wheel_arr[2], DIR_HALT);
ARM GAS  C:\Users\Prashant\AppData\Local\Temp\ccluRU9O.s 			page 4


  59:Core/Src/robot.c **** 				set_Direction(&Wheel_arr[3], DIR_ANTICLOCKWISE);
  60:Core/Src/robot.c **** 				break;
  61:Core/Src/robot.c **** 			}
  62:Core/Src/robot.c **** 			case 'I':
  63:Core/Src/robot.c **** 			{
  64:Core/Src/robot.c **** 				set_Direction(&Wheel_arr[0], DIR_ANTICLOCKWISE);
  65:Core/Src/robot.c **** 				set_Direction(&Wheel_arr[1], DIR_HALT);
  66:Core/Src/robot.c **** 				set_Direction(&Wheel_arr[2], DIR_CLOCKWISE);
  67:Core/Src/robot.c **** 				set_Direction(&Wheel_arr[3], DIR_HALT);
  68:Core/Src/robot.c **** 				break;
  69:Core/Src/robot.c **** 			}
  70:Core/Src/robot.c **** 			case 'H':
  71:Core/Src/robot.c **** 			{
  72:Core/Src/robot.c **** 				set_Direction(&Wheel_arr[0], DIR_CLOCKWISE);
  73:Core/Src/robot.c **** 				set_Direction(&Wheel_arr[1], DIR_CLOCKWISE);
  74:Core/Src/robot.c **** 				set_Direction(&Wheel_arr[2], DIR_CLOCKWISE);
  75:Core/Src/robot.c **** 				set_Direction(&Wheel_arr[3], DIR_CLOCKWISE);
  76:Core/Src/robot.c **** 				break;
  77:Core/Src/robot.c **** 			}
  78:Core/Src/robot.c **** 			case 'J':
  79:Core/Src/robot.c **** 			{
  80:Core/Src/robot.c **** 				set_Direction(&Wheel_arr[0], DIR_ANTICLOCKWISE);
  81:Core/Src/robot.c **** 				set_Direction(&Wheel_arr[1], DIR_ANTICLOCKWISE);
  82:Core/Src/robot.c **** 				set_Direction(&Wheel_arr[2], DIR_ANTICLOCKWISE);
  83:Core/Src/robot.c **** 				set_Direction(&Wheel_arr[3], DIR_ANTICLOCKWISE);
  84:Core/Src/robot.c **** 				break;
  85:Core/Src/robot.c **** 			}*/
  86:Core/Src/robot.c **** 			case 'S':
  87:Core/Src/robot.c **** 			{
  88:Core/Src/robot.c **** 				
  89:Core/Src/robot.c **** 				if(downcount>0)
 101              		.loc 1 89 0
 102 004e EDB1     		cbz	r5, .L20
  90:Core/Src/robot.c **** 				{
  91:Core/Src/robot.c **** 					speed -=2000;
 103              		.loc 1 91 0
 104 0050 A4F5FA64 		sub	r4, r4, #2000
 105              	.LVL8:
 106 0054 A4B2     		uxth	r4, r4
 107              	.LVL9:
  92:Core/Src/robot.c **** 					downcount--;
 108              		.loc 1 92 0
 109 0056 013D     		subs	r5, r5, #1
 110              	.LVL10:
  93:Core/Src/robot.c **** 					break;
 111              		.loc 1 93 0
 112 0058 DBE7     		b	.L2
 113              	.L18:
  17:Core/Src/robot.c **** 		buffer[0] = 'F';		
 114              		.loc 1 17 0
 115 005a 9DF80400 		ldrb	r0, [sp, #4]	@ zero_extendqisi2
 116 005e FFF7FEFF 		bl	putchar
 117              	.LVL11:
 118 0062 DDE7     		b	.L4
 119              	.LVL12:
 120              	.L8:
  28:Core/Src/robot.c **** 				set_Direction(&Wheel_arr[1], DIR_CLOCKWISE);
ARM GAS  C:\Users\Prashant\AppData\Local\Temp\ccluRU9O.s 			page 5


 121              		.loc 1 28 0
 122 0064 0121     		movs	r1, #1
 123 0066 3846     		mov	r0, r7
 124 0068 FFF7FEFF 		bl	set_Direction
 125              	.LVL13:
  29:Core/Src/robot.c **** 				break;
 126              		.loc 1 29 0
 127 006c 0021     		movs	r1, #0
 128 006e 4046     		mov	r0, r8
 129 0070 FFF7FEFF 		bl	set_Direction
 130              	.LVL14:
  23:Core/Src/robot.c **** 		switch (buffer[0])
 131              		.loc 1 23 0
 132 0074 1425     		movs	r5, #20
  30:Core/Src/robot.c **** 			}
 133              		.loc 1 30 0
 134 0076 CCE7     		b	.L2
 135              	.L9:
  34:Core/Src/robot.c **** 				set_Direction(&Wheel_arr[1], DIR_ANTICLOCKWISE);
 136              		.loc 1 34 0
 137 0078 0021     		movs	r1, #0
 138 007a 3846     		mov	r0, r7
 139 007c FFF7FEFF 		bl	set_Direction
 140              	.LVL15:
  35:Core/Src/robot.c **** 				break;
 141              		.loc 1 35 0
 142 0080 0121     		movs	r1, #1
 143 0082 4046     		mov	r0, r8
 144 0084 FFF7FEFF 		bl	set_Direction
 145              	.LVL16:
  23:Core/Src/robot.c **** 		switch (buffer[0])
 146              		.loc 1 23 0
 147 0088 1425     		movs	r5, #20
  36:Core/Src/robot.c **** 			}
 148              		.loc 1 36 0
 149 008a C2E7     		b	.L2
 150              	.LVL17:
 151              	.L20:
  94:Core/Src/robot.c **** 				}
  95:Core/Src/robot.c **** 				set_Direction(&Wheel_arr[0], DIR_HALT);
 152              		.loc 1 95 0
 153 008c 3846     		mov	r0, r7
 154 008e 0221     		movs	r1, #2
 155 0090 FFF7FEFF 		bl	set_Direction
 156              	.LVL18:
  96:Core/Src/robot.c **** 				set_Direction(&Wheel_arr[1], DIR_HALT);
 157              		.loc 1 96 0
 158 0094 0221     		movs	r1, #2
 159 0096 4046     		mov	r0, r8
 160 0098 FFF7FEFF 		bl	set_Direction
 161              	.LVL19:
  97:Core/Src/robot.c **** 				//set_Direction(&Wheel_arr[2], DIR_HALT);
  98:Core/Src/robot.c **** 				//set_Direction(&Wheel_arr[3], DIR_HALT);
  99:Core/Src/robot.c **** 				break;
 162              		.loc 1 99 0
 163 009c B9E7     		b	.L2
 164              	.L22:
ARM GAS  C:\Users\Prashant\AppData\Local\Temp\ccluRU9O.s 			page 6


 165 009e 00BF     		.align	2
 166              	.L21:
 167 00a0 00000000 		.word	Wheel_arr
 168 00a4 00000000 		.word	huart1
 169              		.cfi_endproc
 170              	.LFE126:
 172              		.text
 173              	.Letext0:
 174              		.file 2 "c:\\program files (x86)\\gnu tools arm embedded\\7 2017-q4-major\\arm-none-eabi\\include\
 175              		.file 3 "c:\\program files (x86)\\gnu tools arm embedded\\7 2017-q4-major\\arm-none-eabi\\include\
 176              		.file 4 "Drivers/CMSIS/Include/core_cm4.h"
 177              		.file 5 "Drivers/CMSIS/Device/ST/STM32F4xx/Include/system_stm32f4xx.h"
 178              		.file 6 "Drivers/CMSIS/Device/ST/STM32F4xx/Include/stm32f407xx.h"
 179              		.file 7 "c:\\program files (x86)\\gnu tools arm embedded\\7 2017-q4-major\\arm-none-eabi\\include\
 180              		.file 8 "c:\\program files (x86)\\gnu tools arm embedded\\7 2017-q4-major\\arm-none-eabi\\include\
 181              		.file 9 "c:\\program files (x86)\\gnu tools arm embedded\\7 2017-q4-major\\lib\\gcc\\arm-none-eabi
 182              		.file 10 "c:\\program files (x86)\\gnu tools arm embedded\\7 2017-q4-major\\arm-none-eabi\\include
 183              		.file 11 "Drivers/STM32F4xx_HAL_Driver/Inc/stm32f4xx_hal_def.h"
 184              		.file 12 "Drivers/STM32F4xx_HAL_Driver/Inc/stm32f4xx_hal_dma.h"
 185              		.file 13 "Drivers/STM32F4xx_HAL_Driver/Inc/stm32f4xx_hal_tim.h"
 186              		.file 14 "Drivers/STM32F4xx_HAL_Driver/Inc/stm32f4xx_hal_uart.h"
 187              		.file 15 "Core/Inc/tim.h"
 188              		.file 16 "Core/Inc/usart.h"
 189              		.file 17 "c:\\program files (x86)\\gnu tools arm embedded\\7 2017-q4-major\\arm-none-eabi\\include
 190              		.file 18 "Core/Inc/wheel.h"
 191              		.file 19 "Core/Inc/robo_init.h"
 192              		.file 20 "Core/Inc/drive.h"
 193              		.file 21 "<built-in>"
ARM GAS  C:\Users\Prashant\AppData\Local\Temp\ccluRU9O.s 			page 7

