ARM GAS  C:\Users\Prashant\AppData\Local\Temp\ccBE48rQ.s 			page 1


   1              		.cpu cortex-m4
   2              		.eabi_attribute 27, 1
   3              		.eabi_attribute 28, 1
   4              		.eabi_attribute 20, 1
   5              		.eabi_attribute 21, 1
   6              		.eabi_attribute 23, 3
   7              		.eabi_attribute 24, 1
   8              		.eabi_attribute 25, 1
   9              		.eabi_attribute 26, 1
  10              		.eabi_attribute 30, 2
  11              		.eabi_attribute 34, 1
  12              		.eabi_attribute 18, 4
  13              		.file	"stm32f4xx_hal_dma_ex.c"
  14              		.text
  15              	.Ltext0:
  16              		.cfi_sections	.debug_frame
  17              		.section	.text.HAL_DMAEx_MultiBufferStart,"ax",%progbits
  18              		.align	1
  19              		.p2align 2,,3
  20              		.global	HAL_DMAEx_MultiBufferStart
  21              		.syntax unified
  22              		.thumb
  23              		.thumb_func
  24              		.fpu fpv4-sp-d16
  26              	HAL_DMAEx_MultiBufferStart:
  27              	.LFB126:
  28              		.file 1 "Drivers/STM32F4xx_HAL_Driver/Src/stm32f4xx_hal_dma_ex.c"
   1:Drivers/STM32F4xx_HAL_Driver/Src/stm32f4xx_hal_dma_ex.c **** /**
   2:Drivers/STM32F4xx_HAL_Driver/Src/stm32f4xx_hal_dma_ex.c ****   ******************************************************************************
   3:Drivers/STM32F4xx_HAL_Driver/Src/stm32f4xx_hal_dma_ex.c ****   * @file    stm32f4xx_hal_dma_ex.c
   4:Drivers/STM32F4xx_HAL_Driver/Src/stm32f4xx_hal_dma_ex.c ****   * @author  MCD Application Team
   5:Drivers/STM32F4xx_HAL_Driver/Src/stm32f4xx_hal_dma_ex.c ****   * @brief   DMA Extension HAL module driver
   6:Drivers/STM32F4xx_HAL_Driver/Src/stm32f4xx_hal_dma_ex.c ****   *         This file provides firmware functions to manage the following 
   7:Drivers/STM32F4xx_HAL_Driver/Src/stm32f4xx_hal_dma_ex.c ****   *         functionalities of the DMA Extension peripheral:
   8:Drivers/STM32F4xx_HAL_Driver/Src/stm32f4xx_hal_dma_ex.c ****   *           + Extended features functions
   9:Drivers/STM32F4xx_HAL_Driver/Src/stm32f4xx_hal_dma_ex.c ****   *
  10:Drivers/STM32F4xx_HAL_Driver/Src/stm32f4xx_hal_dma_ex.c ****   @verbatim
  11:Drivers/STM32F4xx_HAL_Driver/Src/stm32f4xx_hal_dma_ex.c ****   ==============================================================================
  12:Drivers/STM32F4xx_HAL_Driver/Src/stm32f4xx_hal_dma_ex.c ****                         ##### How to use this driver #####
  13:Drivers/STM32F4xx_HAL_Driver/Src/stm32f4xx_hal_dma_ex.c ****   ==============================================================================
  14:Drivers/STM32F4xx_HAL_Driver/Src/stm32f4xx_hal_dma_ex.c ****   [..]
  15:Drivers/STM32F4xx_HAL_Driver/Src/stm32f4xx_hal_dma_ex.c ****   The DMA Extension HAL driver can be used as follows:
  16:Drivers/STM32F4xx_HAL_Driver/Src/stm32f4xx_hal_dma_ex.c ****    (#) Start a multi buffer transfer using the HAL_DMA_MultiBufferStart() function
  17:Drivers/STM32F4xx_HAL_Driver/Src/stm32f4xx_hal_dma_ex.c ****        for polling mode or HAL_DMA_MultiBufferStart_IT() for interrupt mode.
  18:Drivers/STM32F4xx_HAL_Driver/Src/stm32f4xx_hal_dma_ex.c ****                    
  19:Drivers/STM32F4xx_HAL_Driver/Src/stm32f4xx_hal_dma_ex.c ****      -@-  In Memory-to-Memory transfer mode, Multi (Double) Buffer mode is not allowed.
  20:Drivers/STM32F4xx_HAL_Driver/Src/stm32f4xx_hal_dma_ex.c ****      -@-  When Multi (Double) Buffer mode is enabled the, transfer is circular by default.
  21:Drivers/STM32F4xx_HAL_Driver/Src/stm32f4xx_hal_dma_ex.c ****      -@-  In Multi (Double) buffer mode, it is possible to update the base address for 
  22:Drivers/STM32F4xx_HAL_Driver/Src/stm32f4xx_hal_dma_ex.c ****           the AHB memory port on the fly (DMA_SxM0AR or DMA_SxM1AR) when the stream is enabled. 
  23:Drivers/STM32F4xx_HAL_Driver/Src/stm32f4xx_hal_dma_ex.c ****   
  24:Drivers/STM32F4xx_HAL_Driver/Src/stm32f4xx_hal_dma_ex.c ****   @endverbatim
  25:Drivers/STM32F4xx_HAL_Driver/Src/stm32f4xx_hal_dma_ex.c ****   ******************************************************************************
  26:Drivers/STM32F4xx_HAL_Driver/Src/stm32f4xx_hal_dma_ex.c ****   * @attention
  27:Drivers/STM32F4xx_HAL_Driver/Src/stm32f4xx_hal_dma_ex.c ****   *
  28:Drivers/STM32F4xx_HAL_Driver/Src/stm32f4xx_hal_dma_ex.c ****   * <h2><center>&copy; COPYRIGHT(c) 2017 STMicroelectronics</center></h2>
  29:Drivers/STM32F4xx_HAL_Driver/Src/stm32f4xx_hal_dma_ex.c ****   *
  30:Drivers/STM32F4xx_HAL_Driver/Src/stm32f4xx_hal_dma_ex.c ****   * Redistribution and use in source and binary forms, with or without modification,
ARM GAS  C:\Users\Prashant\AppData\Local\Temp\ccBE48rQ.s 			page 2


  31:Drivers/STM32F4xx_HAL_Driver/Src/stm32f4xx_hal_dma_ex.c ****   * are permitted provided that the following conditions are met:
  32:Drivers/STM32F4xx_HAL_Driver/Src/stm32f4xx_hal_dma_ex.c ****   *   1. Redistributions of source code must retain the above copyright notice,
  33:Drivers/STM32F4xx_HAL_Driver/Src/stm32f4xx_hal_dma_ex.c ****   *      this list of conditions and the following disclaimer.
  34:Drivers/STM32F4xx_HAL_Driver/Src/stm32f4xx_hal_dma_ex.c ****   *   2. Redistributions in binary form must reproduce the above copyright notice,
  35:Drivers/STM32F4xx_HAL_Driver/Src/stm32f4xx_hal_dma_ex.c ****   *      this list of conditions and the following disclaimer in the documentation
  36:Drivers/STM32F4xx_HAL_Driver/Src/stm32f4xx_hal_dma_ex.c ****   *      and/or other materials provided with the distribution.
  37:Drivers/STM32F4xx_HAL_Driver/Src/stm32f4xx_hal_dma_ex.c ****   *   3. Neither the name of STMicroelectronics nor the names of its contributors
  38:Drivers/STM32F4xx_HAL_Driver/Src/stm32f4xx_hal_dma_ex.c ****   *      may be used to endorse or promote products derived from this software
  39:Drivers/STM32F4xx_HAL_Driver/Src/stm32f4xx_hal_dma_ex.c ****   *      without specific prior written permission.
  40:Drivers/STM32F4xx_HAL_Driver/Src/stm32f4xx_hal_dma_ex.c ****   *
  41:Drivers/STM32F4xx_HAL_Driver/Src/stm32f4xx_hal_dma_ex.c ****   * THIS SOFTWARE IS PROVIDED BY THE COPYRIGHT HOLDERS AND CONTRIBUTORS "AS IS"
  42:Drivers/STM32F4xx_HAL_Driver/Src/stm32f4xx_hal_dma_ex.c ****   * AND ANY EXPRESS OR IMPLIED WARRANTIES, INCLUDING, BUT NOT LIMITED TO, THE
  43:Drivers/STM32F4xx_HAL_Driver/Src/stm32f4xx_hal_dma_ex.c ****   * IMPLIED WARRANTIES OF MERCHANTABILITY AND FITNESS FOR A PARTICULAR PURPOSE ARE
  44:Drivers/STM32F4xx_HAL_Driver/Src/stm32f4xx_hal_dma_ex.c ****   * DISCLAIMED. IN NO EVENT SHALL THE COPYRIGHT HOLDER OR CONTRIBUTORS BE LIABLE
  45:Drivers/STM32F4xx_HAL_Driver/Src/stm32f4xx_hal_dma_ex.c ****   * FOR ANY DIRECT, INDIRECT, INCIDENTAL, SPECIAL, EXEMPLARY, OR CONSEQUENTIAL
  46:Drivers/STM32F4xx_HAL_Driver/Src/stm32f4xx_hal_dma_ex.c ****   * DAMAGES (INCLUDING, BUT NOT LIMITED TO, PROCUREMENT OF SUBSTITUTE GOODS OR
  47:Drivers/STM32F4xx_HAL_Driver/Src/stm32f4xx_hal_dma_ex.c ****   * SERVICES; LOSS OF USE, DATA, OR PROFITS; OR BUSINESS INTERRUPTION) HOWEVER
  48:Drivers/STM32F4xx_HAL_Driver/Src/stm32f4xx_hal_dma_ex.c ****   * CAUSED AND ON ANY THEORY OF LIABILITY, WHETHER IN CONTRACT, STRICT LIABILITY,
  49:Drivers/STM32F4xx_HAL_Driver/Src/stm32f4xx_hal_dma_ex.c ****   * OR TORT (INCLUDING NEGLIGENCE OR OTHERWISE) ARISING IN ANY WAY OUT OF THE USE
  50:Drivers/STM32F4xx_HAL_Driver/Src/stm32f4xx_hal_dma_ex.c ****   * OF THIS SOFTWARE, EVEN IF ADVISED OF THE POSSIBILITY OF SUCH DAMAGE.
  51:Drivers/STM32F4xx_HAL_Driver/Src/stm32f4xx_hal_dma_ex.c ****   *
  52:Drivers/STM32F4xx_HAL_Driver/Src/stm32f4xx_hal_dma_ex.c ****   ******************************************************************************
  53:Drivers/STM32F4xx_HAL_Driver/Src/stm32f4xx_hal_dma_ex.c ****   */
  54:Drivers/STM32F4xx_HAL_Driver/Src/stm32f4xx_hal_dma_ex.c **** 
  55:Drivers/STM32F4xx_HAL_Driver/Src/stm32f4xx_hal_dma_ex.c **** /* Includes ------------------------------------------------------------------*/
  56:Drivers/STM32F4xx_HAL_Driver/Src/stm32f4xx_hal_dma_ex.c **** #include "stm32f4xx_hal.h"
  57:Drivers/STM32F4xx_HAL_Driver/Src/stm32f4xx_hal_dma_ex.c **** 
  58:Drivers/STM32F4xx_HAL_Driver/Src/stm32f4xx_hal_dma_ex.c **** /** @addtogroup STM32F4xx_HAL_Driver
  59:Drivers/STM32F4xx_HAL_Driver/Src/stm32f4xx_hal_dma_ex.c ****   * @{
  60:Drivers/STM32F4xx_HAL_Driver/Src/stm32f4xx_hal_dma_ex.c ****   */
  61:Drivers/STM32F4xx_HAL_Driver/Src/stm32f4xx_hal_dma_ex.c **** 
  62:Drivers/STM32F4xx_HAL_Driver/Src/stm32f4xx_hal_dma_ex.c **** /** @defgroup DMAEx DMAEx
  63:Drivers/STM32F4xx_HAL_Driver/Src/stm32f4xx_hal_dma_ex.c ****   * @brief DMA Extended HAL module driver
  64:Drivers/STM32F4xx_HAL_Driver/Src/stm32f4xx_hal_dma_ex.c ****   * @{
  65:Drivers/STM32F4xx_HAL_Driver/Src/stm32f4xx_hal_dma_ex.c ****   */
  66:Drivers/STM32F4xx_HAL_Driver/Src/stm32f4xx_hal_dma_ex.c **** 
  67:Drivers/STM32F4xx_HAL_Driver/Src/stm32f4xx_hal_dma_ex.c **** #ifdef HAL_DMA_MODULE_ENABLED
  68:Drivers/STM32F4xx_HAL_Driver/Src/stm32f4xx_hal_dma_ex.c **** 
  69:Drivers/STM32F4xx_HAL_Driver/Src/stm32f4xx_hal_dma_ex.c **** /* Private types -------------------------------------------------------------*/
  70:Drivers/STM32F4xx_HAL_Driver/Src/stm32f4xx_hal_dma_ex.c **** /* Private variables ---------------------------------------------------------*/
  71:Drivers/STM32F4xx_HAL_Driver/Src/stm32f4xx_hal_dma_ex.c **** /* Private Constants ---------------------------------------------------------*/
  72:Drivers/STM32F4xx_HAL_Driver/Src/stm32f4xx_hal_dma_ex.c **** /* Private macros ------------------------------------------------------------*/
  73:Drivers/STM32F4xx_HAL_Driver/Src/stm32f4xx_hal_dma_ex.c **** /* Private functions ---------------------------------------------------------*/
  74:Drivers/STM32F4xx_HAL_Driver/Src/stm32f4xx_hal_dma_ex.c **** /** @addtogroup DMAEx_Private_Functions
  75:Drivers/STM32F4xx_HAL_Driver/Src/stm32f4xx_hal_dma_ex.c ****   * @{
  76:Drivers/STM32F4xx_HAL_Driver/Src/stm32f4xx_hal_dma_ex.c ****   */
  77:Drivers/STM32F4xx_HAL_Driver/Src/stm32f4xx_hal_dma_ex.c **** static void DMA_MultiBufferSetConfig(DMA_HandleTypeDef *hdma, uint32_t SrcAddress, uint32_t DstAddr
  78:Drivers/STM32F4xx_HAL_Driver/Src/stm32f4xx_hal_dma_ex.c **** /**
  79:Drivers/STM32F4xx_HAL_Driver/Src/stm32f4xx_hal_dma_ex.c ****   * @}
  80:Drivers/STM32F4xx_HAL_Driver/Src/stm32f4xx_hal_dma_ex.c ****   */
  81:Drivers/STM32F4xx_HAL_Driver/Src/stm32f4xx_hal_dma_ex.c **** 
  82:Drivers/STM32F4xx_HAL_Driver/Src/stm32f4xx_hal_dma_ex.c **** /* Exported functions ---------------------------------------------------------*/
  83:Drivers/STM32F4xx_HAL_Driver/Src/stm32f4xx_hal_dma_ex.c **** 
  84:Drivers/STM32F4xx_HAL_Driver/Src/stm32f4xx_hal_dma_ex.c **** /** @addtogroup DMAEx_Exported_Functions
  85:Drivers/STM32F4xx_HAL_Driver/Src/stm32f4xx_hal_dma_ex.c ****   * @{
  86:Drivers/STM32F4xx_HAL_Driver/Src/stm32f4xx_hal_dma_ex.c ****   */
  87:Drivers/STM32F4xx_HAL_Driver/Src/stm32f4xx_hal_dma_ex.c **** 
ARM GAS  C:\Users\Prashant\AppData\Local\Temp\ccBE48rQ.s 			page 3


  88:Drivers/STM32F4xx_HAL_Driver/Src/stm32f4xx_hal_dma_ex.c **** 
  89:Drivers/STM32F4xx_HAL_Driver/Src/stm32f4xx_hal_dma_ex.c **** /** @addtogroup DMAEx_Exported_Functions_Group1
  90:Drivers/STM32F4xx_HAL_Driver/Src/stm32f4xx_hal_dma_ex.c ****   *
  91:Drivers/STM32F4xx_HAL_Driver/Src/stm32f4xx_hal_dma_ex.c **** @verbatim   
  92:Drivers/STM32F4xx_HAL_Driver/Src/stm32f4xx_hal_dma_ex.c ****  ===============================================================================
  93:Drivers/STM32F4xx_HAL_Driver/Src/stm32f4xx_hal_dma_ex.c ****                 #####  Extended features functions  #####
  94:Drivers/STM32F4xx_HAL_Driver/Src/stm32f4xx_hal_dma_ex.c ****  ===============================================================================  
  95:Drivers/STM32F4xx_HAL_Driver/Src/stm32f4xx_hal_dma_ex.c ****     [..]  This section provides functions allowing to:
  96:Drivers/STM32F4xx_HAL_Driver/Src/stm32f4xx_hal_dma_ex.c ****       (+) Configure the source, destination address and data length and 
  97:Drivers/STM32F4xx_HAL_Driver/Src/stm32f4xx_hal_dma_ex.c ****           Start MultiBuffer DMA transfer
  98:Drivers/STM32F4xx_HAL_Driver/Src/stm32f4xx_hal_dma_ex.c ****       (+) Configure the source, destination address and data length and 
  99:Drivers/STM32F4xx_HAL_Driver/Src/stm32f4xx_hal_dma_ex.c ****           Start MultiBuffer DMA transfer with interrupt
 100:Drivers/STM32F4xx_HAL_Driver/Src/stm32f4xx_hal_dma_ex.c ****       (+) Change on the fly the memory0 or memory1 address.
 101:Drivers/STM32F4xx_HAL_Driver/Src/stm32f4xx_hal_dma_ex.c ****       
 102:Drivers/STM32F4xx_HAL_Driver/Src/stm32f4xx_hal_dma_ex.c **** @endverbatim
 103:Drivers/STM32F4xx_HAL_Driver/Src/stm32f4xx_hal_dma_ex.c ****   * @{
 104:Drivers/STM32F4xx_HAL_Driver/Src/stm32f4xx_hal_dma_ex.c ****   */
 105:Drivers/STM32F4xx_HAL_Driver/Src/stm32f4xx_hal_dma_ex.c **** 
 106:Drivers/STM32F4xx_HAL_Driver/Src/stm32f4xx_hal_dma_ex.c **** 
 107:Drivers/STM32F4xx_HAL_Driver/Src/stm32f4xx_hal_dma_ex.c **** /**
 108:Drivers/STM32F4xx_HAL_Driver/Src/stm32f4xx_hal_dma_ex.c ****   * @brief  Starts the multi_buffer DMA Transfer.
 109:Drivers/STM32F4xx_HAL_Driver/Src/stm32f4xx_hal_dma_ex.c ****   * @param  hdma       pointer to a DMA_HandleTypeDef structure that contains
 110:Drivers/STM32F4xx_HAL_Driver/Src/stm32f4xx_hal_dma_ex.c ****   *                     the configuration information for the specified DMA Stream.  
 111:Drivers/STM32F4xx_HAL_Driver/Src/stm32f4xx_hal_dma_ex.c ****   * @param  SrcAddress The source memory Buffer address
 112:Drivers/STM32F4xx_HAL_Driver/Src/stm32f4xx_hal_dma_ex.c ****   * @param  DstAddress The destination memory Buffer address
 113:Drivers/STM32F4xx_HAL_Driver/Src/stm32f4xx_hal_dma_ex.c ****   * @param  SecondMemAddress The second memory Buffer address in case of multi buffer Transfer  
 114:Drivers/STM32F4xx_HAL_Driver/Src/stm32f4xx_hal_dma_ex.c ****   * @param  DataLength The length of data to be transferred from source to destination
 115:Drivers/STM32F4xx_HAL_Driver/Src/stm32f4xx_hal_dma_ex.c ****   * @retval HAL status
 116:Drivers/STM32F4xx_HAL_Driver/Src/stm32f4xx_hal_dma_ex.c ****   */
 117:Drivers/STM32F4xx_HAL_Driver/Src/stm32f4xx_hal_dma_ex.c **** HAL_StatusTypeDef HAL_DMAEx_MultiBufferStart(DMA_HandleTypeDef *hdma, uint32_t SrcAddress, uint32_t
 118:Drivers/STM32F4xx_HAL_Driver/Src/stm32f4xx_hal_dma_ex.c **** {
  29              		.loc 1 118 0
  30              		.cfi_startproc
  31              		@ args = 4, pretend = 0, frame = 0
  32              		@ frame_needed = 0, uses_anonymous_args = 0
  33              	.LVL0:
  34 0000 2DE9F047 		push	{r4, r5, r6, r7, r8, r9, r10, lr}
  35              	.LCFI0:
  36              		.cfi_def_cfa_offset 32
  37              		.cfi_offset 4, -32
  38              		.cfi_offset 5, -28
  39              		.cfi_offset 6, -24
  40              		.cfi_offset 7, -20
  41              		.cfi_offset 8, -16
  42              		.cfi_offset 9, -12
  43              		.cfi_offset 10, -8
  44              		.cfi_offset 14, -4
  45              		.loc 1 118 0
  46 0004 089D     		ldr	r5, [sp, #32]
 119:Drivers/STM32F4xx_HAL_Driver/Src/stm32f4xx_hal_dma_ex.c ****   HAL_StatusTypeDef status = HAL_OK;
 120:Drivers/STM32F4xx_HAL_Driver/Src/stm32f4xx_hal_dma_ex.c ****   
 121:Drivers/STM32F4xx_HAL_Driver/Src/stm32f4xx_hal_dma_ex.c ****   /* Check the parameters */
 122:Drivers/STM32F4xx_HAL_Driver/Src/stm32f4xx_hal_dma_ex.c ****   assert_param(IS_DMA_BUFFER_SIZE(DataLength));
  47              		.loc 1 122 0
  48 0006 4FF6FE76 		movw	r6, #65534
  49 000a 6F1E     		subs	r7, r5, #1
  50 000c B742     		cmp	r7, r6
ARM GAS  C:\Users\Prashant\AppData\Local\Temp\ccBE48rQ.s 			page 4


 118:Drivers/STM32F4xx_HAL_Driver/Src/stm32f4xx_hal_dma_ex.c ****   HAL_StatusTypeDef status = HAL_OK;
  51              		.loc 1 118 0
  52 000e 0446     		mov	r4, r0
  53 0010 8846     		mov	r8, r1
  54 0012 9146     		mov	r9, r2
  55 0014 9A46     		mov	r10, r3
  56              		.loc 1 122 0
  57 0016 2CD8     		bhi	.L11
 123:Drivers/STM32F4xx_HAL_Driver/Src/stm32f4xx_hal_dma_ex.c ****   
 124:Drivers/STM32F4xx_HAL_Driver/Src/stm32f4xx_hal_dma_ex.c ****   /* Memory-to-memory transfer not supported in double buffering mode */
 125:Drivers/STM32F4xx_HAL_Driver/Src/stm32f4xx_hal_dma_ex.c ****   if (hdma->Init.Direction == DMA_MEMORY_TO_MEMORY)
  58              		.loc 1 125 0
  59 0018 A068     		ldr	r0, [r4, #8]
  60              	.LVL1:
  61 001a 8028     		cmp	r0, #128
  62 001c 30D0     		beq	.L12
  63              	.LVL2:
  64              	.L3:
 126:Drivers/STM32F4xx_HAL_Driver/Src/stm32f4xx_hal_dma_ex.c ****   {
 127:Drivers/STM32F4xx_HAL_Driver/Src/stm32f4xx_hal_dma_ex.c ****     hdma->ErrorCode = HAL_DMA_ERROR_NOT_SUPPORTED;
 128:Drivers/STM32F4xx_HAL_Driver/Src/stm32f4xx_hal_dma_ex.c ****     status = HAL_ERROR;
 129:Drivers/STM32F4xx_HAL_Driver/Src/stm32f4xx_hal_dma_ex.c ****   }
 130:Drivers/STM32F4xx_HAL_Driver/Src/stm32f4xx_hal_dma_ex.c ****   else
 131:Drivers/STM32F4xx_HAL_Driver/Src/stm32f4xx_hal_dma_ex.c ****   {
 132:Drivers/STM32F4xx_HAL_Driver/Src/stm32f4xx_hal_dma_ex.c ****     /* Process Locked */
 133:Drivers/STM32F4xx_HAL_Driver/Src/stm32f4xx_hal_dma_ex.c ****     __HAL_LOCK(hdma);
  65              		.loc 1 133 0
  66 001e 94F83410 		ldrb	r1, [r4, #52]	@ zero_extendqisi2
  67 0022 0129     		cmp	r1, #1
  68 0024 22D0     		beq	.L6
 134:Drivers/STM32F4xx_HAL_Driver/Src/stm32f4xx_hal_dma_ex.c ****     
 135:Drivers/STM32F4xx_HAL_Driver/Src/stm32f4xx_hal_dma_ex.c ****     if(HAL_DMA_STATE_READY == hdma->State)
  69              		.loc 1 135 0 discriminator 2
  70 0026 94F83530 		ldrb	r3, [r4, #53]	@ zero_extendqisi2
 133:Drivers/STM32F4xx_HAL_Driver/Src/stm32f4xx_hal_dma_ex.c ****     
  71              		.loc 1 133 0 discriminator 2
  72 002a 0122     		movs	r2, #1
  73              		.loc 1 135 0 discriminator 2
  74 002c 9342     		cmp	r3, r2
 133:Drivers/STM32F4xx_HAL_Driver/Src/stm32f4xx_hal_dma_ex.c ****     
  75              		.loc 1 133 0 discriminator 2
  76 002e 84F83420 		strb	r2, [r4, #52]
  77              		.loc 1 135 0 discriminator 2
  78 0032 1BD1     		bne	.L6
 136:Drivers/STM32F4xx_HAL_Driver/Src/stm32f4xx_hal_dma_ex.c ****     {
 137:Drivers/STM32F4xx_HAL_Driver/Src/stm32f4xx_hal_dma_ex.c ****       /* Change DMA peripheral state */
 138:Drivers/STM32F4xx_HAL_Driver/Src/stm32f4xx_hal_dma_ex.c ****       hdma->State = HAL_DMA_STATE_BUSY; 
 139:Drivers/STM32F4xx_HAL_Driver/Src/stm32f4xx_hal_dma_ex.c ****       
 140:Drivers/STM32F4xx_HAL_Driver/Src/stm32f4xx_hal_dma_ex.c ****       /* Enable the double buffer mode */
 141:Drivers/STM32F4xx_HAL_Driver/Src/stm32f4xx_hal_dma_ex.c ****       hdma->Instance->CR |= (uint32_t)DMA_SxCR_DBM;
  79              		.loc 1 141 0
  80 0034 2168     		ldr	r1, [r4]
 138:Drivers/STM32F4xx_HAL_Driver/Src/stm32f4xx_hal_dma_ex.c ****       
  81              		.loc 1 138 0
  82 0036 0223     		movs	r3, #2
  83 0038 84F83530 		strb	r3, [r4, #53]
  84              		.loc 1 141 0
ARM GAS  C:\Users\Prashant\AppData\Local\Temp\ccBE48rQ.s 			page 5


  85 003c 0B68     		ldr	r3, [r1]
  86              	.LBB6:
  87              	.LBB7:
 142:Drivers/STM32F4xx_HAL_Driver/Src/stm32f4xx_hal_dma_ex.c ****       
 143:Drivers/STM32F4xx_HAL_Driver/Src/stm32f4xx_hal_dma_ex.c ****       /* Configure DMA Stream destination address */
 144:Drivers/STM32F4xx_HAL_Driver/Src/stm32f4xx_hal_dma_ex.c ****       hdma->Instance->M1AR = SecondMemAddress;
 145:Drivers/STM32F4xx_HAL_Driver/Src/stm32f4xx_hal_dma_ex.c ****       
 146:Drivers/STM32F4xx_HAL_Driver/Src/stm32f4xx_hal_dma_ex.c ****       /* Configure the source, destination address and the data length */
 147:Drivers/STM32F4xx_HAL_Driver/Src/stm32f4xx_hal_dma_ex.c ****       DMA_MultiBufferSetConfig(hdma, SrcAddress, DstAddress, DataLength);
 148:Drivers/STM32F4xx_HAL_Driver/Src/stm32f4xx_hal_dma_ex.c ****       
 149:Drivers/STM32F4xx_HAL_Driver/Src/stm32f4xx_hal_dma_ex.c ****       /* Enable the peripheral */
 150:Drivers/STM32F4xx_HAL_Driver/Src/stm32f4xx_hal_dma_ex.c ****       __HAL_DMA_ENABLE(hdma);
 151:Drivers/STM32F4xx_HAL_Driver/Src/stm32f4xx_hal_dma_ex.c ****     }
 152:Drivers/STM32F4xx_HAL_Driver/Src/stm32f4xx_hal_dma_ex.c ****     else
 153:Drivers/STM32F4xx_HAL_Driver/Src/stm32f4xx_hal_dma_ex.c ****     {
 154:Drivers/STM32F4xx_HAL_Driver/Src/stm32f4xx_hal_dma_ex.c ****       /* Return error status */
 155:Drivers/STM32F4xx_HAL_Driver/Src/stm32f4xx_hal_dma_ex.c ****       status = HAL_BUSY;
 156:Drivers/STM32F4xx_HAL_Driver/Src/stm32f4xx_hal_dma_ex.c ****     }
 157:Drivers/STM32F4xx_HAL_Driver/Src/stm32f4xx_hal_dma_ex.c ****   }
 158:Drivers/STM32F4xx_HAL_Driver/Src/stm32f4xx_hal_dma_ex.c ****   return status;
 159:Drivers/STM32F4xx_HAL_Driver/Src/stm32f4xx_hal_dma_ex.c **** }
 160:Drivers/STM32F4xx_HAL_Driver/Src/stm32f4xx_hal_dma_ex.c **** 
 161:Drivers/STM32F4xx_HAL_Driver/Src/stm32f4xx_hal_dma_ex.c **** /**
 162:Drivers/STM32F4xx_HAL_Driver/Src/stm32f4xx_hal_dma_ex.c ****   * @brief  Starts the multi_buffer DMA Transfer with interrupt enabled.
 163:Drivers/STM32F4xx_HAL_Driver/Src/stm32f4xx_hal_dma_ex.c ****   * @param  hdma       pointer to a DMA_HandleTypeDef structure that contains
 164:Drivers/STM32F4xx_HAL_Driver/Src/stm32f4xx_hal_dma_ex.c ****   *                     the configuration information for the specified DMA Stream.  
 165:Drivers/STM32F4xx_HAL_Driver/Src/stm32f4xx_hal_dma_ex.c ****   * @param  SrcAddress The source memory Buffer address
 166:Drivers/STM32F4xx_HAL_Driver/Src/stm32f4xx_hal_dma_ex.c ****   * @param  DstAddress The destination memory Buffer address
 167:Drivers/STM32F4xx_HAL_Driver/Src/stm32f4xx_hal_dma_ex.c ****   * @param  SecondMemAddress The second memory Buffer address in case of multi buffer Transfer  
 168:Drivers/STM32F4xx_HAL_Driver/Src/stm32f4xx_hal_dma_ex.c ****   * @param  DataLength The length of data to be transferred from source to destination
 169:Drivers/STM32F4xx_HAL_Driver/Src/stm32f4xx_hal_dma_ex.c ****   * @retval HAL status
 170:Drivers/STM32F4xx_HAL_Driver/Src/stm32f4xx_hal_dma_ex.c ****   */
 171:Drivers/STM32F4xx_HAL_Driver/Src/stm32f4xx_hal_dma_ex.c **** HAL_StatusTypeDef HAL_DMAEx_MultiBufferStart_IT(DMA_HandleTypeDef *hdma, uint32_t SrcAddress, uint3
 172:Drivers/STM32F4xx_HAL_Driver/Src/stm32f4xx_hal_dma_ex.c **** {
 173:Drivers/STM32F4xx_HAL_Driver/Src/stm32f4xx_hal_dma_ex.c ****   HAL_StatusTypeDef status = HAL_OK;
 174:Drivers/STM32F4xx_HAL_Driver/Src/stm32f4xx_hal_dma_ex.c ****   
 175:Drivers/STM32F4xx_HAL_Driver/Src/stm32f4xx_hal_dma_ex.c ****   /* Check the parameters */
 176:Drivers/STM32F4xx_HAL_Driver/Src/stm32f4xx_hal_dma_ex.c ****   assert_param(IS_DMA_BUFFER_SIZE(DataLength));
 177:Drivers/STM32F4xx_HAL_Driver/Src/stm32f4xx_hal_dma_ex.c ****   
 178:Drivers/STM32F4xx_HAL_Driver/Src/stm32f4xx_hal_dma_ex.c ****   /* Memory-to-memory transfer not supported in double buffering mode */
 179:Drivers/STM32F4xx_HAL_Driver/Src/stm32f4xx_hal_dma_ex.c ****   if (hdma->Init.Direction == DMA_MEMORY_TO_MEMORY)
 180:Drivers/STM32F4xx_HAL_Driver/Src/stm32f4xx_hal_dma_ex.c ****   {
 181:Drivers/STM32F4xx_HAL_Driver/Src/stm32f4xx_hal_dma_ex.c ****     hdma->ErrorCode = HAL_DMA_ERROR_NOT_SUPPORTED;
 182:Drivers/STM32F4xx_HAL_Driver/Src/stm32f4xx_hal_dma_ex.c ****     return HAL_ERROR;
 183:Drivers/STM32F4xx_HAL_Driver/Src/stm32f4xx_hal_dma_ex.c ****   }
 184:Drivers/STM32F4xx_HAL_Driver/Src/stm32f4xx_hal_dma_ex.c ****   
 185:Drivers/STM32F4xx_HAL_Driver/Src/stm32f4xx_hal_dma_ex.c ****   /* Check callback functions */
 186:Drivers/STM32F4xx_HAL_Driver/Src/stm32f4xx_hal_dma_ex.c ****   if ((NULL == hdma->XferCpltCallback) || (NULL == hdma->XferM1CpltCallback) || (NULL == hdma->Xfer
 187:Drivers/STM32F4xx_HAL_Driver/Src/stm32f4xx_hal_dma_ex.c ****   {
 188:Drivers/STM32F4xx_HAL_Driver/Src/stm32f4xx_hal_dma_ex.c ****     hdma->ErrorCode = HAL_DMA_ERROR_PARAM;
 189:Drivers/STM32F4xx_HAL_Driver/Src/stm32f4xx_hal_dma_ex.c ****     return HAL_ERROR;
 190:Drivers/STM32F4xx_HAL_Driver/Src/stm32f4xx_hal_dma_ex.c ****   }
 191:Drivers/STM32F4xx_HAL_Driver/Src/stm32f4xx_hal_dma_ex.c ****   
 192:Drivers/STM32F4xx_HAL_Driver/Src/stm32f4xx_hal_dma_ex.c ****   /* Process locked */
 193:Drivers/STM32F4xx_HAL_Driver/Src/stm32f4xx_hal_dma_ex.c ****   __HAL_LOCK(hdma);
 194:Drivers/STM32F4xx_HAL_Driver/Src/stm32f4xx_hal_dma_ex.c ****   
 195:Drivers/STM32F4xx_HAL_Driver/Src/stm32f4xx_hal_dma_ex.c ****   if(HAL_DMA_STATE_READY == hdma->State)
ARM GAS  C:\Users\Prashant\AppData\Local\Temp\ccBE48rQ.s 			page 6


 196:Drivers/STM32F4xx_HAL_Driver/Src/stm32f4xx_hal_dma_ex.c ****   {
 197:Drivers/STM32F4xx_HAL_Driver/Src/stm32f4xx_hal_dma_ex.c ****     /* Change DMA peripheral state */
 198:Drivers/STM32F4xx_HAL_Driver/Src/stm32f4xx_hal_dma_ex.c ****     hdma->State = HAL_DMA_STATE_BUSY;
 199:Drivers/STM32F4xx_HAL_Driver/Src/stm32f4xx_hal_dma_ex.c ****     
 200:Drivers/STM32F4xx_HAL_Driver/Src/stm32f4xx_hal_dma_ex.c ****     /* Initialize the error code */
 201:Drivers/STM32F4xx_HAL_Driver/Src/stm32f4xx_hal_dma_ex.c ****     hdma->ErrorCode = HAL_DMA_ERROR_NONE;
 202:Drivers/STM32F4xx_HAL_Driver/Src/stm32f4xx_hal_dma_ex.c ****     
 203:Drivers/STM32F4xx_HAL_Driver/Src/stm32f4xx_hal_dma_ex.c ****     /* Enable the Double buffer mode */
 204:Drivers/STM32F4xx_HAL_Driver/Src/stm32f4xx_hal_dma_ex.c ****     hdma->Instance->CR |= (uint32_t)DMA_SxCR_DBM;
 205:Drivers/STM32F4xx_HAL_Driver/Src/stm32f4xx_hal_dma_ex.c ****     
 206:Drivers/STM32F4xx_HAL_Driver/Src/stm32f4xx_hal_dma_ex.c ****     /* Configure DMA Stream destination address */
 207:Drivers/STM32F4xx_HAL_Driver/Src/stm32f4xx_hal_dma_ex.c ****     hdma->Instance->M1AR = SecondMemAddress;
 208:Drivers/STM32F4xx_HAL_Driver/Src/stm32f4xx_hal_dma_ex.c ****     
 209:Drivers/STM32F4xx_HAL_Driver/Src/stm32f4xx_hal_dma_ex.c ****     /* Configure the source, destination address and the data length */
 210:Drivers/STM32F4xx_HAL_Driver/Src/stm32f4xx_hal_dma_ex.c ****     DMA_MultiBufferSetConfig(hdma, SrcAddress, DstAddress, DataLength); 
 211:Drivers/STM32F4xx_HAL_Driver/Src/stm32f4xx_hal_dma_ex.c ****     
 212:Drivers/STM32F4xx_HAL_Driver/Src/stm32f4xx_hal_dma_ex.c ****     /* Clear all flags */
 213:Drivers/STM32F4xx_HAL_Driver/Src/stm32f4xx_hal_dma_ex.c ****     __HAL_DMA_CLEAR_FLAG (hdma, __HAL_DMA_GET_TC_FLAG_INDEX(hdma));
 214:Drivers/STM32F4xx_HAL_Driver/Src/stm32f4xx_hal_dma_ex.c ****     __HAL_DMA_CLEAR_FLAG (hdma, __HAL_DMA_GET_HT_FLAG_INDEX(hdma));
 215:Drivers/STM32F4xx_HAL_Driver/Src/stm32f4xx_hal_dma_ex.c ****     __HAL_DMA_CLEAR_FLAG (hdma, __HAL_DMA_GET_TE_FLAG_INDEX(hdma));
 216:Drivers/STM32F4xx_HAL_Driver/Src/stm32f4xx_hal_dma_ex.c ****     __HAL_DMA_CLEAR_FLAG (hdma, __HAL_DMA_GET_DME_FLAG_INDEX(hdma));
 217:Drivers/STM32F4xx_HAL_Driver/Src/stm32f4xx_hal_dma_ex.c ****     __HAL_DMA_CLEAR_FLAG (hdma, __HAL_DMA_GET_FE_FLAG_INDEX(hdma));
 218:Drivers/STM32F4xx_HAL_Driver/Src/stm32f4xx_hal_dma_ex.c **** 
 219:Drivers/STM32F4xx_HAL_Driver/Src/stm32f4xx_hal_dma_ex.c ****     /* Enable Common interrupts*/
 220:Drivers/STM32F4xx_HAL_Driver/Src/stm32f4xx_hal_dma_ex.c ****     hdma->Instance->CR  |= DMA_IT_TC | DMA_IT_TE | DMA_IT_DME;
 221:Drivers/STM32F4xx_HAL_Driver/Src/stm32f4xx_hal_dma_ex.c ****     hdma->Instance->FCR |= DMA_IT_FE;
 222:Drivers/STM32F4xx_HAL_Driver/Src/stm32f4xx_hal_dma_ex.c ****     
 223:Drivers/STM32F4xx_HAL_Driver/Src/stm32f4xx_hal_dma_ex.c ****     if((hdma->XferHalfCpltCallback != NULL) || (hdma->XferM1HalfCpltCallback != NULL))
 224:Drivers/STM32F4xx_HAL_Driver/Src/stm32f4xx_hal_dma_ex.c ****     {
 225:Drivers/STM32F4xx_HAL_Driver/Src/stm32f4xx_hal_dma_ex.c ****       hdma->Instance->CR  |= DMA_IT_HT;
 226:Drivers/STM32F4xx_HAL_Driver/Src/stm32f4xx_hal_dma_ex.c ****     }
 227:Drivers/STM32F4xx_HAL_Driver/Src/stm32f4xx_hal_dma_ex.c ****     
 228:Drivers/STM32F4xx_HAL_Driver/Src/stm32f4xx_hal_dma_ex.c ****     /* Enable the peripheral */
 229:Drivers/STM32F4xx_HAL_Driver/Src/stm32f4xx_hal_dma_ex.c ****     __HAL_DMA_ENABLE(hdma); 
 230:Drivers/STM32F4xx_HAL_Driver/Src/stm32f4xx_hal_dma_ex.c ****   }
 231:Drivers/STM32F4xx_HAL_Driver/Src/stm32f4xx_hal_dma_ex.c ****   else
 232:Drivers/STM32F4xx_HAL_Driver/Src/stm32f4xx_hal_dma_ex.c ****   {     
 233:Drivers/STM32F4xx_HAL_Driver/Src/stm32f4xx_hal_dma_ex.c ****     /* Process unlocked */
 234:Drivers/STM32F4xx_HAL_Driver/Src/stm32f4xx_hal_dma_ex.c ****     __HAL_UNLOCK(hdma);	  
 235:Drivers/STM32F4xx_HAL_Driver/Src/stm32f4xx_hal_dma_ex.c ****     
 236:Drivers/STM32F4xx_HAL_Driver/Src/stm32f4xx_hal_dma_ex.c ****     /* Return error status */
 237:Drivers/STM32F4xx_HAL_Driver/Src/stm32f4xx_hal_dma_ex.c ****     status = HAL_BUSY;
 238:Drivers/STM32F4xx_HAL_Driver/Src/stm32f4xx_hal_dma_ex.c ****   }  
 239:Drivers/STM32F4xx_HAL_Driver/Src/stm32f4xx_hal_dma_ex.c ****   return status; 
 240:Drivers/STM32F4xx_HAL_Driver/Src/stm32f4xx_hal_dma_ex.c **** }
 241:Drivers/STM32F4xx_HAL_Driver/Src/stm32f4xx_hal_dma_ex.c **** 
 242:Drivers/STM32F4xx_HAL_Driver/Src/stm32f4xx_hal_dma_ex.c **** /**
 243:Drivers/STM32F4xx_HAL_Driver/Src/stm32f4xx_hal_dma_ex.c ****   * @brief  Change the memory0 or memory1 address on the fly.
 244:Drivers/STM32F4xx_HAL_Driver/Src/stm32f4xx_hal_dma_ex.c ****   * @param  hdma       pointer to a DMA_HandleTypeDef structure that contains
 245:Drivers/STM32F4xx_HAL_Driver/Src/stm32f4xx_hal_dma_ex.c ****   *                     the configuration information for the specified DMA Stream.  
 246:Drivers/STM32F4xx_HAL_Driver/Src/stm32f4xx_hal_dma_ex.c ****   * @param  Address    The new address
 247:Drivers/STM32F4xx_HAL_Driver/Src/stm32f4xx_hal_dma_ex.c ****   * @param  memory     the memory to be changed, This parameter can be one of 
 248:Drivers/STM32F4xx_HAL_Driver/Src/stm32f4xx_hal_dma_ex.c ****   *                     the following values:
 249:Drivers/STM32F4xx_HAL_Driver/Src/stm32f4xx_hal_dma_ex.c ****   *                      MEMORY0 /
 250:Drivers/STM32F4xx_HAL_Driver/Src/stm32f4xx_hal_dma_ex.c ****   *                      MEMORY1
 251:Drivers/STM32F4xx_HAL_Driver/Src/stm32f4xx_hal_dma_ex.c ****   * @note   The MEMORY0 address can be changed only when the current transfer use
 252:Drivers/STM32F4xx_HAL_Driver/Src/stm32f4xx_hal_dma_ex.c ****   *         MEMORY1 and the MEMORY1 address can be changed only when the current 
ARM GAS  C:\Users\Prashant\AppData\Local\Temp\ccBE48rQ.s 			page 7


 253:Drivers/STM32F4xx_HAL_Driver/Src/stm32f4xx_hal_dma_ex.c ****   *         transfer use MEMORY0.
 254:Drivers/STM32F4xx_HAL_Driver/Src/stm32f4xx_hal_dma_ex.c ****   * @retval HAL status
 255:Drivers/STM32F4xx_HAL_Driver/Src/stm32f4xx_hal_dma_ex.c ****   */
 256:Drivers/STM32F4xx_HAL_Driver/Src/stm32f4xx_hal_dma_ex.c **** HAL_StatusTypeDef HAL_DMAEx_ChangeMemory(DMA_HandleTypeDef *hdma, uint32_t Address, HAL_DMA_MemoryT
 257:Drivers/STM32F4xx_HAL_Driver/Src/stm32f4xx_hal_dma_ex.c **** {
 258:Drivers/STM32F4xx_HAL_Driver/Src/stm32f4xx_hal_dma_ex.c ****   if(memory == MEMORY0)
 259:Drivers/STM32F4xx_HAL_Driver/Src/stm32f4xx_hal_dma_ex.c ****   {
 260:Drivers/STM32F4xx_HAL_Driver/Src/stm32f4xx_hal_dma_ex.c ****     /* change the memory0 address */
 261:Drivers/STM32F4xx_HAL_Driver/Src/stm32f4xx_hal_dma_ex.c ****     hdma->Instance->M0AR = Address;
 262:Drivers/STM32F4xx_HAL_Driver/Src/stm32f4xx_hal_dma_ex.c ****   }
 263:Drivers/STM32F4xx_HAL_Driver/Src/stm32f4xx_hal_dma_ex.c ****   else
 264:Drivers/STM32F4xx_HAL_Driver/Src/stm32f4xx_hal_dma_ex.c ****   {
 265:Drivers/STM32F4xx_HAL_Driver/Src/stm32f4xx_hal_dma_ex.c ****     /* change the memory1 address */
 266:Drivers/STM32F4xx_HAL_Driver/Src/stm32f4xx_hal_dma_ex.c ****     hdma->Instance->M1AR = Address;
 267:Drivers/STM32F4xx_HAL_Driver/Src/stm32f4xx_hal_dma_ex.c ****   }
 268:Drivers/STM32F4xx_HAL_Driver/Src/stm32f4xx_hal_dma_ex.c **** 
 269:Drivers/STM32F4xx_HAL_Driver/Src/stm32f4xx_hal_dma_ex.c ****   return HAL_OK;
 270:Drivers/STM32F4xx_HAL_Driver/Src/stm32f4xx_hal_dma_ex.c **** }
 271:Drivers/STM32F4xx_HAL_Driver/Src/stm32f4xx_hal_dma_ex.c **** 
 272:Drivers/STM32F4xx_HAL_Driver/Src/stm32f4xx_hal_dma_ex.c **** /**
 273:Drivers/STM32F4xx_HAL_Driver/Src/stm32f4xx_hal_dma_ex.c ****   * @}
 274:Drivers/STM32F4xx_HAL_Driver/Src/stm32f4xx_hal_dma_ex.c ****   */
 275:Drivers/STM32F4xx_HAL_Driver/Src/stm32f4xx_hal_dma_ex.c **** 
 276:Drivers/STM32F4xx_HAL_Driver/Src/stm32f4xx_hal_dma_ex.c **** /**
 277:Drivers/STM32F4xx_HAL_Driver/Src/stm32f4xx_hal_dma_ex.c ****   * @}
 278:Drivers/STM32F4xx_HAL_Driver/Src/stm32f4xx_hal_dma_ex.c ****   */
 279:Drivers/STM32F4xx_HAL_Driver/Src/stm32f4xx_hal_dma_ex.c **** 
 280:Drivers/STM32F4xx_HAL_Driver/Src/stm32f4xx_hal_dma_ex.c **** /** @addtogroup DMAEx_Private_Functions
 281:Drivers/STM32F4xx_HAL_Driver/Src/stm32f4xx_hal_dma_ex.c ****   * @{
 282:Drivers/STM32F4xx_HAL_Driver/Src/stm32f4xx_hal_dma_ex.c ****   */
 283:Drivers/STM32F4xx_HAL_Driver/Src/stm32f4xx_hal_dma_ex.c **** 
 284:Drivers/STM32F4xx_HAL_Driver/Src/stm32f4xx_hal_dma_ex.c **** /**
 285:Drivers/STM32F4xx_HAL_Driver/Src/stm32f4xx_hal_dma_ex.c ****   * @brief  Set the DMA Transfer parameter.
 286:Drivers/STM32F4xx_HAL_Driver/Src/stm32f4xx_hal_dma_ex.c ****   * @param  hdma       pointer to a DMA_HandleTypeDef structure that contains
 287:Drivers/STM32F4xx_HAL_Driver/Src/stm32f4xx_hal_dma_ex.c ****   *                     the configuration information for the specified DMA Stream.  
 288:Drivers/STM32F4xx_HAL_Driver/Src/stm32f4xx_hal_dma_ex.c ****   * @param  SrcAddress The source memory Buffer address
 289:Drivers/STM32F4xx_HAL_Driver/Src/stm32f4xx_hal_dma_ex.c ****   * @param  DstAddress The destination memory Buffer address
 290:Drivers/STM32F4xx_HAL_Driver/Src/stm32f4xx_hal_dma_ex.c ****   * @param  DataLength The length of data to be transferred from source to destination
 291:Drivers/STM32F4xx_HAL_Driver/Src/stm32f4xx_hal_dma_ex.c ****   * @retval HAL status
 292:Drivers/STM32F4xx_HAL_Driver/Src/stm32f4xx_hal_dma_ex.c ****   */
 293:Drivers/STM32F4xx_HAL_Driver/Src/stm32f4xx_hal_dma_ex.c **** static void DMA_MultiBufferSetConfig(DMA_HandleTypeDef *hdma, uint32_t SrcAddress, uint32_t DstAddr
 294:Drivers/STM32F4xx_HAL_Driver/Src/stm32f4xx_hal_dma_ex.c **** {  
 295:Drivers/STM32F4xx_HAL_Driver/Src/stm32f4xx_hal_dma_ex.c ****   /* Configure DMA Stream data length */
 296:Drivers/STM32F4xx_HAL_Driver/Src/stm32f4xx_hal_dma_ex.c ****   hdma->Instance->NDTR = DataLength;
 297:Drivers/STM32F4xx_HAL_Driver/Src/stm32f4xx_hal_dma_ex.c ****   
 298:Drivers/STM32F4xx_HAL_Driver/Src/stm32f4xx_hal_dma_ex.c ****   /* Peripheral to Memory */
 299:Drivers/STM32F4xx_HAL_Driver/Src/stm32f4xx_hal_dma_ex.c ****   if((hdma->Init.Direction) == DMA_MEMORY_TO_PERIPH)
  88              		.loc 1 299 0
  89 003e 4028     		cmp	r0, #64
  90              	.LBE7:
  91              	.LBE6:
 141:Drivers/STM32F4xx_HAL_Driver/Src/stm32f4xx_hal_dma_ex.c ****       
  92              		.loc 1 141 0
  93 0040 43F48023 		orr	r3, r3, #262144
  94 0044 0B60     		str	r3, [r1]
 144:Drivers/STM32F4xx_HAL_Driver/Src/stm32f4xx_hal_dma_ex.c ****       
  95              		.loc 1 144 0
ARM GAS  C:\Users\Prashant\AppData\Local\Temp\ccBE48rQ.s 			page 8


  96 0046 C1F810A0 		str	r10, [r1, #16]
  97              	.LVL3:
  98              	.LBB9:
  99              	.LBB8:
 296:Drivers/STM32F4xx_HAL_Driver/Src/stm32f4xx_hal_dma_ex.c ****   
 100              		.loc 1 296 0
 101 004a 4D60     		str	r5, [r1, #4]
 300:Drivers/STM32F4xx_HAL_Driver/Src/stm32f4xx_hal_dma_ex.c ****   {   
 301:Drivers/STM32F4xx_HAL_Driver/Src/stm32f4xx_hal_dma_ex.c ****     /* Configure DMA Stream destination address */
 302:Drivers/STM32F4xx_HAL_Driver/Src/stm32f4xx_hal_dma_ex.c ****     hdma->Instance->PAR = DstAddress;
 102              		.loc 1 302 0
 103 004c 0BBF     		itete	eq
 104 004e C1F80890 		streq	r9, [r1, #8]
 303:Drivers/STM32F4xx_HAL_Driver/Src/stm32f4xx_hal_dma_ex.c ****     
 304:Drivers/STM32F4xx_HAL_Driver/Src/stm32f4xx_hal_dma_ex.c ****     /* Configure DMA Stream source address */
 305:Drivers/STM32F4xx_HAL_Driver/Src/stm32f4xx_hal_dma_ex.c ****     hdma->Instance->M0AR = SrcAddress;
 306:Drivers/STM32F4xx_HAL_Driver/Src/stm32f4xx_hal_dma_ex.c ****   }
 307:Drivers/STM32F4xx_HAL_Driver/Src/stm32f4xx_hal_dma_ex.c ****   /* Memory to Peripheral */
 308:Drivers/STM32F4xx_HAL_Driver/Src/stm32f4xx_hal_dma_ex.c ****   else
 309:Drivers/STM32F4xx_HAL_Driver/Src/stm32f4xx_hal_dma_ex.c ****   {
 310:Drivers/STM32F4xx_HAL_Driver/Src/stm32f4xx_hal_dma_ex.c ****     /* Configure DMA Stream source address */
 311:Drivers/STM32F4xx_HAL_Driver/Src/stm32f4xx_hal_dma_ex.c ****     hdma->Instance->PAR = SrcAddress;
 105              		.loc 1 311 0
 106 0052 C1F80880 		strne	r8, [r1, #8]
 305:Drivers/STM32F4xx_HAL_Driver/Src/stm32f4xx_hal_dma_ex.c ****   }
 107              		.loc 1 305 0
 108 0056 C1F80C80 		streq	r8, [r1, #12]
 312:Drivers/STM32F4xx_HAL_Driver/Src/stm32f4xx_hal_dma_ex.c ****     
 313:Drivers/STM32F4xx_HAL_Driver/Src/stm32f4xx_hal_dma_ex.c ****     /* Configure DMA Stream destination address */
 314:Drivers/STM32F4xx_HAL_Driver/Src/stm32f4xx_hal_dma_ex.c ****     hdma->Instance->M0AR = DstAddress;
 109              		.loc 1 314 0
 110 005a C1F80C90 		strne	r9, [r1, #12]
 111              	.LVL4:
 112              	.LBE8:
 113              	.LBE9:
 150:Drivers/STM32F4xx_HAL_Driver/Src/stm32f4xx_hal_dma_ex.c ****     }
 114              		.loc 1 150 0
 115 005e 0B68     		ldr	r3, [r1]
 116 0060 43F00103 		orr	r3, r3, #1
 117 0064 0B60     		str	r3, [r1]
 119:Drivers/STM32F4xx_HAL_Driver/Src/stm32f4xx_hal_dma_ex.c ****   
 118              		.loc 1 119 0
 119 0066 0020     		movs	r0, #0
 159:Drivers/STM32F4xx_HAL_Driver/Src/stm32f4xx_hal_dma_ex.c **** 
 120              		.loc 1 159 0
 121 0068 BDE8F087 		pop	{r4, r5, r6, r7, r8, r9, r10, pc}
 122              	.LVL5:
 123              	.L6:
 133:Drivers/STM32F4xx_HAL_Driver/Src/stm32f4xx_hal_dma_ex.c ****     
 124              		.loc 1 133 0
 125 006c 0220     		movs	r0, #2
 159:Drivers/STM32F4xx_HAL_Driver/Src/stm32f4xx_hal_dma_ex.c **** 
 126              		.loc 1 159 0
 127 006e BDE8F087 		pop	{r4, r5, r6, r7, r8, r9, r10, pc}
 128              	.LVL6:
 129              	.L11:
 122:Drivers/STM32F4xx_HAL_Driver/Src/stm32f4xx_hal_dma_ex.c ****   
ARM GAS  C:\Users\Prashant\AppData\Local\Temp\ccBE48rQ.s 			page 9


 130              		.loc 1 122 0 discriminator 1
 131 0072 0648     		ldr	r0, .L13
 132              	.LVL7:
 133 0074 7A21     		movs	r1, #122
 134              	.LVL8:
 135 0076 FFF7FEFF 		bl	assert_failed
 136              	.LVL9:
 125:Drivers/STM32F4xx_HAL_Driver/Src/stm32f4xx_hal_dma_ex.c ****   {
 137              		.loc 1 125 0 discriminator 1
 138 007a A068     		ldr	r0, [r4, #8]
 139 007c 8028     		cmp	r0, #128
 140 007e CED1     		bne	.L3
 141              	.L12:
 127:Drivers/STM32F4xx_HAL_Driver/Src/stm32f4xx_hal_dma_ex.c ****     status = HAL_ERROR;
 142              		.loc 1 127 0
 143 0080 4FF48073 		mov	r3, #256
 144 0084 6365     		str	r3, [r4, #84]
 145              	.LVL10:
 128:Drivers/STM32F4xx_HAL_Driver/Src/stm32f4xx_hal_dma_ex.c ****   }
 146              		.loc 1 128 0
 147 0086 0120     		movs	r0, #1
 159:Drivers/STM32F4xx_HAL_Driver/Src/stm32f4xx_hal_dma_ex.c **** 
 148              		.loc 1 159 0
 149 0088 BDE8F087 		pop	{r4, r5, r6, r7, r8, r9, r10, pc}
 150              	.LVL11:
 151              	.L14:
 152              		.align	2
 153              	.L13:
 154 008c 00000000 		.word	.LC0
 155              		.cfi_endproc
 156              	.LFE126:
 158              		.section	.text.HAL_DMAEx_MultiBufferStart_IT,"ax",%progbits
 159              		.align	1
 160              		.p2align 2,,3
 161              		.global	HAL_DMAEx_MultiBufferStart_IT
 162              		.syntax unified
 163              		.thumb
 164              		.thumb_func
 165              		.fpu fpv4-sp-d16
 167              	HAL_DMAEx_MultiBufferStart_IT:
 168              	.LFB127:
 172:Drivers/STM32F4xx_HAL_Driver/Src/stm32f4xx_hal_dma_ex.c ****   HAL_StatusTypeDef status = HAL_OK;
 169              		.loc 1 172 0
 170              		.cfi_startproc
 171              		@ args = 4, pretend = 0, frame = 0
 172              		@ frame_needed = 0, uses_anonymous_args = 0
 173              	.LVL12:
 174 0000 2DE9F047 		push	{r4, r5, r6, r7, r8, r9, r10, lr}
 175              	.LCFI1:
 176              		.cfi_def_cfa_offset 32
 177              		.cfi_offset 4, -32
 178              		.cfi_offset 5, -28
 179              		.cfi_offset 6, -24
 180              		.cfi_offset 7, -20
 181              		.cfi_offset 8, -16
 182              		.cfi_offset 9, -12
 183              		.cfi_offset 10, -8
ARM GAS  C:\Users\Prashant\AppData\Local\Temp\ccBE48rQ.s 			page 10


 184              		.cfi_offset 14, -4
 172:Drivers/STM32F4xx_HAL_Driver/Src/stm32f4xx_hal_dma_ex.c ****   HAL_StatusTypeDef status = HAL_OK;
 185              		.loc 1 172 0
 186 0004 089D     		ldr	r5, [sp, #32]
 176:Drivers/STM32F4xx_HAL_Driver/Src/stm32f4xx_hal_dma_ex.c ****   
 187              		.loc 1 176 0
 188 0006 4FF6FE76 		movw	r6, #65534
 189 000a 6F1E     		subs	r7, r5, #1
 190 000c B742     		cmp	r7, r6
 172:Drivers/STM32F4xx_HAL_Driver/Src/stm32f4xx_hal_dma_ex.c ****   HAL_StatusTypeDef status = HAL_OK;
 191              		.loc 1 172 0
 192 000e 0446     		mov	r4, r0
 193 0010 8846     		mov	r8, r1
 194 0012 9146     		mov	r9, r2
 195 0014 9A46     		mov	r10, r3
 176:Drivers/STM32F4xx_HAL_Driver/Src/stm32f4xx_hal_dma_ex.c ****   
 196              		.loc 1 176 0
 197 0016 00F2A080 		bhi	.L190
 179:Drivers/STM32F4xx_HAL_Driver/Src/stm32f4xx_hal_dma_ex.c ****   {
 198              		.loc 1 179 0
 199 001a A068     		ldr	r0, [r4, #8]
 200              	.LVL13:
 201 001c 8028     		cmp	r0, #128
 202 001e 00F0A480 		beq	.L191
 203              	.LVL14:
 204              	.L17:
 186:Drivers/STM32F4xx_HAL_Driver/Src/stm32f4xx_hal_dma_ex.c ****   {
 205              		.loc 1 186 0
 206 0022 E16B     		ldr	r1, [r4, #60]
 207 0024 0029     		cmp	r1, #0
 208 0026 00F09380 		beq	.L19
 186:Drivers/STM32F4xx_HAL_Driver/Src/stm32f4xx_hal_dma_ex.c ****   {
 209              		.loc 1 186 0 is_stmt 0 discriminator 1
 210 002a 636C     		ldr	r3, [r4, #68]
 211 002c 002B     		cmp	r3, #0
 212 002e 00F08F80 		beq	.L19
 186:Drivers/STM32F4xx_HAL_Driver/Src/stm32f4xx_hal_dma_ex.c ****   {
 213              		.loc 1 186 0 discriminator 2
 214 0032 E36C     		ldr	r3, [r4, #76]
 215 0034 002B     		cmp	r3, #0
 216 0036 00F08B80 		beq	.L19
 193:Drivers/STM32F4xx_HAL_Driver/Src/stm32f4xx_hal_dma_ex.c ****   
 217              		.loc 1 193 0 is_stmt 1
 218 003a 94F83430 		ldrb	r3, [r4, #52]	@ zero_extendqisi2
 219 003e 012B     		cmp	r3, #1
 220 0040 00F06181 		beq	.L134
 195:Drivers/STM32F4xx_HAL_Driver/Src/stm32f4xx_hal_dma_ex.c ****   {
 221              		.loc 1 195 0 discriminator 2
 222 0044 94F83530 		ldrb	r3, [r4, #53]	@ zero_extendqisi2
 193:Drivers/STM32F4xx_HAL_Driver/Src/stm32f4xx_hal_dma_ex.c ****   
 223              		.loc 1 193 0 discriminator 2
 224 0048 0122     		movs	r2, #1
 195:Drivers/STM32F4xx_HAL_Driver/Src/stm32f4xx_hal_dma_ex.c ****   {
 225              		.loc 1 195 0 discriminator 2
 226 004a 9342     		cmp	r3, r2
 193:Drivers/STM32F4xx_HAL_Driver/Src/stm32f4xx_hal_dma_ex.c ****   
 227              		.loc 1 193 0 discriminator 2
ARM GAS  C:\Users\Prashant\AppData\Local\Temp\ccBE48rQ.s 			page 11


 228 004c 84F83420 		strb	r2, [r4, #52]
 195:Drivers/STM32F4xx_HAL_Driver/Src/stm32f4xx_hal_dma_ex.c ****   {
 229              		.loc 1 195 0 discriminator 2
 230 0050 40F09180 		bne	.L21
 204:Drivers/STM32F4xx_HAL_Driver/Src/stm32f4xx_hal_dma_ex.c ****     
 231              		.loc 1 204 0
 232 0054 2168     		ldr	r1, [r4]
 201:Drivers/STM32F4xx_HAL_Driver/Src/stm32f4xx_hal_dma_ex.c ****     
 233              		.loc 1 201 0
 234 0056 0023     		movs	r3, #0
 198:Drivers/STM32F4xx_HAL_Driver/Src/stm32f4xx_hal_dma_ex.c ****     
 235              		.loc 1 198 0
 236 0058 0222     		movs	r2, #2
 237 005a 84F83520 		strb	r2, [r4, #53]
 201:Drivers/STM32F4xx_HAL_Driver/Src/stm32f4xx_hal_dma_ex.c ****     
 238              		.loc 1 201 0
 239 005e 6365     		str	r3, [r4, #84]
 204:Drivers/STM32F4xx_HAL_Driver/Src/stm32f4xx_hal_dma_ex.c ****     
 240              		.loc 1 204 0
 241 0060 0B68     		ldr	r3, [r1]
 242 0062 43F48023 		orr	r3, r3, #262144
 243 0066 0B60     		str	r3, [r1]
 213:Drivers/STM32F4xx_HAL_Driver/Src/stm32f4xx_hal_dma_ex.c ****     __HAL_DMA_CLEAR_FLAG (hdma, __HAL_DMA_GET_HT_FLAG_INDEX(hdma));
 244              		.loc 1 213 0
 245 0068 A84B     		ldr	r3, .L194
 207:Drivers/STM32F4xx_HAL_Driver/Src/stm32f4xx_hal_dma_ex.c ****     
 246              		.loc 1 207 0
 247 006a C1F810A0 		str	r10, [r1, #16]
 248              	.LVL15:
 249              	.LBB10:
 250              	.LBB11:
 299:Drivers/STM32F4xx_HAL_Driver/Src/stm32f4xx_hal_dma_ex.c ****   {   
 251              		.loc 1 299 0
 252 006e 4028     		cmp	r0, #64
 296:Drivers/STM32F4xx_HAL_Driver/Src/stm32f4xx_hal_dma_ex.c ****   
 253              		.loc 1 296 0
 254 0070 4D60     		str	r5, [r1, #4]
 302:Drivers/STM32F4xx_HAL_Driver/Src/stm32f4xx_hal_dma_ex.c ****     
 255              		.loc 1 302 0
 256 0072 0BBF     		itete	eq
 257 0074 C1F80890 		streq	r9, [r1, #8]
 311:Drivers/STM32F4xx_HAL_Driver/Src/stm32f4xx_hal_dma_ex.c ****     
 258              		.loc 1 311 0
 259 0078 C1F80880 		strne	r8, [r1, #8]
 305:Drivers/STM32F4xx_HAL_Driver/Src/stm32f4xx_hal_dma_ex.c ****   }
 260              		.loc 1 305 0
 261 007c C1F80C80 		streq	r8, [r1, #12]
 262              		.loc 1 314 0
 263 0080 C1F80C90 		strne	r9, [r1, #12]
 264              	.LVL16:
 265              	.LBE11:
 266              	.LBE10:
 213:Drivers/STM32F4xx_HAL_Driver/Src/stm32f4xx_hal_dma_ex.c ****     __HAL_DMA_CLEAR_FLAG (hdma, __HAL_DMA_GET_HT_FLAG_INDEX(hdma));
 267              		.loc 1 213 0
 268 0084 9942     		cmp	r1, r3
 269 0086 7CD9     		bls	.L24
 213:Drivers/STM32F4xx_HAL_Driver/Src/stm32f4xx_hal_dma_ex.c ****     __HAL_DMA_CLEAR_FLAG (hdma, __HAL_DMA_GET_HT_FLAG_INDEX(hdma));
ARM GAS  C:\Users\Prashant\AppData\Local\Temp\ccBE48rQ.s 			page 12


 270              		.loc 1 213 0 is_stmt 0 discriminator 1
 271 0088 A3F58963 		sub	r3, r3, #1096
 272 008c 9942     		cmp	r1, r3
 273 008e 00F00982 		beq	.L26
 213:Drivers/STM32F4xx_HAL_Driver/Src/stm32f4xx_hal_dma_ex.c ****     __HAL_DMA_CLEAR_FLAG (hdma, __HAL_DMA_GET_HT_FLAG_INDEX(hdma));
 274              		.loc 1 213 0 discriminator 3
 275 0092 03F58063 		add	r3, r3, #1024
 276 0096 9942     		cmp	r1, r3
 277 0098 00F00482 		beq	.L26
 213:Drivers/STM32F4xx_HAL_Driver/Src/stm32f4xx_hal_dma_ex.c ****     __HAL_DMA_CLEAR_FLAG (hdma, __HAL_DMA_GET_HT_FLAG_INDEX(hdma));
 278              		.loc 1 213 0 discriminator 5
 279 009c A3F56873 		sub	r3, r3, #928
 280 00a0 9942     		cmp	r1, r3
 281 00a2 00F0FF81 		beq	.L26
 213:Drivers/STM32F4xx_HAL_Driver/Src/stm32f4xx_hal_dma_ex.c ****     __HAL_DMA_CLEAR_FLAG (hdma, __HAL_DMA_GET_HT_FLAG_INDEX(hdma));
 282              		.loc 1 213 0 discriminator 7
 283 00a6 03F58063 		add	r3, r3, #1024
 284 00aa 9942     		cmp	r1, r3
 285 00ac 00F0FA81 		beq	.L26
 213:Drivers/STM32F4xx_HAL_Driver/Src/stm32f4xx_hal_dma_ex.c ****     __HAL_DMA_CLEAR_FLAG (hdma, __HAL_DMA_GET_HT_FLAG_INDEX(hdma));
 286              		.loc 1 213 0 discriminator 9
 287 00b0 A3F58963 		sub	r3, r3, #1096
 288 00b4 9942     		cmp	r1, r3
 289 00b6 00F0C782 		beq	.L32
 213:Drivers/STM32F4xx_HAL_Driver/Src/stm32f4xx_hal_dma_ex.c ****     __HAL_DMA_CLEAR_FLAG (hdma, __HAL_DMA_GET_HT_FLAG_INDEX(hdma));
 290              		.loc 1 213 0 discriminator 11
 291 00ba 03F58063 		add	r3, r3, #1024
 292 00be 9942     		cmp	r1, r3
 293 00c0 00F0C282 		beq	.L32
 213:Drivers/STM32F4xx_HAL_Driver/Src/stm32f4xx_hal_dma_ex.c ****     __HAL_DMA_CLEAR_FLAG (hdma, __HAL_DMA_GET_HT_FLAG_INDEX(hdma));
 294              		.loc 1 213 0 discriminator 13
 295 00c4 A3F56873 		sub	r3, r3, #928
 296 00c8 9942     		cmp	r1, r3
 297 00ca 00F0BD82 		beq	.L32
 213:Drivers/STM32F4xx_HAL_Driver/Src/stm32f4xx_hal_dma_ex.c ****     __HAL_DMA_CLEAR_FLAG (hdma, __HAL_DMA_GET_HT_FLAG_INDEX(hdma));
 298              		.loc 1 213 0 discriminator 15
 299 00ce 03F58063 		add	r3, r3, #1024
 300 00d2 9942     		cmp	r1, r3
 301 00d4 00F0B882 		beq	.L32
 213:Drivers/STM32F4xx_HAL_Driver/Src/stm32f4xx_hal_dma_ex.c ****     __HAL_DMA_CLEAR_FLAG (hdma, __HAL_DMA_GET_HT_FLAG_INDEX(hdma));
 302              		.loc 1 213 0 discriminator 17
 303 00d8 A3F58963 		sub	r3, r3, #1096
 304 00dc 9942     		cmp	r1, r3
 305 00de 00F03283 		beq	.L34
 213:Drivers/STM32F4xx_HAL_Driver/Src/stm32f4xx_hal_dma_ex.c ****     __HAL_DMA_CLEAR_FLAG (hdma, __HAL_DMA_GET_HT_FLAG_INDEX(hdma));
 306              		.loc 1 213 0 discriminator 19
 307 00e2 03F58063 		add	r3, r3, #1024
 308 00e6 9942     		cmp	r1, r3
 309 00e8 00F02D83 		beq	.L34
 213:Drivers/STM32F4xx_HAL_Driver/Src/stm32f4xx_hal_dma_ex.c ****     __HAL_DMA_CLEAR_FLAG (hdma, __HAL_DMA_GET_HT_FLAG_INDEX(hdma));
 310              		.loc 1 213 0 discriminator 21
 311 00ec A3F56873 		sub	r3, r3, #928
 312 00f0 9942     		cmp	r1, r3
 313 00f2 00F02883 		beq	.L34
 213:Drivers/STM32F4xx_HAL_Driver/Src/stm32f4xx_hal_dma_ex.c ****     __HAL_DMA_CLEAR_FLAG (hdma, __HAL_DMA_GET_HT_FLAG_INDEX(hdma));
 314              		.loc 1 213 0 discriminator 23
 315 00f6 03F58063 		add	r3, r3, #1024
ARM GAS  C:\Users\Prashant\AppData\Local\Temp\ccBE48rQ.s 			page 13


 316 00fa 9942     		cmp	r1, r3
 317 00fc 00F02383 		beq	.L34
 213:Drivers/STM32F4xx_HAL_Driver/Src/stm32f4xx_hal_dma_ex.c ****     __HAL_DMA_CLEAR_FLAG (hdma, __HAL_DMA_GET_HT_FLAG_INDEX(hdma));
 318              		.loc 1 213 0
 319 0100 834B     		ldr	r3, .L194+4
 320 0102 4FF00060 		mov	r0, #134217728
 321 0106 D860     		str	r0, [r3, #12]
 322              	.LVL17:
 215:Drivers/STM32F4xx_HAL_Driver/Src/stm32f4xx_hal_dma_ex.c ****     __HAL_DMA_CLEAR_FLAG (hdma, __HAL_DMA_GET_DME_FLAG_INDEX(hdma));
 323              		.loc 1 215 0 is_stmt 1
 324 0108 4FF00072 		mov	r2, #33554432
 214:Drivers/STM32F4xx_HAL_Driver/Src/stm32f4xx_hal_dma_ex.c ****     __HAL_DMA_CLEAR_FLAG (hdma, __HAL_DMA_GET_TE_FLAG_INDEX(hdma));
 325              		.loc 1 214 0
 326 010c 4FF08065 		mov	r5, #67108864
 216:Drivers/STM32F4xx_HAL_Driver/Src/stm32f4xx_hal_dma_ex.c ****     __HAL_DMA_CLEAR_FLAG (hdma, __HAL_DMA_GET_FE_FLAG_INDEX(hdma));
 327              		.loc 1 216 0
 328 0110 4FF08070 		mov	r0, #16777216
 214:Drivers/STM32F4xx_HAL_Driver/Src/stm32f4xx_hal_dma_ex.c ****     __HAL_DMA_CLEAR_FLAG (hdma, __HAL_DMA_GET_TE_FLAG_INDEX(hdma));
 329              		.loc 1 214 0
 330 0114 DD60     		str	r5, [r3, #12]
 215:Drivers/STM32F4xx_HAL_Driver/Src/stm32f4xx_hal_dma_ex.c ****     __HAL_DMA_CLEAR_FLAG (hdma, __HAL_DMA_GET_DME_FLAG_INDEX(hdma));
 331              		.loc 1 215 0
 332 0116 DA60     		str	r2, [r3, #12]
 217:Drivers/STM32F4xx_HAL_Driver/Src/stm32f4xx_hal_dma_ex.c **** 
 333              		.loc 1 217 0
 334 0118 4FF48002 		mov	r2, #4194304
 216:Drivers/STM32F4xx_HAL_Driver/Src/stm32f4xx_hal_dma_ex.c ****     __HAL_DMA_CLEAR_FLAG (hdma, __HAL_DMA_GET_FE_FLAG_INDEX(hdma));
 335              		.loc 1 216 0
 336 011c D860     		str	r0, [r3, #12]
 337              	.L118:
 217:Drivers/STM32F4xx_HAL_Driver/Src/stm32f4xx_hal_dma_ex.c **** 
 338              		.loc 1 217 0 discriminator 50
 339 011e 7C4B     		ldr	r3, .L194+4
 340 0120 DA60     		str	r2, [r3, #12]
 341              	.L112:
 220:Drivers/STM32F4xx_HAL_Driver/Src/stm32f4xx_hal_dma_ex.c ****     hdma->Instance->FCR |= DMA_IT_FE;
 342              		.loc 1 220 0
 343 0122 0B68     		ldr	r3, [r1]
 223:Drivers/STM32F4xx_HAL_Driver/Src/stm32f4xx_hal_dma_ex.c ****     {
 344              		.loc 1 223 0
 345 0124 226C     		ldr	r2, [r4, #64]
 220:Drivers/STM32F4xx_HAL_Driver/Src/stm32f4xx_hal_dma_ex.c ****     hdma->Instance->FCR |= DMA_IT_FE;
 346              		.loc 1 220 0
 347 0126 43F01603 		orr	r3, r3, #22
 348 012a 0B60     		str	r3, [r1]
 221:Drivers/STM32F4xx_HAL_Driver/Src/stm32f4xx_hal_dma_ex.c ****     
 349              		.loc 1 221 0
 350 012c 4B69     		ldr	r3, [r1, #20]
 351 012e 43F08003 		orr	r3, r3, #128
 352 0132 4B61     		str	r3, [r1, #20]
 223:Drivers/STM32F4xx_HAL_Driver/Src/stm32f4xx_hal_dma_ex.c ****     {
 353              		.loc 1 223 0
 354 0134 002A     		cmp	r2, #0
 355 0136 00F0C081 		beq	.L192
 356              	.L116:
 225:Drivers/STM32F4xx_HAL_Driver/Src/stm32f4xx_hal_dma_ex.c ****     }
 357              		.loc 1 225 0
ARM GAS  C:\Users\Prashant\AppData\Local\Temp\ccBE48rQ.s 			page 14


 358 013a 0B68     		ldr	r3, [r1]
 359 013c 43F00803 		orr	r3, r3, #8
 360 0140 0B60     		str	r3, [r1]
 361              	.L117:
 229:Drivers/STM32F4xx_HAL_Driver/Src/stm32f4xx_hal_dma_ex.c ****   }
 362              		.loc 1 229 0
 363 0142 0B68     		ldr	r3, [r1]
 364 0144 43F00103 		orr	r3, r3, #1
 365 0148 0B60     		str	r3, [r1]
 173:Drivers/STM32F4xx_HAL_Driver/Src/stm32f4xx_hal_dma_ex.c ****   
 366              		.loc 1 173 0
 367 014a 0020     		movs	r0, #0
 240:Drivers/STM32F4xx_HAL_Driver/Src/stm32f4xx_hal_dma_ex.c **** 
 368              		.loc 1 240 0
 369 014c BDE8F087 		pop	{r4, r5, r6, r7, r8, r9, r10, pc}
 370              	.LVL18:
 371              	.L19:
 188:Drivers/STM32F4xx_HAL_Driver/Src/stm32f4xx_hal_dma_ex.c ****     return HAL_ERROR;
 372              		.loc 1 188 0
 373 0150 4023     		movs	r3, #64
 374 0152 6365     		str	r3, [r4, #84]
 375              	.LVL19:
 189:Drivers/STM32F4xx_HAL_Driver/Src/stm32f4xx_hal_dma_ex.c ****   }
 376              		.loc 1 189 0
 377 0154 0120     		movs	r0, #1
 378              	.L174:
 240:Drivers/STM32F4xx_HAL_Driver/Src/stm32f4xx_hal_dma_ex.c **** 
 379              		.loc 1 240 0
 380 0156 BDE8F087 		pop	{r4, r5, r6, r7, r8, r9, r10, pc}
 381              	.LVL20:
 382              	.L190:
 176:Drivers/STM32F4xx_HAL_Driver/Src/stm32f4xx_hal_dma_ex.c ****   
 383              		.loc 1 176 0 discriminator 1
 384 015a 6E48     		ldr	r0, .L194+8
 385              	.LVL21:
 386 015c B021     		movs	r1, #176
 387              	.LVL22:
 388 015e FFF7FEFF 		bl	assert_failed
 389              	.LVL23:
 179:Drivers/STM32F4xx_HAL_Driver/Src/stm32f4xx_hal_dma_ex.c ****   {
 390              		.loc 1 179 0 discriminator 1
 391 0162 A068     		ldr	r0, [r4, #8]
 392 0164 8028     		cmp	r0, #128
 393 0166 7FF45CAF 		bne	.L17
 394              	.L191:
 181:Drivers/STM32F4xx_HAL_Driver/Src/stm32f4xx_hal_dma_ex.c ****     return HAL_ERROR;
 395              		.loc 1 181 0
 396 016a 4FF48073 		mov	r3, #256
 397 016e 6365     		str	r3, [r4, #84]
 398              	.LVL24:
 182:Drivers/STM32F4xx_HAL_Driver/Src/stm32f4xx_hal_dma_ex.c ****   }
 399              		.loc 1 182 0
 400 0170 0120     		movs	r0, #1
 240:Drivers/STM32F4xx_HAL_Driver/Src/stm32f4xx_hal_dma_ex.c **** 
 401              		.loc 1 240 0
 402 0172 BDE8F087 		pop	{r4, r5, r6, r7, r8, r9, r10, pc}
 403              	.LVL25:
ARM GAS  C:\Users\Prashant\AppData\Local\Temp\ccBE48rQ.s 			page 15


 404              	.L21:
 234:Drivers/STM32F4xx_HAL_Driver/Src/stm32f4xx_hal_dma_ex.c ****     
 405              		.loc 1 234 0
 406 0176 0023     		movs	r3, #0
 407 0178 84F83430 		strb	r3, [r4, #52]
 408              	.LVL26:
 237:Drivers/STM32F4xx_HAL_Driver/Src/stm32f4xx_hal_dma_ex.c ****   }  
 409              		.loc 1 237 0
 410 017c 0220     		movs	r0, #2
 240:Drivers/STM32F4xx_HAL_Driver/Src/stm32f4xx_hal_dma_ex.c **** 
 411              		.loc 1 240 0
 412 017e BDE8F087 		pop	{r4, r5, r6, r7, r8, r9, r10, pc}
 413              	.LVL27:
 414              	.L24:
 213:Drivers/STM32F4xx_HAL_Driver/Src/stm32f4xx_hal_dma_ex.c ****     __HAL_DMA_CLEAR_FLAG (hdma, __HAL_DMA_GET_HT_FLAG_INDEX(hdma));
 415              		.loc 1 213 0 discriminator 2
 416 0182 654B     		ldr	r3, .L194+12
 417 0184 9942     		cmp	r1, r3
 418 0186 00F2D380 		bhi	.L193
 213:Drivers/STM32F4xx_HAL_Driver/Src/stm32f4xx_hal_dma_ex.c ****     __HAL_DMA_CLEAR_FLAG (hdma, __HAL_DMA_GET_HT_FLAG_INDEX(hdma));
 419              		.loc 1 213 0 is_stmt 0 discriminator 52
 420 018a 644B     		ldr	r3, .L194+16
 421 018c 9942     		cmp	r1, r3
 422 018e 40F29981 		bls	.L52
 213:Drivers/STM32F4xx_HAL_Driver/Src/stm32f4xx_hal_dma_ex.c ****     __HAL_DMA_CLEAR_FLAG (hdma, __HAL_DMA_GET_HT_FLAG_INDEX(hdma));
 423              		.loc 1 213 0 discriminator 102
 424 0192 483B     		subs	r3, r3, #72
 425 0194 9942     		cmp	r1, r3
 426 0196 00F0AD82 		beq	.L53
 213:Drivers/STM32F4xx_HAL_Driver/Src/stm32f4xx_hal_dma_ex.c ****     __HAL_DMA_CLEAR_FLAG (hdma, __HAL_DMA_GET_HT_FLAG_INDEX(hdma));
 427              		.loc 1 213 0 discriminator 104
 428 019a 03F58063 		add	r3, r3, #1024
 429 019e 9942     		cmp	r1, r3
 430 01a0 00F07082 		beq	.L55
 213:Drivers/STM32F4xx_HAL_Driver/Src/stm32f4xx_hal_dma_ex.c ****     __HAL_DMA_CLEAR_FLAG (hdma, __HAL_DMA_GET_HT_FLAG_INDEX(hdma));
 431              		.loc 1 213 0 discriminator 106
 432 01a4 A3F56873 		sub	r3, r3, #928
 433 01a8 9942     		cmp	r1, r3
 434 01aa 00F06B82 		beq	.L55
 213:Drivers/STM32F4xx_HAL_Driver/Src/stm32f4xx_hal_dma_ex.c ****     __HAL_DMA_CLEAR_FLAG (hdma, __HAL_DMA_GET_HT_FLAG_INDEX(hdma));
 435              		.loc 1 213 0 discriminator 108
 436 01ae 03F58063 		add	r3, r3, #1024
 437 01b2 9942     		cmp	r1, r3
 438 01b4 00F06682 		beq	.L55
 213:Drivers/STM32F4xx_HAL_Driver/Src/stm32f4xx_hal_dma_ex.c ****     __HAL_DMA_CLEAR_FLAG (hdma, __HAL_DMA_GET_HT_FLAG_INDEX(hdma));
 439              		.loc 1 213 0 discriminator 110
 440 01b8 A3F58963 		sub	r3, r3, #1096
 441 01bc 9942     		cmp	r1, r3
 442 01be 00F0A482 		beq	.L59
 213:Drivers/STM32F4xx_HAL_Driver/Src/stm32f4xx_hal_dma_ex.c ****     __HAL_DMA_CLEAR_FLAG (hdma, __HAL_DMA_GET_HT_FLAG_INDEX(hdma));
 443              		.loc 1 213 0 discriminator 112
 444 01c2 03F58063 		add	r3, r3, #1024
 445 01c6 9942     		cmp	r1, r3
 446 01c8 00F09F82 		beq	.L59
 213:Drivers/STM32F4xx_HAL_Driver/Src/stm32f4xx_hal_dma_ex.c ****     __HAL_DMA_CLEAR_FLAG (hdma, __HAL_DMA_GET_HT_FLAG_INDEX(hdma));
 447              		.loc 1 213 0 discriminator 114
 448 01cc A3F56873 		sub	r3, r3, #928
ARM GAS  C:\Users\Prashant\AppData\Local\Temp\ccBE48rQ.s 			page 16


 449 01d0 9942     		cmp	r1, r3
 450 01d2 00F09A82 		beq	.L59
 213:Drivers/STM32F4xx_HAL_Driver/Src/stm32f4xx_hal_dma_ex.c ****     __HAL_DMA_CLEAR_FLAG (hdma, __HAL_DMA_GET_HT_FLAG_INDEX(hdma));
 451              		.loc 1 213 0 discriminator 116
 452 01d6 03F58063 		add	r3, r3, #1024
 453 01da 9942     		cmp	r1, r3
 454 01dc 00F09582 		beq	.L59
 213:Drivers/STM32F4xx_HAL_Driver/Src/stm32f4xx_hal_dma_ex.c ****     __HAL_DMA_CLEAR_FLAG (hdma, __HAL_DMA_GET_HT_FLAG_INDEX(hdma));
 455              		.loc 1 213 0 discriminator 118
 456 01e0 A3F58963 		sub	r3, r3, #1096
 457 01e4 9942     		cmp	r1, r3
 458 01e6 00F0D582 		beq	.L64
 213:Drivers/STM32F4xx_HAL_Driver/Src/stm32f4xx_hal_dma_ex.c ****     __HAL_DMA_CLEAR_FLAG (hdma, __HAL_DMA_GET_HT_FLAG_INDEX(hdma));
 459              		.loc 1 213 0 discriminator 120
 460 01ea 03F58063 		add	r3, r3, #1024
 461 01ee 9942     		cmp	r1, r3
 462 01f0 00F0D082 		beq	.L64
 213:Drivers/STM32F4xx_HAL_Driver/Src/stm32f4xx_hal_dma_ex.c ****     __HAL_DMA_CLEAR_FLAG (hdma, __HAL_DMA_GET_HT_FLAG_INDEX(hdma));
 463              		.loc 1 213 0 discriminator 122
 464 01f4 A3F56873 		sub	r3, r3, #928
 465 01f8 9942     		cmp	r1, r3
 466 01fa 00F0CB82 		beq	.L64
 213:Drivers/STM32F4xx_HAL_Driver/Src/stm32f4xx_hal_dma_ex.c ****     __HAL_DMA_CLEAR_FLAG (hdma, __HAL_DMA_GET_HT_FLAG_INDEX(hdma));
 467              		.loc 1 213 0 discriminator 124
 468 01fe 03F58063 		add	r3, r3, #1024
 469 0202 9942     		cmp	r1, r3
 470 0204 00F0C682 		beq	.L64
 213:Drivers/STM32F4xx_HAL_Driver/Src/stm32f4xx_hal_dma_ex.c ****     __HAL_DMA_CLEAR_FLAG (hdma, __HAL_DMA_GET_HT_FLAG_INDEX(hdma));
 471              		.loc 1 213 0
 472 0208 454B     		ldr	r3, .L194+20
 473 020a 4FF00062 		mov	r2, #134217728
 474 020e DA60     		str	r2, [r3, #12]
 475              	.LVL28:
 214:Drivers/STM32F4xx_HAL_Driver/Src/stm32f4xx_hal_dma_ex.c ****     __HAL_DMA_CLEAR_FLAG (hdma, __HAL_DMA_GET_TE_FLAG_INDEX(hdma));
 476              		.loc 1 214 0 is_stmt 1
 477 0210 4FF08062 		mov	r2, #67108864
 478              	.L120:
 215:Drivers/STM32F4xx_HAL_Driver/Src/stm32f4xx_hal_dma_ex.c ****     __HAL_DMA_CLEAR_FLAG (hdma, __HAL_DMA_GET_DME_FLAG_INDEX(hdma));
 479              		.loc 1 215 0
 480 0214 4348     		ldr	r0, .L194+24
 214:Drivers/STM32F4xx_HAL_Driver/Src/stm32f4xx_hal_dma_ex.c ****     __HAL_DMA_CLEAR_FLAG (hdma, __HAL_DMA_GET_TE_FLAG_INDEX(hdma));
 481              		.loc 1 214 0
 482 0216 424B     		ldr	r3, .L194+20
 215:Drivers/STM32F4xx_HAL_Driver/Src/stm32f4xx_hal_dma_ex.c ****     __HAL_DMA_CLEAR_FLAG (hdma, __HAL_DMA_GET_DME_FLAG_INDEX(hdma));
 483              		.loc 1 215 0
 484 0218 8142     		cmp	r1, r0
 214:Drivers/STM32F4xx_HAL_Driver/Src/stm32f4xx_hal_dma_ex.c ****     __HAL_DMA_CLEAR_FLAG (hdma, __HAL_DMA_GET_TE_FLAG_INDEX(hdma));
 485              		.loc 1 214 0
 486 021a DA60     		str	r2, [r3, #12]
 215:Drivers/STM32F4xx_HAL_Driver/Src/stm32f4xx_hal_dma_ex.c ****     __HAL_DMA_CLEAR_FLAG (hdma, __HAL_DMA_GET_DME_FLAG_INDEX(hdma));
 487              		.loc 1 215 0
 488 021c 00F03782 		beq	.L91
 215:Drivers/STM32F4xx_HAL_Driver/Src/stm32f4xx_hal_dma_ex.c ****     __HAL_DMA_CLEAR_FLAG (hdma, __HAL_DMA_GET_DME_FLAG_INDEX(hdma));
 489              		.loc 1 215 0 is_stmt 0 discriminator 106
 490 0220 414A     		ldr	r2, .L194+28
 491 0222 9142     		cmp	r1, r2
 492 0224 00F03382 		beq	.L91
ARM GAS  C:\Users\Prashant\AppData\Local\Temp\ccBE48rQ.s 			page 17


 215:Drivers/STM32F4xx_HAL_Driver/Src/stm32f4xx_hal_dma_ex.c ****     __HAL_DMA_CLEAR_FLAG (hdma, __HAL_DMA_GET_DME_FLAG_INDEX(hdma));
 493              		.loc 1 215 0 discriminator 108
 494 0228 02F58062 		add	r2, r2, #1024
 495 022c 9142     		cmp	r1, r2
 496 022e 00F02E82 		beq	.L91
 215:Drivers/STM32F4xx_HAL_Driver/Src/stm32f4xx_hal_dma_ex.c ****     __HAL_DMA_CLEAR_FLAG (hdma, __HAL_DMA_GET_DME_FLAG_INDEX(hdma));
 497              		.loc 1 215 0 discriminator 110
 498 0232 A2F58962 		sub	r2, r2, #1096
 499 0236 9142     		cmp	r1, r2
 500 0238 00F06E82 		beq	.L92
 215:Drivers/STM32F4xx_HAL_Driver/Src/stm32f4xx_hal_dma_ex.c ****     __HAL_DMA_CLEAR_FLAG (hdma, __HAL_DMA_GET_DME_FLAG_INDEX(hdma));
 501              		.loc 1 215 0 discriminator 112
 502 023c 02F58062 		add	r2, r2, #1024
 503 0240 9142     		cmp	r1, r2
 504 0242 00F06982 		beq	.L92
 215:Drivers/STM32F4xx_HAL_Driver/Src/stm32f4xx_hal_dma_ex.c ****     __HAL_DMA_CLEAR_FLAG (hdma, __HAL_DMA_GET_DME_FLAG_INDEX(hdma));
 505              		.loc 1 215 0 discriminator 114
 506 0246 A2F56872 		sub	r2, r2, #928
 507 024a 9142     		cmp	r1, r2
 508 024c 00F06482 		beq	.L92
 215:Drivers/STM32F4xx_HAL_Driver/Src/stm32f4xx_hal_dma_ex.c ****     __HAL_DMA_CLEAR_FLAG (hdma, __HAL_DMA_GET_DME_FLAG_INDEX(hdma));
 509              		.loc 1 215 0 discriminator 116
 510 0250 02F58062 		add	r2, r2, #1024
 511 0254 9142     		cmp	r1, r2
 512 0256 00F05F82 		beq	.L92
 215:Drivers/STM32F4xx_HAL_Driver/Src/stm32f4xx_hal_dma_ex.c ****     __HAL_DMA_CLEAR_FLAG (hdma, __HAL_DMA_GET_DME_FLAG_INDEX(hdma));
 513              		.loc 1 215 0 discriminator 118
 514 025a A2F58962 		sub	r2, r2, #1096
 515 025e 9142     		cmp	r1, r2
 516 0260 00F0AC82 		beq	.L96
 215:Drivers/STM32F4xx_HAL_Driver/Src/stm32f4xx_hal_dma_ex.c ****     __HAL_DMA_CLEAR_FLAG (hdma, __HAL_DMA_GET_DME_FLAG_INDEX(hdma));
 517              		.loc 1 215 0 discriminator 120
 518 0264 02F58062 		add	r2, r2, #1024
 519 0268 9142     		cmp	r1, r2
 520 026a 00F0A782 		beq	.L96
 215:Drivers/STM32F4xx_HAL_Driver/Src/stm32f4xx_hal_dma_ex.c ****     __HAL_DMA_CLEAR_FLAG (hdma, __HAL_DMA_GET_DME_FLAG_INDEX(hdma));
 521              		.loc 1 215 0 discriminator 122
 522 026e 2F4B     		ldr	r3, .L194+32
 523 0270 9942     		cmp	r1, r3
 524 0272 00F0B082 		beq	.L99
 215:Drivers/STM32F4xx_HAL_Driver/Src/stm32f4xx_hal_dma_ex.c ****     __HAL_DMA_CLEAR_FLAG (hdma, __HAL_DMA_GET_DME_FLAG_INDEX(hdma));
 525              		.loc 1 215 0 discriminator 124
 526 0276 03F58063 		add	r3, r3, #1024
 527 027a 9942     		cmp	r1, r3
 528 027c 00F0AB82 		beq	.L99
 215:Drivers/STM32F4xx_HAL_Driver/Src/stm32f4xx_hal_dma_ex.c ****     __HAL_DMA_CLEAR_FLAG (hdma, __HAL_DMA_GET_DME_FLAG_INDEX(hdma));
 529              		.loc 1 215 0
 530 0280 274B     		ldr	r3, .L194+20
 531 0282 4FF00072 		mov	r2, #33554432
 532 0286 DA60     		str	r2, [r3, #12]
 216:Drivers/STM32F4xx_HAL_Driver/Src/stm32f4xx_hal_dma_ex.c ****     __HAL_DMA_CLEAR_FLAG (hdma, __HAL_DMA_GET_FE_FLAG_INDEX(hdma));
 533              		.loc 1 216 0 is_stmt 1
 534 0288 4FF08073 		mov	r3, #16777216
 535              	.L123:
 217:Drivers/STM32F4xx_HAL_Driver/Src/stm32f4xx_hal_dma_ex.c **** 
 536              		.loc 1 217 0
 537 028c 254A     		ldr	r2, .L194+24
ARM GAS  C:\Users\Prashant\AppData\Local\Temp\ccBE48rQ.s 			page 18


 216:Drivers/STM32F4xx_HAL_Driver/Src/stm32f4xx_hal_dma_ex.c ****     __HAL_DMA_CLEAR_FLAG (hdma, __HAL_DMA_GET_FE_FLAG_INDEX(hdma));
 538              		.loc 1 216 0
 539 028e 2448     		ldr	r0, .L194+20
 217:Drivers/STM32F4xx_HAL_Driver/Src/stm32f4xx_hal_dma_ex.c **** 
 540              		.loc 1 217 0
 541 0290 9142     		cmp	r1, r2
 216:Drivers/STM32F4xx_HAL_Driver/Src/stm32f4xx_hal_dma_ex.c ****     __HAL_DMA_CLEAR_FLAG (hdma, __HAL_DMA_GET_FE_FLAG_INDEX(hdma));
 542              		.loc 1 216 0
 543 0292 C360     		str	r3, [r0, #12]
 217:Drivers/STM32F4xx_HAL_Driver/Src/stm32f4xx_hal_dma_ex.c **** 
 544              		.loc 1 217 0
 545 0294 00F0F281 		beq	.L187
 217:Drivers/STM32F4xx_HAL_Driver/Src/stm32f4xx_hal_dma_ex.c **** 
 546              		.loc 1 217 0 is_stmt 0 discriminator 106
 547 0298 234B     		ldr	r3, .L194+28
 548 029a 9942     		cmp	r1, r3
 549 029c 00F0EE81 		beq	.L187
 217:Drivers/STM32F4xx_HAL_Driver/Src/stm32f4xx_hal_dma_ex.c **** 
 550              		.loc 1 217 0 discriminator 108
 551 02a0 03F58063 		add	r3, r3, #1024
 552 02a4 9942     		cmp	r1, r3
 553 02a6 00F0E981 		beq	.L187
 217:Drivers/STM32F4xx_HAL_Driver/Src/stm32f4xx_hal_dma_ex.c **** 
 554              		.loc 1 217 0 discriminator 110
 555 02aa A3F58963 		sub	r3, r3, #1096
 556 02ae 9942     		cmp	r1, r3
 557 02b0 00F04782 		beq	.L150
 217:Drivers/STM32F4xx_HAL_Driver/Src/stm32f4xx_hal_dma_ex.c **** 
 558              		.loc 1 217 0 discriminator 112
 559 02b4 03F58063 		add	r3, r3, #1024
 560 02b8 9942     		cmp	r1, r3
 561 02ba 00F04282 		beq	.L150
 217:Drivers/STM32F4xx_HAL_Driver/Src/stm32f4xx_hal_dma_ex.c **** 
 562              		.loc 1 217 0 discriminator 114
 563 02be A3F56873 		sub	r3, r3, #928
 564 02c2 9942     		cmp	r1, r3
 565 02c4 00F03D82 		beq	.L150
 217:Drivers/STM32F4xx_HAL_Driver/Src/stm32f4xx_hal_dma_ex.c **** 
 566              		.loc 1 217 0 discriminator 116
 567 02c8 03F58063 		add	r3, r3, #1024
 568 02cc 9942     		cmp	r1, r3
 569 02ce 00F03882 		beq	.L150
 217:Drivers/STM32F4xx_HAL_Driver/Src/stm32f4xx_hal_dma_ex.c **** 
 570              		.loc 1 217 0 discriminator 118
 571 02d2 A3F58963 		sub	r3, r3, #1096
 572 02d6 9942     		cmp	r1, r3
 573 02d8 00F06A82 		beq	.L153
 217:Drivers/STM32F4xx_HAL_Driver/Src/stm32f4xx_hal_dma_ex.c **** 
 574              		.loc 1 217 0 discriminator 120
 575 02dc 03F58063 		add	r3, r3, #1024
 576 02e0 9942     		cmp	r1, r3
 577 02e2 00F06582 		beq	.L153
 217:Drivers/STM32F4xx_HAL_Driver/Src/stm32f4xx_hal_dma_ex.c **** 
 578              		.loc 1 217 0 discriminator 122
 579 02e6 A3F56873 		sub	r3, r3, #928
 580 02ea 9942     		cmp	r1, r3
 581 02ec 00F06082 		beq	.L153
ARM GAS  C:\Users\Prashant\AppData\Local\Temp\ccBE48rQ.s 			page 19


 217:Drivers/STM32F4xx_HAL_Driver/Src/stm32f4xx_hal_dma_ex.c **** 
 582              		.loc 1 217 0 discriminator 124
 583 02f0 03F58063 		add	r3, r3, #1024
 584 02f4 9942     		cmp	r1, r3
 585 02f6 14BF     		ite	ne
 586 02f8 4FF48003 		movne	r3, #4194304
 587 02fc 4FF48033 		moveq	r3, #65536
 588              	.L114:
 217:Drivers/STM32F4xx_HAL_Driver/Src/stm32f4xx_hal_dma_ex.c **** 
 589              		.loc 1 217 0 discriminator 151
 590 0300 074A     		ldr	r2, .L194+20
 591 0302 D360     		str	r3, [r2, #12]
 592 0304 0DE7     		b	.L112
 593              	.LVL29:
 594              	.L134:
 193:Drivers/STM32F4xx_HAL_Driver/Src/stm32f4xx_hal_dma_ex.c ****   
 595              		.loc 1 193 0 is_stmt 1
 596 0306 0220     		movs	r0, #2
 597 0308 25E7     		b	.L174
 598              	.L195:
 599 030a 00BF     		.align	2
 600              	.L194:
 601 030c 58640240 		.word	1073898584
 602 0310 00640240 		.word	1073898496
 603 0314 00000000 		.word	.LC0
 604 0318 B8600240 		.word	1073897656
 605 031c 58600240 		.word	1073897560
 606 0320 00600240 		.word	1073897472
 607 0324 10640240 		.word	1073898512
 608 0328 70600240 		.word	1073897584
 609 032c A0600240 		.word	1073897632
 610              	.L193:
 213:Drivers/STM32F4xx_HAL_Driver/Src/stm32f4xx_hal_dma_ex.c ****     __HAL_DMA_CLEAR_FLAG (hdma, __HAL_DMA_GET_HT_FLAG_INDEX(hdma));
 611              		.loc 1 213 0 discriminator 51
 612 0330 A83B     		subs	r3, r3, #168
 613 0332 9942     		cmp	r1, r3
 614 0334 00F09781 		beq	.L39
 213:Drivers/STM32F4xx_HAL_Driver/Src/stm32f4xx_hal_dma_ex.c ****     __HAL_DMA_CLEAR_FLAG (hdma, __HAL_DMA_GET_HT_FLAG_INDEX(hdma));
 615              		.loc 1 213 0 is_stmt 0 discriminator 53
 616 0338 03F58063 		add	r3, r3, #1024
 617 033c 9942     		cmp	r1, r3
 618 033e 00F07E81 		beq	.L41
 213:Drivers/STM32F4xx_HAL_Driver/Src/stm32f4xx_hal_dma_ex.c ****     __HAL_DMA_CLEAR_FLAG (hdma, __HAL_DMA_GET_HT_FLAG_INDEX(hdma));
 619              		.loc 1 213 0 discriminator 55
 620 0342 A3F56873 		sub	r3, r3, #928
 621 0346 9942     		cmp	r1, r3
 622 0348 00F07981 		beq	.L41
 213:Drivers/STM32F4xx_HAL_Driver/Src/stm32f4xx_hal_dma_ex.c ****     __HAL_DMA_CLEAR_FLAG (hdma, __HAL_DMA_GET_HT_FLAG_INDEX(hdma));
 623              		.loc 1 213 0 discriminator 57
 624 034c 03F58063 		add	r3, r3, #1024
 625 0350 9942     		cmp	r1, r3
 626 0352 00F07481 		beq	.L41
 213:Drivers/STM32F4xx_HAL_Driver/Src/stm32f4xx_hal_dma_ex.c ****     __HAL_DMA_CLEAR_FLAG (hdma, __HAL_DMA_GET_HT_FLAG_INDEX(hdma));
 627              		.loc 1 213 0 discriminator 59
 628 0356 A3F58963 		sub	r3, r3, #1096
 629 035a 9942     		cmp	r1, r3
 630 035c 00F0AA81 		beq	.L43
ARM GAS  C:\Users\Prashant\AppData\Local\Temp\ccBE48rQ.s 			page 20


 213:Drivers/STM32F4xx_HAL_Driver/Src/stm32f4xx_hal_dma_ex.c ****     __HAL_DMA_CLEAR_FLAG (hdma, __HAL_DMA_GET_HT_FLAG_INDEX(hdma));
 631              		.loc 1 213 0 discriminator 61
 632 0360 03F58063 		add	r3, r3, #1024
 633 0364 9942     		cmp	r1, r3
 634 0366 00F0A581 		beq	.L43
 213:Drivers/STM32F4xx_HAL_Driver/Src/stm32f4xx_hal_dma_ex.c ****     __HAL_DMA_CLEAR_FLAG (hdma, __HAL_DMA_GET_HT_FLAG_INDEX(hdma));
 635              		.loc 1 213 0 discriminator 63
 636 036a A3F56873 		sub	r3, r3, #928
 637 036e 9942     		cmp	r1, r3
 638 0370 00F0A081 		beq	.L43
 213:Drivers/STM32F4xx_HAL_Driver/Src/stm32f4xx_hal_dma_ex.c ****     __HAL_DMA_CLEAR_FLAG (hdma, __HAL_DMA_GET_HT_FLAG_INDEX(hdma));
 639              		.loc 1 213 0 discriminator 65
 640 0374 03F58063 		add	r3, r3, #1024
 641 0378 9942     		cmp	r1, r3
 642 037a 00F09B81 		beq	.L43
 213:Drivers/STM32F4xx_HAL_Driver/Src/stm32f4xx_hal_dma_ex.c ****     __HAL_DMA_CLEAR_FLAG (hdma, __HAL_DMA_GET_HT_FLAG_INDEX(hdma));
 643              		.loc 1 213 0 discriminator 67
 644 037e A3F58963 		sub	r3, r3, #1096
 645 0382 9942     		cmp	r1, r3
 646 0384 00F0EF81 		beq	.L47
 213:Drivers/STM32F4xx_HAL_Driver/Src/stm32f4xx_hal_dma_ex.c ****     __HAL_DMA_CLEAR_FLAG (hdma, __HAL_DMA_GET_HT_FLAG_INDEX(hdma));
 647              		.loc 1 213 0 discriminator 69
 648 0388 03F58063 		add	r3, r3, #1024
 649 038c 9942     		cmp	r1, r3
 650 038e 00F0EA81 		beq	.L47
 213:Drivers/STM32F4xx_HAL_Driver/Src/stm32f4xx_hal_dma_ex.c ****     __HAL_DMA_CLEAR_FLAG (hdma, __HAL_DMA_GET_HT_FLAG_INDEX(hdma));
 651              		.loc 1 213 0 discriminator 71
 652 0392 A3F56873 		sub	r3, r3, #928
 653 0396 9942     		cmp	r1, r3
 654 0398 00F0E581 		beq	.L47
 213:Drivers/STM32F4xx_HAL_Driver/Src/stm32f4xx_hal_dma_ex.c ****     __HAL_DMA_CLEAR_FLAG (hdma, __HAL_DMA_GET_HT_FLAG_INDEX(hdma));
 655              		.loc 1 213 0 discriminator 73
 656 039c 03F58063 		add	r3, r3, #1024
 657 03a0 9942     		cmp	r1, r3
 658 03a2 00F0E081 		beq	.L47
 213:Drivers/STM32F4xx_HAL_Driver/Src/stm32f4xx_hal_dma_ex.c ****     __HAL_DMA_CLEAR_FLAG (hdma, __HAL_DMA_GET_HT_FLAG_INDEX(hdma));
 659              		.loc 1 213 0
 660 03a6 CD4B     		ldr	r3, .L196
 661 03a8 4FF00062 		mov	r2, #134217728
 662 03ac 9A60     		str	r2, [r3, #8]
 663              	.LVL30:
 214:Drivers/STM32F4xx_HAL_Driver/Src/stm32f4xx_hal_dma_ex.c ****     __HAL_DMA_CLEAR_FLAG (hdma, __HAL_DMA_GET_TE_FLAG_INDEX(hdma));
 664              		.loc 1 214 0 is_stmt 1
 665 03ae 4FF08062 		mov	r2, #67108864
 666              	.L119:
 215:Drivers/STM32F4xx_HAL_Driver/Src/stm32f4xx_hal_dma_ex.c ****     __HAL_DMA_CLEAR_FLAG (hdma, __HAL_DMA_GET_DME_FLAG_INDEX(hdma));
 667              		.loc 1 215 0
 668 03b2 CB48     		ldr	r0, .L196+4
 214:Drivers/STM32F4xx_HAL_Driver/Src/stm32f4xx_hal_dma_ex.c ****     __HAL_DMA_CLEAR_FLAG (hdma, __HAL_DMA_GET_TE_FLAG_INDEX(hdma));
 669              		.loc 1 214 0
 670 03b4 C94B     		ldr	r3, .L196
 215:Drivers/STM32F4xx_HAL_Driver/Src/stm32f4xx_hal_dma_ex.c ****     __HAL_DMA_CLEAR_FLAG (hdma, __HAL_DMA_GET_DME_FLAG_INDEX(hdma));
 671              		.loc 1 215 0
 672 03b6 8142     		cmp	r1, r0
 214:Drivers/STM32F4xx_HAL_Driver/Src/stm32f4xx_hal_dma_ex.c ****     __HAL_DMA_CLEAR_FLAG (hdma, __HAL_DMA_GET_TE_FLAG_INDEX(hdma));
 673              		.loc 1 214 0
 674 03b8 9A60     		str	r2, [r3, #8]
ARM GAS  C:\Users\Prashant\AppData\Local\Temp\ccBE48rQ.s 			page 21


 215:Drivers/STM32F4xx_HAL_Driver/Src/stm32f4xx_hal_dma_ex.c ****     __HAL_DMA_CLEAR_FLAG (hdma, __HAL_DMA_GET_DME_FLAG_INDEX(hdma));
 675              		.loc 1 215 0
 676 03ba 00F03C81 		beq	.L182
 215:Drivers/STM32F4xx_HAL_Driver/Src/stm32f4xx_hal_dma_ex.c ****     __HAL_DMA_CLEAR_FLAG (hdma, __HAL_DMA_GET_DME_FLAG_INDEX(hdma));
 677              		.loc 1 215 0 is_stmt 0 discriminator 55
 678 03be C94A     		ldr	r2, .L196+8
 679 03c0 9142     		cmp	r1, r2
 680 03c2 00F03881 		beq	.L182
 215:Drivers/STM32F4xx_HAL_Driver/Src/stm32f4xx_hal_dma_ex.c ****     __HAL_DMA_CLEAR_FLAG (hdma, __HAL_DMA_GET_DME_FLAG_INDEX(hdma));
 681              		.loc 1 215 0 discriminator 57
 682 03c6 02F58062 		add	r2, r2, #1024
 683 03ca 9142     		cmp	r1, r2
 684 03cc 00F03381 		beq	.L182
 215:Drivers/STM32F4xx_HAL_Driver/Src/stm32f4xx_hal_dma_ex.c ****     __HAL_DMA_CLEAR_FLAG (hdma, __HAL_DMA_GET_DME_FLAG_INDEX(hdma));
 685              		.loc 1 215 0 discriminator 59
 686 03d0 A2F58962 		sub	r2, r2, #1096
 687 03d4 9142     		cmp	r1, r2
 688 03d6 00F06781 		beq	.L82
 215:Drivers/STM32F4xx_HAL_Driver/Src/stm32f4xx_hal_dma_ex.c ****     __HAL_DMA_CLEAR_FLAG (hdma, __HAL_DMA_GET_DME_FLAG_INDEX(hdma));
 689              		.loc 1 215 0 discriminator 61
 690 03da 02F58062 		add	r2, r2, #1024
 691 03de 9142     		cmp	r1, r2
 692 03e0 00F06281 		beq	.L82
 215:Drivers/STM32F4xx_HAL_Driver/Src/stm32f4xx_hal_dma_ex.c ****     __HAL_DMA_CLEAR_FLAG (hdma, __HAL_DMA_GET_DME_FLAG_INDEX(hdma));
 693              		.loc 1 215 0 discriminator 63
 694 03e4 A2F56872 		sub	r2, r2, #928
 695 03e8 9142     		cmp	r1, r2
 696 03ea 00F05D81 		beq	.L82
 215:Drivers/STM32F4xx_HAL_Driver/Src/stm32f4xx_hal_dma_ex.c ****     __HAL_DMA_CLEAR_FLAG (hdma, __HAL_DMA_GET_DME_FLAG_INDEX(hdma));
 697              		.loc 1 215 0 discriminator 65
 698 03ee 02F58062 		add	r2, r2, #1024
 699 03f2 9142     		cmp	r1, r2
 700 03f4 00F05881 		beq	.L82
 215:Drivers/STM32F4xx_HAL_Driver/Src/stm32f4xx_hal_dma_ex.c ****     __HAL_DMA_CLEAR_FLAG (hdma, __HAL_DMA_GET_DME_FLAG_INDEX(hdma));
 701              		.loc 1 215 0 discriminator 67
 702 03f8 A2F58962 		sub	r2, r2, #1096
 703 03fc 9142     		cmp	r1, r2
 704 03fe 00F0BC81 		beq	.L85
 215:Drivers/STM32F4xx_HAL_Driver/Src/stm32f4xx_hal_dma_ex.c ****     __HAL_DMA_CLEAR_FLAG (hdma, __HAL_DMA_GET_DME_FLAG_INDEX(hdma));
 705              		.loc 1 215 0 discriminator 69
 706 0402 02F58062 		add	r2, r2, #1024
 707 0406 9142     		cmp	r1, r2
 708 0408 00F0B781 		beq	.L85
 215:Drivers/STM32F4xx_HAL_Driver/Src/stm32f4xx_hal_dma_ex.c ****     __HAL_DMA_CLEAR_FLAG (hdma, __HAL_DMA_GET_DME_FLAG_INDEX(hdma));
 709              		.loc 1 215 0 discriminator 71
 710 040c B64B     		ldr	r3, .L196+12
 711 040e 9942     		cmp	r1, r3
 712 0410 00F0DA81 		beq	.L88
 215:Drivers/STM32F4xx_HAL_Driver/Src/stm32f4xx_hal_dma_ex.c ****     __HAL_DMA_CLEAR_FLAG (hdma, __HAL_DMA_GET_DME_FLAG_INDEX(hdma));
 713              		.loc 1 215 0 discriminator 73
 714 0414 03F58063 		add	r3, r3, #1024
 715 0418 9942     		cmp	r1, r3
 716 041a 00F0D581 		beq	.L88
 215:Drivers/STM32F4xx_HAL_Driver/Src/stm32f4xx_hal_dma_ex.c ****     __HAL_DMA_CLEAR_FLAG (hdma, __HAL_DMA_GET_DME_FLAG_INDEX(hdma));
 717              		.loc 1 215 0
 718 041e AF4B     		ldr	r3, .L196
 719 0420 4FF00072 		mov	r2, #33554432
ARM GAS  C:\Users\Prashant\AppData\Local\Temp\ccBE48rQ.s 			page 22


 720 0424 9A60     		str	r2, [r3, #8]
 216:Drivers/STM32F4xx_HAL_Driver/Src/stm32f4xx_hal_dma_ex.c ****     __HAL_DMA_CLEAR_FLAG (hdma, __HAL_DMA_GET_FE_FLAG_INDEX(hdma));
 721              		.loc 1 216 0 is_stmt 1
 722 0426 4FF08073 		mov	r3, #16777216
 723              	.L122:
 217:Drivers/STM32F4xx_HAL_Driver/Src/stm32f4xx_hal_dma_ex.c **** 
 724              		.loc 1 217 0
 725 042a AD4A     		ldr	r2, .L196+4
 216:Drivers/STM32F4xx_HAL_Driver/Src/stm32f4xx_hal_dma_ex.c ****     __HAL_DMA_CLEAR_FLAG (hdma, __HAL_DMA_GET_FE_FLAG_INDEX(hdma));
 726              		.loc 1 216 0
 727 042c AB48     		ldr	r0, .L196
 217:Drivers/STM32F4xx_HAL_Driver/Src/stm32f4xx_hal_dma_ex.c **** 
 728              		.loc 1 217 0
 729 042e 9142     		cmp	r1, r2
 216:Drivers/STM32F4xx_HAL_Driver/Src/stm32f4xx_hal_dma_ex.c ****     __HAL_DMA_CLEAR_FLAG (hdma, __HAL_DMA_GET_FE_FLAG_INDEX(hdma));
 730              		.loc 1 216 0
 731 0430 8360     		str	r3, [r0, #8]
 217:Drivers/STM32F4xx_HAL_Driver/Src/stm32f4xx_hal_dma_ex.c **** 
 732              		.loc 1 217 0
 733 0432 00F0FE80 		beq	.L186
 217:Drivers/STM32F4xx_HAL_Driver/Src/stm32f4xx_hal_dma_ex.c **** 
 734              		.loc 1 217 0 is_stmt 0 discriminator 55
 735 0436 AB4B     		ldr	r3, .L196+8
 736 0438 9942     		cmp	r1, r3
 737 043a 00F0FA80 		beq	.L186
 217:Drivers/STM32F4xx_HAL_Driver/Src/stm32f4xx_hal_dma_ex.c **** 
 738              		.loc 1 217 0 discriminator 57
 739 043e 03F58063 		add	r3, r3, #1024
 740 0442 9942     		cmp	r1, r3
 741 0444 00F0F580 		beq	.L186
 217:Drivers/STM32F4xx_HAL_Driver/Src/stm32f4xx_hal_dma_ex.c **** 
 742              		.loc 1 217 0 discriminator 59
 743 0448 A3F58963 		sub	r3, r3, #1096
 744 044c 9942     		cmp	r1, r3
 745 044e 00F03881 		beq	.L140
 217:Drivers/STM32F4xx_HAL_Driver/Src/stm32f4xx_hal_dma_ex.c **** 
 746              		.loc 1 217 0 discriminator 61
 747 0452 03F58063 		add	r3, r3, #1024
 748 0456 9942     		cmp	r1, r3
 749 0458 00F03381 		beq	.L140
 217:Drivers/STM32F4xx_HAL_Driver/Src/stm32f4xx_hal_dma_ex.c **** 
 750              		.loc 1 217 0 discriminator 63
 751 045c A3F56873 		sub	r3, r3, #928
 752 0460 9942     		cmp	r1, r3
 753 0462 00F02E81 		beq	.L140
 217:Drivers/STM32F4xx_HAL_Driver/Src/stm32f4xx_hal_dma_ex.c **** 
 754              		.loc 1 217 0 discriminator 65
 755 0466 03F58063 		add	r3, r3, #1024
 756 046a 9942     		cmp	r1, r3
 757 046c 00F02981 		beq	.L140
 217:Drivers/STM32F4xx_HAL_Driver/Src/stm32f4xx_hal_dma_ex.c **** 
 758              		.loc 1 217 0 discriminator 67
 759 0470 A3F58963 		sub	r3, r3, #1096
 760 0474 9942     		cmp	r1, r3
 761 0476 00F07D81 		beq	.L143
 217:Drivers/STM32F4xx_HAL_Driver/Src/stm32f4xx_hal_dma_ex.c **** 
 762              		.loc 1 217 0 discriminator 69
ARM GAS  C:\Users\Prashant\AppData\Local\Temp\ccBE48rQ.s 			page 23


 763 047a 03F58063 		add	r3, r3, #1024
 764 047e 9942     		cmp	r1, r3
 765 0480 00F07881 		beq	.L143
 217:Drivers/STM32F4xx_HAL_Driver/Src/stm32f4xx_hal_dma_ex.c **** 
 766              		.loc 1 217 0 discriminator 71
 767 0484 A3F56873 		sub	r3, r3, #928
 768 0488 9942     		cmp	r1, r3
 769 048a 00F07381 		beq	.L143
 217:Drivers/STM32F4xx_HAL_Driver/Src/stm32f4xx_hal_dma_ex.c **** 
 770              		.loc 1 217 0 discriminator 73
 771 048e 03F58063 		add	r3, r3, #1024
 772 0492 9942     		cmp	r1, r3
 773 0494 14BF     		ite	ne
 774 0496 4FF48003 		movne	r3, #4194304
 775 049a 4FF48033 		moveq	r3, #65536
 776              	.L113:
 217:Drivers/STM32F4xx_HAL_Driver/Src/stm32f4xx_hal_dma_ex.c **** 
 777              		.loc 1 217 0 discriminator 100
 778 049e 8F4A     		ldr	r2, .L196
 779 04a0 9360     		str	r3, [r2, #8]
 780 04a2 3EE6     		b	.L112
 781              	.LVL31:
 782              	.L26:
 213:Drivers/STM32F4xx_HAL_Driver/Src/stm32f4xx_hal_dma_ex.c ****     __HAL_DMA_CLEAR_FLAG (hdma, __HAL_DMA_GET_HT_FLAG_INDEX(hdma));
 783              		.loc 1 213 0 is_stmt 1
 784 04a4 8D4B     		ldr	r3, .L196
 785 04a6 2020     		movs	r0, #32
 786 04a8 D860     		str	r0, [r3, #12]
 787              	.LVL32:
 215:Drivers/STM32F4xx_HAL_Driver/Src/stm32f4xx_hal_dma_ex.c ****     __HAL_DMA_CLEAR_FLAG (hdma, __HAL_DMA_GET_DME_FLAG_INDEX(hdma));
 788              		.loc 1 215 0
 789 04aa 0822     		movs	r2, #8
 214:Drivers/STM32F4xx_HAL_Driver/Src/stm32f4xx_hal_dma_ex.c ****     __HAL_DMA_CLEAR_FLAG (hdma, __HAL_DMA_GET_TE_FLAG_INDEX(hdma));
 790              		.loc 1 214 0
 791 04ac 1025     		movs	r5, #16
 216:Drivers/STM32F4xx_HAL_Driver/Src/stm32f4xx_hal_dma_ex.c ****     __HAL_DMA_CLEAR_FLAG (hdma, __HAL_DMA_GET_FE_FLAG_INDEX(hdma));
 792              		.loc 1 216 0
 793 04ae 0420     		movs	r0, #4
 214:Drivers/STM32F4xx_HAL_Driver/Src/stm32f4xx_hal_dma_ex.c ****     __HAL_DMA_CLEAR_FLAG (hdma, __HAL_DMA_GET_TE_FLAG_INDEX(hdma));
 794              		.loc 1 214 0
 795 04b0 DD60     		str	r5, [r3, #12]
 215:Drivers/STM32F4xx_HAL_Driver/Src/stm32f4xx_hal_dma_ex.c ****     __HAL_DMA_CLEAR_FLAG (hdma, __HAL_DMA_GET_DME_FLAG_INDEX(hdma));
 796              		.loc 1 215 0
 797 04b2 DA60     		str	r2, [r3, #12]
 217:Drivers/STM32F4xx_HAL_Driver/Src/stm32f4xx_hal_dma_ex.c **** 
 798              		.loc 1 217 0
 799 04b4 0122     		movs	r2, #1
 216:Drivers/STM32F4xx_HAL_Driver/Src/stm32f4xx_hal_dma_ex.c ****     __HAL_DMA_CLEAR_FLAG (hdma, __HAL_DMA_GET_FE_FLAG_INDEX(hdma));
 800              		.loc 1 216 0
 801 04b6 D860     		str	r0, [r3, #12]
 802 04b8 31E6     		b	.L118
 803              	.L192:
 223:Drivers/STM32F4xx_HAL_Driver/Src/stm32f4xx_hal_dma_ex.c ****     {
 804              		.loc 1 223 0 discriminator 1
 805 04ba A36C     		ldr	r3, [r4, #72]
 806 04bc 002B     		cmp	r3, #0
 807 04be 7FF43CAE 		bne	.L116
ARM GAS  C:\Users\Prashant\AppData\Local\Temp\ccBE48rQ.s 			page 24


 808 04c2 3EE6     		b	.L117
 809              	.LVL33:
 810              	.L52:
 213:Drivers/STM32F4xx_HAL_Driver/Src/stm32f4xx_hal_dma_ex.c ****     __HAL_DMA_CLEAR_FLAG (hdma, __HAL_DMA_GET_HT_FLAG_INDEX(hdma));
 811              		.loc 1 213 0 discriminator 103
 812 04c4 894B     		ldr	r3, .L196+16
 813 04c6 9942     		cmp	r1, r3
 814 04c8 00F0FD80 		beq	.L66
 213:Drivers/STM32F4xx_HAL_Driver/Src/stm32f4xx_hal_dma_ex.c ****     __HAL_DMA_CLEAR_FLAG (hdma, __HAL_DMA_GET_HT_FLAG_INDEX(hdma));
 815              		.loc 1 213 0 is_stmt 0 discriminator 153
 816 04cc 03F58063 		add	r3, r3, #1024
 817 04d0 9942     		cmp	r1, r3
 818 04d2 00F0E480 		beq	.L68
 213:Drivers/STM32F4xx_HAL_Driver/Src/stm32f4xx_hal_dma_ex.c ****     __HAL_DMA_CLEAR_FLAG (hdma, __HAL_DMA_GET_HT_FLAG_INDEX(hdma));
 819              		.loc 1 213 0 discriminator 155
 820 04d6 A3F56873 		sub	r3, r3, #928
 821 04da 9942     		cmp	r1, r3
 822 04dc 00F0DF80 		beq	.L68
 213:Drivers/STM32F4xx_HAL_Driver/Src/stm32f4xx_hal_dma_ex.c ****     __HAL_DMA_CLEAR_FLAG (hdma, __HAL_DMA_GET_HT_FLAG_INDEX(hdma));
 823              		.loc 1 213 0 discriminator 157
 824 04e0 03F58063 		add	r3, r3, #1024
 825 04e4 9942     		cmp	r1, r3
 826 04e6 00F0DA80 		beq	.L68
 213:Drivers/STM32F4xx_HAL_Driver/Src/stm32f4xx_hal_dma_ex.c ****     __HAL_DMA_CLEAR_FLAG (hdma, __HAL_DMA_GET_HT_FLAG_INDEX(hdma));
 827              		.loc 1 213 0 discriminator 159
 828 04ea A3F58963 		sub	r3, r3, #1096
 829 04ee 9942     		cmp	r1, r3
 830 04f0 00F01E81 		beq	.L70
 213:Drivers/STM32F4xx_HAL_Driver/Src/stm32f4xx_hal_dma_ex.c ****     __HAL_DMA_CLEAR_FLAG (hdma, __HAL_DMA_GET_HT_FLAG_INDEX(hdma));
 831              		.loc 1 213 0 discriminator 161
 832 04f4 03F58063 		add	r3, r3, #1024
 833 04f8 9942     		cmp	r1, r3
 834 04fa 00F01981 		beq	.L70
 213:Drivers/STM32F4xx_HAL_Driver/Src/stm32f4xx_hal_dma_ex.c ****     __HAL_DMA_CLEAR_FLAG (hdma, __HAL_DMA_GET_HT_FLAG_INDEX(hdma));
 835              		.loc 1 213 0 discriminator 163
 836 04fe A3F56873 		sub	r3, r3, #928
 837 0502 9942     		cmp	r1, r3
 838 0504 00F01481 		beq	.L70
 213:Drivers/STM32F4xx_HAL_Driver/Src/stm32f4xx_hal_dma_ex.c ****     __HAL_DMA_CLEAR_FLAG (hdma, __HAL_DMA_GET_HT_FLAG_INDEX(hdma));
 839              		.loc 1 213 0 discriminator 165
 840 0508 03F58063 		add	r3, r3, #1024
 841 050c 9942     		cmp	r1, r3
 842 050e 00F00F81 		beq	.L70
 213:Drivers/STM32F4xx_HAL_Driver/Src/stm32f4xx_hal_dma_ex.c ****     __HAL_DMA_CLEAR_FLAG (hdma, __HAL_DMA_GET_HT_FLAG_INDEX(hdma));
 843              		.loc 1 213 0 discriminator 167
 844 0512 A3F58963 		sub	r3, r3, #1096
 845 0516 9942     		cmp	r1, r3
 846 0518 00F03581 		beq	.L77
 213:Drivers/STM32F4xx_HAL_Driver/Src/stm32f4xx_hal_dma_ex.c ****     __HAL_DMA_CLEAR_FLAG (hdma, __HAL_DMA_GET_HT_FLAG_INDEX(hdma));
 847              		.loc 1 213 0 discriminator 169
 848 051c 03F58063 		add	r3, r3, #1024
 849 0520 9942     		cmp	r1, r3
 850 0522 00F03081 		beq	.L77
 213:Drivers/STM32F4xx_HAL_Driver/Src/stm32f4xx_hal_dma_ex.c ****     __HAL_DMA_CLEAR_FLAG (hdma, __HAL_DMA_GET_HT_FLAG_INDEX(hdma));
 851              		.loc 1 213 0 discriminator 171
 852 0526 A3F56873 		sub	r3, r3, #928
 853 052a 9942     		cmp	r1, r3
ARM GAS  C:\Users\Prashant\AppData\Local\Temp\ccBE48rQ.s 			page 25


 854 052c 00F02B81 		beq	.L77
 213:Drivers/STM32F4xx_HAL_Driver/Src/stm32f4xx_hal_dma_ex.c ****     __HAL_DMA_CLEAR_FLAG (hdma, __HAL_DMA_GET_HT_FLAG_INDEX(hdma));
 855              		.loc 1 213 0 discriminator 173
 856 0530 03F58063 		add	r3, r3, #1024
 857 0534 9942     		cmp	r1, r3
 858 0536 00F02681 		beq	.L77
 213:Drivers/STM32F4xx_HAL_Driver/Src/stm32f4xx_hal_dma_ex.c ****     __HAL_DMA_CLEAR_FLAG (hdma, __HAL_DMA_GET_HT_FLAG_INDEX(hdma));
 859              		.loc 1 213 0
 860 053a 6D4B     		ldr	r3, .L196+20
 861 053c 4FF00062 		mov	r2, #134217728
 862 0540 9A60     		str	r2, [r3, #8]
 863              	.LVL34:
 214:Drivers/STM32F4xx_HAL_Driver/Src/stm32f4xx_hal_dma_ex.c ****     __HAL_DMA_CLEAR_FLAG (hdma, __HAL_DMA_GET_TE_FLAG_INDEX(hdma));
 864              		.loc 1 214 0 is_stmt 1
 865 0542 4FF08062 		mov	r2, #67108864
 866              	.L121:
 215:Drivers/STM32F4xx_HAL_Driver/Src/stm32f4xx_hal_dma_ex.c ****     __HAL_DMA_CLEAR_FLAG (hdma, __HAL_DMA_GET_DME_FLAG_INDEX(hdma));
 867              		.loc 1 215 0
 868 0546 6648     		ldr	r0, .L196+4
 214:Drivers/STM32F4xx_HAL_Driver/Src/stm32f4xx_hal_dma_ex.c ****     __HAL_DMA_CLEAR_FLAG (hdma, __HAL_DMA_GET_TE_FLAG_INDEX(hdma));
 869              		.loc 1 214 0
 870 0548 694B     		ldr	r3, .L196+20
 215:Drivers/STM32F4xx_HAL_Driver/Src/stm32f4xx_hal_dma_ex.c ****     __HAL_DMA_CLEAR_FLAG (hdma, __HAL_DMA_GET_DME_FLAG_INDEX(hdma));
 871              		.loc 1 215 0
 872 054a 8142     		cmp	r1, r0
 214:Drivers/STM32F4xx_HAL_Driver/Src/stm32f4xx_hal_dma_ex.c ****     __HAL_DMA_CLEAR_FLAG (hdma, __HAL_DMA_GET_TE_FLAG_INDEX(hdma));
 873              		.loc 1 214 0
 874 054c 9A60     		str	r2, [r3, #8]
 215:Drivers/STM32F4xx_HAL_Driver/Src/stm32f4xx_hal_dma_ex.c ****     __HAL_DMA_CLEAR_FLAG (hdma, __HAL_DMA_GET_DME_FLAG_INDEX(hdma));
 875              		.loc 1 215 0
 876 054e 00F0A280 		beq	.L102
 215:Drivers/STM32F4xx_HAL_Driver/Src/stm32f4xx_hal_dma_ex.c ****     __HAL_DMA_CLEAR_FLAG (hdma, __HAL_DMA_GET_DME_FLAG_INDEX(hdma));
 877              		.loc 1 215 0 is_stmt 0 discriminator 155
 878 0552 644A     		ldr	r2, .L196+8
 879 0554 9142     		cmp	r1, r2
 880 0556 00F09E80 		beq	.L102
 215:Drivers/STM32F4xx_HAL_Driver/Src/stm32f4xx_hal_dma_ex.c ****     __HAL_DMA_CLEAR_FLAG (hdma, __HAL_DMA_GET_DME_FLAG_INDEX(hdma));
 881              		.loc 1 215 0 discriminator 157
 882 055a 02F58062 		add	r2, r2, #1024
 883 055e 9142     		cmp	r1, r2
 884 0560 00F09980 		beq	.L102
 215:Drivers/STM32F4xx_HAL_Driver/Src/stm32f4xx_hal_dma_ex.c ****     __HAL_DMA_CLEAR_FLAG (hdma, __HAL_DMA_GET_DME_FLAG_INDEX(hdma));
 885              		.loc 1 215 0 discriminator 159
 886 0564 A2F58962 		sub	r2, r2, #1096
 887 0568 9142     		cmp	r1, r2
 888 056a 00F0DB80 		beq	.L103
 215:Drivers/STM32F4xx_HAL_Driver/Src/stm32f4xx_hal_dma_ex.c ****     __HAL_DMA_CLEAR_FLAG (hdma, __HAL_DMA_GET_DME_FLAG_INDEX(hdma));
 889              		.loc 1 215 0 discriminator 161
 890 056e 02F58062 		add	r2, r2, #1024
 891 0572 9142     		cmp	r1, r2
 892 0574 00F0D680 		beq	.L103
 215:Drivers/STM32F4xx_HAL_Driver/Src/stm32f4xx_hal_dma_ex.c ****     __HAL_DMA_CLEAR_FLAG (hdma, __HAL_DMA_GET_DME_FLAG_INDEX(hdma));
 893              		.loc 1 215 0 discriminator 163
 894 0578 A2F56872 		sub	r2, r2, #928
 895 057c 9142     		cmp	r1, r2
 896 057e 00F0D180 		beq	.L103
 215:Drivers/STM32F4xx_HAL_Driver/Src/stm32f4xx_hal_dma_ex.c ****     __HAL_DMA_CLEAR_FLAG (hdma, __HAL_DMA_GET_DME_FLAG_INDEX(hdma));
ARM GAS  C:\Users\Prashant\AppData\Local\Temp\ccBE48rQ.s 			page 26


 897              		.loc 1 215 0 discriminator 165
 898 0582 02F58062 		add	r2, r2, #1024
 899 0586 9142     		cmp	r1, r2
 900 0588 00F0CC80 		beq	.L103
 215:Drivers/STM32F4xx_HAL_Driver/Src/stm32f4xx_hal_dma_ex.c ****     __HAL_DMA_CLEAR_FLAG (hdma, __HAL_DMA_GET_DME_FLAG_INDEX(hdma));
 901              		.loc 1 215 0 discriminator 167
 902 058c A2F58962 		sub	r2, r2, #1096
 903 0590 9142     		cmp	r1, r2
 904 0592 00F00781 		beq	.L189
 215:Drivers/STM32F4xx_HAL_Driver/Src/stm32f4xx_hal_dma_ex.c ****     __HAL_DMA_CLEAR_FLAG (hdma, __HAL_DMA_GET_DME_FLAG_INDEX(hdma));
 905              		.loc 1 215 0 discriminator 169
 906 0596 02F58062 		add	r2, r2, #1024
 907 059a 9142     		cmp	r1, r2
 908 059c 00F00281 		beq	.L189
 215:Drivers/STM32F4xx_HAL_Driver/Src/stm32f4xx_hal_dma_ex.c ****     __HAL_DMA_CLEAR_FLAG (hdma, __HAL_DMA_GET_DME_FLAG_INDEX(hdma));
 909              		.loc 1 215 0 discriminator 171
 910 05a0 514B     		ldr	r3, .L196+12
 911 05a2 9942     		cmp	r1, r3
 912 05a4 00F0FD80 		beq	.L109
 215:Drivers/STM32F4xx_HAL_Driver/Src/stm32f4xx_hal_dma_ex.c ****     __HAL_DMA_CLEAR_FLAG (hdma, __HAL_DMA_GET_DME_FLAG_INDEX(hdma));
 913              		.loc 1 215 0 discriminator 173
 914 05a8 03F58063 		add	r3, r3, #1024
 915 05ac 9942     		cmp	r1, r3
 916 05ae 00F0F880 		beq	.L109
 215:Drivers/STM32F4xx_HAL_Driver/Src/stm32f4xx_hal_dma_ex.c ****     __HAL_DMA_CLEAR_FLAG (hdma, __HAL_DMA_GET_DME_FLAG_INDEX(hdma));
 917              		.loc 1 215 0
 918 05b2 4F4B     		ldr	r3, .L196+20
 919 05b4 4FF00072 		mov	r2, #33554432
 920 05b8 9A60     		str	r2, [r3, #8]
 216:Drivers/STM32F4xx_HAL_Driver/Src/stm32f4xx_hal_dma_ex.c ****     __HAL_DMA_CLEAR_FLAG (hdma, __HAL_DMA_GET_FE_FLAG_INDEX(hdma));
 921              		.loc 1 216 0 is_stmt 1
 922 05ba 4FF08073 		mov	r3, #16777216
 923              	.L124:
 217:Drivers/STM32F4xx_HAL_Driver/Src/stm32f4xx_hal_dma_ex.c **** 
 924              		.loc 1 217 0
 925 05be 484A     		ldr	r2, .L196+4
 216:Drivers/STM32F4xx_HAL_Driver/Src/stm32f4xx_hal_dma_ex.c ****     __HAL_DMA_CLEAR_FLAG (hdma, __HAL_DMA_GET_FE_FLAG_INDEX(hdma));
 926              		.loc 1 216 0
 927 05c0 4B48     		ldr	r0, .L196+20
 217:Drivers/STM32F4xx_HAL_Driver/Src/stm32f4xx_hal_dma_ex.c **** 
 928              		.loc 1 217 0
 929 05c2 9142     		cmp	r1, r2
 216:Drivers/STM32F4xx_HAL_Driver/Src/stm32f4xx_hal_dma_ex.c ****     __HAL_DMA_CLEAR_FLAG (hdma, __HAL_DMA_GET_FE_FLAG_INDEX(hdma));
 930              		.loc 1 216 0
 931 05c4 8360     		str	r3, [r0, #8]
 217:Drivers/STM32F4xx_HAL_Driver/Src/stm32f4xx_hal_dma_ex.c **** 
 932              		.loc 1 217 0
 933 05c6 5BD0     		beq	.L188
 217:Drivers/STM32F4xx_HAL_Driver/Src/stm32f4xx_hal_dma_ex.c **** 
 934              		.loc 1 217 0 is_stmt 0 discriminator 155
 935 05c8 464B     		ldr	r3, .L196+8
 936 05ca 9942     		cmp	r1, r3
 937 05cc 58D0     		beq	.L188
 217:Drivers/STM32F4xx_HAL_Driver/Src/stm32f4xx_hal_dma_ex.c **** 
 938              		.loc 1 217 0 discriminator 157
 939 05ce 03F58063 		add	r3, r3, #1024
 940 05d2 9942     		cmp	r1, r3
ARM GAS  C:\Users\Prashant\AppData\Local\Temp\ccBE48rQ.s 			page 27


 941 05d4 54D0     		beq	.L188
 217:Drivers/STM32F4xx_HAL_Driver/Src/stm32f4xx_hal_dma_ex.c **** 
 942              		.loc 1 217 0 discriminator 159
 943 05d6 A3F58963 		sub	r3, r3, #1096
 944 05da 9942     		cmp	r1, r3
 945 05dc 00F0AF80 		beq	.L160
 217:Drivers/STM32F4xx_HAL_Driver/Src/stm32f4xx_hal_dma_ex.c **** 
 946              		.loc 1 217 0 discriminator 161
 947 05e0 03F58063 		add	r3, r3, #1024
 948 05e4 9942     		cmp	r1, r3
 949 05e6 00F0AA80 		beq	.L160
 217:Drivers/STM32F4xx_HAL_Driver/Src/stm32f4xx_hal_dma_ex.c **** 
 950              		.loc 1 217 0 discriminator 163
 951 05ea A3F56873 		sub	r3, r3, #928
 952 05ee 9942     		cmp	r1, r3
 953 05f0 00F0A580 		beq	.L160
 217:Drivers/STM32F4xx_HAL_Driver/Src/stm32f4xx_hal_dma_ex.c **** 
 954              		.loc 1 217 0 discriminator 165
 955 05f4 03F58063 		add	r3, r3, #1024
 956 05f8 9942     		cmp	r1, r3
 957 05fa 00F0A080 		beq	.L160
 217:Drivers/STM32F4xx_HAL_Driver/Src/stm32f4xx_hal_dma_ex.c **** 
 958              		.loc 1 217 0 discriminator 167
 959 05fe A3F58963 		sub	r3, r3, #1096
 960 0602 9942     		cmp	r1, r3
 961 0604 00F0D780 		beq	.L163
 217:Drivers/STM32F4xx_HAL_Driver/Src/stm32f4xx_hal_dma_ex.c **** 
 962              		.loc 1 217 0 discriminator 169
 963 0608 03F58063 		add	r3, r3, #1024
 964 060c 9942     		cmp	r1, r3
 965 060e 00F0D280 		beq	.L163
 217:Drivers/STM32F4xx_HAL_Driver/Src/stm32f4xx_hal_dma_ex.c **** 
 966              		.loc 1 217 0 discriminator 171
 967 0612 A3F56873 		sub	r3, r3, #928
 968 0616 9942     		cmp	r1, r3
 969 0618 00F0CD80 		beq	.L163
 217:Drivers/STM32F4xx_HAL_Driver/Src/stm32f4xx_hal_dma_ex.c **** 
 970              		.loc 1 217 0 discriminator 173
 971 061c 03F58063 		add	r3, r3, #1024
 972 0620 9942     		cmp	r1, r3
 973 0622 14BF     		ite	ne
 974 0624 4FF48003 		movne	r3, #4194304
 975 0628 4FF48033 		moveq	r3, #65536
 976              	.L115:
 217:Drivers/STM32F4xx_HAL_Driver/Src/stm32f4xx_hal_dma_ex.c **** 
 977              		.loc 1 217 0 discriminator 200
 978 062c 304A     		ldr	r2, .L196+20
 979 062e 9360     		str	r3, [r2, #8]
 980 0630 77E5     		b	.L112
 981              	.L186:
 217:Drivers/STM32F4xx_HAL_Driver/Src/stm32f4xx_hal_dma_ex.c **** 
 982              		.loc 1 217 0
 983 0632 0123     		movs	r3, #1
 984 0634 33E7     		b	.L113
 985              	.L182:
 215:Drivers/STM32F4xx_HAL_Driver/Src/stm32f4xx_hal_dma_ex.c ****     __HAL_DMA_CLEAR_FLAG (hdma, __HAL_DMA_GET_DME_FLAG_INDEX(hdma));
 986              		.loc 1 215 0 is_stmt 1
ARM GAS  C:\Users\Prashant\AppData\Local\Temp\ccBE48rQ.s 			page 28


 987 0636 0822     		movs	r2, #8
 988 0638 9A60     		str	r2, [r3, #8]
 216:Drivers/STM32F4xx_HAL_Driver/Src/stm32f4xx_hal_dma_ex.c ****     __HAL_DMA_CLEAR_FLAG (hdma, __HAL_DMA_GET_FE_FLAG_INDEX(hdma));
 989              		.loc 1 216 0
 990 063a 0423     		movs	r3, #4
 991 063c F5E6     		b	.L122
 992              	.LVL35:
 993              	.L41:
 213:Drivers/STM32F4xx_HAL_Driver/Src/stm32f4xx_hal_dma_ex.c ****     __HAL_DMA_CLEAR_FLAG (hdma, __HAL_DMA_GET_HT_FLAG_INDEX(hdma));
 994              		.loc 1 213 0
 995 063e 274B     		ldr	r3, .L196
 996 0640 2022     		movs	r2, #32
 997 0642 9A60     		str	r2, [r3, #8]
 998              	.LVL36:
 214:Drivers/STM32F4xx_HAL_Driver/Src/stm32f4xx_hal_dma_ex.c ****     __HAL_DMA_CLEAR_FLAG (hdma, __HAL_DMA_GET_TE_FLAG_INDEX(hdma));
 999              		.loc 1 214 0
 1000 0644 1022     		movs	r2, #16
 1001 0646 B4E6     		b	.L119
 1002              	.LVL37:
 1003              	.L32:
 213:Drivers/STM32F4xx_HAL_Driver/Src/stm32f4xx_hal_dma_ex.c ****     __HAL_DMA_CLEAR_FLAG (hdma, __HAL_DMA_GET_HT_FLAG_INDEX(hdma));
 1004              		.loc 1 213 0
 1005 0648 244B     		ldr	r3, .L196
 1006 064a 4FF40060 		mov	r0, #2048
 1007 064e D860     		str	r0, [r3, #12]
 1008              	.LVL38:
 215:Drivers/STM32F4xx_HAL_Driver/Src/stm32f4xx_hal_dma_ex.c ****     __HAL_DMA_CLEAR_FLAG (hdma, __HAL_DMA_GET_DME_FLAG_INDEX(hdma));
 1009              		.loc 1 215 0
 1010 0650 4FF40072 		mov	r2, #512
 214:Drivers/STM32F4xx_HAL_Driver/Src/stm32f4xx_hal_dma_ex.c ****     __HAL_DMA_CLEAR_FLAG (hdma, __HAL_DMA_GET_TE_FLAG_INDEX(hdma));
 1011              		.loc 1 214 0
 1012 0654 4FF48065 		mov	r5, #1024
 216:Drivers/STM32F4xx_HAL_Driver/Src/stm32f4xx_hal_dma_ex.c ****     __HAL_DMA_CLEAR_FLAG (hdma, __HAL_DMA_GET_FE_FLAG_INDEX(hdma));
 1013              		.loc 1 216 0
 1014 0658 4FF48070 		mov	r0, #256
 214:Drivers/STM32F4xx_HAL_Driver/Src/stm32f4xx_hal_dma_ex.c ****     __HAL_DMA_CLEAR_FLAG (hdma, __HAL_DMA_GET_TE_FLAG_INDEX(hdma));
 1015              		.loc 1 214 0
 1016 065c DD60     		str	r5, [r3, #12]
 215:Drivers/STM32F4xx_HAL_Driver/Src/stm32f4xx_hal_dma_ex.c ****     __HAL_DMA_CLEAR_FLAG (hdma, __HAL_DMA_GET_DME_FLAG_INDEX(hdma));
 1017              		.loc 1 215 0
 1018 065e DA60     		str	r2, [r3, #12]
 217:Drivers/STM32F4xx_HAL_Driver/Src/stm32f4xx_hal_dma_ex.c **** 
 1019              		.loc 1 217 0
 1020 0660 4022     		movs	r2, #64
 216:Drivers/STM32F4xx_HAL_Driver/Src/stm32f4xx_hal_dma_ex.c ****     __HAL_DMA_CLEAR_FLAG (hdma, __HAL_DMA_GET_FE_FLAG_INDEX(hdma));
 1021              		.loc 1 216 0
 1022 0662 D860     		str	r0, [r3, #12]
 1023 0664 5BE5     		b	.L118
 1024              	.LVL39:
 1025              	.L39:
 213:Drivers/STM32F4xx_HAL_Driver/Src/stm32f4xx_hal_dma_ex.c ****     __HAL_DMA_CLEAR_FLAG (hdma, __HAL_DMA_GET_HT_FLAG_INDEX(hdma));
 1026              		.loc 1 213 0
 1027 0666 1D4A     		ldr	r2, .L196
 1028 0668 2020     		movs	r0, #32
 1029 066a 9060     		str	r0, [r2, #8]
 1030              	.LVL40:
 215:Drivers/STM32F4xx_HAL_Driver/Src/stm32f4xx_hal_dma_ex.c ****     __HAL_DMA_CLEAR_FLAG (hdma, __HAL_DMA_GET_DME_FLAG_INDEX(hdma));
ARM GAS  C:\Users\Prashant\AppData\Local\Temp\ccBE48rQ.s 			page 29


 1031              		.loc 1 215 0
 1032 066c 0823     		movs	r3, #8
 214:Drivers/STM32F4xx_HAL_Driver/Src/stm32f4xx_hal_dma_ex.c ****     __HAL_DMA_CLEAR_FLAG (hdma, __HAL_DMA_GET_TE_FLAG_INDEX(hdma));
 1033              		.loc 1 214 0
 1034 066e 1025     		movs	r5, #16
 216:Drivers/STM32F4xx_HAL_Driver/Src/stm32f4xx_hal_dma_ex.c ****     __HAL_DMA_CLEAR_FLAG (hdma, __HAL_DMA_GET_FE_FLAG_INDEX(hdma));
 1035              		.loc 1 216 0
 1036 0670 0420     		movs	r0, #4
 214:Drivers/STM32F4xx_HAL_Driver/Src/stm32f4xx_hal_dma_ex.c ****     __HAL_DMA_CLEAR_FLAG (hdma, __HAL_DMA_GET_TE_FLAG_INDEX(hdma));
 1037              		.loc 1 214 0
 1038 0672 9560     		str	r5, [r2, #8]
 215:Drivers/STM32F4xx_HAL_Driver/Src/stm32f4xx_hal_dma_ex.c ****     __HAL_DMA_CLEAR_FLAG (hdma, __HAL_DMA_GET_DME_FLAG_INDEX(hdma));
 1039              		.loc 1 215 0
 1040 0674 9360     		str	r3, [r2, #8]
 217:Drivers/STM32F4xx_HAL_Driver/Src/stm32f4xx_hal_dma_ex.c **** 
 1041              		.loc 1 217 0
 1042 0676 0123     		movs	r3, #1
 216:Drivers/STM32F4xx_HAL_Driver/Src/stm32f4xx_hal_dma_ex.c ****     __HAL_DMA_CLEAR_FLAG (hdma, __HAL_DMA_GET_FE_FLAG_INDEX(hdma));
 1043              		.loc 1 216 0
 1044 0678 9060     		str	r0, [r2, #8]
 1045 067a 10E7     		b	.L113
 1046              	.L187:
 217:Drivers/STM32F4xx_HAL_Driver/Src/stm32f4xx_hal_dma_ex.c **** 
 1047              		.loc 1 217 0
 1048 067c 0123     		movs	r3, #1
 1049 067e 3FE6     		b	.L114
 1050              	.L188:
 1051 0680 0123     		movs	r3, #1
 1052 0682 D3E7     		b	.L115
 1053              	.LVL41:
 1054              	.L55:
 213:Drivers/STM32F4xx_HAL_Driver/Src/stm32f4xx_hal_dma_ex.c ****     __HAL_DMA_CLEAR_FLAG (hdma, __HAL_DMA_GET_HT_FLAG_INDEX(hdma));
 1055              		.loc 1 213 0
 1056 0684 1A4B     		ldr	r3, .L196+20
 1057 0686 2022     		movs	r2, #32
 1058 0688 DA60     		str	r2, [r3, #12]
 1059              	.LVL42:
 214:Drivers/STM32F4xx_HAL_Driver/Src/stm32f4xx_hal_dma_ex.c ****     __HAL_DMA_CLEAR_FLAG (hdma, __HAL_DMA_GET_TE_FLAG_INDEX(hdma));
 1060              		.loc 1 214 0
 1061 068a 1022     		movs	r2, #16
 1062 068c C2E5     		b	.L120
 1063              	.L91:
 215:Drivers/STM32F4xx_HAL_Driver/Src/stm32f4xx_hal_dma_ex.c ****     __HAL_DMA_CLEAR_FLAG (hdma, __HAL_DMA_GET_DME_FLAG_INDEX(hdma));
 1064              		.loc 1 215 0
 1065 068e 0822     		movs	r2, #8
 1066 0690 DA60     		str	r2, [r3, #12]
 216:Drivers/STM32F4xx_HAL_Driver/Src/stm32f4xx_hal_dma_ex.c ****     __HAL_DMA_CLEAR_FLAG (hdma, __HAL_DMA_GET_FE_FLAG_INDEX(hdma));
 1067              		.loc 1 216 0
 1068 0692 0423     		movs	r3, #4
 1069 0694 FAE5     		b	.L123
 1070              	.L102:
 215:Drivers/STM32F4xx_HAL_Driver/Src/stm32f4xx_hal_dma_ex.c ****     __HAL_DMA_CLEAR_FLAG (hdma, __HAL_DMA_GET_DME_FLAG_INDEX(hdma));
 1071              		.loc 1 215 0
 1072 0696 0822     		movs	r2, #8
 1073 0698 9A60     		str	r2, [r3, #8]
 216:Drivers/STM32F4xx_HAL_Driver/Src/stm32f4xx_hal_dma_ex.c ****     __HAL_DMA_CLEAR_FLAG (hdma, __HAL_DMA_GET_FE_FLAG_INDEX(hdma));
 1074              		.loc 1 216 0
ARM GAS  C:\Users\Prashant\AppData\Local\Temp\ccBE48rQ.s 			page 30


 1075 069a 0423     		movs	r3, #4
 1076 069c 8FE7     		b	.L124
 1077              	.LVL43:
 1078              	.L68:
 213:Drivers/STM32F4xx_HAL_Driver/Src/stm32f4xx_hal_dma_ex.c ****     __HAL_DMA_CLEAR_FLAG (hdma, __HAL_DMA_GET_HT_FLAG_INDEX(hdma));
 1079              		.loc 1 213 0
 1080 069e 144B     		ldr	r3, .L196+20
 1081 06a0 2022     		movs	r2, #32
 1082 06a2 9A60     		str	r2, [r3, #8]
 1083              	.LVL44:
 214:Drivers/STM32F4xx_HAL_Driver/Src/stm32f4xx_hal_dma_ex.c ****     __HAL_DMA_CLEAR_FLAG (hdma, __HAL_DMA_GET_TE_FLAG_INDEX(hdma));
 1084              		.loc 1 214 0
 1085 06a4 1022     		movs	r2, #16
 1086 06a6 4EE7     		b	.L121
 1087              	.L82:
 215:Drivers/STM32F4xx_HAL_Driver/Src/stm32f4xx_hal_dma_ex.c ****     __HAL_DMA_CLEAR_FLAG (hdma, __HAL_DMA_GET_DME_FLAG_INDEX(hdma));
 1088              		.loc 1 215 0
 1089 06a8 4FF40072 		mov	r2, #512
 1090 06ac 9A60     		str	r2, [r3, #8]
 216:Drivers/STM32F4xx_HAL_Driver/Src/stm32f4xx_hal_dma_ex.c ****     __HAL_DMA_CLEAR_FLAG (hdma, __HAL_DMA_GET_FE_FLAG_INDEX(hdma));
 1091              		.loc 1 216 0
 1092 06ae 4FF48073 		mov	r3, #256
 1093 06b2 BAE6     		b	.L122
 1094              	.LVL45:
 1095              	.L43:
 213:Drivers/STM32F4xx_HAL_Driver/Src/stm32f4xx_hal_dma_ex.c ****     __HAL_DMA_CLEAR_FLAG (hdma, __HAL_DMA_GET_HT_FLAG_INDEX(hdma));
 1096              		.loc 1 213 0
 1097 06b4 094B     		ldr	r3, .L196
 1098 06b6 4FF40062 		mov	r2, #2048
 1099 06ba 9A60     		str	r2, [r3, #8]
 1100              	.LVL46:
 214:Drivers/STM32F4xx_HAL_Driver/Src/stm32f4xx_hal_dma_ex.c ****     __HAL_DMA_CLEAR_FLAG (hdma, __HAL_DMA_GET_TE_FLAG_INDEX(hdma));
 1101              		.loc 1 214 0
 1102 06bc 4FF48062 		mov	r2, #1024
 1103 06c0 77E6     		b	.L119
 1104              	.L140:
 217:Drivers/STM32F4xx_HAL_Driver/Src/stm32f4xx_hal_dma_ex.c **** 
 1105              		.loc 1 217 0
 1106 06c2 4023     		movs	r3, #64
 1107 06c4 EBE6     		b	.L113
 1108              	.LVL47:
 1109              	.L66:
 213:Drivers/STM32F4xx_HAL_Driver/Src/stm32f4xx_hal_dma_ex.c ****     __HAL_DMA_CLEAR_FLAG (hdma, __HAL_DMA_GET_HT_FLAG_INDEX(hdma));
 1110              		.loc 1 213 0
 1111 06c6 0A4A     		ldr	r2, .L196+20
 1112 06c8 2020     		movs	r0, #32
 1113 06ca 9060     		str	r0, [r2, #8]
 1114              	.LVL48:
 215:Drivers/STM32F4xx_HAL_Driver/Src/stm32f4xx_hal_dma_ex.c ****     __HAL_DMA_CLEAR_FLAG (hdma, __HAL_DMA_GET_DME_FLAG_INDEX(hdma));
 1115              		.loc 1 215 0
 1116 06cc 0823     		movs	r3, #8
 214:Drivers/STM32F4xx_HAL_Driver/Src/stm32f4xx_hal_dma_ex.c ****     __HAL_DMA_CLEAR_FLAG (hdma, __HAL_DMA_GET_TE_FLAG_INDEX(hdma));
 1117              		.loc 1 214 0
 1118 06ce 1025     		movs	r5, #16
 216:Drivers/STM32F4xx_HAL_Driver/Src/stm32f4xx_hal_dma_ex.c ****     __HAL_DMA_CLEAR_FLAG (hdma, __HAL_DMA_GET_FE_FLAG_INDEX(hdma));
 1119              		.loc 1 216 0
 1120 06d0 0420     		movs	r0, #4
ARM GAS  C:\Users\Prashant\AppData\Local\Temp\ccBE48rQ.s 			page 31


 214:Drivers/STM32F4xx_HAL_Driver/Src/stm32f4xx_hal_dma_ex.c ****     __HAL_DMA_CLEAR_FLAG (hdma, __HAL_DMA_GET_TE_FLAG_INDEX(hdma));
 1121              		.loc 1 214 0
 1122 06d2 9560     		str	r5, [r2, #8]
 215:Drivers/STM32F4xx_HAL_Driver/Src/stm32f4xx_hal_dma_ex.c ****     __HAL_DMA_CLEAR_FLAG (hdma, __HAL_DMA_GET_DME_FLAG_INDEX(hdma));
 1123              		.loc 1 215 0
 1124 06d4 9360     		str	r3, [r2, #8]
 217:Drivers/STM32F4xx_HAL_Driver/Src/stm32f4xx_hal_dma_ex.c **** 
 1125              		.loc 1 217 0
 1126 06d6 0123     		movs	r3, #1
 216:Drivers/STM32F4xx_HAL_Driver/Src/stm32f4xx_hal_dma_ex.c ****     __HAL_DMA_CLEAR_FLAG (hdma, __HAL_DMA_GET_FE_FLAG_INDEX(hdma));
 1127              		.loc 1 216 0
 1128 06d8 9060     		str	r0, [r2, #8]
 1129 06da A7E7     		b	.L115
 1130              	.L197:
 1131              		.align	2
 1132              	.L196:
 1133 06dc 00640240 		.word	1073898496
 1134 06e0 10640240 		.word	1073898512
 1135 06e4 70600240 		.word	1073897584
 1136 06e8 A0600240 		.word	1073897632
 1137 06ec 10600240 		.word	1073897488
 1138 06f0 00600240 		.word	1073897472
 1139              	.LVL49:
 1140              	.L53:
 213:Drivers/STM32F4xx_HAL_Driver/Src/stm32f4xx_hal_dma_ex.c ****     __HAL_DMA_CLEAR_FLAG (hdma, __HAL_DMA_GET_HT_FLAG_INDEX(hdma));
 1141              		.loc 1 213 0
 1142 06f4 3B4A     		ldr	r2, .L198
 1143 06f6 2020     		movs	r0, #32
 1144 06f8 D060     		str	r0, [r2, #12]
 1145              	.LVL50:
 215:Drivers/STM32F4xx_HAL_Driver/Src/stm32f4xx_hal_dma_ex.c ****     __HAL_DMA_CLEAR_FLAG (hdma, __HAL_DMA_GET_DME_FLAG_INDEX(hdma));
 1146              		.loc 1 215 0
 1147 06fa 0823     		movs	r3, #8
 214:Drivers/STM32F4xx_HAL_Driver/Src/stm32f4xx_hal_dma_ex.c ****     __HAL_DMA_CLEAR_FLAG (hdma, __HAL_DMA_GET_TE_FLAG_INDEX(hdma));
 1148              		.loc 1 214 0
 1149 06fc 1025     		movs	r5, #16
 216:Drivers/STM32F4xx_HAL_Driver/Src/stm32f4xx_hal_dma_ex.c ****     __HAL_DMA_CLEAR_FLAG (hdma, __HAL_DMA_GET_FE_FLAG_INDEX(hdma));
 1150              		.loc 1 216 0
 1151 06fe 0420     		movs	r0, #4
 214:Drivers/STM32F4xx_HAL_Driver/Src/stm32f4xx_hal_dma_ex.c ****     __HAL_DMA_CLEAR_FLAG (hdma, __HAL_DMA_GET_TE_FLAG_INDEX(hdma));
 1152              		.loc 1 214 0
 1153 0700 D560     		str	r5, [r2, #12]
 215:Drivers/STM32F4xx_HAL_Driver/Src/stm32f4xx_hal_dma_ex.c ****     __HAL_DMA_CLEAR_FLAG (hdma, __HAL_DMA_GET_DME_FLAG_INDEX(hdma));
 1154              		.loc 1 215 0
 1155 0702 D360     		str	r3, [r2, #12]
 217:Drivers/STM32F4xx_HAL_Driver/Src/stm32f4xx_hal_dma_ex.c **** 
 1156              		.loc 1 217 0
 1157 0704 0123     		movs	r3, #1
 216:Drivers/STM32F4xx_HAL_Driver/Src/stm32f4xx_hal_dma_ex.c ****     __HAL_DMA_CLEAR_FLAG (hdma, __HAL_DMA_GET_FE_FLAG_INDEX(hdma));
 1158              		.loc 1 216 0
 1159 0706 D060     		str	r0, [r2, #12]
 1160 0708 FAE5     		b	.L114
 1161              	.LVL51:
 1162              	.L59:
 213:Drivers/STM32F4xx_HAL_Driver/Src/stm32f4xx_hal_dma_ex.c ****     __HAL_DMA_CLEAR_FLAG (hdma, __HAL_DMA_GET_HT_FLAG_INDEX(hdma));
 1163              		.loc 1 213 0
 1164 070a 364B     		ldr	r3, .L198
ARM GAS  C:\Users\Prashant\AppData\Local\Temp\ccBE48rQ.s 			page 32


 1165 070c 4FF40062 		mov	r2, #2048
 1166 0710 DA60     		str	r2, [r3, #12]
 1167              	.LVL52:
 214:Drivers/STM32F4xx_HAL_Driver/Src/stm32f4xx_hal_dma_ex.c ****     __HAL_DMA_CLEAR_FLAG (hdma, __HAL_DMA_GET_TE_FLAG_INDEX(hdma));
 1168              		.loc 1 214 0
 1169 0712 4FF48062 		mov	r2, #1024
 1170 0716 7DE5     		b	.L120
 1171              	.L92:
 215:Drivers/STM32F4xx_HAL_Driver/Src/stm32f4xx_hal_dma_ex.c ****     __HAL_DMA_CLEAR_FLAG (hdma, __HAL_DMA_GET_DME_FLAG_INDEX(hdma));
 1172              		.loc 1 215 0
 1173 0718 4FF40072 		mov	r2, #512
 1174 071c DA60     		str	r2, [r3, #12]
 216:Drivers/STM32F4xx_HAL_Driver/Src/stm32f4xx_hal_dma_ex.c ****     __HAL_DMA_CLEAR_FLAG (hdma, __HAL_DMA_GET_FE_FLAG_INDEX(hdma));
 1175              		.loc 1 216 0
 1176 071e 4FF48073 		mov	r3, #256
 1177 0722 B3E5     		b	.L123
 1178              	.L103:
 215:Drivers/STM32F4xx_HAL_Driver/Src/stm32f4xx_hal_dma_ex.c ****     __HAL_DMA_CLEAR_FLAG (hdma, __HAL_DMA_GET_DME_FLAG_INDEX(hdma));
 1179              		.loc 1 215 0
 1180 0724 4FF40072 		mov	r2, #512
 1181 0728 9A60     		str	r2, [r3, #8]
 216:Drivers/STM32F4xx_HAL_Driver/Src/stm32f4xx_hal_dma_ex.c ****     __HAL_DMA_CLEAR_FLAG (hdma, __HAL_DMA_GET_FE_FLAG_INDEX(hdma));
 1182              		.loc 1 216 0
 1183 072a 4FF48073 		mov	r3, #256
 1184 072e 46E7     		b	.L124
 1185              	.LVL53:
 1186              	.L70:
 213:Drivers/STM32F4xx_HAL_Driver/Src/stm32f4xx_hal_dma_ex.c ****     __HAL_DMA_CLEAR_FLAG (hdma, __HAL_DMA_GET_HT_FLAG_INDEX(hdma));
 1187              		.loc 1 213 0
 1188 0730 2C4B     		ldr	r3, .L198
 1189 0732 4FF40062 		mov	r2, #2048
 1190 0736 9A60     		str	r2, [r3, #8]
 1191              	.LVL54:
 214:Drivers/STM32F4xx_HAL_Driver/Src/stm32f4xx_hal_dma_ex.c ****     __HAL_DMA_CLEAR_FLAG (hdma, __HAL_DMA_GET_TE_FLAG_INDEX(hdma));
 1192              		.loc 1 214 0
 1193 0738 4FF48062 		mov	r2, #1024
 1194 073c 03E7     		b	.L121
 1195              	.L160:
 217:Drivers/STM32F4xx_HAL_Driver/Src/stm32f4xx_hal_dma_ex.c **** 
 1196              		.loc 1 217 0
 1197 073e 4023     		movs	r3, #64
 1198 0740 74E7     		b	.L115
 1199              	.L150:
 1200 0742 4023     		movs	r3, #64
 1201 0744 DCE5     		b	.L114
 1202              	.LVL55:
 1203              	.L34:
 213:Drivers/STM32F4xx_HAL_Driver/Src/stm32f4xx_hal_dma_ex.c ****     __HAL_DMA_CLEAR_FLAG (hdma, __HAL_DMA_GET_HT_FLAG_INDEX(hdma));
 1204              		.loc 1 213 0
 1205 0746 284B     		ldr	r3, .L198+4
 1206 0748 4FF40010 		mov	r0, #2097152
 1207 074c D860     		str	r0, [r3, #12]
 1208              	.LVL56:
 215:Drivers/STM32F4xx_HAL_Driver/Src/stm32f4xx_hal_dma_ex.c ****     __HAL_DMA_CLEAR_FLAG (hdma, __HAL_DMA_GET_DME_FLAG_INDEX(hdma));
 1209              		.loc 1 215 0
 1210 074e 4FF40022 		mov	r2, #524288
 214:Drivers/STM32F4xx_HAL_Driver/Src/stm32f4xx_hal_dma_ex.c ****     __HAL_DMA_CLEAR_FLAG (hdma, __HAL_DMA_GET_TE_FLAG_INDEX(hdma));
ARM GAS  C:\Users\Prashant\AppData\Local\Temp\ccBE48rQ.s 			page 33


 1211              		.loc 1 214 0
 1212 0752 4FF48015 		mov	r5, #1048576
 216:Drivers/STM32F4xx_HAL_Driver/Src/stm32f4xx_hal_dma_ex.c ****     __HAL_DMA_CLEAR_FLAG (hdma, __HAL_DMA_GET_FE_FLAG_INDEX(hdma));
 1213              		.loc 1 216 0
 1214 0756 4FF48020 		mov	r0, #262144
 214:Drivers/STM32F4xx_HAL_Driver/Src/stm32f4xx_hal_dma_ex.c ****     __HAL_DMA_CLEAR_FLAG (hdma, __HAL_DMA_GET_TE_FLAG_INDEX(hdma));
 1215              		.loc 1 214 0
 1216 075a DD60     		str	r5, [r3, #12]
 215:Drivers/STM32F4xx_HAL_Driver/Src/stm32f4xx_hal_dma_ex.c ****     __HAL_DMA_CLEAR_FLAG (hdma, __HAL_DMA_GET_DME_FLAG_INDEX(hdma));
 1217              		.loc 1 215 0
 1218 075c DA60     		str	r2, [r3, #12]
 217:Drivers/STM32F4xx_HAL_Driver/Src/stm32f4xx_hal_dma_ex.c **** 
 1219              		.loc 1 217 0
 1220 075e 4FF48032 		mov	r2, #65536
 216:Drivers/STM32F4xx_HAL_Driver/Src/stm32f4xx_hal_dma_ex.c ****     __HAL_DMA_CLEAR_FLAG (hdma, __HAL_DMA_GET_FE_FLAG_INDEX(hdma));
 1221              		.loc 1 216 0
 1222 0762 D860     		str	r0, [r3, #12]
 1223 0764 DBE4     		b	.L118
 1224              	.LVL57:
 1225              	.L47:
 213:Drivers/STM32F4xx_HAL_Driver/Src/stm32f4xx_hal_dma_ex.c ****     __HAL_DMA_CLEAR_FLAG (hdma, __HAL_DMA_GET_HT_FLAG_INDEX(hdma));
 1226              		.loc 1 213 0
 1227 0766 204B     		ldr	r3, .L198+4
 1228 0768 4FF40012 		mov	r2, #2097152
 1229 076c 9A60     		str	r2, [r3, #8]
 1230              	.LVL58:
 214:Drivers/STM32F4xx_HAL_Driver/Src/stm32f4xx_hal_dma_ex.c ****     __HAL_DMA_CLEAR_FLAG (hdma, __HAL_DMA_GET_TE_FLAG_INDEX(hdma));
 1231              		.loc 1 214 0
 1232 076e 4FF48012 		mov	r2, #1048576
 1233 0772 1EE6     		b	.L119
 1234              	.L143:
 217:Drivers/STM32F4xx_HAL_Driver/Src/stm32f4xx_hal_dma_ex.c **** 
 1235              		.loc 1 217 0
 1236 0774 4FF48033 		mov	r3, #65536
 1237 0778 91E6     		b	.L113
 1238              	.L85:
 215:Drivers/STM32F4xx_HAL_Driver/Src/stm32f4xx_hal_dma_ex.c ****     __HAL_DMA_CLEAR_FLAG (hdma, __HAL_DMA_GET_DME_FLAG_INDEX(hdma));
 1239              		.loc 1 215 0
 1240 077a 4FF40022 		mov	r2, #524288
 1241 077e 9A60     		str	r2, [r3, #8]
 216:Drivers/STM32F4xx_HAL_Driver/Src/stm32f4xx_hal_dma_ex.c ****     __HAL_DMA_CLEAR_FLAG (hdma, __HAL_DMA_GET_FE_FLAG_INDEX(hdma));
 1242              		.loc 1 216 0
 1243 0780 4FF48023 		mov	r3, #262144
 1244 0784 51E6     		b	.L122
 1245              	.LVL59:
 1246              	.L77:
 213:Drivers/STM32F4xx_HAL_Driver/Src/stm32f4xx_hal_dma_ex.c ****     __HAL_DMA_CLEAR_FLAG (hdma, __HAL_DMA_GET_HT_FLAG_INDEX(hdma));
 1247              		.loc 1 213 0
 1248 0786 174B     		ldr	r3, .L198
 1249 0788 4FF40012 		mov	r2, #2097152
 1250 078c 9A60     		str	r2, [r3, #8]
 1251              	.LVL60:
 214:Drivers/STM32F4xx_HAL_Driver/Src/stm32f4xx_hal_dma_ex.c ****     __HAL_DMA_CLEAR_FLAG (hdma, __HAL_DMA_GET_TE_FLAG_INDEX(hdma));
 1252              		.loc 1 214 0
 1253 078e 4FF48012 		mov	r2, #1048576
 1254 0792 D8E6     		b	.L121
 1255              	.LVL61:
ARM GAS  C:\Users\Prashant\AppData\Local\Temp\ccBE48rQ.s 			page 34


 1256              	.L64:
 213:Drivers/STM32F4xx_HAL_Driver/Src/stm32f4xx_hal_dma_ex.c ****     __HAL_DMA_CLEAR_FLAG (hdma, __HAL_DMA_GET_HT_FLAG_INDEX(hdma));
 1257              		.loc 1 213 0
 1258 0794 134B     		ldr	r3, .L198
 1259 0796 4FF40012 		mov	r2, #2097152
 1260 079a DA60     		str	r2, [r3, #12]
 1261              	.LVL62:
 214:Drivers/STM32F4xx_HAL_Driver/Src/stm32f4xx_hal_dma_ex.c ****     __HAL_DMA_CLEAR_FLAG (hdma, __HAL_DMA_GET_TE_FLAG_INDEX(hdma));
 1262              		.loc 1 214 0
 1263 079c 4FF48012 		mov	r2, #1048576
 1264 07a0 38E5     		b	.L120
 1265              	.L109:
 215:Drivers/STM32F4xx_HAL_Driver/Src/stm32f4xx_hal_dma_ex.c ****     __HAL_DMA_CLEAR_FLAG (hdma, __HAL_DMA_GET_DME_FLAG_INDEX(hdma));
 1266              		.loc 1 215 0
 1267 07a2 104B     		ldr	r3, .L198
 1268              	.L189:
 1269 07a4 4FF40022 		mov	r2, #524288
 1270 07a8 9A60     		str	r2, [r3, #8]
 216:Drivers/STM32F4xx_HAL_Driver/Src/stm32f4xx_hal_dma_ex.c ****     __HAL_DMA_CLEAR_FLAG (hdma, __HAL_DMA_GET_FE_FLAG_INDEX(hdma));
 1271              		.loc 1 216 0
 1272 07aa 4FF48023 		mov	r3, #262144
 1273 07ae 06E7     		b	.L124
 1274              	.L153:
 217:Drivers/STM32F4xx_HAL_Driver/Src/stm32f4xx_hal_dma_ex.c **** 
 1275              		.loc 1 217 0
 1276 07b0 4FF48033 		mov	r3, #65536
 1277 07b4 A4E5     		b	.L114
 1278              	.L163:
 1279 07b6 4FF48033 		mov	r3, #65536
 1280 07ba 37E7     		b	.L115
 1281              	.L96:
 215:Drivers/STM32F4xx_HAL_Driver/Src/stm32f4xx_hal_dma_ex.c ****     __HAL_DMA_CLEAR_FLAG (hdma, __HAL_DMA_GET_DME_FLAG_INDEX(hdma));
 1282              		.loc 1 215 0
 1283 07bc 4FF40022 		mov	r2, #524288
 1284 07c0 DA60     		str	r2, [r3, #12]
 216:Drivers/STM32F4xx_HAL_Driver/Src/stm32f4xx_hal_dma_ex.c ****     __HAL_DMA_CLEAR_FLAG (hdma, __HAL_DMA_GET_FE_FLAG_INDEX(hdma));
 1285              		.loc 1 216 0
 1286 07c2 4FF48023 		mov	r3, #262144
 1287 07c6 61E5     		b	.L123
 1288              	.L88:
 215:Drivers/STM32F4xx_HAL_Driver/Src/stm32f4xx_hal_dma_ex.c ****     __HAL_DMA_CLEAR_FLAG (hdma, __HAL_DMA_GET_DME_FLAG_INDEX(hdma));
 1289              		.loc 1 215 0
 1290 07c8 074B     		ldr	r3, .L198+4
 1291 07ca 4FF40022 		mov	r2, #524288
 1292 07ce 9A60     		str	r2, [r3, #8]
 216:Drivers/STM32F4xx_HAL_Driver/Src/stm32f4xx_hal_dma_ex.c ****     __HAL_DMA_CLEAR_FLAG (hdma, __HAL_DMA_GET_FE_FLAG_INDEX(hdma));
 1293              		.loc 1 216 0
 1294 07d0 4FF48023 		mov	r3, #262144
 1295 07d4 29E6     		b	.L122
 1296              	.L99:
 215:Drivers/STM32F4xx_HAL_Driver/Src/stm32f4xx_hal_dma_ex.c ****     __HAL_DMA_CLEAR_FLAG (hdma, __HAL_DMA_GET_DME_FLAG_INDEX(hdma));
 1297              		.loc 1 215 0
 1298 07d6 034B     		ldr	r3, .L198
 1299 07d8 4FF40022 		mov	r2, #524288
 1300 07dc DA60     		str	r2, [r3, #12]
 216:Drivers/STM32F4xx_HAL_Driver/Src/stm32f4xx_hal_dma_ex.c ****     __HAL_DMA_CLEAR_FLAG (hdma, __HAL_DMA_GET_FE_FLAG_INDEX(hdma));
 1301              		.loc 1 216 0
ARM GAS  C:\Users\Prashant\AppData\Local\Temp\ccBE48rQ.s 			page 35


 1302 07de 4FF48023 		mov	r3, #262144
 1303 07e2 53E5     		b	.L123
 1304              	.L199:
 1305              		.align	2
 1306              	.L198:
 1307 07e4 00600240 		.word	1073897472
 1308 07e8 00640240 		.word	1073898496
 1309              		.cfi_endproc
 1310              	.LFE127:
 1312              		.section	.text.HAL_DMAEx_ChangeMemory,"ax",%progbits
 1313              		.align	1
 1314              		.p2align 2,,3
 1315              		.global	HAL_DMAEx_ChangeMemory
 1316              		.syntax unified
 1317              		.thumb
 1318              		.thumb_func
 1319              		.fpu fpv4-sp-d16
 1321              	HAL_DMAEx_ChangeMemory:
 1322              	.LFB128:
 257:Drivers/STM32F4xx_HAL_Driver/Src/stm32f4xx_hal_dma_ex.c ****   if(memory == MEMORY0)
 1323              		.loc 1 257 0
 1324              		.cfi_startproc
 1325              		@ args = 0, pretend = 0, frame = 0
 1326              		@ frame_needed = 0, uses_anonymous_args = 0
 1327              		@ link register save eliminated.
 1328              	.LVL63:
 1329 0000 0368     		ldr	r3, [r0]
 258:Drivers/STM32F4xx_HAL_Driver/Src/stm32f4xx_hal_dma_ex.c ****   {
 1330              		.loc 1 258 0
 1331 0002 12B1     		cbz	r2, .L203
 266:Drivers/STM32F4xx_HAL_Driver/Src/stm32f4xx_hal_dma_ex.c ****   }
 1332              		.loc 1 266 0
 1333 0004 1961     		str	r1, [r3, #16]
 270:Drivers/STM32F4xx_HAL_Driver/Src/stm32f4xx_hal_dma_ex.c **** 
 1334              		.loc 1 270 0
 1335 0006 0020     		movs	r0, #0
 1336              	.LVL64:
 1337 0008 7047     		bx	lr
 1338              	.LVL65:
 1339              	.L203:
 261:Drivers/STM32F4xx_HAL_Driver/Src/stm32f4xx_hal_dma_ex.c ****   }
 1340              		.loc 1 261 0
 1341 000a D960     		str	r1, [r3, #12]
 270:Drivers/STM32F4xx_HAL_Driver/Src/stm32f4xx_hal_dma_ex.c **** 
 1342              		.loc 1 270 0
 1343 000c 0020     		movs	r0, #0
 1344              	.LVL66:
 1345 000e 7047     		bx	lr
 1346              		.cfi_endproc
 1347              	.LFE128:
 1349              		.section	.rodata.HAL_DMAEx_MultiBufferStart.str1.4,"aMS",%progbits,1
 1350              		.align	2
 1351              	.LC0:
 1352 0000 44726976 		.ascii	"Drivers/STM32F4xx_HAL_Driver/Src/stm32f4xx_hal_dma_"
 1352      6572732F 
 1352      53544D33 
 1352      32463478 
ARM GAS  C:\Users\Prashant\AppData\Local\Temp\ccBE48rQ.s 			page 36


 1352      785F4841 
 1353 0033 65782E63 		.ascii	"ex.c\000"
 1353      00
 1354              		.text
 1355              	.Letext0:
 1356              		.file 2 "c:\\program files (x86)\\gnu tools arm embedded\\7 2017-q4-major\\arm-none-eabi\\include\
 1357              		.file 3 "c:\\program files (x86)\\gnu tools arm embedded\\7 2017-q4-major\\arm-none-eabi\\include\
 1358              		.file 4 "Drivers/CMSIS/Include/core_cm4.h"
 1359              		.file 5 "Drivers/CMSIS/Device/ST/STM32F4xx/Include/system_stm32f4xx.h"
 1360              		.file 6 "Drivers/CMSIS/Device/ST/STM32F4xx/Include/stm32f407xx.h"
 1361              		.file 7 "c:\\program files (x86)\\gnu tools arm embedded\\7 2017-q4-major\\arm-none-eabi\\include\
 1362              		.file 8 "c:\\program files (x86)\\gnu tools arm embedded\\7 2017-q4-major\\arm-none-eabi\\include\
 1363              		.file 9 "c:\\program files (x86)\\gnu tools arm embedded\\7 2017-q4-major\\lib\\gcc\\arm-none-eabi
 1364              		.file 10 "c:\\program files (x86)\\gnu tools arm embedded\\7 2017-q4-major\\arm-none-eabi\\include
 1365              		.file 11 "Drivers/STM32F4xx_HAL_Driver/Inc/stm32f4xx_hal_def.h"
 1366              		.file 12 "Drivers/STM32F4xx_HAL_Driver/Inc/stm32f4xx_hal_dma.h"
 1367              		.file 13 "Drivers/STM32F4xx_HAL_Driver/Inc/stm32f4xx_hal_dma_ex.h"
 1368              		.file 14 "Core/Inc/stm32f4xx_hal_conf.h"
ARM GAS  C:\Users\Prashant\AppData\Local\Temp\ccBE48rQ.s 			page 37

