ARM GAS  C:\Users\Prashant\AppData\Local\Temp\ccmehksT.s 			page 1


   1              		.cpu cortex-m4
   2              		.eabi_attribute 27, 1
   3              		.eabi_attribute 28, 1
   4              		.eabi_attribute 20, 1
   5              		.eabi_attribute 21, 1
   6              		.eabi_attribute 23, 3
   7              		.eabi_attribute 24, 1
   8              		.eabi_attribute 25, 1
   9              		.eabi_attribute 26, 1
  10              		.eabi_attribute 30, 2
  11              		.eabi_attribute 34, 1
  12              		.eabi_attribute 18, 4
  13              		.file	"stm32f4xx_it.c"
  14              		.text
  15              	.Ltext0:
  16              		.cfi_sections	.debug_frame
  17              		.section	.text.NMI_Handler,"ax",%progbits
  18              		.align	1
  19              		.p2align 2,,3
  20              		.global	NMI_Handler
  21              		.syntax unified
  22              		.thumb
  23              		.thumb_func
  24              		.fpu fpv4-sp-d16
  26              	NMI_Handler:
  27              	.LFB126:
  28              		.file 1 "Core/Src/stm32f4xx_it.c"
   1:Core/Src/stm32f4xx_it.c **** /**
   2:Core/Src/stm32f4xx_it.c ****   ******************************************************************************
   3:Core/Src/stm32f4xx_it.c ****   * @file    stm32f4xx_it.c
   4:Core/Src/stm32f4xx_it.c ****   * @brief   Interrupt Service Routines.
   5:Core/Src/stm32f4xx_it.c ****   ******************************************************************************
   6:Core/Src/stm32f4xx_it.c ****   *
   7:Core/Src/stm32f4xx_it.c ****   * COPYRIGHT(c) 2019 STMicroelectronics
   8:Core/Src/stm32f4xx_it.c ****   *
   9:Core/Src/stm32f4xx_it.c ****   * Redistribution and use in source and binary forms, with or without modification,
  10:Core/Src/stm32f4xx_it.c ****   * are permitted provided that the following conditions are met:
  11:Core/Src/stm32f4xx_it.c ****   *   1. Redistributions of source code must retain the above copyright notice,
  12:Core/Src/stm32f4xx_it.c ****   *      this list of conditions and the following disclaimer.
  13:Core/Src/stm32f4xx_it.c ****   *   2. Redistributions in binary form must reproduce the above copyright notice,
  14:Core/Src/stm32f4xx_it.c ****   *      this list of conditions and the following disclaimer in the documentation
  15:Core/Src/stm32f4xx_it.c ****   *      and/or other materials provided with the distribution.
  16:Core/Src/stm32f4xx_it.c ****   *   3. Neither the name of STMicroelectronics nor the names of its contributors
  17:Core/Src/stm32f4xx_it.c ****   *      may be used to endorse or promote products derived from this software
  18:Core/Src/stm32f4xx_it.c ****   *      without specific prior written permission.
  19:Core/Src/stm32f4xx_it.c ****   *
  20:Core/Src/stm32f4xx_it.c ****   * THIS SOFTWARE IS PROVIDED BY THE COPYRIGHT HOLDERS AND CONTRIBUTORS "AS IS"
  21:Core/Src/stm32f4xx_it.c ****   * AND ANY EXPRESS OR IMPLIED WARRANTIES, INCLUDING, BUT NOT LIMITED TO, THE
  22:Core/Src/stm32f4xx_it.c ****   * IMPLIED WARRANTIES OF MERCHANTABILITY AND FITNESS FOR A PARTICULAR PURPOSE ARE
  23:Core/Src/stm32f4xx_it.c ****   * DISCLAIMED. IN NO EVENT SHALL THE COPYRIGHT HOLDER OR CONTRIBUTORS BE LIABLE
  24:Core/Src/stm32f4xx_it.c ****   * FOR ANY DIRECT, INDIRECT, INCIDENTAL, SPECIAL, EXEMPLARY, OR CONSEQUENTIAL
  25:Core/Src/stm32f4xx_it.c ****   * DAMAGES (INCLUDING, BUT NOT LIMITED TO, PROCUREMENT OF SUBSTITUTE GOODS OR
  26:Core/Src/stm32f4xx_it.c ****   * SERVICES; LOSS OF USE, DATA, OR PROFITS; OR BUSINESS INTERRUPTION) HOWEVER
  27:Core/Src/stm32f4xx_it.c ****   * CAUSED AND ON ANY THEORY OF LIABILITY, WHETHER IN CONTRACT, STRICT LIABILITY,
  28:Core/Src/stm32f4xx_it.c ****   * OR TORT (INCLUDING NEGLIGENCE OR OTHERWISE) ARISING IN ANY WAY OUT OF THE USE
  29:Core/Src/stm32f4xx_it.c ****   * OF THIS SOFTWARE, EVEN IF ADVISED OF THE POSSIBILITY OF SUCH DAMAGE.
  30:Core/Src/stm32f4xx_it.c ****   *
ARM GAS  C:\Users\Prashant\AppData\Local\Temp\ccmehksT.s 			page 2


  31:Core/Src/stm32f4xx_it.c ****   ******************************************************************************
  32:Core/Src/stm32f4xx_it.c ****   */
  33:Core/Src/stm32f4xx_it.c **** /* Includes ------------------------------------------------------------------*/
  34:Core/Src/stm32f4xx_it.c **** #include "stm32f4xx_hal.h"
  35:Core/Src/stm32f4xx_it.c **** #include "stm32f4xx.h"
  36:Core/Src/stm32f4xx_it.c **** #include "stm32f4xx_it.h"
  37:Core/Src/stm32f4xx_it.c **** 
  38:Core/Src/stm32f4xx_it.c **** /* USER CODE BEGIN 0 */
  39:Core/Src/stm32f4xx_it.c **** 
  40:Core/Src/stm32f4xx_it.c **** /* USER CODE END 0 */
  41:Core/Src/stm32f4xx_it.c **** 
  42:Core/Src/stm32f4xx_it.c **** /* External variables --------------------------------------------------------*/
  43:Core/Src/stm32f4xx_it.c **** 
  44:Core/Src/stm32f4xx_it.c **** /******************************************************************************/
  45:Core/Src/stm32f4xx_it.c **** /*            Cortex-M4 Processor Interruption and Exception Handlers         */ 
  46:Core/Src/stm32f4xx_it.c **** /******************************************************************************/
  47:Core/Src/stm32f4xx_it.c **** 
  48:Core/Src/stm32f4xx_it.c **** /**
  49:Core/Src/stm32f4xx_it.c **** * @brief This function handles Non maskable interrupt.
  50:Core/Src/stm32f4xx_it.c **** */
  51:Core/Src/stm32f4xx_it.c **** void NMI_Handler(void)
  52:Core/Src/stm32f4xx_it.c **** {
  29              		.loc 1 52 0
  30              		.cfi_startproc
  31              		@ args = 0, pretend = 0, frame = 0
  32              		@ frame_needed = 0, uses_anonymous_args = 0
  33              		@ link register save eliminated.
  53:Core/Src/stm32f4xx_it.c ****   /* USER CODE BEGIN NonMaskableInt_IRQn 0 */
  54:Core/Src/stm32f4xx_it.c **** 
  55:Core/Src/stm32f4xx_it.c ****   /* USER CODE END NonMaskableInt_IRQn 0 */
  56:Core/Src/stm32f4xx_it.c ****   /* USER CODE BEGIN NonMaskableInt_IRQn 1 */
  57:Core/Src/stm32f4xx_it.c **** 
  58:Core/Src/stm32f4xx_it.c ****   /* USER CODE END NonMaskableInt_IRQn 1 */
  59:Core/Src/stm32f4xx_it.c **** }
  34              		.loc 1 59 0
  35 0000 7047     		bx	lr
  36              		.cfi_endproc
  37              	.LFE126:
  39 0002 00BF     		.section	.text.HardFault_Handler,"ax",%progbits
  40              		.align	1
  41              		.p2align 2,,3
  42              		.global	HardFault_Handler
  43              		.syntax unified
  44              		.thumb
  45              		.thumb_func
  46              		.fpu fpv4-sp-d16
  48              	HardFault_Handler:
  49              	.LFB127:
  60:Core/Src/stm32f4xx_it.c **** 
  61:Core/Src/stm32f4xx_it.c **** /**
  62:Core/Src/stm32f4xx_it.c **** * @brief This function handles Hard fault interrupt.
  63:Core/Src/stm32f4xx_it.c **** */
  64:Core/Src/stm32f4xx_it.c **** void HardFault_Handler(void)
  65:Core/Src/stm32f4xx_it.c **** {
  50              		.loc 1 65 0
  51              		.cfi_startproc
  52              		@ Volatile: function does not return.
ARM GAS  C:\Users\Prashant\AppData\Local\Temp\ccmehksT.s 			page 3


  53              		@ args = 0, pretend = 0, frame = 0
  54              		@ frame_needed = 0, uses_anonymous_args = 0
  55              		@ link register save eliminated.
  56              	.L4:
  57 0000 FEE7     		b	.L4
  58              		.cfi_endproc
  59              	.LFE127:
  61 0002 00BF     		.section	.text.MemManage_Handler,"ax",%progbits
  62              		.align	1
  63              		.p2align 2,,3
  64              		.global	MemManage_Handler
  65              		.syntax unified
  66              		.thumb
  67              		.thumb_func
  68              		.fpu fpv4-sp-d16
  70              	MemManage_Handler:
  71              	.LFB128:
  66:Core/Src/stm32f4xx_it.c ****   /* USER CODE BEGIN HardFault_IRQn 0 */
  67:Core/Src/stm32f4xx_it.c **** 
  68:Core/Src/stm32f4xx_it.c ****   /* USER CODE END HardFault_IRQn 0 */
  69:Core/Src/stm32f4xx_it.c ****   while (1)
  70:Core/Src/stm32f4xx_it.c ****   {
  71:Core/Src/stm32f4xx_it.c ****     /* USER CODE BEGIN W1_HardFault_IRQn 0 */
  72:Core/Src/stm32f4xx_it.c ****     /* USER CODE END W1_HardFault_IRQn 0 */
  73:Core/Src/stm32f4xx_it.c ****   }
  74:Core/Src/stm32f4xx_it.c ****   /* USER CODE BEGIN HardFault_IRQn 1 */
  75:Core/Src/stm32f4xx_it.c **** 
  76:Core/Src/stm32f4xx_it.c ****   /* USER CODE END HardFault_IRQn 1 */
  77:Core/Src/stm32f4xx_it.c **** }
  78:Core/Src/stm32f4xx_it.c **** 
  79:Core/Src/stm32f4xx_it.c **** /**
  80:Core/Src/stm32f4xx_it.c **** * @brief This function handles Memory management fault.
  81:Core/Src/stm32f4xx_it.c **** */
  82:Core/Src/stm32f4xx_it.c **** void MemManage_Handler(void)
  83:Core/Src/stm32f4xx_it.c **** {
  72              		.loc 1 83 0
  73              		.cfi_startproc
  74              		@ Volatile: function does not return.
  75              		@ args = 0, pretend = 0, frame = 0
  76              		@ frame_needed = 0, uses_anonymous_args = 0
  77              		@ link register save eliminated.
  78              	.L6:
  79 0000 FEE7     		b	.L6
  80              		.cfi_endproc
  81              	.LFE128:
  83 0002 00BF     		.section	.text.BusFault_Handler,"ax",%progbits
  84              		.align	1
  85              		.p2align 2,,3
  86              		.global	BusFault_Handler
  87              		.syntax unified
  88              		.thumb
  89              		.thumb_func
  90              		.fpu fpv4-sp-d16
  92              	BusFault_Handler:
  93              	.LFB129:
  84:Core/Src/stm32f4xx_it.c ****   /* USER CODE BEGIN MemoryManagement_IRQn 0 */
  85:Core/Src/stm32f4xx_it.c **** 
ARM GAS  C:\Users\Prashant\AppData\Local\Temp\ccmehksT.s 			page 4


  86:Core/Src/stm32f4xx_it.c ****   /* USER CODE END MemoryManagement_IRQn 0 */
  87:Core/Src/stm32f4xx_it.c ****   while (1)
  88:Core/Src/stm32f4xx_it.c ****   {
  89:Core/Src/stm32f4xx_it.c ****     /* USER CODE BEGIN W1_MemoryManagement_IRQn 0 */
  90:Core/Src/stm32f4xx_it.c ****     /* USER CODE END W1_MemoryManagement_IRQn 0 */
  91:Core/Src/stm32f4xx_it.c ****   }
  92:Core/Src/stm32f4xx_it.c ****   /* USER CODE BEGIN MemoryManagement_IRQn 1 */
  93:Core/Src/stm32f4xx_it.c **** 
  94:Core/Src/stm32f4xx_it.c ****   /* USER CODE END MemoryManagement_IRQn 1 */
  95:Core/Src/stm32f4xx_it.c **** }
  96:Core/Src/stm32f4xx_it.c **** 
  97:Core/Src/stm32f4xx_it.c **** /**
  98:Core/Src/stm32f4xx_it.c **** * @brief This function handles Pre-fetch fault, memory access fault.
  99:Core/Src/stm32f4xx_it.c **** */
 100:Core/Src/stm32f4xx_it.c **** void BusFault_Handler(void)
 101:Core/Src/stm32f4xx_it.c **** {
  94              		.loc 1 101 0
  95              		.cfi_startproc
  96              		@ Volatile: function does not return.
  97              		@ args = 0, pretend = 0, frame = 0
  98              		@ frame_needed = 0, uses_anonymous_args = 0
  99              		@ link register save eliminated.
 100              	.L8:
 101 0000 FEE7     		b	.L8
 102              		.cfi_endproc
 103              	.LFE129:
 105 0002 00BF     		.section	.text.UsageFault_Handler,"ax",%progbits
 106              		.align	1
 107              		.p2align 2,,3
 108              		.global	UsageFault_Handler
 109              		.syntax unified
 110              		.thumb
 111              		.thumb_func
 112              		.fpu fpv4-sp-d16
 114              	UsageFault_Handler:
 115              	.LFB130:
 102:Core/Src/stm32f4xx_it.c ****   /* USER CODE BEGIN BusFault_IRQn 0 */
 103:Core/Src/stm32f4xx_it.c **** 
 104:Core/Src/stm32f4xx_it.c ****   /* USER CODE END BusFault_IRQn 0 */
 105:Core/Src/stm32f4xx_it.c ****   while (1)
 106:Core/Src/stm32f4xx_it.c ****   {
 107:Core/Src/stm32f4xx_it.c ****     /* USER CODE BEGIN W1_BusFault_IRQn 0 */
 108:Core/Src/stm32f4xx_it.c ****     /* USER CODE END W1_BusFault_IRQn 0 */
 109:Core/Src/stm32f4xx_it.c ****   }
 110:Core/Src/stm32f4xx_it.c ****   /* USER CODE BEGIN BusFault_IRQn 1 */
 111:Core/Src/stm32f4xx_it.c **** 
 112:Core/Src/stm32f4xx_it.c ****   /* USER CODE END BusFault_IRQn 1 */
 113:Core/Src/stm32f4xx_it.c **** }
 114:Core/Src/stm32f4xx_it.c **** 
 115:Core/Src/stm32f4xx_it.c **** /**
 116:Core/Src/stm32f4xx_it.c **** * @brief This function handles Undefined instruction or illegal state.
 117:Core/Src/stm32f4xx_it.c **** */
 118:Core/Src/stm32f4xx_it.c **** void UsageFault_Handler(void)
 119:Core/Src/stm32f4xx_it.c **** {
 116              		.loc 1 119 0
 117              		.cfi_startproc
 118              		@ Volatile: function does not return.
ARM GAS  C:\Users\Prashant\AppData\Local\Temp\ccmehksT.s 			page 5


 119              		@ args = 0, pretend = 0, frame = 0
 120              		@ frame_needed = 0, uses_anonymous_args = 0
 121              		@ link register save eliminated.
 122              	.L10:
 123 0000 FEE7     		b	.L10
 124              		.cfi_endproc
 125              	.LFE130:
 127 0002 00BF     		.section	.text.SVC_Handler,"ax",%progbits
 128              		.align	1
 129              		.p2align 2,,3
 130              		.global	SVC_Handler
 131              		.syntax unified
 132              		.thumb
 133              		.thumb_func
 134              		.fpu fpv4-sp-d16
 136              	SVC_Handler:
 137              	.LFB136:
 138              		.cfi_startproc
 139              		@ args = 0, pretend = 0, frame = 0
 140              		@ frame_needed = 0, uses_anonymous_args = 0
 141              		@ link register save eliminated.
 142 0000 7047     		bx	lr
 143              		.cfi_endproc
 144              	.LFE136:
 146 0002 00BF     		.section	.text.DebugMon_Handler,"ax",%progbits
 147              		.align	1
 148              		.p2align 2,,3
 149              		.global	DebugMon_Handler
 150              		.syntax unified
 151              		.thumb
 152              		.thumb_func
 153              		.fpu fpv4-sp-d16
 155              	DebugMon_Handler:
 156              	.LFB138:
 157              		.cfi_startproc
 158              		@ args = 0, pretend = 0, frame = 0
 159              		@ frame_needed = 0, uses_anonymous_args = 0
 160              		@ link register save eliminated.
 161 0000 7047     		bx	lr
 162              		.cfi_endproc
 163              	.LFE138:
 165 0002 00BF     		.section	.text.PendSV_Handler,"ax",%progbits
 166              		.align	1
 167              		.p2align 2,,3
 168              		.global	PendSV_Handler
 169              		.syntax unified
 170              		.thumb
 171              		.thumb_func
 172              		.fpu fpv4-sp-d16
 174              	PendSV_Handler:
 175              	.LFB140:
 176              		.cfi_startproc
 177              		@ args = 0, pretend = 0, frame = 0
 178              		@ frame_needed = 0, uses_anonymous_args = 0
 179              		@ link register save eliminated.
 180 0000 7047     		bx	lr
 181              		.cfi_endproc
ARM GAS  C:\Users\Prashant\AppData\Local\Temp\ccmehksT.s 			page 6


 182              	.LFE140:
 184 0002 00BF     		.section	.text.SysTick_Handler,"ax",%progbits
 185              		.align	1
 186              		.p2align 2,,3
 187              		.global	SysTick_Handler
 188              		.syntax unified
 189              		.thumb
 190              		.thumb_func
 191              		.fpu fpv4-sp-d16
 193              	SysTick_Handler:
 194              	.LFB134:
 120:Core/Src/stm32f4xx_it.c ****   /* USER CODE BEGIN UsageFault_IRQn 0 */
 121:Core/Src/stm32f4xx_it.c **** 
 122:Core/Src/stm32f4xx_it.c ****   /* USER CODE END UsageFault_IRQn 0 */
 123:Core/Src/stm32f4xx_it.c ****   while (1)
 124:Core/Src/stm32f4xx_it.c ****   {
 125:Core/Src/stm32f4xx_it.c ****     /* USER CODE BEGIN W1_UsageFault_IRQn 0 */
 126:Core/Src/stm32f4xx_it.c ****     /* USER CODE END W1_UsageFault_IRQn 0 */
 127:Core/Src/stm32f4xx_it.c ****   }
 128:Core/Src/stm32f4xx_it.c ****   /* USER CODE BEGIN UsageFault_IRQn 1 */
 129:Core/Src/stm32f4xx_it.c **** 
 130:Core/Src/stm32f4xx_it.c ****   /* USER CODE END UsageFault_IRQn 1 */
 131:Core/Src/stm32f4xx_it.c **** }
 132:Core/Src/stm32f4xx_it.c **** 
 133:Core/Src/stm32f4xx_it.c **** /**
 134:Core/Src/stm32f4xx_it.c **** * @brief This function handles System service call via SWI instruction.
 135:Core/Src/stm32f4xx_it.c **** */
 136:Core/Src/stm32f4xx_it.c **** void SVC_Handler(void)
 137:Core/Src/stm32f4xx_it.c **** {
 138:Core/Src/stm32f4xx_it.c ****   /* USER CODE BEGIN SVCall_IRQn 0 */
 139:Core/Src/stm32f4xx_it.c **** 
 140:Core/Src/stm32f4xx_it.c ****   /* USER CODE END SVCall_IRQn 0 */
 141:Core/Src/stm32f4xx_it.c ****   /* USER CODE BEGIN SVCall_IRQn 1 */
 142:Core/Src/stm32f4xx_it.c **** 
 143:Core/Src/stm32f4xx_it.c ****   /* USER CODE END SVCall_IRQn 1 */
 144:Core/Src/stm32f4xx_it.c **** }
 145:Core/Src/stm32f4xx_it.c **** 
 146:Core/Src/stm32f4xx_it.c **** /**
 147:Core/Src/stm32f4xx_it.c **** * @brief This function handles Debug monitor.
 148:Core/Src/stm32f4xx_it.c **** */
 149:Core/Src/stm32f4xx_it.c **** void DebugMon_Handler(void)
 150:Core/Src/stm32f4xx_it.c **** {
 151:Core/Src/stm32f4xx_it.c ****   /* USER CODE BEGIN DebugMonitor_IRQn 0 */
 152:Core/Src/stm32f4xx_it.c **** 
 153:Core/Src/stm32f4xx_it.c ****   /* USER CODE END DebugMonitor_IRQn 0 */
 154:Core/Src/stm32f4xx_it.c ****   /* USER CODE BEGIN DebugMonitor_IRQn 1 */
 155:Core/Src/stm32f4xx_it.c **** 
 156:Core/Src/stm32f4xx_it.c ****   /* USER CODE END DebugMonitor_IRQn 1 */
 157:Core/Src/stm32f4xx_it.c **** }
 158:Core/Src/stm32f4xx_it.c **** 
 159:Core/Src/stm32f4xx_it.c **** /**
 160:Core/Src/stm32f4xx_it.c **** * @brief This function handles Pendable request for system service.
 161:Core/Src/stm32f4xx_it.c **** */
 162:Core/Src/stm32f4xx_it.c **** void PendSV_Handler(void)
 163:Core/Src/stm32f4xx_it.c **** {
 164:Core/Src/stm32f4xx_it.c ****   /* USER CODE BEGIN PendSV_IRQn 0 */
 165:Core/Src/stm32f4xx_it.c **** 
ARM GAS  C:\Users\Prashant\AppData\Local\Temp\ccmehksT.s 			page 7


 166:Core/Src/stm32f4xx_it.c ****   /* USER CODE END PendSV_IRQn 0 */
 167:Core/Src/stm32f4xx_it.c ****   /* USER CODE BEGIN PendSV_IRQn 1 */
 168:Core/Src/stm32f4xx_it.c **** 
 169:Core/Src/stm32f4xx_it.c ****   /* USER CODE END PendSV_IRQn 1 */
 170:Core/Src/stm32f4xx_it.c **** }
 171:Core/Src/stm32f4xx_it.c **** 
 172:Core/Src/stm32f4xx_it.c **** /**
 173:Core/Src/stm32f4xx_it.c **** * @brief This function handles System tick timer.
 174:Core/Src/stm32f4xx_it.c **** */
 175:Core/Src/stm32f4xx_it.c **** void SysTick_Handler(void)
 176:Core/Src/stm32f4xx_it.c **** {
 195              		.loc 1 176 0
 196              		.cfi_startproc
 197              		@ args = 0, pretend = 0, frame = 0
 198              		@ frame_needed = 0, uses_anonymous_args = 0
 199              		.loc 1 176 0
 200 0000 08B5     		push	{r3, lr}
 201              	.LCFI0:
 202              		.cfi_def_cfa_offset 8
 203              		.cfi_offset 3, -8
 204              		.cfi_offset 14, -4
 177:Core/Src/stm32f4xx_it.c ****   /* USER CODE BEGIN SysTick_IRQn 0 */
 178:Core/Src/stm32f4xx_it.c **** 
 179:Core/Src/stm32f4xx_it.c ****   /* USER CODE END SysTick_IRQn 0 */
 180:Core/Src/stm32f4xx_it.c ****   HAL_IncTick();
 205              		.loc 1 180 0
 206 0002 FFF7FEFF 		bl	HAL_IncTick
 207              	.LVL0:
 181:Core/Src/stm32f4xx_it.c ****   HAL_SYSTICK_IRQHandler();
 182:Core/Src/stm32f4xx_it.c ****   /* USER CODE BEGIN SysTick_IRQn 1 */
 183:Core/Src/stm32f4xx_it.c **** 
 184:Core/Src/stm32f4xx_it.c ****   /* USER CODE END SysTick_IRQn 1 */
 185:Core/Src/stm32f4xx_it.c **** }
 208              		.loc 1 185 0
 209 0006 BDE80840 		pop	{r3, lr}
 210              	.LCFI1:
 211              		.cfi_restore 14
 212              		.cfi_restore 3
 213              		.cfi_def_cfa_offset 0
 181:Core/Src/stm32f4xx_it.c ****   HAL_SYSTICK_IRQHandler();
 214              		.loc 1 181 0
 215 000a FFF7FEBF 		b	HAL_SYSTICK_IRQHandler
 216              	.LVL1:
 217              		.cfi_endproc
 218              	.LFE134:
 220 000e 00BF     		.text
 221              	.Letext0:
 222              		.file 2 "c:\\program files (x86)\\gnu tools arm embedded\\7 2017-q4-major\\arm-none-eabi\\include\
 223              		.file 3 "c:\\program files (x86)\\gnu tools arm embedded\\7 2017-q4-major\\arm-none-eabi\\include\
 224              		.file 4 "Drivers/CMSIS/Include/core_cm4.h"
 225              		.file 5 "Drivers/CMSIS/Device/ST/STM32F4xx/Include/system_stm32f4xx.h"
 226              		.file 6 "c:\\program files (x86)\\gnu tools arm embedded\\7 2017-q4-major\\arm-none-eabi\\include\
 227              		.file 7 "c:\\program files (x86)\\gnu tools arm embedded\\7 2017-q4-major\\arm-none-eabi\\include\
 228              		.file 8 "c:\\program files (x86)\\gnu tools arm embedded\\7 2017-q4-major\\lib\\gcc\\arm-none-eabi
 229              		.file 9 "c:\\program files (x86)\\gnu tools arm embedded\\7 2017-q4-major\\arm-none-eabi\\include\
 230              		.file 10 "Drivers/STM32F4xx_HAL_Driver/Inc/stm32f4xx_hal.h"
 231              		.file 11 "Drivers/STM32F4xx_HAL_Driver/Inc/stm32f4xx_hal_cortex.h"
ARM GAS  C:\Users\Prashant\AppData\Local\Temp\ccmehksT.s 			page 8


ARM GAS  C:\Users\Prashant\AppData\Local\Temp\ccmehksT.s 			page 9

