ARM GAS  C:\Users\Prashant\AppData\Local\Temp\cc9Jr8oW.s 			page 1


   1              		.cpu cortex-m4
   2              		.eabi_attribute 27, 1
   3              		.eabi_attribute 28, 1
   4              		.eabi_attribute 20, 1
   5              		.eabi_attribute 21, 1
   6              		.eabi_attribute 23, 3
   7              		.eabi_attribute 24, 1
   8              		.eabi_attribute 25, 1
   9              		.eabi_attribute 26, 1
  10              		.eabi_attribute 30, 2
  11              		.eabi_attribute 34, 1
  12              		.eabi_attribute 18, 4
  13              		.file	"tim.c"
  14              		.text
  15              	.Ltext0:
  16              		.cfi_sections	.debug_frame
  17              		.section	.text.MX_TIM8_Init,"ax",%progbits
  18              		.align	1
  19              		.p2align 2,,3
  20              		.global	MX_TIM8_Init
  21              		.syntax unified
  22              		.thumb
  23              		.thumb_func
  24              		.fpu fpv4-sp-d16
  26              	MX_TIM8_Init:
  27              	.LFB126:
  28              		.file 1 "Core/Src/tim.c"
   1:Core/Src/tim.c **** /**
   2:Core/Src/tim.c ****   ******************************************************************************
   3:Core/Src/tim.c ****   * File Name          : TIM.c
   4:Core/Src/tim.c ****   * Description        : This file provides code for the configuration
   5:Core/Src/tim.c ****   *                      of the TIM instances.
   6:Core/Src/tim.c ****   ******************************************************************************
   7:Core/Src/tim.c ****   ** This notice applies to any and all portions of this file
   8:Core/Src/tim.c ****   * that are not between comment pairs USER CODE BEGIN and
   9:Core/Src/tim.c ****   * USER CODE END. Other portions of this file, whether 
  10:Core/Src/tim.c ****   * inserted by the user or by software development tools
  11:Core/Src/tim.c ****   * are owned by their respective copyright owners.
  12:Core/Src/tim.c ****   *
  13:Core/Src/tim.c ****   * COPYRIGHT(c) 2019 STMicroelectronics
  14:Core/Src/tim.c ****   *
  15:Core/Src/tim.c ****   * Redistribution and use in source and binary forms, with or without modification,
  16:Core/Src/tim.c ****   * are permitted provided that the following conditions are met:
  17:Core/Src/tim.c ****   *   1. Redistributions of source code must retain the above copyright notice,
  18:Core/Src/tim.c ****   *      this list of conditions and the following disclaimer.
  19:Core/Src/tim.c ****   *   2. Redistributions in binary form must reproduce the above copyright notice,
  20:Core/Src/tim.c ****   *      this list of conditions and the following disclaimer in the documentation
  21:Core/Src/tim.c ****   *      and/or other materials provided with the distribution.
  22:Core/Src/tim.c ****   *   3. Neither the name of STMicroelectronics nor the names of its contributors
  23:Core/Src/tim.c ****   *      may be used to endorse or promote products derived from this software
  24:Core/Src/tim.c ****   *      without specific prior written permission.
  25:Core/Src/tim.c ****   *
  26:Core/Src/tim.c ****   * THIS SOFTWARE IS PROVIDED BY THE COPYRIGHT HOLDERS AND CONTRIBUTORS "AS IS"
  27:Core/Src/tim.c ****   * AND ANY EXPRESS OR IMPLIED WARRANTIES, INCLUDING, BUT NOT LIMITED TO, THE
  28:Core/Src/tim.c ****   * IMPLIED WARRANTIES OF MERCHANTABILITY AND FITNESS FOR A PARTICULAR PURPOSE ARE
  29:Core/Src/tim.c ****   * DISCLAIMED. IN NO EVENT SHALL THE COPYRIGHT HOLDER OR CONTRIBUTORS BE LIABLE
  30:Core/Src/tim.c ****   * FOR ANY DIRECT, INDIRECT, INCIDENTAL, SPECIAL, EXEMPLARY, OR CONSEQUENTIAL
ARM GAS  C:\Users\Prashant\AppData\Local\Temp\cc9Jr8oW.s 			page 2


  31:Core/Src/tim.c ****   * DAMAGES (INCLUDING, BUT NOT LIMITED TO, PROCUREMENT OF SUBSTITUTE GOODS OR
  32:Core/Src/tim.c ****   * SERVICES; LOSS OF USE, DATA, OR PROFITS; OR BUSINESS INTERRUPTION) HOWEVER
  33:Core/Src/tim.c ****   * CAUSED AND ON ANY THEORY OF LIABILITY, WHETHER IN CONTRACT, STRICT LIABILITY,
  34:Core/Src/tim.c ****   * OR TORT (INCLUDING NEGLIGENCE OR OTHERWISE) ARISING IN ANY WAY OUT OF THE USE
  35:Core/Src/tim.c ****   * OF THIS SOFTWARE, EVEN IF ADVISED OF THE POSSIBILITY OF SUCH DAMAGE.
  36:Core/Src/tim.c ****   *
  37:Core/Src/tim.c ****   ******************************************************************************
  38:Core/Src/tim.c ****   */
  39:Core/Src/tim.c **** 
  40:Core/Src/tim.c **** /* Includes ------------------------------------------------------------------*/
  41:Core/Src/tim.c **** #include "tim.h"
  42:Core/Src/tim.c **** 
  43:Core/Src/tim.c **** /* USER CODE BEGIN 0 */
  44:Core/Src/tim.c **** #include "wheel.h"
  45:Core/Src/tim.c **** /* USER CODE END 0 */
  46:Core/Src/tim.c **** 
  47:Core/Src/tim.c **** TIM_HandleTypeDef htim8;
  48:Core/Src/tim.c **** 
  49:Core/Src/tim.c **** /* TIM8 init function */
  50:Core/Src/tim.c **** void MX_TIM8_Init(void)
  51:Core/Src/tim.c **** {
  29              		.loc 1 51 0
  30              		.cfi_startproc
  31              		@ args = 0, pretend = 0, frame = 88
  32              		@ frame_needed = 0, uses_anonymous_args = 0
  33 0000 30B5     		push	{r4, r5, lr}
  34              	.LCFI0:
  35              		.cfi_def_cfa_offset 12
  36              		.cfi_offset 4, -12
  37              		.cfi_offset 5, -8
  38              		.cfi_offset 14, -4
  52:Core/Src/tim.c ****   TIM_MasterConfigTypeDef sMasterConfig;
  53:Core/Src/tim.c ****   TIM_OC_InitTypeDef sConfigOC;
  54:Core/Src/tim.c ****   TIM_BreakDeadTimeConfigTypeDef sBreakDeadTimeConfig;
  55:Core/Src/tim.c **** 
  56:Core/Src/tim.c ****   htim8.Instance = TIM8;
  39              		.loc 1 56 0
  40 0002 454C     		ldr	r4, .L41
  41 0004 454B     		ldr	r3, .L41+4
  42 0006 2360     		str	r3, [r4]
  51:Core/Src/tim.c ****   TIM_MasterConfigTypeDef sMasterConfig;
  43              		.loc 1 51 0
  44 0008 97B0     		sub	sp, sp, #92
  45              	.LCFI1:
  46              		.cfi_def_cfa_offset 104
  57:Core/Src/tim.c ****   htim8.Init.Prescaler = 0;
  47              		.loc 1 57 0
  48 000a 0025     		movs	r5, #0
  58:Core/Src/tim.c ****   htim8.Init.CounterMode = TIM_COUNTERMODE_UP;
  59:Core/Src/tim.c ****   htim8.Init.Period = time_period(8000);
  49              		.loc 1 59 0
  50 000c 4FF4FA50 		mov	r0, #8000
  58:Core/Src/tim.c ****   htim8.Init.CounterMode = TIM_COUNTERMODE_UP;
  51              		.loc 1 58 0
  52 0010 C4E90155 		strd	r5, r5, [r4, #4]
  53              		.loc 1 59 0
  54 0014 FFF7FEFF 		bl	time_period
ARM GAS  C:\Users\Prashant\AppData\Local\Temp\cc9Jr8oW.s 			page 3


  55              	.LVL0:
  56 0018 E060     		str	r0, [r4, #12]
  60:Core/Src/tim.c ****   htim8.Init.ClockDivision = TIM_CLOCKDIVISION_DIV1;
  61:Core/Src/tim.c ****   htim8.Init.RepetitionCounter = 0;
  62:Core/Src/tim.c ****   if (HAL_TIM_PWM_Init(&htim8) != HAL_OK)
  57              		.loc 1 62 0
  58 001a 2046     		mov	r0, r4
  61:Core/Src/tim.c ****   if (HAL_TIM_PWM_Init(&htim8) != HAL_OK)
  59              		.loc 1 61 0
  60 001c C4E90455 		strd	r5, r5, [r4, #16]
  61              		.loc 1 62 0
  62 0020 FFF7FEFF 		bl	HAL_TIM_PWM_Init
  63              	.LVL1:
  64 0024 0028     		cmp	r0, #0
  65 0026 41D1     		bne	.L33
  66              	.L2:
  63:Core/Src/tim.c ****   {
  64:Core/Src/tim.c ****     _Error_Handler(__FILE__, __LINE__);
  65:Core/Src/tim.c ****   }
  66:Core/Src/tim.c **** 
  67:Core/Src/tim.c ****   sMasterConfig.MasterOutputTrigger = TIM_TRGO_RESET;
  67              		.loc 1 67 0
  68 0028 0023     		movs	r3, #0
  68:Core/Src/tim.c ****   sMasterConfig.MasterSlaveMode = TIM_MASTERSLAVEMODE_DISABLE;
  69:Core/Src/tim.c ****   if (HAL_TIMEx_MasterConfigSynchronization(&htim8, &sMasterConfig) != HAL_OK)
  69              		.loc 1 69 0
  70 002a 01A9     		add	r1, sp, #4
  71 002c 3A48     		ldr	r0, .L41
  68:Core/Src/tim.c ****   sMasterConfig.MasterSlaveMode = TIM_MASTERSLAVEMODE_DISABLE;
  72              		.loc 1 68 0
  73 002e CDE90133 		strd	r3, r3, [sp, #4]
  74              		.loc 1 69 0
  75 0032 FFF7FEFF 		bl	HAL_TIMEx_MasterConfigSynchronization
  76              	.LVL2:
  77 0036 0028     		cmp	r0, #0
  78 0038 69D1     		bne	.L34
  79              	.L3:
  70:Core/Src/tim.c ****   {
  71:Core/Src/tim.c ****     _Error_Handler(__FILE__, __LINE__);
  72:Core/Src/tim.c ****   }
  73:Core/Src/tim.c **** 
  74:Core/Src/tim.c ****   sConfigOC.OCMode = TIM_OCMODE_PWM1;
  75:Core/Src/tim.c ****   sConfigOC.Pulse = 0;
  80              		.loc 1 75 0
  81 003a 0023     		movs	r3, #0
  74:Core/Src/tim.c ****   sConfigOC.Pulse = 0;
  82              		.loc 1 74 0
  83 003c 6025     		movs	r5, #96
  76:Core/Src/tim.c ****   sConfigOC.OCPolarity = TIM_OCPOLARITY_HIGH;
  77:Core/Src/tim.c ****   sConfigOC.OCNPolarity = TIM_OCNPOLARITY_HIGH;
  78:Core/Src/tim.c ****   sConfigOC.OCFastMode = TIM_OCFAST_DISABLE;
  79:Core/Src/tim.c ****   sConfigOC.OCIdleState = TIM_OCIDLESTATE_RESET;
  80:Core/Src/tim.c ****   sConfigOC.OCNIdleState = TIM_OCNIDLESTATE_RESET;
  81:Core/Src/tim.c ****   if (HAL_TIM_PWM_ConfigChannel(&htim8, &sConfigOC, TIM_CHANNEL_1) != HAL_OK)
  84              		.loc 1 81 0
  85 003e 1A46     		mov	r2, r3
  86 0040 08A9     		add	r1, sp, #32
ARM GAS  C:\Users\Prashant\AppData\Local\Temp\cc9Jr8oW.s 			page 4


  87 0042 3548     		ldr	r0, .L41
  74:Core/Src/tim.c ****   sConfigOC.Pulse = 0;
  88              		.loc 1 74 0
  89 0044 0895     		str	r5, [sp, #32]
  76:Core/Src/tim.c ****   sConfigOC.OCPolarity = TIM_OCPOLARITY_HIGH;
  90              		.loc 1 76 0
  91 0046 CDE90933 		strd	r3, r3, [sp, #36]
  78:Core/Src/tim.c ****   sConfigOC.OCIdleState = TIM_OCIDLESTATE_RESET;
  92              		.loc 1 78 0
  93 004a CDE90B33 		strd	r3, r3, [sp, #44]
  80:Core/Src/tim.c ****   if (HAL_TIM_PWM_ConfigChannel(&htim8, &sConfigOC, TIM_CHANNEL_1) != HAL_OK)
  94              		.loc 1 80 0
  95 004e CDE90D33 		strd	r3, r3, [sp, #52]
  96              		.loc 1 81 0
  97 0052 FFF7FEFF 		bl	HAL_TIM_PWM_ConfigChannel
  98              	.LVL3:
  99 0056 0028     		cmp	r0, #0
 100 0058 54D1     		bne	.L35
 101              	.L4:
  82:Core/Src/tim.c ****   {
  83:Core/Src/tim.c ****     _Error_Handler(__FILE__, __LINE__);
  84:Core/Src/tim.c ****   }
  85:Core/Src/tim.c **** 
  86:Core/Src/tim.c ****   if (HAL_TIM_PWM_ConfigChannel(&htim8, &sConfigOC, TIM_CHANNEL_2) != HAL_OK)
 102              		.loc 1 86 0
 103 005a 0422     		movs	r2, #4
 104 005c 08A9     		add	r1, sp, #32
 105 005e 2E48     		ldr	r0, .L41
 106 0060 FFF7FEFF 		bl	HAL_TIM_PWM_ConfigChannel
 107              	.LVL4:
 108 0064 0028     		cmp	r0, #0
 109 0066 48D1     		bne	.L36
 110              	.L5:
  87:Core/Src/tim.c ****   {
  88:Core/Src/tim.c ****     _Error_Handler(__FILE__, __LINE__);
  89:Core/Src/tim.c ****   }
  90:Core/Src/tim.c **** 
  91:Core/Src/tim.c ****   if (HAL_TIM_PWM_ConfigChannel(&htim8, &sConfigOC, TIM_CHANNEL_3) != HAL_OK)
 111              		.loc 1 91 0
 112 0068 0822     		movs	r2, #8
 113 006a 08A9     		add	r1, sp, #32
 114 006c 2A48     		ldr	r0, .L41
 115 006e FFF7FEFF 		bl	HAL_TIM_PWM_ConfigChannel
 116              	.LVL5:
 117 0072 0028     		cmp	r0, #0
 118 0074 3CD1     		bne	.L37
 119              	.L6:
  92:Core/Src/tim.c ****   {
  93:Core/Src/tim.c ****     _Error_Handler(__FILE__, __LINE__);
  94:Core/Src/tim.c ****   }
  95:Core/Src/tim.c **** 
  96:Core/Src/tim.c ****   if (HAL_TIM_PWM_ConfigChannel(&htim8, &sConfigOC, TIM_CHANNEL_4) != HAL_OK)
 120              		.loc 1 96 0
 121 0076 08A9     		add	r1, sp, #32
 122 0078 0C22     		movs	r2, #12
 123 007a 2748     		ldr	r0, .L41
 124 007c FFF7FEFF 		bl	HAL_TIM_PWM_ConfigChannel
ARM GAS  C:\Users\Prashant\AppData\Local\Temp\cc9Jr8oW.s 			page 5


 125              	.LVL6:
 126 0080 88BB     		cbnz	r0, .L38
 127              	.L7:
  97:Core/Src/tim.c ****   {
  98:Core/Src/tim.c ****     _Error_Handler(__FILE__, __LINE__);
  99:Core/Src/tim.c ****   }
 100:Core/Src/tim.c **** 
 101:Core/Src/tim.c ****   sBreakDeadTimeConfig.OffStateRunMode = TIM_OSSR_DISABLE;
 128              		.loc 1 101 0
 129 0082 0023     		movs	r3, #0
 102:Core/Src/tim.c ****   sBreakDeadTimeConfig.OffStateIDLEMode = TIM_OSSI_DISABLE;
 103:Core/Src/tim.c ****   sBreakDeadTimeConfig.LockLevel = TIM_LOCKLEVEL_OFF;
 104:Core/Src/tim.c ****   sBreakDeadTimeConfig.DeadTime = 0;
 105:Core/Src/tim.c ****   sBreakDeadTimeConfig.BreakState = TIM_BREAK_DISABLE;
 106:Core/Src/tim.c ****   sBreakDeadTimeConfig.BreakPolarity = TIM_BREAKPOLARITY_HIGH;
 130              		.loc 1 106 0
 131 0084 4FF40052 		mov	r2, #8192
 107:Core/Src/tim.c ****   sBreakDeadTimeConfig.AutomaticOutput = TIM_AUTOMATICOUTPUT_DISABLE;
 108:Core/Src/tim.c ****   if (HAL_TIMEx_ConfigBreakDeadTime(&htim8, &sBreakDeadTimeConfig) != HAL_OK)
 132              		.loc 1 108 0
 133 0088 0FA9     		add	r1, sp, #60
 134 008a 2348     		ldr	r0, .L41
 105:Core/Src/tim.c ****   sBreakDeadTimeConfig.BreakPolarity = TIM_BREAKPOLARITY_HIGH;
 135              		.loc 1 105 0
 136 008c 1393     		str	r3, [sp, #76]
 102:Core/Src/tim.c ****   sBreakDeadTimeConfig.OffStateIDLEMode = TIM_OSSI_DISABLE;
 137              		.loc 1 102 0
 138 008e CDE90F33 		strd	r3, r3, [sp, #60]
 104:Core/Src/tim.c ****   sBreakDeadTimeConfig.BreakState = TIM_BREAK_DISABLE;
 139              		.loc 1 104 0
 140 0092 CDE91133 		strd	r3, r3, [sp, #68]
 106:Core/Src/tim.c ****   sBreakDeadTimeConfig.AutomaticOutput = TIM_AUTOMATICOUTPUT_DISABLE;
 141              		.loc 1 106 0
 142 0096 CDE91423 		strd	r2, r3, [sp, #80]
 143              		.loc 1 108 0
 144 009a FFF7FEFF 		bl	HAL_TIMEx_ConfigBreakDeadTime
 145              	.LVL7:
 146 009e 50B9     		cbnz	r0, .L39
 147              	.LVL8:
 148              	.LBB8:
 149              	.LBB9:
 109:Core/Src/tim.c ****   {
 110:Core/Src/tim.c ****     _Error_Handler(__FILE__, __LINE__);
 111:Core/Src/tim.c ****   }
 112:Core/Src/tim.c **** 
 113:Core/Src/tim.c ****   HAL_TIM_MspPostInit(&htim8);
 114:Core/Src/tim.c **** 
 115:Core/Src/tim.c **** }
 116:Core/Src/tim.c **** 
 117:Core/Src/tim.c **** void HAL_TIM_PWM_MspInit(TIM_HandleTypeDef* tim_pwmHandle)
 118:Core/Src/tim.c **** {
 119:Core/Src/tim.c **** 
 120:Core/Src/tim.c ****   if(tim_pwmHandle->Instance==TIM8)
 121:Core/Src/tim.c ****   {
 122:Core/Src/tim.c ****   /* USER CODE BEGIN TIM8_MspInit 0 */
 123:Core/Src/tim.c **** 
 124:Core/Src/tim.c ****   /* USER CODE END TIM8_MspInit 0 */
ARM GAS  C:\Users\Prashant\AppData\Local\Temp\cc9Jr8oW.s 			page 6


 125:Core/Src/tim.c ****     /* TIM8 clock enable */
 126:Core/Src/tim.c ****     __HAL_RCC_TIM8_CLK_ENABLE();
 127:Core/Src/tim.c ****   /* USER CODE BEGIN TIM8_MspInit 1 */
 128:Core/Src/tim.c **** 
 129:Core/Src/tim.c ****   /* USER CODE END TIM8_MspInit 1 */
 130:Core/Src/tim.c ****   }
 131:Core/Src/tim.c **** }
 132:Core/Src/tim.c **** void HAL_TIM_MspPostInit(TIM_HandleTypeDef* timHandle)
 133:Core/Src/tim.c **** {
 134:Core/Src/tim.c **** 
 135:Core/Src/tim.c ****   GPIO_InitTypeDef GPIO_InitStruct;
 136:Core/Src/tim.c ****   if(timHandle->Instance==TIM8)
 150              		.loc 1 136 0
 151 00a0 2268     		ldr	r2, [r4]
 152 00a2 1E4B     		ldr	r3, .L41+4
 153 00a4 9A42     		cmp	r2, r3
 154 00a6 0ED0     		beq	.L40
 155              	.L1:
 156              	.LBE9:
 157              	.LBE8:
 115:Core/Src/tim.c **** 
 158              		.loc 1 115 0
 159 00a8 17B0     		add	sp, sp, #92
 160              	.LCFI2:
 161              		.cfi_remember_state
 162              		.cfi_def_cfa_offset 12
 163              		@ sp needed
 164 00aa 30BD     		pop	{r4, r5, pc}
 165              	.LVL9:
 166              	.L33:
 167              	.LCFI3:
 168              		.cfi_restore_state
  64:Core/Src/tim.c ****   }
 169              		.loc 1 64 0
 170 00ac 4021     		movs	r1, #64
 171 00ae 1C48     		ldr	r0, .L41+8
 172 00b0 FFF7FEFF 		bl	_Error_Handler
 173              	.LVL10:
 174 00b4 B8E7     		b	.L2
 175              	.L39:
 110:Core/Src/tim.c ****   }
 176              		.loc 1 110 0
 177 00b6 6E21     		movs	r1, #110
 178 00b8 1948     		ldr	r0, .L41+8
 179 00ba FFF7FEFF 		bl	_Error_Handler
 180              	.LVL11:
 181              	.LBB13:
 182              	.LBB12:
 183              		.loc 1 136 0
 184 00be 2268     		ldr	r2, [r4]
 185 00c0 164B     		ldr	r3, .L41+4
 186 00c2 9A42     		cmp	r2, r3
 187 00c4 F0D1     		bne	.L1
 188              	.L40:
 189              	.LVL12:
 190              	.LBB10:
 191              	.LBB11:
ARM GAS  C:\Users\Prashant\AppData\Local\Temp\cc9Jr8oW.s 			page 7


 137:Core/Src/tim.c ****   {
 138:Core/Src/tim.c ****   /* USER CODE BEGIN TIM8_MspPostInit 0 */
 139:Core/Src/tim.c **** 
 140:Core/Src/tim.c ****   /* USER CODE END TIM8_MspPostInit 0 */
 141:Core/Src/tim.c ****   
 142:Core/Src/tim.c ****     /**TIM8 GPIO Configuration    
 143:Core/Src/tim.c ****     PC6     ------> TIM8_CH1
 144:Core/Src/tim.c ****     PC7     ------> TIM8_CH2
 145:Core/Src/tim.c ****     PC8     ------> TIM8_CH3
 146:Core/Src/tim.c ****     PC9     ------> TIM8_CH4 
 147:Core/Src/tim.c ****     */
 148:Core/Src/tim.c ****     GPIO_InitStruct.Pin = GPIO_PIN_6|GPIO_PIN_7|GPIO_PIN_8|GPIO_PIN_9;
 149:Core/Src/tim.c ****     GPIO_InitStruct.Mode = GPIO_MODE_AF_PP;
 150:Core/Src/tim.c ****     GPIO_InitStruct.Pull = GPIO_NOPULL;
 192              		.loc 1 150 0
 193 00c6 0023     		movs	r3, #0
 151:Core/Src/tim.c ****     GPIO_InitStruct.Speed = GPIO_SPEED_FREQ_LOW;
 152:Core/Src/tim.c ****     GPIO_InitStruct.Alternate = GPIO_AF3_TIM8;
 194              		.loc 1 152 0
 195 00c8 0322     		movs	r2, #3
 148:Core/Src/tim.c ****     GPIO_InitStruct.Mode = GPIO_MODE_AF_PP;
 196              		.loc 1 148 0
 197 00ca 4FF47075 		mov	r5, #960
 149:Core/Src/tim.c ****     GPIO_InitStruct.Pull = GPIO_NOPULL;
 198              		.loc 1 149 0
 199 00ce 0224     		movs	r4, #2
 153:Core/Src/tim.c ****     HAL_GPIO_Init(GPIOC, &GPIO_InitStruct);
 200              		.loc 1 153 0
 201 00d0 03A9     		add	r1, sp, #12
 202 00d2 1448     		ldr	r0, .L41+12
 152:Core/Src/tim.c ****     HAL_GPIO_Init(GPIOC, &GPIO_InitStruct);
 203              		.loc 1 152 0
 204 00d4 0792     		str	r2, [sp, #28]
 149:Core/Src/tim.c ****     GPIO_InitStruct.Pull = GPIO_NOPULL;
 205              		.loc 1 149 0
 206 00d6 CDE90354 		strd	r5, r4, [sp, #12]
 151:Core/Src/tim.c ****     GPIO_InitStruct.Alternate = GPIO_AF3_TIM8;
 207              		.loc 1 151 0
 208 00da CDE90533 		strd	r3, r3, [sp, #20]
 209              		.loc 1 153 0
 210 00de FFF7FEFF 		bl	HAL_GPIO_Init
 211              	.LVL13:
 212              	.LBE11:
 213              	.LBE10:
 214              	.LBE12:
 215              	.LBE13:
 115:Core/Src/tim.c **** 
 216              		.loc 1 115 0
 217 00e2 17B0     		add	sp, sp, #92
 218              	.LCFI4:
 219              		.cfi_remember_state
 220              		.cfi_def_cfa_offset 12
 221              		@ sp needed
 222 00e4 30BD     		pop	{r4, r5, pc}
 223              	.LVL14:
 224              	.L38:
 225              	.LCFI5:
ARM GAS  C:\Users\Prashant\AppData\Local\Temp\cc9Jr8oW.s 			page 8


 226              		.cfi_restore_state
  98:Core/Src/tim.c ****   }
 227              		.loc 1 98 0
 228 00e6 6221     		movs	r1, #98
 229 00e8 0D48     		ldr	r0, .L41+8
 230 00ea FFF7FEFF 		bl	_Error_Handler
 231              	.LVL15:
 232 00ee C8E7     		b	.L7
 233              	.L37:
  93:Core/Src/tim.c ****   }
 234              		.loc 1 93 0
 235 00f0 5D21     		movs	r1, #93
 236 00f2 0B48     		ldr	r0, .L41+8
 237 00f4 FFF7FEFF 		bl	_Error_Handler
 238              	.LVL16:
 239 00f8 BDE7     		b	.L6
 240              	.L36:
  88:Core/Src/tim.c ****   }
 241              		.loc 1 88 0
 242 00fa 5821     		movs	r1, #88
 243 00fc 0848     		ldr	r0, .L41+8
 244 00fe FFF7FEFF 		bl	_Error_Handler
 245              	.LVL17:
 246 0102 B1E7     		b	.L5
 247              	.L35:
  83:Core/Src/tim.c ****   }
 248              		.loc 1 83 0
 249 0104 5321     		movs	r1, #83
 250 0106 0648     		ldr	r0, .L41+8
 251 0108 FFF7FEFF 		bl	_Error_Handler
 252              	.LVL18:
 253 010c A5E7     		b	.L4
 254              	.L34:
  71:Core/Src/tim.c ****   }
 255              		.loc 1 71 0
 256 010e 4721     		movs	r1, #71
 257 0110 0348     		ldr	r0, .L41+8
 258 0112 FFF7FEFF 		bl	_Error_Handler
 259              	.LVL19:
 260 0116 90E7     		b	.L3
 261              	.L42:
 262              		.align	2
 263              	.L41:
 264 0118 00000000 		.word	htim8
 265 011c 00040140 		.word	1073808384
 266 0120 00000000 		.word	.LC0
 267 0124 00080240 		.word	1073874944
 268              		.cfi_endproc
 269              	.LFE126:
 271              		.section	.text.HAL_TIM_PWM_MspInit,"ax",%progbits
 272              		.align	1
 273              		.p2align 2,,3
 274              		.global	HAL_TIM_PWM_MspInit
 275              		.syntax unified
 276              		.thumb
 277              		.thumb_func
 278              		.fpu fpv4-sp-d16
ARM GAS  C:\Users\Prashant\AppData\Local\Temp\cc9Jr8oW.s 			page 9


 280              	HAL_TIM_PWM_MspInit:
 281              	.LFB127:
 118:Core/Src/tim.c **** 
 282              		.loc 1 118 0
 283              		.cfi_startproc
 284              		@ args = 0, pretend = 0, frame = 8
 285              		@ frame_needed = 0, uses_anonymous_args = 0
 286              		@ link register save eliminated.
 287              	.LVL20:
 120:Core/Src/tim.c ****   {
 288              		.loc 1 120 0
 289 0000 0268     		ldr	r2, [r0]
 290 0002 0A4B     		ldr	r3, .L50
 291 0004 9A42     		cmp	r2, r3
 292 0006 00D0     		beq	.L49
 293 0008 7047     		bx	lr
 294              	.L49:
 118:Core/Src/tim.c **** 
 295              		.loc 1 118 0
 296 000a 82B0     		sub	sp, sp, #8
 297              	.LCFI6:
 298              		.cfi_def_cfa_offset 8
 299              	.LBB14:
 126:Core/Src/tim.c ****   /* USER CODE BEGIN TIM8_MspInit 1 */
 300              		.loc 1 126 0
 301 000c 03F59A33 		add	r3, r3, #78848
 302 0010 0022     		movs	r2, #0
 303 0012 0192     		str	r2, [sp, #4]
 304 0014 5A6C     		ldr	r2, [r3, #68]
 305 0016 42F00202 		orr	r2, r2, #2
 306 001a 5A64     		str	r2, [r3, #68]
 307 001c 5B6C     		ldr	r3, [r3, #68]
 308 001e 03F00203 		and	r3, r3, #2
 309 0022 0193     		str	r3, [sp, #4]
 310 0024 019B     		ldr	r3, [sp, #4]
 311              	.LBE14:
 131:Core/Src/tim.c **** void HAL_TIM_MspPostInit(TIM_HandleTypeDef* timHandle)
 312              		.loc 1 131 0
 313 0026 02B0     		add	sp, sp, #8
 314              	.LCFI7:
 315              		.cfi_def_cfa_offset 0
 316              		@ sp needed
 317 0028 7047     		bx	lr
 318              	.L51:
 319 002a 00BF     		.align	2
 320              	.L50:
 321 002c 00040140 		.word	1073808384
 322              		.cfi_endproc
 323              	.LFE127:
 325              		.section	.text.HAL_TIM_MspPostInit,"ax",%progbits
 326              		.align	1
 327              		.p2align 2,,3
 328              		.global	HAL_TIM_MspPostInit
 329              		.syntax unified
 330              		.thumb
 331              		.thumb_func
 332              		.fpu fpv4-sp-d16
ARM GAS  C:\Users\Prashant\AppData\Local\Temp\cc9Jr8oW.s 			page 10


 334              	HAL_TIM_MspPostInit:
 335              	.LFB128:
 133:Core/Src/tim.c **** 
 336              		.loc 1 133 0
 337              		.cfi_startproc
 338              		@ args = 0, pretend = 0, frame = 24
 339              		@ frame_needed = 0, uses_anonymous_args = 0
 340              	.LVL21:
 136:Core/Src/tim.c ****   {
 341              		.loc 1 136 0
 342 0000 0268     		ldr	r2, [r0]
 343 0002 0B4B     		ldr	r3, .L59
 344 0004 9A42     		cmp	r2, r3
 345 0006 00D0     		beq	.L58
 346 0008 7047     		bx	lr
 347              	.L58:
 348              	.LVL22:
 133:Core/Src/tim.c **** 
 349              		.loc 1 133 0
 350 000a 30B5     		push	{r4, r5, lr}
 351              	.LCFI8:
 352              		.cfi_def_cfa_offset 12
 353              		.cfi_offset 4, -12
 354              		.cfi_offset 5, -8
 355              		.cfi_offset 14, -4
 356 000c 87B0     		sub	sp, sp, #28
 357              	.LCFI9:
 358              		.cfi_def_cfa_offset 40
 359              	.LBB17:
 360              	.LBB18:
 150:Core/Src/tim.c ****     GPIO_InitStruct.Speed = GPIO_SPEED_FREQ_LOW;
 361              		.loc 1 150 0
 362 000e 0023     		movs	r3, #0
 152:Core/Src/tim.c ****     HAL_GPIO_Init(GPIOC, &GPIO_InitStruct);
 363              		.loc 1 152 0
 364 0010 0322     		movs	r2, #3
 148:Core/Src/tim.c ****     GPIO_InitStruct.Mode = GPIO_MODE_AF_PP;
 365              		.loc 1 148 0
 366 0012 4FF47075 		mov	r5, #960
 149:Core/Src/tim.c ****     GPIO_InitStruct.Pull = GPIO_NOPULL;
 367              		.loc 1 149 0
 368 0016 0224     		movs	r4, #2
 369              		.loc 1 153 0
 370 0018 01A9     		add	r1, sp, #4
 371 001a 0648     		ldr	r0, .L59+4
 372              	.LVL23:
 152:Core/Src/tim.c ****     HAL_GPIO_Init(GPIOC, &GPIO_InitStruct);
 373              		.loc 1 152 0
 374 001c 0592     		str	r2, [sp, #20]
 149:Core/Src/tim.c ****     GPIO_InitStruct.Pull = GPIO_NOPULL;
 375              		.loc 1 149 0
 376 001e CDE90154 		strd	r5, r4, [sp, #4]
 151:Core/Src/tim.c ****     GPIO_InitStruct.Alternate = GPIO_AF3_TIM8;
 377              		.loc 1 151 0
 378 0022 CDE90333 		strd	r3, r3, [sp, #12]
 379              		.loc 1 153 0
 380 0026 FFF7FEFF 		bl	HAL_GPIO_Init
ARM GAS  C:\Users\Prashant\AppData\Local\Temp\cc9Jr8oW.s 			page 11


 381              	.LVL24:
 382              	.LBE18:
 383              	.LBE17:
 154:Core/Src/tim.c **** 
 155:Core/Src/tim.c ****   /* USER CODE BEGIN TIM8_MspPostInit 1 */
 156:Core/Src/tim.c **** 
 157:Core/Src/tim.c ****   /* USER CODE END TIM8_MspPostInit 1 */
 158:Core/Src/tim.c ****   }
 159:Core/Src/tim.c **** 
 160:Core/Src/tim.c **** }
 384              		.loc 1 160 0
 385 002a 07B0     		add	sp, sp, #28
 386              	.LCFI10:
 387              		.cfi_def_cfa_offset 12
 388              		@ sp needed
 389 002c 30BD     		pop	{r4, r5, pc}
 390              	.L60:
 391 002e 00BF     		.align	2
 392              	.L59:
 393 0030 00040140 		.word	1073808384
 394 0034 00080240 		.word	1073874944
 395              		.cfi_endproc
 396              	.LFE128:
 398              		.section	.text.HAL_TIM_PWM_MspDeInit,"ax",%progbits
 399              		.align	1
 400              		.p2align 2,,3
 401              		.global	HAL_TIM_PWM_MspDeInit
 402              		.syntax unified
 403              		.thumb
 404              		.thumb_func
 405              		.fpu fpv4-sp-d16
 407              	HAL_TIM_PWM_MspDeInit:
 408              	.LFB129:
 161:Core/Src/tim.c **** 
 162:Core/Src/tim.c **** void HAL_TIM_PWM_MspDeInit(TIM_HandleTypeDef* tim_pwmHandle)
 163:Core/Src/tim.c **** {
 409              		.loc 1 163 0
 410              		.cfi_startproc
 411              		@ args = 0, pretend = 0, frame = 0
 412              		@ frame_needed = 0, uses_anonymous_args = 0
 413              		@ link register save eliminated.
 414              	.LVL25:
 164:Core/Src/tim.c **** 
 165:Core/Src/tim.c ****   if(tim_pwmHandle->Instance==TIM8)
 415              		.loc 1 165 0
 416 0000 0268     		ldr	r2, [r0]
 417 0002 044B     		ldr	r3, .L63
 418 0004 9A42     		cmp	r2, r3
 419 0006 04D1     		bne	.L61
 166:Core/Src/tim.c ****   {
 167:Core/Src/tim.c ****   /* USER CODE BEGIN TIM8_MspDeInit 0 */
 168:Core/Src/tim.c **** 
 169:Core/Src/tim.c ****   /* USER CODE END TIM8_MspDeInit 0 */
 170:Core/Src/tim.c ****     /* Peripheral clock disable */
 171:Core/Src/tim.c ****     __HAL_RCC_TIM8_CLK_DISABLE();
 420              		.loc 1 171 0
 421 0008 034A     		ldr	r2, .L63+4
ARM GAS  C:\Users\Prashant\AppData\Local\Temp\cc9Jr8oW.s 			page 12


 422 000a 536C     		ldr	r3, [r2, #68]
 423 000c 23F00203 		bic	r3, r3, #2
 424 0010 5364     		str	r3, [r2, #68]
 425              	.L61:
 172:Core/Src/tim.c ****   /* USER CODE BEGIN TIM8_MspDeInit 1 */
 173:Core/Src/tim.c **** 
 174:Core/Src/tim.c ****   /* USER CODE END TIM8_MspDeInit 1 */
 175:Core/Src/tim.c ****   }
 176:Core/Src/tim.c **** } 
 426              		.loc 1 176 0
 427 0012 7047     		bx	lr
 428              	.L64:
 429              		.align	2
 430              	.L63:
 431 0014 00040140 		.word	1073808384
 432 0018 00380240 		.word	1073887232
 433              		.cfi_endproc
 434              	.LFE129:
 436              		.comm	htim8,60,4
 437              		.section	.rodata.MX_TIM8_Init.str1.4,"aMS",%progbits,1
 438              		.align	2
 439              	.LC0:
 440 0000 436F7265 		.ascii	"Core/Src/tim.c\000"
 440      2F537263 
 440      2F74696D 
 440      2E6300
 441              		.text
 442              	.Letext0:
 443              		.file 2 "c:\\program files (x86)\\gnu tools arm embedded\\7 2017-q4-major\\arm-none-eabi\\include\
 444              		.file 3 "c:\\program files (x86)\\gnu tools arm embedded\\7 2017-q4-major\\arm-none-eabi\\include\
 445              		.file 4 "Drivers/CMSIS/Include/core_cm4.h"
 446              		.file 5 "Drivers/CMSIS/Device/ST/STM32F4xx/Include/system_stm32f4xx.h"
 447              		.file 6 "Drivers/CMSIS/Device/ST/STM32F4xx/Include/stm32f407xx.h"
 448              		.file 7 "c:\\program files (x86)\\gnu tools arm embedded\\7 2017-q4-major\\arm-none-eabi\\include\
 449              		.file 8 "c:\\program files (x86)\\gnu tools arm embedded\\7 2017-q4-major\\arm-none-eabi\\include\
 450              		.file 9 "c:\\program files (x86)\\gnu tools arm embedded\\7 2017-q4-major\\lib\\gcc\\arm-none-eabi
 451              		.file 10 "c:\\program files (x86)\\gnu tools arm embedded\\7 2017-q4-major\\arm-none-eabi\\include
 452              		.file 11 "Drivers/STM32F4xx_HAL_Driver/Inc/stm32f4xx_hal_def.h"
 453              		.file 12 "Drivers/STM32F4xx_HAL_Driver/Inc/stm32f4xx_hal_gpio.h"
 454              		.file 13 "Drivers/STM32F4xx_HAL_Driver/Inc/stm32f4xx_hal_dma.h"
 455              		.file 14 "Drivers/STM32F4xx_HAL_Driver/Inc/stm32f4xx_hal_tim.h"
 456              		.file 15 "Drivers/STM32F4xx_HAL_Driver/Inc/stm32f4xx_hal_tim_ex.h"
 457              		.file 16 "Core/Inc/tim.h"
 458              		.file 17 "Core/Inc/wheel.h"
ARM GAS  C:\Users\Prashant\AppData\Local\Temp\cc9Jr8oW.s 			page 13

