ARM GAS  C:\Users\Prashant\AppData\Local\Temp\ccTadHWp.s 			page 1


   1              		.cpu cortex-m4
   2              		.eabi_attribute 27, 1
   3              		.eabi_attribute 28, 1
   4              		.eabi_attribute 20, 1
   5              		.eabi_attribute 21, 1
   6              		.eabi_attribute 23, 3
   7              		.eabi_attribute 24, 1
   8              		.eabi_attribute 25, 1
   9              		.eabi_attribute 26, 1
  10              		.eabi_attribute 30, 1
  11              		.eabi_attribute 34, 1
  12              		.eabi_attribute 18, 4
  13              		.file	"interrupt.cpp"
  14              		.text
  15              	.Ltext0:
  16              		.cfi_sections	.debug_frame
  17              		.section	.text.HAL_GPIO_EXTI_Callback,"ax",%progbits
  18              		.align	1
  19              		.global	HAL_GPIO_EXTI_Callback
  20              		.syntax unified
  21              		.thumb
  22              		.thumb_func
  23              		.fpu fpv4-sp-d16
  25              	HAL_GPIO_EXTI_Callback:
  26              	.LFB491:
  27              		.file 1 "Core/Src/devs/interrupt.cpp"
   1:Core/Src/devs/interrupt.cpp **** 
   2:Core/Src/devs/interrupt.cpp **** #include "robo_init.h"
   3:Core/Src/devs/interrupt.cpp **** 
   4:Core/Src/devs/interrupt.cpp **** extern leg leg[2];
   5:Core/Src/devs/interrupt.cpp **** extern bool sand_dune_crossed_flag;
   6:Core/Src/devs/interrupt.cpp **** extern bool ROBOT_START_FLAG;
   7:Core/Src/devs/interrupt.cpp **** extern bool STEERING_FLAG;
   8:Core/Src/devs/interrupt.cpp **** 
   9:Core/Src/devs/interrupt.cpp **** void HAL_GPIO_EXTI_Callback(uint16_t GPIO_Pin)
  10:Core/Src/devs/interrupt.cpp **** {
  28              		.loc 1 10 0
  29              		.cfi_startproc
  30              		@ args = 0, pretend = 0, frame = 0
  31              		@ frame_needed = 0, uses_anonymous_args = 0
  32              	.LVL0:
  33 0000 08B5     		push	{r3, lr}
  34              	.LCFI0:
  35              		.cfi_def_cfa_offset 8
  36              		.cfi_offset 3, -8
  37              		.cfi_offset 14, -4
  11:Core/Src/devs/interrupt.cpp ****         switch (GPIO_Pin) {
  38              		.loc 1 11 0
  39 0002 B0F5007F 		cmp	r0, #512
  40 0006 21D0     		beq	.L3
  41 0008 0CD9     		bls	.L10
  42 000a B0F5006F 		cmp	r0, #2048
  43 000e 26D0     		beq	.L7
  44 0010 B0F5004F 		cmp	r0, #32768
  45 0014 16D1     		bne	.L11
  12:Core/Src/devs/interrupt.cpp **** 		case GPIO_PIN_0 : {
  13:Core/Src/devs/interrupt.cpp **** 			ROBOT_START_FLAG = true;
ARM GAS  C:\Users\Prashant\AppData\Local\Temp\ccTadHWp.s 			page 2


  14:Core/Src/devs/interrupt.cpp **** 			printf("\n !!start_pressed!!\n");
  15:Core/Src/devs/interrupt.cpp **** 		}break;
  16:Core/Src/devs/interrupt.cpp **** 
  17:Core/Src/devs/interrupt.cpp ****                 case GPIO_PIN_9 : {
  18:Core/Src/devs/interrupt.cpp ****                         leg[0].steps++;
  19:Core/Src/devs/interrupt.cpp ****                         leg[0].reset_angle(38*PI/180);
  20:Core/Src/devs/interrupt.cpp **** 			// printf("\n\tRobot interrupt0\t %d\n", leg[0].steps);
  21:Core/Src/devs/interrupt.cpp ****                 } break;
  22:Core/Src/devs/interrupt.cpp **** 
  23:Core/Src/devs/interrupt.cpp ****                 case GPIO_PIN_11: {
  24:Core/Src/devs/interrupt.cpp ****                         leg[1].steps++;
  25:Core/Src/devs/interrupt.cpp ****                         leg[1].reset_angle(17.5*PI/180);
  26:Core/Src/devs/interrupt.cpp **** 			// printf("\n\tRobot interrupt1\t %d\n", leg[1].steps);
  27:Core/Src/devs/interrupt.cpp ****                 } break;
  28:Core/Src/devs/interrupt.cpp **** 
  29:Core/Src/devs/interrupt.cpp **** 		case GPIO_PIN_15: {
  30:Core/Src/devs/interrupt.cpp **** 			STEERING_FLAG = true;
  46              		.loc 1 30 0
  47 0016 174B     		ldr	r3, .L13
  48 0018 0122     		movs	r2, #1
  49 001a 1A70     		strb	r2, [r3]
  31:Core/Src/devs/interrupt.cpp **** 			 printf("\n\tsteering interrupt \t\n");
  50              		.loc 1 31 0
  51 001c 1648     		ldr	r0, .L13+4
  52              	.LVL1:
  53 001e FFF7FEFF 		bl	puts
  54              	.LVL2:
  32:Core/Src/devs/interrupt.cpp ****                 } break;
  55              		.loc 1 32 0
  56 0022 07E0     		b	.L1
  57              	.LVL3:
  58              	.L10:
  11:Core/Src/devs/interrupt.cpp **** 		case GPIO_PIN_0 : {
  59              		.loc 1 11 0
  60 0024 0128     		cmp	r0, #1
  61 0026 06D1     		bne	.L12
  13:Core/Src/devs/interrupt.cpp **** 			printf("\n !!start_pressed!!\n");
  62              		.loc 1 13 0
  63 0028 144B     		ldr	r3, .L13+8
  64 002a 0122     		movs	r2, #1
  65 002c 1A70     		strb	r2, [r3]
  14:Core/Src/devs/interrupt.cpp **** 		}break;
  66              		.loc 1 14 0
  67 002e 1448     		ldr	r0, .L13+12
  68              	.LVL4:
  69 0030 FFF7FEFF 		bl	puts
  70              	.LVL5:
  71              	.L1:
  33:Core/Src/devs/interrupt.cpp **** 
  34:Core/Src/devs/interrupt.cpp **** 		case GPIO_PIN_8: {
  35:Core/Src/devs/interrupt.cpp **** 			sand_dune_crossed_flag = true;
  36:Core/Src/devs/interrupt.cpp **** 			// printf("\nSand_Dune_Crossed \n");
  37:Core/Src/devs/interrupt.cpp **** 		}
  38:Core/Src/devs/interrupt.cpp **** 
  39:Core/Src/devs/interrupt.cpp **** 		case GPIO_PIN_10: {
  40:Core/Src/devs/interrupt.cpp **** 			sand_dune_crossed_flag = true;
  41:Core/Src/devs/interrupt.cpp **** 			// printf("\nSand_Dune_Crossed \n");
ARM GAS  C:\Users\Prashant\AppData\Local\Temp\ccTadHWp.s 			page 3


  42:Core/Src/devs/interrupt.cpp **** 		}
  43:Core/Src/devs/interrupt.cpp ****         }
  44:Core/Src/devs/interrupt.cpp **** }...
  72              		.loc 1 44 0
  73 0034 08BD     		pop	{r3, pc}
  74              	.LVL6:
  75              	.L12:
  11:Core/Src/devs/interrupt.cpp ****         switch (GPIO_Pin) {
  76              		.loc 1 11 0
  77 0036 B0F5807F 		cmp	r0, #256
  78 003a FBD1     		bne	.L1
  79              	.L6:
  40:Core/Src/devs/interrupt.cpp **** 			sand_dune_crossed_flag = true;
  80              		.loc 1 40 0
  81 003c 114B     		ldr	r3, .L13+16
  82 003e 0122     		movs	r2, #1
  83 0040 1A70     		strb	r2, [r3]
  84              		.loc 1 44 0
  85 0042 F7E7     		b	.L1
  86              	.L11:
  11:Core/Src/devs/interrupt.cpp ****         switch (GPIO_Pin) {
  87              		.loc 1 11 0
  88 0044 B0F5806F 		cmp	r0, #1024
  89 0048 F4D1     		bne	.L1
  90 004a F7E7     		b	.L6
  91              	.L3:
  18:Core/Src/devs/interrupt.cpp ****                         leg[0].steps++;
  92              		.loc 1 18 0
  93 004c 0E48     		ldr	r0, .L13+20
  94              	.LVL7:
  95 004e 0369     		ldr	r3, [r0, #16]
  96 0050 0133     		adds	r3, r3, #1
  97 0052 0361     		str	r3, [r0, #16]
  19:Core/Src/devs/interrupt.cpp ****                         leg[0].reset_angle(38*PI/180);
  98              		.loc 1 19 0
  99 0054 9FED0D0A 		vldr.32	s0, .L13+24
 100 0058 FFF7FEFF 		bl	_ZN3leg11reset_angleEf
 101              	.LVL8:
  21:Core/Src/devs/interrupt.cpp ****                 } break;
 102              		.loc 1 21 0
 103 005c EAE7     		b	.L1
 104              	.LVL9:
 105              	.L7:
  24:Core/Src/devs/interrupt.cpp ****                         leg[1].steps++;
 106              		.loc 1 24 0
 107 005e 0A48     		ldr	r0, .L13+20
 108              	.LVL10:
 109 0060 C36E     		ldr	r3, [r0, #108]
 110 0062 0133     		adds	r3, r3, #1
 111 0064 C366     		str	r3, [r0, #108]
  25:Core/Src/devs/interrupt.cpp ****                         leg[1].reset_angle(17.5*PI/180);
 112              		.loc 1 25 0
 113 0066 9FED0A0A 		vldr.32	s0, .L13+28
 114 006a 5C30     		adds	r0, r0, #92
 115 006c FFF7FEFF 		bl	_ZN3leg11reset_angleEf
 116              	.LVL11:
  27:Core/Src/devs/interrupt.cpp ****                 } break;
ARM GAS  C:\Users\Prashant\AppData\Local\Temp\ccTadHWp.s 			page 4


 117              		.loc 1 27 0
 118 0070 E0E7     		b	.L1
 119              	.L14:
 120 0072 00BF     		.align	2
 121              	.L13:
 122 0074 00000000 		.word	STEERING_FLAG
 123 0078 14000000 		.word	.LC1
 124 007c 00000000 		.word	ROBOT_START_FLAG
 125 0080 00000000 		.word	.LC0
 126 0084 00000000 		.word	sand_dune_crossed_flag
 127 0088 00000000 		.word	leg
 128 008c 1FC9293F 		.word	1059703071
 129 0090 AA619C3E 		.word	1050436010
 130              		.cfi_endproc
 131              	.LFE491:
 133              		.section	.rodata.HAL_GPIO_EXTI_Callback.str1.4,"aMS",%progbits,1
 134              		.align	2
 135              	.LC0:
 136 0000 0A202121 		.ascii	"\012 !!start_pressed!!\000"
 136      73746172 
 136      745F7072 
 136      65737365 
 136      64212100 
 137              	.LC1:
 138 0014 0A097374 		.ascii	"\012\011steering interrupt \011\000"
 138      65657269 
 138      6E672069 
 138      6E746572 
 138      72757074 
 139              		.text
 140              	.Letext0:
 141              		.file 2 "c:\\program files (x86)\\gnu tools arm embedded\\7 2017-q4-major\\arm-none-eabi\\include\
 142              		.file 3 "c:\\program files (x86)\\gnu tools arm embedded\\7 2017-q4-major\\arm-none-eabi\\include\
 143              		.file 4 "Drivers/CMSIS/Include/core_cm4.h"
 144              		.file 5 "Drivers/CMSIS/Device/ST/STM32F4xx/Include/system_stm32f4xx.h"
 145              		.file 6 "Drivers/CMSIS/Device/ST/STM32F4xx/Include/stm32f407xx.h"
 146              		.file 7 "c:\\program files (x86)\\gnu tools arm embedded\\7 2017-q4-major\\arm-none-eabi\\include\
 147              		.file 8 "c:\\program files (x86)\\gnu tools arm embedded\\7 2017-q4-major\\arm-none-eabi\\include\
 148              		.file 9 "c:\\program files (x86)\\gnu tools arm embedded\\7 2017-q4-major\\lib\\gcc\\arm-none-eabi
 149              		.file 10 "c:\\program files (x86)\\gnu tools arm embedded\\7 2017-q4-major\\arm-none-eabi\\include
 150              		.file 11 "Drivers/STM32F4xx_HAL_Driver/Inc/stm32f4xx_hal_def.h"
 151              		.file 12 "Drivers/STM32F4xx_HAL_Driver/Inc/stm32f4xx_hal_dma.h"
 152              		.file 13 "Drivers/STM32F4xx_HAL_Driver/Inc/stm32f4xx_hal_tim.h"
 153              		.file 14 "Drivers/STM32F4xx_HAL_Driver/Inc/stm32f4xx_hal_uart.h"
 154              		.file 15 "Core/Inc/periphs/tim.h"
 155              		.file 16 "c:\\program files (x86)\\gnu tools arm embedded\\7 2017-q4-major\\arm-none-eabi\\include
 156              		.file 17 "c:\\program files (x86)\\gnu tools arm embedded\\7 2017-q4-major\\arm-none-eabi\\include
 157              		.file 18 "c:\\program files (x86)\\gnu tools arm embedded\\7 2017-q4-major\\arm-none-eabi\\include
 158              		.file 19 "c:\\program files (x86)\\gnu tools arm embedded\\7 2017-q4-major\\arm-none-eabi\\include
 159              		.file 20 "c:\\program files (x86)\\gnu tools arm embedded\\7 2017-q4-major\\arm-none-eabi\\include
 160              		.file 21 "Core/Inc/devs/motor.h"
 161              		.file 22 "Core/Inc/devs/encoder.h"
 162              		.file 23 "Core/Inc/utils/pid_algorithms.h"
 163              		.file 24 "Core/Inc/devs/limit_switch.h"
 164              		.file 25 "Core/Inc/devs/leg.h"
 165              		.file 26 "Core/Inc/periphs/usart.h"
 166              		.file 27 "<built-in>"
ARM GAS  C:\Users\Prashant\AppData\Local\Temp\ccTadHWp.s 			page 5


ARM GAS  C:\Users\Prashant\AppData\Local\Temp\ccTadHWp.s 			page 6


DEFINED SYMBOLS
                            *ABS*:00000000 interrupt.cpp
C:\Users\Prashant\AppData\Local\Temp\ccTadHWp.s:18     .text.HAL_GPIO_EXTI_Callback:00000000 $t
C:\Users\Prashant\AppData\Local\Temp\ccTadHWp.s:25     .text.HAL_GPIO_EXTI_Callback:00000000 HAL_GPIO_EXTI_Callback
C:\Users\Prashant\AppData\Local\Temp\ccTadHWp.s:122    .text.HAL_GPIO_EXTI_Callback:00000074 $d
C:\Users\Prashant\AppData\Local\Temp\ccTadHWp.s:134    .rodata.HAL_GPIO_EXTI_Callback.str1.4:00000000 $d

UNDEFINED SYMBOLS
puts
_ZN3leg11reset_angleEf
STEERING_FLAG
ROBOT_START_FLAG
sand_dune_crossed_flag
leg
