ARM GAS  C:\Users\Nischal Nepal\AppData\Local\Temp\ccI2457U.s 			page 1


   1              		.cpu cortex-m4
   2              		.eabi_attribute 27, 1
   3              		.eabi_attribute 28, 1
   4              		.eabi_attribute 20, 1
   5              		.eabi_attribute 21, 1
   6              		.eabi_attribute 23, 3
   7              		.eabi_attribute 24, 1
   8              		.eabi_attribute 25, 1
   9              		.eabi_attribute 26, 1
  10              		.eabi_attribute 30, 1
  11              		.eabi_attribute 34, 1
  12              		.eabi_attribute 18, 4
  13              		.file	"gpio.c"
  14              		.text
  15              	.Ltext0:
  16              		.cfi_sections	.debug_frame
  17              		.section	.text.MX_GPIO_Init,"ax",%progbits
  18              		.align	1
  19              		.global	MX_GPIO_Init
  20              		.syntax unified
  21              		.thumb
  22              		.thumb_func
  23              		.fpu fpv4-sp-d16
  25              	MX_GPIO_Init:
  26              	.LFB126:
  27              		.file 1 "Core/Src/periphs/gpio.c"
   1:Core/Src/periphs/gpio.c **** /**
   2:Core/Src/periphs/gpio.c ****   ******************************************************************************
   3:Core/Src/periphs/gpio.c ****   * File Name          : gpio.c
   4:Core/Src/periphs/gpio.c ****   * Description        : This file provides code for the configuration
   5:Core/Src/periphs/gpio.c ****   *                      of all used GPIO pins.
   6:Core/Src/periphs/gpio.c ****   ******************************************************************************
   7:Core/Src/periphs/gpio.c ****   ** This notice applies to any and all portions of this file
   8:Core/Src/periphs/gpio.c ****   * that are not between comment pairs USER CODE BEGIN and
   9:Core/Src/periphs/gpio.c ****   * USER CODE END. Other portions of this file, whether 
  10:Core/Src/periphs/gpio.c ****   * inserted by the user or by software development tools
  11:Core/Src/periphs/gpio.c ****   * are owned by their respective copyright owners.
  12:Core/Src/periphs/gpio.c ****   *
  13:Core/Src/periphs/gpio.c ****   * COPYRIGHT(c) 2018 STMicroelectronics
  14:Core/Src/periphs/gpio.c ****   *
  15:Core/Src/periphs/gpio.c ****   * Redistribution and use in source and binary forms, with or without modification,
  16:Core/Src/periphs/gpio.c ****   * are permitted provided that the following conditions are met:
  17:Core/Src/periphs/gpio.c ****   *   1. Redistributions of source code must retain the above copyright notice,
  18:Core/Src/periphs/gpio.c ****   *      this list of conditions and the following disclaimer.
  19:Core/Src/periphs/gpio.c ****   *   2. Redistributions in binary form must reproduce the above copyright notice,
  20:Core/Src/periphs/gpio.c ****   *      this list of conditions and the following disclaimer in the documentation
  21:Core/Src/periphs/gpio.c ****   *      and/or other materials provided with the distribution.
  22:Core/Src/periphs/gpio.c ****   *   3. Neither the name of STMicroelectronics nor the names of its contributors
  23:Core/Src/periphs/gpio.c ****   *      may be used to endorse or promote products derived from this software
  24:Core/Src/periphs/gpio.c ****   *      without specific prior written permission.
  25:Core/Src/periphs/gpio.c ****   *
  26:Core/Src/periphs/gpio.c ****   * THIS SOFTWARE IS PROVIDED BY THE COPYRIGHT HOLDERS AND CONTRIBUTORS "AS IS"
  27:Core/Src/periphs/gpio.c ****   * AND ANY EXPRESS OR IMPLIED WARRANTIES, INCLUDING, BUT NOT LIMITED TO, THE
  28:Core/Src/periphs/gpio.c ****   * IMPLIED WARRANTIES OF MERCHANTABILITY AND FITNESS FOR A PARTICULAR PURPOSE ARE
  29:Core/Src/periphs/gpio.c ****   * DISCLAIMED. IN NO EVENT SHALL THE COPYRIGHT HOLDER OR CONTRIBUTORS BE LIABLE
  30:Core/Src/periphs/gpio.c ****   * FOR ANY DIRECT, INDIRECT, INCIDENTAL, SPECIAL, EXEMPLARY, OR CONSEQUENTIAL
  31:Core/Src/periphs/gpio.c ****   * DAMAGES (INCLUDING, BUT NOT LIMITED TO, PROCUREMENT OF SUBSTITUTE GOODS OR
ARM GAS  C:\Users\Nischal Nepal\AppData\Local\Temp\ccI2457U.s 			page 2


  32:Core/Src/periphs/gpio.c ****   * SERVICES; LOSS OF USE, DATA, OR PROFITS; OR BUSINESS INTERRUPTION) HOWEVER
  33:Core/Src/periphs/gpio.c ****   * CAUSED AND ON ANY THEORY OF LIABILITY, WHETHER IN CONTRACT, STRICT LIABILITY,
  34:Core/Src/periphs/gpio.c ****   * OR TORT (INCLUDING NEGLIGENCE OR OTHERWISE) ARISING IN ANY WAY OUT OF THE USE
  35:Core/Src/periphs/gpio.c ****   * OF THIS SOFTWARE, EVEN IF ADVISED OF THE POSSIBILITY OF SUCH DAMAGE.
  36:Core/Src/periphs/gpio.c ****   *
  37:Core/Src/periphs/gpio.c ****   ******************************************************************************
  38:Core/Src/periphs/gpio.c ****   */
  39:Core/Src/periphs/gpio.c **** 
  40:Core/Src/periphs/gpio.c **** /* Includes ------------------------------------------------------------------*/
  41:Core/Src/periphs/gpio.c **** #include "gpio.h"
  42:Core/Src/periphs/gpio.c **** /* USER CODE BEGIN 0 */
  43:Core/Src/periphs/gpio.c **** 
  44:Core/Src/periphs/gpio.c **** /* USER CODE END 0 */
  45:Core/Src/periphs/gpio.c **** 
  46:Core/Src/periphs/gpio.c **** /*----------------------------------------------------------------------------*/
  47:Core/Src/periphs/gpio.c **** /* Configure GPIO                                                             */
  48:Core/Src/periphs/gpio.c **** /*----------------------------------------------------------------------------*/
  49:Core/Src/periphs/gpio.c **** /* USER CODE BEGIN 1 */
  50:Core/Src/periphs/gpio.c **** 
  51:Core/Src/periphs/gpio.c **** /* USER CODE END 1 */
  52:Core/Src/periphs/gpio.c **** 
  53:Core/Src/periphs/gpio.c **** /** Configure pins as 
  54:Core/Src/periphs/gpio.c ****         * Analog 
  55:Core/Src/periphs/gpio.c ****         * Input 
  56:Core/Src/periphs/gpio.c ****         * Output
  57:Core/Src/periphs/gpio.c ****         * EVENT_OUT
  58:Core/Src/periphs/gpio.c ****         * EXTI
  59:Core/Src/periphs/gpio.c ****         * Free pins are configured automatically as Analog (this feature is enabled through 
  60:Core/Src/periphs/gpio.c ****         * the Code Generation settings)
  61:Core/Src/periphs/gpio.c **** */
  62:Core/Src/periphs/gpio.c **** void MX_GPIO_Init(void)
  63:Core/Src/periphs/gpio.c **** {
  28              		.loc 1 63 0
  29              		.cfi_startproc
  30              		@ args = 0, pretend = 0, frame = 48
  31              		@ frame_needed = 0, uses_anonymous_args = 0
  32 0000 F0B5     		push	{r4, r5, r6, r7, lr}
  33              	.LCFI0:
  34              		.cfi_def_cfa_offset 20
  35              		.cfi_offset 4, -20
  36              		.cfi_offset 5, -16
  37              		.cfi_offset 6, -12
  38              		.cfi_offset 7, -8
  39              		.cfi_offset 14, -4
  40 0002 8DB0     		sub	sp, sp, #52
  41              	.LCFI1:
  42              		.cfi_def_cfa_offset 72
  43              	.LBB2:
  64:Core/Src/periphs/gpio.c **** 
  65:Core/Src/periphs/gpio.c ****   GPIO_InitTypeDef GPIO_InitStruct;
  66:Core/Src/periphs/gpio.c **** 
  67:Core/Src/periphs/gpio.c ****   /* GPIO Ports Clock Enable */
  68:Core/Src/periphs/gpio.c ****   __HAL_RCC_GPIOE_CLK_ENABLE();
  44              		.loc 1 68 0
  45 0004 0024     		movs	r4, #0
  46 0006 0194     		str	r4, [sp, #4]
  47 0008 504B     		ldr	r3, .L3
ARM GAS  C:\Users\Nischal Nepal\AppData\Local\Temp\ccI2457U.s 			page 3


  48 000a 1A6B     		ldr	r2, [r3, #48]
  49 000c 42F01002 		orr	r2, r2, #16
  50 0010 1A63     		str	r2, [r3, #48]
  51 0012 1A6B     		ldr	r2, [r3, #48]
  52 0014 02F01002 		and	r2, r2, #16
  53 0018 0192     		str	r2, [sp, #4]
  54 001a 019A     		ldr	r2, [sp, #4]
  55              	.LBE2:
  56              	.LBB3:
  69:Core/Src/periphs/gpio.c ****   __HAL_RCC_GPIOC_CLK_ENABLE();
  57              		.loc 1 69 0
  58 001c 0294     		str	r4, [sp, #8]
  59 001e 1A6B     		ldr	r2, [r3, #48]
  60 0020 42F00402 		orr	r2, r2, #4
  61 0024 1A63     		str	r2, [r3, #48]
  62 0026 1A6B     		ldr	r2, [r3, #48]
  63 0028 02F00402 		and	r2, r2, #4
  64 002c 0292     		str	r2, [sp, #8]
  65 002e 029A     		ldr	r2, [sp, #8]
  66              	.LBE3:
  67              	.LBB4:
  70:Core/Src/periphs/gpio.c ****   __HAL_RCC_GPIOH_CLK_ENABLE();
  68              		.loc 1 70 0
  69 0030 0394     		str	r4, [sp, #12]
  70 0032 1A6B     		ldr	r2, [r3, #48]
  71 0034 42F08002 		orr	r2, r2, #128
  72 0038 1A63     		str	r2, [r3, #48]
  73 003a 1A6B     		ldr	r2, [r3, #48]
  74 003c 02F08002 		and	r2, r2, #128
  75 0040 0392     		str	r2, [sp, #12]
  76 0042 039A     		ldr	r2, [sp, #12]
  77              	.LBE4:
  78              	.LBB5:
  71:Core/Src/periphs/gpio.c ****   __HAL_RCC_GPIOA_CLK_ENABLE();
  79              		.loc 1 71 0
  80 0044 0494     		str	r4, [sp, #16]
  81 0046 1A6B     		ldr	r2, [r3, #48]
  82 0048 42F00102 		orr	r2, r2, #1
  83 004c 1A63     		str	r2, [r3, #48]
  84 004e 1A6B     		ldr	r2, [r3, #48]
  85 0050 02F00102 		and	r2, r2, #1
  86 0054 0492     		str	r2, [sp, #16]
  87 0056 049A     		ldr	r2, [sp, #16]
  88              	.LBE5:
  89              	.LBB6:
  72:Core/Src/periphs/gpio.c ****   __HAL_RCC_GPIOB_CLK_ENABLE();
  90              		.loc 1 72 0
  91 0058 0594     		str	r4, [sp, #20]
  92 005a 1A6B     		ldr	r2, [r3, #48]
  93 005c 42F00202 		orr	r2, r2, #2
  94 0060 1A63     		str	r2, [r3, #48]
  95 0062 1A6B     		ldr	r2, [r3, #48]
  96 0064 02F00202 		and	r2, r2, #2
  97 0068 0592     		str	r2, [sp, #20]
  98 006a 059A     		ldr	r2, [sp, #20]
  99              	.LBE6:
 100              	.LBB7:
ARM GAS  C:\Users\Nischal Nepal\AppData\Local\Temp\ccI2457U.s 			page 4


  73:Core/Src/periphs/gpio.c ****   __HAL_RCC_GPIOD_CLK_ENABLE();
 101              		.loc 1 73 0
 102 006c 0694     		str	r4, [sp, #24]
 103 006e 1A6B     		ldr	r2, [r3, #48]
 104 0070 42F00802 		orr	r2, r2, #8
 105 0074 1A63     		str	r2, [r3, #48]
 106 0076 1B6B     		ldr	r3, [r3, #48]
 107 0078 03F00803 		and	r3, r3, #8
 108 007c 0693     		str	r3, [sp, #24]
 109 007e 069B     		ldr	r3, [sp, #24]
 110              	.LBE7:
  74:Core/Src/periphs/gpio.c **** 
  75:Core/Src/periphs/gpio.c ****   /*Configure GPIO pin Output Level */
  76:Core/Src/periphs/gpio.c ****   HAL_GPIO_WritePin(GPIOD, GPIO_PIN_14|GPIO_PIN_15|GPIO_PIN_1|GPIO_PIN_3 
 111              		.loc 1 76 0
 112 0080 334F     		ldr	r7, .L3+4
 113 0082 2246     		mov	r2, r4
 114 0084 4CF2AA01 		movw	r1, #49322
 115 0088 3846     		mov	r0, r7
 116 008a FFF7FEFF 		bl	HAL_GPIO_WritePin
 117              	.LVL0:
  77:Core/Src/periphs/gpio.c ****                           |GPIO_PIN_5|GPIO_PIN_7, GPIO_PIN_RESET);
  78:Core/Src/periphs/gpio.c **** 
  79:Core/Src/periphs/gpio.c ****   /*Configure GPIO pin Output Level */
  80:Core/Src/periphs/gpio.c ****   HAL_GPIO_WritePin(GPIOC, GPIO_PIN_10|GPIO_PIN_12, GPIO_PIN_RESET);
 118              		.loc 1 80 0
 119 008e 314E     		ldr	r6, .L3+8
 120 0090 2246     		mov	r2, r4
 121 0092 4FF4A051 		mov	r1, #5120
 122 0096 3046     		mov	r0, r6
 123 0098 FFF7FEFF 		bl	HAL_GPIO_WritePin
 124              	.LVL1:
  81:Core/Src/periphs/gpio.c **** 
  82:Core/Src/periphs/gpio.c ****   /*Configure GPIO pins : PE2 PE3 PE4 PE5 
  83:Core/Src/periphs/gpio.c ****                            PE6 PE7 PE8 PE10 
  84:Core/Src/periphs/gpio.c ****                            PE12 PE13 PE14 PE15 
  85:Core/Src/periphs/gpio.c ****                            PE0 PE1 */
  86:Core/Src/periphs/gpio.c ****   GPIO_InitStruct.Pin = GPIO_PIN_2|GPIO_PIN_3|GPIO_PIN_4|GPIO_PIN_5 
 125              		.loc 1 86 0
 126 009c 4FF2FF53 		movw	r3, #62975
 127 00a0 0793     		str	r3, [sp, #28]
  87:Core/Src/periphs/gpio.c ****                           |GPIO_PIN_6|GPIO_PIN_7|GPIO_PIN_8|GPIO_PIN_10 
  88:Core/Src/periphs/gpio.c ****                           |GPIO_PIN_12|GPIO_PIN_13|GPIO_PIN_14|GPIO_PIN_15 
  89:Core/Src/periphs/gpio.c ****                           |GPIO_PIN_0|GPIO_PIN_1;
  90:Core/Src/periphs/gpio.c ****   GPIO_InitStruct.Mode = GPIO_MODE_ANALOG;
 128              		.loc 1 90 0
 129 00a2 0325     		movs	r5, #3
 130 00a4 0895     		str	r5, [sp, #32]
  91:Core/Src/periphs/gpio.c ****   GPIO_InitStruct.Pull = GPIO_NOPULL;
 131              		.loc 1 91 0
 132 00a6 0994     		str	r4, [sp, #36]
  92:Core/Src/periphs/gpio.c ****   HAL_GPIO_Init(GPIOE, &GPIO_InitStruct);
 133              		.loc 1 92 0
 134 00a8 07A9     		add	r1, sp, #28
 135 00aa 2B48     		ldr	r0, .L3+12
 136 00ac FFF7FEFF 		bl	HAL_GPIO_Init
 137              	.LVL2:
ARM GAS  C:\Users\Nischal Nepal\AppData\Local\Temp\ccI2457U.s 			page 5


  93:Core/Src/periphs/gpio.c **** 
  94:Core/Src/periphs/gpio.c ****   /*Configure GPIO pins : PC13 PC15 PC0 PC1 
  95:Core/Src/periphs/gpio.c ****                            PC2 PC3 PC5 PC11 */
  96:Core/Src/periphs/gpio.c ****   GPIO_InitStruct.Pin = GPIO_PIN_13|GPIO_PIN_15|GPIO_PIN_0|GPIO_PIN_1 
 138              		.loc 1 96 0
 139 00b0 4AF62F03 		movw	r3, #43055
 140 00b4 0793     		str	r3, [sp, #28]
  97:Core/Src/periphs/gpio.c ****                           |GPIO_PIN_2|GPIO_PIN_3|GPIO_PIN_5|GPIO_PIN_11;
  98:Core/Src/periphs/gpio.c ****   GPIO_InitStruct.Mode = GPIO_MODE_ANALOG;
 141              		.loc 1 98 0
 142 00b6 0895     		str	r5, [sp, #32]
  99:Core/Src/periphs/gpio.c ****   GPIO_InitStruct.Pull = GPIO_NOPULL;
 143              		.loc 1 99 0
 144 00b8 0994     		str	r4, [sp, #36]
 100:Core/Src/periphs/gpio.c ****   HAL_GPIO_Init(GPIOC, &GPIO_InitStruct);
 145              		.loc 1 100 0
 146 00ba 07A9     		add	r1, sp, #28
 147 00bc 3046     		mov	r0, r6
 148 00be FFF7FEFF 		bl	HAL_GPIO_Init
 149              	.LVL3:
 101:Core/Src/periphs/gpio.c **** 
 102:Core/Src/periphs/gpio.c ****   /*Configure GPIO pin : PC14 */
 103:Core/Src/periphs/gpio.c ****   GPIO_InitStruct.Pin = GPIO_PIN_14;
 150              		.loc 1 103 0
 151 00c2 4FF48043 		mov	r3, #16384
 152 00c6 0793     		str	r3, [sp, #28]
 104:Core/Src/periphs/gpio.c ****   GPIO_InitStruct.Mode = GPIO_MODE_IT_RISING;
 153              		.loc 1 104 0
 154 00c8 244B     		ldr	r3, .L3+16
 155 00ca 0893     		str	r3, [sp, #32]
 105:Core/Src/periphs/gpio.c ****   GPIO_InitStruct.Pull = GPIO_NOPULL;
 156              		.loc 1 105 0
 157 00cc 0994     		str	r4, [sp, #36]
 106:Core/Src/periphs/gpio.c ****   HAL_GPIO_Init(GPIOC, &GPIO_InitStruct);
 158              		.loc 1 106 0
 159 00ce 07A9     		add	r1, sp, #28
 160 00d0 3046     		mov	r0, r6
 161 00d2 FFF7FEFF 		bl	HAL_GPIO_Init
 162              	.LVL4:
 107:Core/Src/periphs/gpio.c **** 
 108:Core/Src/periphs/gpio.c ****   /*Configure GPIO pins : PA2 PA3 PA4 PA5 
 109:Core/Src/periphs/gpio.c ****                            PA8 PA11 PA12 PA15 */
 110:Core/Src/periphs/gpio.c ****   GPIO_InitStruct.Pin = GPIO_PIN_2|GPIO_PIN_3|GPIO_PIN_4|GPIO_PIN_5 
 163              		.loc 1 110 0
 164 00d6 49F63C13 		movw	r3, #39228
 165 00da 0793     		str	r3, [sp, #28]
 111:Core/Src/periphs/gpio.c ****                           |GPIO_PIN_8|GPIO_PIN_11|GPIO_PIN_12|GPIO_PIN_15;
 112:Core/Src/periphs/gpio.c ****   GPIO_InitStruct.Mode = GPIO_MODE_ANALOG;
 166              		.loc 1 112 0
 167 00dc 0895     		str	r5, [sp, #32]
 113:Core/Src/periphs/gpio.c ****   GPIO_InitStruct.Pull = GPIO_NOPULL;
 168              		.loc 1 113 0
 169 00de 0994     		str	r4, [sp, #36]
 114:Core/Src/periphs/gpio.c ****   HAL_GPIO_Init(GPIOA, &GPIO_InitStruct);
 170              		.loc 1 114 0
 171 00e0 07A9     		add	r1, sp, #28
 172 00e2 1F48     		ldr	r0, .L3+20
ARM GAS  C:\Users\Nischal Nepal\AppData\Local\Temp\ccI2457U.s 			page 6


 173 00e4 FFF7FEFF 		bl	HAL_GPIO_Init
 174              	.LVL5:
 115:Core/Src/periphs/gpio.c **** 
 116:Core/Src/periphs/gpio.c ****   /*Configure GPIO pins : PB0 PB1 PB2 PB12 
 117:Core/Src/periphs/gpio.c ****                            PB13 PB14 PB15 PB4 
 118:Core/Src/periphs/gpio.c ****                            PB5 PB6 PB7 PB8 
 119:Core/Src/periphs/gpio.c ****                            PB9 */
 120:Core/Src/periphs/gpio.c ****   GPIO_InitStruct.Pin = GPIO_PIN_0|GPIO_PIN_1|GPIO_PIN_2|GPIO_PIN_12 
 175              		.loc 1 120 0
 176 00e8 4FF2F733 		movw	r3, #62455
 177 00ec 0793     		str	r3, [sp, #28]
 121:Core/Src/periphs/gpio.c ****                           |GPIO_PIN_13|GPIO_PIN_14|GPIO_PIN_15|GPIO_PIN_4 
 122:Core/Src/periphs/gpio.c ****                           |GPIO_PIN_5|GPIO_PIN_6|GPIO_PIN_7|GPIO_PIN_8 
 123:Core/Src/periphs/gpio.c ****                           |GPIO_PIN_9;
 124:Core/Src/periphs/gpio.c ****   GPIO_InitStruct.Mode = GPIO_MODE_ANALOG;
 178              		.loc 1 124 0
 179 00ee 0895     		str	r5, [sp, #32]
 125:Core/Src/periphs/gpio.c ****   GPIO_InitStruct.Pull = GPIO_NOPULL;
 180              		.loc 1 125 0
 181 00f0 0994     		str	r4, [sp, #36]
 126:Core/Src/periphs/gpio.c ****   HAL_GPIO_Init(GPIOB, &GPIO_InitStruct);
 182              		.loc 1 126 0
 183 00f2 07A9     		add	r1, sp, #28
 184 00f4 1B48     		ldr	r0, .L3+24
 185 00f6 FFF7FEFF 		bl	HAL_GPIO_Init
 186              	.LVL6:
 127:Core/Src/periphs/gpio.c **** 
 128:Core/Src/periphs/gpio.c ****   /*Configure GPIO pins : PD8 PD9 PD10 PD11 
 129:Core/Src/periphs/gpio.c ****                            PD0 PD2 PD4 PD6 */
 130:Core/Src/periphs/gpio.c ****   GPIO_InitStruct.Pin = GPIO_PIN_8|GPIO_PIN_9|GPIO_PIN_10|GPIO_PIN_11 
 187              		.loc 1 130 0
 188 00fa 40F65573 		movw	r3, #3925
 189 00fe 0793     		str	r3, [sp, #28]
 131:Core/Src/periphs/gpio.c ****                           |GPIO_PIN_0|GPIO_PIN_2|GPIO_PIN_4|GPIO_PIN_6;
 132:Core/Src/periphs/gpio.c ****   GPIO_InitStruct.Mode = GPIO_MODE_ANALOG;
 190              		.loc 1 132 0
 191 0100 0895     		str	r5, [sp, #32]
 133:Core/Src/periphs/gpio.c ****   GPIO_InitStruct.Pull = GPIO_NOPULL;
 192              		.loc 1 133 0
 193 0102 0994     		str	r4, [sp, #36]
 134:Core/Src/periphs/gpio.c ****   HAL_GPIO_Init(GPIOD, &GPIO_InitStruct);
 194              		.loc 1 134 0
 195 0104 07A9     		add	r1, sp, #28
 196 0106 3846     		mov	r0, r7
 197 0108 FFF7FEFF 		bl	HAL_GPIO_Init
 198              	.LVL7:
 135:Core/Src/periphs/gpio.c **** 
 136:Core/Src/periphs/gpio.c ****   /*Configure GPIO pins : PD14 PD15 PD1 PD3 
 137:Core/Src/periphs/gpio.c ****                            PD5 PD7 */
 138:Core/Src/periphs/gpio.c ****   GPIO_InitStruct.Pin = GPIO_PIN_14|GPIO_PIN_15|GPIO_PIN_1|GPIO_PIN_3 
 199              		.loc 1 138 0
 200 010c 4CF2AA03 		movw	r3, #49322
 201 0110 0793     		str	r3, [sp, #28]
 139:Core/Src/periphs/gpio.c ****                           |GPIO_PIN_5|GPIO_PIN_7;
 140:Core/Src/periphs/gpio.c ****   GPIO_InitStruct.Mode = GPIO_MODE_OUTPUT_PP;
 202              		.loc 1 140 0
 203 0112 0125     		movs	r5, #1
ARM GAS  C:\Users\Nischal Nepal\AppData\Local\Temp\ccI2457U.s 			page 7


 204 0114 0895     		str	r5, [sp, #32]
 141:Core/Src/periphs/gpio.c ****   GPIO_InitStruct.Pull = GPIO_NOPULL;
 205              		.loc 1 141 0
 206 0116 0994     		str	r4, [sp, #36]
 142:Core/Src/periphs/gpio.c ****   GPIO_InitStruct.Speed = GPIO_SPEED_FREQ_LOW;
 207              		.loc 1 142 0
 208 0118 0A94     		str	r4, [sp, #40]
 143:Core/Src/periphs/gpio.c ****   HAL_GPIO_Init(GPIOD, &GPIO_InitStruct);
 209              		.loc 1 143 0
 210 011a 07A9     		add	r1, sp, #28
 211 011c 3846     		mov	r0, r7
 212 011e FFF7FEFF 		bl	HAL_GPIO_Init
 213              	.LVL8:
 144:Core/Src/periphs/gpio.c **** 
 145:Core/Src/periphs/gpio.c ****   /*Configure GPIO pins : PC10 PC12 */
 146:Core/Src/periphs/gpio.c ****   GPIO_InitStruct.Pin = GPIO_PIN_10|GPIO_PIN_12;
 214              		.loc 1 146 0
 215 0122 4FF4A053 		mov	r3, #5120
 216 0126 0793     		str	r3, [sp, #28]
 147:Core/Src/periphs/gpio.c ****   GPIO_InitStruct.Mode = GPIO_MODE_OUTPUT_PP;
 217              		.loc 1 147 0
 218 0128 0895     		str	r5, [sp, #32]
 148:Core/Src/periphs/gpio.c ****   GPIO_InitStruct.Pull = GPIO_NOPULL;
 219              		.loc 1 148 0
 220 012a 0994     		str	r4, [sp, #36]
 149:Core/Src/periphs/gpio.c ****   GPIO_InitStruct.Speed = GPIO_SPEED_FREQ_LOW;
 221              		.loc 1 149 0
 222 012c 0A94     		str	r4, [sp, #40]
 150:Core/Src/periphs/gpio.c ****   HAL_GPIO_Init(GPIOC, &GPIO_InitStruct);
 223              		.loc 1 150 0
 224 012e 07A9     		add	r1, sp, #28
 225 0130 3046     		mov	r0, r6
 226 0132 FFF7FEFF 		bl	HAL_GPIO_Init
 227              	.LVL9:
 151:Core/Src/periphs/gpio.c **** 
 152:Core/Src/periphs/gpio.c ****   /* EXTI interrupt init*/
 153:Core/Src/periphs/gpio.c ****   HAL_NVIC_SetPriority(EXTI15_10_IRQn, 0, 0);
 228              		.loc 1 153 0
 229 0136 2246     		mov	r2, r4
 230 0138 2146     		mov	r1, r4
 231 013a 2820     		movs	r0, #40
 232 013c FFF7FEFF 		bl	HAL_NVIC_SetPriority
 233              	.LVL10:
 154:Core/Src/periphs/gpio.c ****   HAL_NVIC_EnableIRQ(EXTI15_10_IRQn);
 234              		.loc 1 154 0
 235 0140 2820     		movs	r0, #40
 236 0142 FFF7FEFF 		bl	HAL_NVIC_EnableIRQ
 237              	.LVL11:
 155:Core/Src/periphs/gpio.c **** 
 156:Core/Src/periphs/gpio.c **** }
 238              		.loc 1 156 0
 239 0146 0DB0     		add	sp, sp, #52
 240              	.LCFI2:
 241              		.cfi_def_cfa_offset 20
 242              		@ sp needed
 243 0148 F0BD     		pop	{r4, r5, r6, r7, pc}
 244              	.L4:
ARM GAS  C:\Users\Nischal Nepal\AppData\Local\Temp\ccI2457U.s 			page 8


 245 014a 00BF     		.align	2
 246              	.L3:
 247 014c 00380240 		.word	1073887232
 248 0150 000C0240 		.word	1073875968
 249 0154 00080240 		.word	1073874944
 250 0158 00100240 		.word	1073876992
 251 015c 00001110 		.word	269549568
 252 0160 00000240 		.word	1073872896
 253 0164 00040240 		.word	1073873920
 254              		.cfi_endproc
 255              	.LFE126:
 257              		.text
 258              	.Letext0:
 259              		.file 2 "c:\\program files (x86)\\gnu tools arm embedded\\7 2017-q4-major\\arm-none-eabi\\include\
 260              		.file 3 "c:\\program files (x86)\\gnu tools arm embedded\\7 2017-q4-major\\arm-none-eabi\\include\
 261              		.file 4 "C:/Users/n-is/STM32Cube/Repository/STM32Cube_FW_F4_V1.21.0/Drivers/CMSIS/Include/core_cm4
 262              		.file 5 "C:/Users/n-is/STM32Cube/Repository/STM32Cube_FW_F4_V1.21.0/Drivers/CMSIS/Device/ST/STM32F
 263              		.file 6 "C:/Users/n-is/STM32Cube/Repository/STM32Cube_FW_F4_V1.21.0/Drivers/CMSIS/Device/ST/STM32F
 264              		.file 7 "c:\\program files (x86)\\gnu tools arm embedded\\7 2017-q4-major\\arm-none-eabi\\include\
 265              		.file 8 "c:\\program files (x86)\\gnu tools arm embedded\\7 2017-q4-major\\arm-none-eabi\\include\
 266              		.file 9 "c:\\program files (x86)\\gnu tools arm embedded\\7 2017-q4-major\\lib\\gcc\\arm-none-eabi
 267              		.file 10 "c:\\program files (x86)\\gnu tools arm embedded\\7 2017-q4-major\\arm-none-eabi\\include
 268              		.file 11 "C:/Users/n-is/STM32Cube/Repository/STM32Cube_FW_F4_V1.21.0/Drivers/STM32F4xx_HAL_Driver/
 269              		.file 12 "C:/Users/n-is/STM32Cube/Repository/STM32Cube_FW_F4_V1.21.0/Drivers/STM32F4xx_HAL_Driver/
ARM GAS  C:\Users\Nischal Nepal\AppData\Local\Temp\ccI2457U.s 			page 9

