ARM GAS  C:\Users\Nischal Nepal\AppData\Local\Temp\cc1CySfX.s 			page 1


   1              		.cpu cortex-m4
   2              		.eabi_attribute 27, 1
   3              		.eabi_attribute 28, 1
   4              		.eabi_attribute 20, 1
   5              		.eabi_attribute 21, 1
   6              		.eabi_attribute 23, 3
   7              		.eabi_attribute 24, 1
   8              		.eabi_attribute 25, 1
   9              		.eabi_attribute 26, 1
  10              		.eabi_attribute 30, 1
  11              		.eabi_attribute 34, 1
  12              		.eabi_attribute 18, 4
  13              		.file	"robo_init.cpp"
  14              		.text
  15              	.Ltext0:
  16              		.cfi_sections	.debug_frame
  17              		.section	.text._ZL10wheel_initv,"ax",%progbits
  18              		.align	1
  19              		.syntax unified
  20              		.thumb
  21              		.thumb_func
  22              		.fpu fpv4-sp-d16
  24              	_ZL10wheel_initv:
  25              	.LFB136:
  26              		.file 1 "Core/Src/robot/robo_init.cpp"
   1:Core/Src/robot/robo_init.cpp **** /*
   2:Core/Src/robot/robo_init.cpp ****  * robo_init.c
   3:Core/Src/robot/robo_init.cpp ****  *
   4:Core/Src/robot/robo_init.cpp ****  * Created : 10/1/2018
   5:Core/Src/robot/robo_init.cpp ****  */
   6:Core/Src/robot/robo_init.cpp **** 
   7:Core/Src/robot/robo_init.cpp **** #include "robo_init.h"
   8:Core/Src/robot/robo_init.cpp **** 
   9:Core/Src/robot/robo_init.cpp **** void pid_Init();
  10:Core/Src/robot/robo_init.cpp **** 
  11:Core/Src/robot/robo_init.cpp **** static Wheel_Config gWheel_Configurations[4];
  12:Core/Src/robot/robo_init.cpp **** Wheel gWheels[4];
  13:Core/Src/robot/robo_init.cpp **** 
  14:Core/Src/robot/robo_init.cpp **** static void wheel_init(void);
  15:Core/Src/robot/robo_init.cpp **** 
  16:Core/Src/robot/robo_init.cpp **** void robo_Init()
  17:Core/Src/robot/robo_init.cpp **** {
  18:Core/Src/robot/robo_init.cpp ****         wheel_init();
  19:Core/Src/robot/robo_init.cpp ****         Thinker_Init();
  20:Core/Src/robot/robo_init.cpp ****         pid_Init();
  21:Core/Src/robot/robo_init.cpp **** 
  22:Core/Src/robot/robo_init.cpp ****         HAL_TIM_Base_Start(&htim8);
  23:Core/Src/robot/robo_init.cpp **** 
  24:Core/Src/robot/robo_init.cpp ****         HAL_TIM_PWM_Start(gWheel_Configurations[0].htim, TIM_CHANNEL_1);
  25:Core/Src/robot/robo_init.cpp ****         HAL_TIM_PWM_Start(gWheel_Configurations[1].htim, TIM_CHANNEL_2);
  26:Core/Src/robot/robo_init.cpp ****         HAL_TIM_PWM_Start(gWheel_Configurations[2].htim, TIM_CHANNEL_3);
  27:Core/Src/robot/robo_init.cpp ****         HAL_TIM_PWM_Start(gWheel_Configurations[3].htim, TIM_CHANNEL_4);
  28:Core/Src/robot/robo_init.cpp **** 
  29:Core/Src/robot/robo_init.cpp ****         HAL_TIM_Encoder_Start(gWheel_Configurations[0].henc, TIM_CHANNEL_ALL);
  30:Core/Src/robot/robo_init.cpp ****         HAL_TIM_Encoder_Start(gWheel_Configurations[1].henc, TIM_CHANNEL_ALL);
  31:Core/Src/robot/robo_init.cpp ****         HAL_TIM_Encoder_Start(gWheel_Configurations[2].henc, TIM_CHANNEL_ALL);
  32:Core/Src/robot/robo_init.cpp ****         HAL_TIM_Encoder_Start(gWheel_Configurations[3].henc, TIM_CHANNEL_ALL);
ARM GAS  C:\Users\Nischal Nepal\AppData\Local\Temp\cc1CySfX.s 			page 2


  33:Core/Src/robot/robo_init.cpp **** }
  34:Core/Src/robot/robo_init.cpp **** 
  35:Core/Src/robot/robo_init.cpp **** static void wheel_init(void)
  36:Core/Src/robot/robo_init.cpp **** {
  27              		.loc 1 36 0
  28              		.cfi_startproc
  29              		@ args = 0, pretend = 0, frame = 0
  30              		@ frame_needed = 0, uses_anonymous_args = 0
  31              		@ link register save eliminated.
  32 0000 10B4     		push	{r4}
  33              	.LCFI0:
  34              		.cfi_def_cfa_offset 4
  35              		.cfi_offset 4, -4
  36              	.LVL0:
  37:Core/Src/robot/robo_init.cpp ****         int i;
  38:Core/Src/robot/robo_init.cpp ****         for (i = 0; i < 4; i++)
  37              		.loc 1 38 0
  38 0002 0023     		movs	r3, #0
  39              	.LVL1:
  40              	.L3:
  41              		.loc 1 38 0 is_stmt 0 discriminator 3
  42 0004 032B     		cmp	r3, #3
  43 0006 0BDC     		bgt	.L2
  39:Core/Src/robot/robo_init.cpp ****         {
  40:Core/Src/robot/robo_init.cpp ****                 gWheel_Configurations[i].id = i;
  44              		.loc 1 40 0 is_stmt 1 discriminator 2
  45 0008 2948     		ldr	r0, .L7
  46 000a 9A00     		lsls	r2, r3, #2
  47 000c 1A44     		add	r2, r2, r3
  48 000e D100     		lsls	r1, r2, #3
  49 0010 4218     		adds	r2, r0, r1
  50 0012 4354     		strb	r3, [r0, r1]
  41:Core/Src/robot/robo_init.cpp ****                 gWheel_Configurations[i].radius = 0.067;
  51              		.loc 1 41 0 discriminator 2
  52 0014 2749     		ldr	r1, .L7+4
  53 0016 5160     		str	r1, [r2, #4]	@ float
  42:Core/Src/robot/robo_init.cpp ****                 // All motors are connected to same timer : TIM8
  43:Core/Src/robot/robo_init.cpp ****                 gWheel_Configurations[i].htim = &htim8;
  54              		.loc 1 43 0 discriminator 2
  55 0018 2749     		ldr	r1, .L7+8
  56 001a 9161     		str	r1, [r2, #24]
  38:Core/Src/robot/robo_init.cpp ****         {
  57              		.loc 1 38 0 discriminator 2
  58 001c 0133     		adds	r3, r3, #1
  59              	.LVL2:
  60 001e F1E7     		b	.L3
  61              	.L2:
  44:Core/Src/robot/robo_init.cpp ****         }
  45:Core/Src/robot/robo_init.cpp ****         gWheel_Configurations[0].in1_port = GPIOD;
  62              		.loc 1 45 0
  63 0020 234A     		ldr	r2, .L7
  64 0022 2649     		ldr	r1, .L7+12
  65 0024 9160     		str	r1, [r2, #8]
  46:Core/Src/robot/robo_init.cpp ****         gWheel_Configurations[0].in1_pin = GPIO_PIN_3; 
  66              		.loc 1 46 0
  67 0026 0820     		movs	r0, #8
  68 0028 9081     		strh	r0, [r2, #12]	@ movhi
ARM GAS  C:\Users\Nischal Nepal\AppData\Local\Temp\cc1CySfX.s 			page 3


  47:Core/Src/robot/robo_init.cpp ****         gWheel_Configurations[0].in2_port = GPIOD;
  69              		.loc 1 47 0
  70 002a 1161     		str	r1, [r2, #16]
  48:Core/Src/robot/robo_init.cpp ****         gWheel_Configurations[0].in2_pin = GPIO_PIN_1;
  71              		.loc 1 48 0
  72 002c 0223     		movs	r3, #2
  73              	.LVL3:
  74 002e 9382     		strh	r3, [r2, #20]	@ movhi
  49:Core/Src/robot/robo_init.cpp ****         gWheel_Configurations[0].channel = TIM_CHANNEL_1;
  75              		.loc 1 49 0
  76 0030 0023     		movs	r3, #0
  77 0032 D361     		str	r3, [r2, #28]
  50:Core/Src/robot/robo_init.cpp ****         gWheel_Configurations[0].henc = &htim2;
  78              		.loc 1 50 0
  79 0034 224C     		ldr	r4, .L7+16
  80 0036 1462     		str	r4, [r2, #32]
  51:Core/Src/robot/robo_init.cpp **** 
  52:Core/Src/robot/robo_init.cpp ****         gWheel_Configurations[1].in1_port = GPIOD;
  81              		.loc 1 52 0
  82 0038 1163     		str	r1, [r2, #48]
  53:Core/Src/robot/robo_init.cpp ****         gWheel_Configurations[1].in1_pin = GPIO_PIN_14;
  83              		.loc 1 53 0
  84 003a 4FF48044 		mov	r4, #16384
  85 003e 9486     		strh	r4, [r2, #52]	@ movhi
  54:Core/Src/robot/robo_init.cpp ****         gWheel_Configurations[1].in2_port = GPIOD;
  86              		.loc 1 54 0
  87 0040 9163     		str	r1, [r2, #56]
  55:Core/Src/robot/robo_init.cpp ****         gWheel_Configurations[1].in2_pin = GPIO_PIN_5;
  88              		.loc 1 55 0
  89 0042 2024     		movs	r4, #32
  90 0044 9487     		strh	r4, [r2, #60]	@ movhi
  56:Core/Src/robot/robo_init.cpp ****         gWheel_Configurations[1].channel = TIM_CHANNEL_2;
  91              		.loc 1 56 0
  92 0046 0424     		movs	r4, #4
  93 0048 5464     		str	r4, [r2, #68]
  57:Core/Src/robot/robo_init.cpp ****         gWheel_Configurations[1].henc = &htim3;
  94              		.loc 1 57 0
  95 004a 1E4C     		ldr	r4, .L7+20
  96 004c 9464     		str	r4, [r2, #72]
  58:Core/Src/robot/robo_init.cpp ****         
  59:Core/Src/robot/robo_init.cpp ****         gWheel_Configurations[2].in1_port = GPIOD;
  97              		.loc 1 59 0
  98 004e 9165     		str	r1, [r2, #88]
  60:Core/Src/robot/robo_init.cpp ****         gWheel_Configurations[2].in1_pin = GPIO_PIN_7;
  99              		.loc 1 60 0
 100 0050 8024     		movs	r4, #128
 101 0052 A2F85C40 		strh	r4, [r2, #92]	@ movhi
  61:Core/Src/robot/robo_init.cpp ****         gWheel_Configurations[2].in2_port = GPIOD;
 102              		.loc 1 61 0
 103 0056 1166     		str	r1, [r2, #96]
  62:Core/Src/robot/robo_init.cpp ****         gWheel_Configurations[2].in2_pin = GPIO_PIN_15;
 104              		.loc 1 62 0
 105 0058 4FF40041 		mov	r1, #32768
 106 005c A2F86410 		strh	r1, [r2, #100]	@ movhi
  63:Core/Src/robot/robo_init.cpp ****         gWheel_Configurations[2].channel = TIM_CHANNEL_3;
 107              		.loc 1 63 0
 108 0060 D066     		str	r0, [r2, #108]
ARM GAS  C:\Users\Nischal Nepal\AppData\Local\Temp\cc1CySfX.s 			page 4


  64:Core/Src/robot/robo_init.cpp ****         gWheel_Configurations[2].henc = &htim1;
 109              		.loc 1 64 0
 110 0062 1949     		ldr	r1, .L7+24
 111 0064 1167     		str	r1, [r2, #112]
  65:Core/Src/robot/robo_init.cpp **** 
  66:Core/Src/robot/robo_init.cpp ****         gWheel_Configurations[3].in1_port = GPIOC;
 112              		.loc 1 66 0
 113 0066 1949     		ldr	r1, .L7+28
 114 0068 C2F88010 		str	r1, [r2, #128]
  67:Core/Src/robot/robo_init.cpp ****         gWheel_Configurations[3].in1_pin = GPIO_PIN_12;
 115              		.loc 1 67 0
 116 006c 4FF48050 		mov	r0, #4096
 117 0070 A2F88400 		strh	r0, [r2, #132]	@ movhi
  68:Core/Src/robot/robo_init.cpp ****         gWheel_Configurations[3].in2_port = GPIOC;
 118              		.loc 1 68 0
 119 0074 C2F88810 		str	r1, [r2, #136]
  69:Core/Src/robot/robo_init.cpp ****         gWheel_Configurations[3].in2_pin = GPIO_PIN_10;
 120              		.loc 1 69 0
 121 0078 4FF48061 		mov	r1, #1024
 122 007c A2F88C10 		strh	r1, [r2, #140]	@ movhi
  70:Core/Src/robot/robo_init.cpp ****         gWheel_Configurations[3].channel = TIM_CHANNEL_4;
 123              		.loc 1 70 0
 124 0080 0C21     		movs	r1, #12
 125 0082 C2F89410 		str	r1, [r2, #148]
  71:Core/Src/robot/robo_init.cpp ****         gWheel_Configurations[3].henc = &htim4;
 126              		.loc 1 71 0
 127 0086 1249     		ldr	r1, .L7+32
 128 0088 C2F89810 		str	r1, [r2, #152]
 129              	.LVL4:
 130              	.L5:
 131              	.LBB11:
  72:Core/Src/robot/robo_init.cpp **** 
  73:Core/Src/robot/robo_init.cpp ****         for (uint8_t i = 0; i < 4; ++i) {
 132              		.loc 1 73 0 discriminator 3
 133 008c 032B     		cmp	r3, #3
 134 008e 0CD8     		bhi	.L1
  74:Core/Src/robot/robo_init.cpp ****                 gWheels[i].set_Config(&gWheel_Configurations[i]);
 135              		.loc 1 74 0 discriminator 2
 136 0090 03EB8302 		add	r2, r3, r3, lsl #2
 137 0094 D100     		lsls	r1, r2, #3
 138 0096 064A     		ldr	r2, .L7
 139 0098 0A44     		add	r2, r2, r1
 140              	.LVL5:
 141              	.LBB12:
 142              	.LBB13:
 143              		.file 2 "Core/Inc\\devs/wheel.h"
   1:Core/Inc\devs/wheel.h **** /*
   2:Core/Inc\devs/wheel.h ****  * wheel.h
   3:Core/Inc\devs/wheel.h ****  *
   4:Core/Inc\devs/wheel.h ****  * Created : 10/1/2018
   5:Core/Inc\devs/wheel.h ****  */
   6:Core/Inc\devs/wheel.h **** 
   7:Core/Inc\devs/wheel.h **** #ifndef _WHEEL_H_
   8:Core/Inc\devs/wheel.h **** #define _WHEEL_H_
   9:Core/Inc\devs/wheel.h **** 
  10:Core/Inc\devs/wheel.h **** #include "stm32f4xx_hal.h"
  11:Core/Inc\devs/wheel.h **** #include "tim.h"
ARM GAS  C:\Users\Nischal Nepal\AppData\Local\Temp\cc1CySfX.s 			page 5


  12:Core/Inc\devs/wheel.h **** 
  13:Core/Inc\devs/wheel.h **** #include "defines.h"
  14:Core/Inc\devs/wheel.h **** 
  15:Core/Inc\devs/wheel.h **** enum Direction
  16:Core/Inc\devs/wheel.h **** {
  17:Core/Inc\devs/wheel.h ****         AHEAD,
  18:Core/Inc\devs/wheel.h ****         BACK,
  19:Core/Inc\devs/wheel.h ****         HALT
  20:Core/Inc\devs/wheel.h **** };
  21:Core/Inc\devs/wheel.h **** 
  22:Core/Inc\devs/wheel.h **** struct Wheel_Config
  23:Core/Inc\devs/wheel.h **** {
  24:Core/Inc\devs/wheel.h ****         uint8_t id;
  25:Core/Inc\devs/wheel.h ****         float radius;
  26:Core/Inc\devs/wheel.h **** 
  27:Core/Inc\devs/wheel.h ****         GPIO_TypeDef *in1_port;
  28:Core/Inc\devs/wheel.h ****         uint16_t in1_pin;
  29:Core/Inc\devs/wheel.h ****         GPIO_TypeDef *in2_port;
  30:Core/Inc\devs/wheel.h ****         uint16_t in2_pin;
  31:Core/Inc\devs/wheel.h **** 
  32:Core/Inc\devs/wheel.h ****         TIM_HandleTypeDef *htim;        // PWM Generating Timer
  33:Core/Inc\devs/wheel.h ****         uint32_t channel;               // PWM Channel
  34:Core/Inc\devs/wheel.h **** 
  35:Core/Inc\devs/wheel.h ****         TIM_HandleTypeDef *henc;
  36:Core/Inc\devs/wheel.h ****         
  37:Core/Inc\devs/wheel.h ****         float tolerance;
  38:Core/Inc\devs/wheel.h **** };
  39:Core/Inc\devs/wheel.h **** 
  40:Core/Inc\devs/wheel.h **** class Wheel
  41:Core/Inc\devs/wheel.h **** {
  42:Core/Inc\devs/wheel.h **** public:
  43:Core/Inc\devs/wheel.h ****         Wheel() { wheel_ = 0; }
  44:Core/Inc\devs/wheel.h ****         Wheel(Wheel_Config *wheel) { wheel_ = wheel; }
  45:Core/Inc\devs/wheel.h ****         Wheel(Wheel &&) = default;
  46:Core/Inc\devs/wheel.h ****         Wheel(const Wheel &) = default;
  47:Core/Inc\devs/wheel.h ****         Wheel &operator=(Wheel &&) = default;
  48:Core/Inc\devs/wheel.h ****         Wheel &operator=(const Wheel &) = default;
  49:Core/Inc\devs/wheel.h ****         ~Wheel() { }
  50:Core/Inc\devs/wheel.h ****         
  51:Core/Inc\devs/wheel.h ****         void set_Config(Wheel_Config *wheel) { wheel_ = wheel; }
 144              		.loc 2 51 0 discriminator 2
 145 009a 03EB4300 		add	r0, r3, r3, lsl #1
 146 009e 8100     		lsls	r1, r0, #2
 147 00a0 0C48     		ldr	r0, .L7+36
 148 00a2 4250     		str	r2, [r0, r1]
 149              	.LVL6:
 150              	.LBE13:
 151              	.LBE12:
  73:Core/Src/robot/robo_init.cpp ****                 gWheels[i].set_Config(&gWheel_Configurations[i]);
 152              		.loc 1 73 0 discriminator 2
 153 00a4 0133     		adds	r3, r3, #1
 154              	.LVL7:
 155 00a6 DBB2     		uxtb	r3, r3
 156              	.LVL8:
 157 00a8 F0E7     		b	.L5
 158              	.L1:
 159              	.LBE11:
ARM GAS  C:\Users\Nischal Nepal\AppData\Local\Temp\cc1CySfX.s 			page 6


  75:Core/Src/robot/robo_init.cpp ****         }
  76:Core/Src/robot/robo_init.cpp **** }
 160              		.loc 1 76 0
 161 00aa 5DF8044B 		ldr	r4, [sp], #4
 162              	.LCFI1:
 163              		.cfi_restore 4
 164              		.cfi_def_cfa_offset 0
 165 00ae 7047     		bx	lr
 166              	.L8:
 167              		.align	2
 168              	.L7:
 169 00b0 00000000 		.word	.LANCHOR0
 170 00b4 4C37893D 		.word	1032402764
 171 00b8 00000000 		.word	htim8
 172 00bc 000C0240 		.word	1073875968
 173 00c0 00000000 		.word	htim2
 174 00c4 00000000 		.word	htim3
 175 00c8 00000000 		.word	htim1
 176 00cc 00080240 		.word	1073874944
 177 00d0 00000000 		.word	htim4
 178 00d4 00000000 		.word	.LANCHOR1
 179              		.cfi_endproc
 180              	.LFE136:
 182              		.section	.text.__tcf_0,"ax",%progbits
 183              		.align	1
 184              		.syntax unified
 185              		.thumb
 186              		.thumb_func
 187              		.fpu fpv4-sp-d16
 189              	__tcf_0:
 190              	.LFB138:
  12:Core/Src/robot/robo_init.cpp **** 
 191              		.loc 1 12 0
 192              		.cfi_startproc
 193              		@ args = 0, pretend = 0, frame = 0
 194              		@ frame_needed = 0, uses_anonymous_args = 0
 195              		@ link register save eliminated.
  12:Core/Src/robot/robo_init.cpp **** 
 196              		.loc 1 12 0
 197 0000 034B     		ldr	r3, .L12
 198              	.L11:
  12:Core/Src/robot/robo_init.cpp **** 
 199              		.loc 1 12 0 is_stmt 0 discriminator 5
 200 0002 044A     		ldr	r2, .L12+4
 201 0004 9342     		cmp	r3, r2
 202 0006 01D0     		beq	.L9
  12:Core/Src/robot/robo_init.cpp **** 
 203              		.loc 1 12 0 discriminator 4
 204 0008 0C3B     		subs	r3, r3, #12
 205              	.LVL9:
 206 000a FAE7     		b	.L11
 207              	.LVL10:
 208              	.L9:
  12:Core/Src/robot/robo_init.cpp **** 
 209              		.loc 1 12 0
 210 000c 7047     		bx	lr
 211              	.L13:
ARM GAS  C:\Users\Nischal Nepal\AppData\Local\Temp\cc1CySfX.s 			page 7


 212 000e 00BF     		.align	2
 213              	.L12:
 214 0010 30000000 		.word	.LANCHOR1+48
 215 0014 00000000 		.word	.LANCHOR1
 216              		.cfi_endproc
 217              	.LFE138:
 219              		.section	.text._Z41__static_initialization_and_destruction_0ii,"ax",%progbits
 220              		.align	1
 221              		.syntax unified
 222              		.thumb
 223              		.thumb_func
 224              		.fpu fpv4-sp-d16
 226              	_Z41__static_initialization_and_destruction_0ii:
 227              	.LFB137:
 228              		.loc 1 76 0 is_stmt 1
 229              		.cfi_startproc
 230              		@ args = 0, pretend = 0, frame = 0
 231              		@ frame_needed = 0, uses_anonymous_args = 0
 232              	.LVL11:
 233 0000 0128     		cmp	r0, #1
 234 0002 00D0     		beq	.L22
 235 0004 7047     		bx	lr
 236              	.L22:
 237              		.loc 1 76 0 is_stmt 0 discriminator 1
 238 0006 08B5     		push	{r3, lr}
 239              	.LCFI2:
 240              		.cfi_def_cfa_offset 8
 241              		.cfi_offset 3, -8
 242              		.cfi_offset 14, -4
 243              		.loc 1 76 0 is_stmt 1 discriminator 1
 244 0008 4FF6FF73 		movw	r3, #65535
 245 000c 9942     		cmp	r1, r3
 246 000e 00D0     		beq	.L23
 247              	.LVL12:
 248              	.L14:
 249              		.loc 1 76 0 is_stmt 0
 250 0010 08BD     		pop	{r3, pc}
 251              	.LVL13:
 252              	.L23:
  12:Core/Src/robot/robo_init.cpp **** 
 253              		.loc 1 12 0 is_stmt 1
 254 0012 0323     		movs	r3, #3
 255 0014 064A     		ldr	r2, .L24
 256              	.LVL14:
 257              	.L17:
  12:Core/Src/robot/robo_init.cpp **** 
 258              		.loc 1 12 0 is_stmt 0 discriminator 4
 259 0016 002B     		cmp	r3, #0
 260 0018 04DB     		blt	.L16
 261              	.LVL15:
 262              	.LBB14:
 263              	.LBB15:
  43:Core/Inc\devs/wheel.h ****         Wheel(Wheel_Config *wheel) { wheel_ = wheel; }
 264              		.loc 2 43 0 is_stmt 1
 265 001a 0021     		movs	r1, #0
 266 001c 42F80C1B 		str	r1, [r2], #12
 267              	.LVL16:
ARM GAS  C:\Users\Nischal Nepal\AppData\Local\Temp\cc1CySfX.s 			page 8


 268              	.LBE15:
 269              	.LBE14:
  12:Core/Src/robot/robo_init.cpp **** 
 270              		.loc 1 12 0
 271 0020 013B     		subs	r3, r3, #1
 272 0022 F8E7     		b	.L17
 273              	.L16:
  12:Core/Src/robot/robo_init.cpp **** 
 274              		.loc 1 12 0 is_stmt 0 discriminator 2
 275 0024 034A     		ldr	r2, .L24+4
 276 0026 0449     		ldr	r1, .L24+8
 277 0028 0020     		movs	r0, #0
 278              	.LVL17:
 279 002a FFF7FEFF 		bl	__aeabi_atexit
 280              	.LVL18:
 281              		.loc 1 76 0 is_stmt 1 discriminator 2
 282 002e EFE7     		b	.L14
 283              	.L25:
 284              		.align	2
 285              	.L24:
 286 0030 00000000 		.word	.LANCHOR1
 287 0034 00000000 		.word	__dso_handle
 288 0038 00000000 		.word	__tcf_0
 289              		.cfi_endproc
 290              	.LFE137:
 292              		.section	.text._Z9robo_Initv,"ax",%progbits
 293              		.align	1
 294              		.global	_Z9robo_Initv
 295              		.syntax unified
 296              		.thumb
 297              		.thumb_func
 298              		.fpu fpv4-sp-d16
 300              	_Z9robo_Initv:
 301              	.LFB135:
  17:Core/Src/robot/robo_init.cpp ****         wheel_init();
 302              		.loc 1 17 0
 303              		.cfi_startproc
 304              		@ args = 0, pretend = 0, frame = 0
 305              		@ frame_needed = 0, uses_anonymous_args = 0
 306 0000 10B5     		push	{r4, lr}
 307              	.LCFI3:
 308              		.cfi_def_cfa_offset 8
 309              		.cfi_offset 4, -8
 310              		.cfi_offset 14, -4
  18:Core/Src/robot/robo_init.cpp ****         Thinker_Init();
 311              		.loc 1 18 0
 312 0002 FFF7FEFF 		bl	_ZL10wheel_initv
 313              	.LVL19:
  19:Core/Src/robot/robo_init.cpp ****         pid_Init();
 314              		.loc 1 19 0
 315 0006 FFF7FEFF 		bl	_Z12Thinker_Initv
 316              	.LVL20:
  20:Core/Src/robot/robo_init.cpp **** 
 317              		.loc 1 20 0
 318 000a FFF7FEFF 		bl	_Z8pid_Initv
 319              	.LVL21:
  22:Core/Src/robot/robo_init.cpp **** 
ARM GAS  C:\Users\Nischal Nepal\AppData\Local\Temp\cc1CySfX.s 			page 9


 320              		.loc 1 22 0
 321 000e 1348     		ldr	r0, .L28
 322 0010 FFF7FEFF 		bl	HAL_TIM_Base_Start
 323              	.LVL22:
  24:Core/Src/robot/robo_init.cpp ****         HAL_TIM_PWM_Start(gWheel_Configurations[1].htim, TIM_CHANNEL_2);
 324              		.loc 1 24 0
 325 0014 124C     		ldr	r4, .L28+4
 326 0016 0021     		movs	r1, #0
 327 0018 A069     		ldr	r0, [r4, #24]
 328 001a FFF7FEFF 		bl	HAL_TIM_PWM_Start
 329              	.LVL23:
  25:Core/Src/robot/robo_init.cpp ****         HAL_TIM_PWM_Start(gWheel_Configurations[2].htim, TIM_CHANNEL_3);
 330              		.loc 1 25 0
 331 001e 0421     		movs	r1, #4
 332 0020 206C     		ldr	r0, [r4, #64]
 333 0022 FFF7FEFF 		bl	HAL_TIM_PWM_Start
 334              	.LVL24:
  26:Core/Src/robot/robo_init.cpp ****         HAL_TIM_PWM_Start(gWheel_Configurations[3].htim, TIM_CHANNEL_4);
 335              		.loc 1 26 0
 336 0026 0821     		movs	r1, #8
 337 0028 A06E     		ldr	r0, [r4, #104]
 338 002a FFF7FEFF 		bl	HAL_TIM_PWM_Start
 339              	.LVL25:
  27:Core/Src/robot/robo_init.cpp **** 
 340              		.loc 1 27 0
 341 002e 0C21     		movs	r1, #12
 342 0030 D4F89000 		ldr	r0, [r4, #144]
 343 0034 FFF7FEFF 		bl	HAL_TIM_PWM_Start
 344              	.LVL26:
  29:Core/Src/robot/robo_init.cpp ****         HAL_TIM_Encoder_Start(gWheel_Configurations[1].henc, TIM_CHANNEL_ALL);
 345              		.loc 1 29 0
 346 0038 1821     		movs	r1, #24
 347 003a 206A     		ldr	r0, [r4, #32]
 348 003c FFF7FEFF 		bl	HAL_TIM_Encoder_Start
 349              	.LVL27:
  30:Core/Src/robot/robo_init.cpp ****         HAL_TIM_Encoder_Start(gWheel_Configurations[2].henc, TIM_CHANNEL_ALL);
 350              		.loc 1 30 0
 351 0040 1821     		movs	r1, #24
 352 0042 A06C     		ldr	r0, [r4, #72]
 353 0044 FFF7FEFF 		bl	HAL_TIM_Encoder_Start
 354              	.LVL28:
  31:Core/Src/robot/robo_init.cpp ****         HAL_TIM_Encoder_Start(gWheel_Configurations[3].henc, TIM_CHANNEL_ALL);
 355              		.loc 1 31 0
 356 0048 1821     		movs	r1, #24
 357 004a 206F     		ldr	r0, [r4, #112]
 358 004c FFF7FEFF 		bl	HAL_TIM_Encoder_Start
 359              	.LVL29:
  32:Core/Src/robot/robo_init.cpp **** }
 360              		.loc 1 32 0
 361 0050 1821     		movs	r1, #24
 362 0052 D4F89800 		ldr	r0, [r4, #152]
 363 0056 FFF7FEFF 		bl	HAL_TIM_Encoder_Start
 364              	.LVL30:
  33:Core/Src/robot/robo_init.cpp **** 
 365              		.loc 1 33 0
 366 005a 10BD     		pop	{r4, pc}
 367              	.L29:
ARM GAS  C:\Users\Nischal Nepal\AppData\Local\Temp\cc1CySfX.s 			page 10


 368              		.align	2
 369              	.L28:
 370 005c 00000000 		.word	htim8
 371 0060 00000000 		.word	.LANCHOR0
 372              		.cfi_endproc
 373              	.LFE135:
 375              		.section	.text._GLOBAL__sub_I_gWheels,"ax",%progbits
 376              		.align	1
 377              		.syntax unified
 378              		.thumb
 379              		.thumb_func
 380              		.fpu fpv4-sp-d16
 382              	_GLOBAL__sub_I_gWheels:
 383              	.LFB139:
 384              		.loc 1 76 0
 385              		.cfi_startproc
 386              		@ args = 0, pretend = 0, frame = 0
 387              		@ frame_needed = 0, uses_anonymous_args = 0
 388 0000 08B5     		push	{r3, lr}
 389              	.LCFI4:
 390              		.cfi_def_cfa_offset 8
 391              		.cfi_offset 3, -8
 392              		.cfi_offset 14, -4
 393              		.loc 1 76 0
 394 0002 4FF6FF71 		movw	r1, #65535
 395 0006 0120     		movs	r0, #1
 396 0008 FFF7FEFF 		bl	_Z41__static_initialization_and_destruction_0ii
 397              	.LVL31:
 398 000c 08BD     		pop	{r3, pc}
 399              		.cfi_endproc
 400              	.LFE139:
 402              		.section	.init_array,"aw",%init_array
 403              		.align	2
 404 0000 00000000 		.word	_GLOBAL__sub_I_gWheels(target1)
 405              		.global	gWheels
 406              		.section	.bss._ZL21gWheel_Configurations,"aw",%nobits
 407              		.align	2
 408              		.set	.LANCHOR0,. + 0
 411              	_ZL21gWheel_Configurations:
 412 0000 00000000 		.space	160
 412      00000000 
 412      00000000 
 412      00000000 
 412      00000000 
 413              		.section	.bss.gWheels,"aw",%nobits
 414              		.align	2
 415              		.set	.LANCHOR1,. + 0
 418              	gWheels:
 419 0000 00000000 		.space	48
 419      00000000 
 419      00000000 
 419      00000000 
 419      00000000 
 420              		.text
 421              	.Letext0:
 422              		.file 3 "c:\\program files (x86)\\gnu tools arm embedded\\7 2017-q4-major\\arm-none-eabi\\include\
 423              		.file 4 "c:\\program files (x86)\\gnu tools arm embedded\\7 2017-q4-major\\arm-none-eabi\\include\
ARM GAS  C:\Users\Nischal Nepal\AppData\Local\Temp\cc1CySfX.s 			page 11


 424              		.file 5 "C:/Users/n-is/STM32Cube/Repository/STM32Cube_FW_F4_V1.21.0/Drivers/CMSIS/Include/core_cm4
 425              		.file 6 "C:/Users/n-is/STM32Cube/Repository/STM32Cube_FW_F4_V1.21.0/Drivers/CMSIS/Device/ST/STM32F
 426              		.file 7 "C:/Users/n-is/STM32Cube/Repository/STM32Cube_FW_F4_V1.21.0/Drivers/CMSIS/Device/ST/STM32F
 427              		.file 8 "C:/Users/n-is/STM32Cube/Repository/STM32Cube_FW_F4_V1.21.0/Drivers/CMSIS/Device/ST/STM32F
 428              		.file 9 "c:\\program files (x86)\\gnu tools arm embedded\\7 2017-q4-major\\arm-none-eabi\\include\
 429              		.file 10 "c:\\program files (x86)\\gnu tools arm embedded\\7 2017-q4-major\\arm-none-eabi\\include
 430              		.file 11 "c:\\program files (x86)\\gnu tools arm embedded\\7 2017-q4-major\\lib\\gcc\\arm-none-eab
 431              		.file 12 "c:\\program files (x86)\\gnu tools arm embedded\\7 2017-q4-major\\arm-none-eabi\\include
 432              		.file 13 "C:/Users/n-is/STM32Cube/Repository/STM32Cube_FW_F4_V1.21.0/Drivers/STM32F4xx_HAL_Driver/
 433              		.file 14 "C:/Users/n-is/STM32Cube/Repository/STM32Cube_FW_F4_V1.21.0/Drivers/STM32F4xx_HAL_Driver/
 434              		.file 15 "C:/Users/n-is/STM32Cube/Repository/STM32Cube_FW_F4_V1.21.0/Drivers/STM32F4xx_HAL_Driver/
 435              		.file 16 "C:/Users/n-is/STM32Cube/Repository/STM32Cube_FW_F4_V1.21.0/Drivers/STM32F4xx_HAL_Driver/
 436              		.file 17 "C:/Users/n-is/STM32Cube/Repository/STM32Cube_FW_F4_V1.21.0/Drivers/STM32F4xx_HAL_Driver/
 437              		.file 18 "C:/Users/n-is/STM32Cube/Repository/STM32Cube_FW_F4_V1.21.0/Drivers/STM32F4xx_HAL_Driver/
 438              		.file 19 "Core/Inc\\periphs/tim.h"
 439              		.file 20 "Core/Inc\\periphs/usart.h"
 440              		.file 21 "Core/Inc\\periphs/adc.h"
 441              		.file 22 "Core/Inc\\robot/robo_init.h"
 442              		.file 23 "Core/Inc\\devs/thinker.h"
ARM GAS  C:\Users\Nischal Nepal\AppData\Local\Temp\cc1CySfX.s 			page 12

