ARM GAS  C:\Users\073be\AppData\Local\Temp\ccKrIGR8.s 			page 1


   1              		.cpu cortex-m4
   2              		.eabi_attribute 27, 1
   3              		.eabi_attribute 28, 1
   4              		.eabi_attribute 20, 1
   5              		.eabi_attribute 21, 1
   6              		.eabi_attribute 23, 3
   7              		.eabi_attribute 24, 1
   8              		.eabi_attribute 25, 1
   9              		.eabi_attribute 26, 1
  10              		.eabi_attribute 30, 1
  11              		.eabi_attribute 34, 1
  12              		.eabi_attribute 18, 4
  13              		.file	"a4988.cpp"
  14              		.text
  15              	.Ltext0:
  16              		.cfi_sections	.debug_frame
  17              		.section	.text._Z18A4988_setDirectionP5A4988m,"ax",%progbits
  18              		.align	1
  19              		.global	_Z18A4988_setDirectionP5A4988m
  20              		.syntax unified
  21              		.thumb
  22              		.thumb_func
  23              		.fpu fpv4-sp-d16
  25              	_Z18A4988_setDirectionP5A4988m:
  26              	.LFB124:
  27              		.file 1 "Core/Src/devs/a4988.cpp"
   1:Core/Src/devs/a4988.cpp **** /*
   2:Core/Src/devs/a4988.cpp ****  * a4988.cpp
   3:Core/Src/devs/a4988.cpp ****  * 
   4:Core/Src/devs/a4988.cpp ****  * Created : 11/14/2018
   5:Core/Src/devs/a4988.cpp ****  *  Author : n-is
   6:Core/Src/devs/a4988.cpp ****  *   email : 073bex422.nischal@pcampus.edu.np
   7:Core/Src/devs/a4988.cpp ****  */
   8:Core/Src/devs/a4988.cpp **** 
   9:Core/Src/devs/a4988.cpp **** #include "devs/a4988.h"
  10:Core/Src/devs/a4988.cpp **** 
  11:Core/Src/devs/a4988.cpp **** void A4988_setDirection(struct A4988 *stepper, uint32_t dir)
  12:Core/Src/devs/a4988.cpp **** {
  28              		.loc 1 12 0
  29              		.cfi_startproc
  30              		@ args = 0, pretend = 0, frame = 0
  31              		@ frame_needed = 0, uses_anonymous_args = 0
  32              	.LVL0:
  33 0000 08B5     		push	{r3, lr}
  34              	.LCFI0:
  35              		.cfi_def_cfa_offset 8
  36              		.cfi_offset 3, -8
  37              		.cfi_offset 14, -4
  13:Core/Src/devs/a4988.cpp ****         if (dir) {
  38              		.loc 1 13 0
  39 0002 29B9     		cbnz	r1, .L5
  14:Core/Src/devs/a4988.cpp ****                 HAL_GPIO_WritePin(stepper->dir_port, stepper->dir_pin, GPIO_PIN_SET);
  15:Core/Src/devs/a4988.cpp ****         }
  16:Core/Src/devs/a4988.cpp ****         else {
  17:Core/Src/devs/a4988.cpp ****                 HAL_GPIO_WritePin(stepper->dir_port, stepper->dir_pin, GPIO_PIN_RESET);
  40              		.loc 1 17 0
  41 0004 0022     		movs	r2, #0
ARM GAS  C:\Users\073be\AppData\Local\Temp\ccKrIGR8.s 			page 2


  42 0006 8189     		ldrh	r1, [r0, #12]
  43              	.LVL1:
  44 0008 4068     		ldr	r0, [r0, #4]
  45              	.LVL2:
  46 000a FFF7FEFF 		bl	HAL_GPIO_WritePin
  47              	.LVL3:
  48              	.L1:
  18:Core/Src/devs/a4988.cpp ****         }
  19:Core/Src/devs/a4988.cpp **** }
  49              		.loc 1 19 0
  50 000e 08BD     		pop	{r3, pc}
  51              	.LVL4:
  52              	.L5:
  14:Core/Src/devs/a4988.cpp ****                 HAL_GPIO_WritePin(stepper->dir_port, stepper->dir_pin, GPIO_PIN_SET);
  53              		.loc 1 14 0
  54 0010 0122     		movs	r2, #1
  55 0012 8189     		ldrh	r1, [r0, #12]
  56              	.LVL5:
  57 0014 4068     		ldr	r0, [r0, #4]
  58              	.LVL6:
  59 0016 FFF7FEFF 		bl	HAL_GPIO_WritePin
  60              	.LVL7:
  61 001a F8E7     		b	.L1
  62              		.cfi_endproc
  63              	.LFE124:
  65              		.section	.text._Z21A4988_toggleDirectionP5A4988,"ax",%progbits
  66              		.align	1
  67              		.global	_Z21A4988_toggleDirectionP5A4988
  68              		.syntax unified
  69              		.thumb
  70              		.thumb_func
  71              		.fpu fpv4-sp-d16
  73              	_Z21A4988_toggleDirectionP5A4988:
  74              	.LFB125:
  20:Core/Src/devs/a4988.cpp **** 
  21:Core/Src/devs/a4988.cpp **** void A4988_toggleDirection(struct A4988 *stepper)
  22:Core/Src/devs/a4988.cpp **** {
  75              		.loc 1 22 0
  76              		.cfi_startproc
  77              		@ args = 0, pretend = 0, frame = 0
  78              		@ frame_needed = 0, uses_anonymous_args = 0
  79              	.LVL8:
  80 0000 08B5     		push	{r3, lr}
  81              	.LCFI1:
  82              		.cfi_def_cfa_offset 8
  83              		.cfi_offset 3, -8
  84              		.cfi_offset 14, -4
  23:Core/Src/devs/a4988.cpp ****         HAL_GPIO_TogglePin(stepper->dir_port, stepper->dir_pin);
  85              		.loc 1 23 0
  86 0002 8189     		ldrh	r1, [r0, #12]
  87 0004 4068     		ldr	r0, [r0, #4]
  88              	.LVL9:
  89 0006 FFF7FEFF 		bl	HAL_GPIO_TogglePin
  90              	.LVL10:
  24:Core/Src/devs/a4988.cpp **** }
  91              		.loc 1 24 0
  92 000a 08BD     		pop	{r3, pc}
ARM GAS  C:\Users\073be\AppData\Local\Temp\ccKrIGR8.s 			page 3


  93              		.cfi_endproc
  94              	.LFE125:
  96              		.section	.text._Z10A4988_stepP5A4988,"ax",%progbits
  97              		.align	1
  98              		.global	_Z10A4988_stepP5A4988
  99              		.syntax unified
 100              		.thumb
 101              		.thumb_func
 102              		.fpu fpv4-sp-d16
 104              	_Z10A4988_stepP5A4988:
 105              	.LFB126:
  25:Core/Src/devs/a4988.cpp **** 
  26:Core/Src/devs/a4988.cpp **** void A4988_step(struct A4988 *stepper)
  27:Core/Src/devs/a4988.cpp **** {
 106              		.loc 1 27 0
 107              		.cfi_startproc
 108              		@ args = 0, pretend = 0, frame = 0
 109              		@ frame_needed = 0, uses_anonymous_args = 0
 110              	.LVL11:
 111 0000 10B5     		push	{r4, lr}
 112              	.LCFI2:
 113              		.cfi_def_cfa_offset 8
 114              		.cfi_offset 4, -8
 115              		.cfi_offset 14, -4
 116 0002 0446     		mov	r4, r0
  28:Core/Src/devs/a4988.cpp ****         HAL_GPIO_WritePin(stepper->step_port, stepper->step_pin, GPIO_PIN_RESET);
 117              		.loc 1 28 0
 118 0004 0022     		movs	r2, #0
 119 0006 018A     		ldrh	r1, [r0, #16]
 120 0008 8068     		ldr	r0, [r0, #8]
 121              	.LVL12:
 122 000a FFF7FEFF 		bl	HAL_GPIO_WritePin
 123              	.LVL13:
  29:Core/Src/devs/a4988.cpp ****         asm volatile("nop");
 124              		.loc 1 29 0
 125              		.syntax unified
 126              	@ 29 "Core/Src/devs/a4988.cpp" 1
 127 000e 00BF     		nop
 128              	@ 0 "" 2
  30:Core/Src/devs/a4988.cpp ****         asm volatile("nop");
 129              		.loc 1 30 0
 130              	@ 30 "Core/Src/devs/a4988.cpp" 1
 131 0010 00BF     		nop
 132              	@ 0 "" 2
  31:Core/Src/devs/a4988.cpp ****         HAL_GPIO_WritePin(stepper->step_port, stepper->step_pin, GPIO_PIN_SET);
 133              		.loc 1 31 0
 134              		.thumb
 135              		.syntax unified
 136 0012 0122     		movs	r2, #1
 137 0014 218A     		ldrh	r1, [r4, #16]
 138 0016 A068     		ldr	r0, [r4, #8]
 139 0018 FFF7FEFF 		bl	HAL_GPIO_WritePin
 140              	.LVL14:
 141              	.LBB2:
  32:Core/Src/devs/a4988.cpp ****         for (uint32_t i = 0; i < 10; ++i) {
 142              		.loc 1 32 0
 143 001c 0023     		movs	r3, #0
ARM GAS  C:\Users\073be\AppData\Local\Temp\ccKrIGR8.s 			page 4


 144              	.LVL15:
 145              	.L10:
 146              		.loc 1 32 0 is_stmt 0 discriminator 3
 147 001e 092B     		cmp	r3, #9
 148 0020 02D8     		bhi	.L9
  33:Core/Src/devs/a4988.cpp ****                 asm volatile("nop");
 149              		.loc 1 33 0 is_stmt 1 discriminator 2
 150              		.syntax unified
 151              	@ 33 "Core/Src/devs/a4988.cpp" 1
 152 0022 00BF     		nop
 153              	@ 0 "" 2
  32:Core/Src/devs/a4988.cpp ****         for (uint32_t i = 0; i < 10; ++i) {
 154              		.loc 1 32 0 discriminator 2
 155              		.thumb
 156              		.syntax unified
 157 0024 0133     		adds	r3, r3, #1
 158              	.LVL16:
 159 0026 FAE7     		b	.L10
 160              	.L9:
 161              	.LBE2:
  34:Core/Src/devs/a4988.cpp ****         }
  35:Core/Src/devs/a4988.cpp ****         HAL_GPIO_WritePin(stepper->step_port, stepper->step_pin, GPIO_PIN_RESET);
 162              		.loc 1 35 0
 163 0028 0022     		movs	r2, #0
 164 002a 218A     		ldrh	r1, [r4, #16]
 165 002c A068     		ldr	r0, [r4, #8]
 166 002e FFF7FEFF 		bl	HAL_GPIO_WritePin
 167              	.LVL17:
  36:Core/Src/devs/a4988.cpp ****         asm volatile("nop");
 168              		.loc 1 36 0
 169              		.syntax unified
 170              	@ 36 "Core/Src/devs/a4988.cpp" 1
 171 0032 00BF     		nop
 172              	@ 0 "" 2
  37:Core/Src/devs/a4988.cpp ****         asm volatile("nop");
 173              		.loc 1 37 0
 174              	@ 37 "Core/Src/devs/a4988.cpp" 1
 175 0034 00BF     		nop
 176              	@ 0 "" 2
  38:Core/Src/devs/a4988.cpp **** }
 177              		.loc 1 38 0
 178              		.thumb
 179              		.syntax unified
 180 0036 10BD     		pop	{r4, pc}
 181              		.cfi_endproc
 182              	.LFE126:
 184              		.text
 185              	.Letext0:
 186              		.file 2 "c:\\program files (x86)\\gnu tools arm embedded\\7 2017-q4-major\\arm-none-eabi\\include\
 187              		.file 3 "c:\\program files (x86)\\gnu tools arm embedded\\7 2017-q4-major\\arm-none-eabi\\include\
 188              		.file 4 "C:/Users/n-is/STM32Cube/Repository/STM32Cube_FW_F4_V1.23.0/Drivers/CMSIS/Include/core_cm4
 189              		.file 5 "C:/Users/n-is/STM32Cube/Repository/STM32Cube_FW_F4_V1.23.0/Drivers/CMSIS/Device/ST/STM32F
 190              		.file 6 "C:/Users/n-is/STM32Cube/Repository/STM32Cube_FW_F4_V1.23.0/Drivers/CMSIS/Device/ST/STM32F
 191              		.file 7 "c:\\program files (x86)\\gnu tools arm embedded\\7 2017-q4-major\\arm-none-eabi\\include\
 192              		.file 8 "c:\\program files (x86)\\gnu tools arm embedded\\7 2017-q4-major\\arm-none-eabi\\include\
 193              		.file 9 "c:\\program files (x86)\\gnu tools arm embedded\\7 2017-q4-major\\lib\\gcc\\arm-none-eabi
 194              		.file 10 "c:\\program files (x86)\\gnu tools arm embedded\\7 2017-q4-major\\arm-none-eabi\\include
ARM GAS  C:\Users\073be\AppData\Local\Temp\ccKrIGR8.s 			page 5


 195              		.file 11 "C:/Users/n-is/STM32Cube/Repository/STM32Cube_FW_F4_V1.23.0/Drivers/STM32F4xx_HAL_Driver/
 196              		.file 12 "C:/Users/n-is/STM32Cube/Repository/STM32Cube_FW_F4_V1.23.0/Drivers/STM32F4xx_HAL_Driver/
 197              		.file 13 "C:/Users/n-is/STM32Cube/Repository/STM32Cube_FW_F4_V1.23.0/Drivers/STM32F4xx_HAL_Driver/
 198              		.file 14 "C:/Users/n-is/STM32Cube/Repository/STM32Cube_FW_F4_V1.23.0/Drivers/STM32F4xx_HAL_Driver/
 199              		.file 15 "Core/Inc/periphs/tim.h"
 200              		.file 16 "Core/Inc/devs/a4988.h"
ARM GAS  C:\Users\073be\AppData\Local\Temp\ccKrIGR8.s 			page 6

