ARM GAS  C:\Users\073be\AppData\Local\Temp\cc7uQthu.s 			page 1


   1              		.cpu cortex-m4
   2              		.eabi_attribute 27, 1
   3              		.eabi_attribute 28, 1
   4              		.eabi_attribute 20, 1
   5              		.eabi_attribute 21, 1
   6              		.eabi_attribute 23, 3
   7              		.eabi_attribute 24, 1
   8              		.eabi_attribute 25, 1
   9              		.eabi_attribute 26, 1
  10              		.eabi_attribute 30, 1
  11              		.eabi_attribute 34, 1
  12              		.eabi_attribute 18, 4
  13              		.file	"arduino.cpp"
  14              		.text
  15              	.Ltext0:
  16              		.cfi_sections	.debug_frame
  17              		.section	.text._ZL10copy_BytesPKhPht,"ax",%progbits
  18              		.align	1
  19              		.syntax unified
  20              		.thumb
  21              		.thumb_func
  22              		.fpu fpv4-sp-d16
  24              	_ZL10copy_BytesPKhPht:
  25              	.LFB146:
  26              		.file 1 "Core/Src/devs/arduino.cpp"
   1:Core/Src/devs/arduino.cpp **** /*
   2:Core/Src/devs/arduino.cpp ****  * arduino.cpp
   3:Core/Src/devs/arduino.cpp ****  * 
   4:Core/Src/devs/arduino.cpp ****  * Created : 1/5/2018
   5:Core/Src/devs/arduino.cpp ****  *  Author : n-is
   6:Core/Src/devs/arduino.cpp ****  *   email : 073bex422.nischal@pcampus.edu.np
   7:Core/Src/devs/arduino.cpp ****  */
   8:Core/Src/devs/arduino.cpp **** 
   9:Core/Src/devs/arduino.cpp **** #include "arduino.h"
  10:Core/Src/devs/arduino.cpp **** #include "usart.h"
  11:Core/Src/devs/arduino.cpp **** 
  12:Core/Src/devs/arduino.cpp **** extern Arduino_Device gXLidar_Dev;
  13:Core/Src/devs/arduino.cpp **** 
  14:Core/Src/devs/arduino.cpp **** #define MAX_PACKET_LENGTH       (32)
  15:Core/Src/devs/arduino.cpp **** 
  16:Core/Src/devs/arduino.cpp **** #define ARDUINO_UART            (huart3)
  17:Core/Src/devs/arduino.cpp **** #define ARDUINO_START_BYTE      (0xA5)
  18:Core/Src/devs/arduino.cpp **** 
  19:Core/Src/devs/arduino.cpp **** #define MAX_DEVICES             (3)
  20:Core/Src/devs/arduino.cpp **** #define MAX_BYTES_PER_DEVICE    (8)
  21:Core/Src/devs/arduino.cpp **** 
  22:Core/Src/devs/arduino.cpp **** static uint8_t gBytes_Per_Device[MAX_DEVICES];
  23:Core/Src/devs/arduino.cpp **** static uint8_t gRxBuffer[MAX_DEVICES][MAX_BYTES_PER_DEVICE];
  24:Core/Src/devs/arduino.cpp **** 
  25:Core/Src/devs/arduino.cpp **** struct Arduino_Packet
  26:Core/Src/devs/arduino.cpp **** {
  27:Core/Src/devs/arduino.cpp ****         uint8_t start_byte;
  28:Core/Src/devs/arduino.cpp ****         uint8_t dev_id;
  29:Core/Src/devs/arduino.cpp ****         uint8_t *buffer;
  30:Core/Src/devs/arduino.cpp ****         uint16_t buf_len;
  31:Core/Src/devs/arduino.cpp **** };
  32:Core/Src/devs/arduino.cpp **** 
ARM GAS  C:\Users\073be\AppData\Local\Temp\cc7uQthu.s 			page 2


  33:Core/Src/devs/arduino.cpp **** static Queue<Arduino_Packet, 8> gTxData;
  34:Core/Src/devs/arduino.cpp **** static uint8_t gRxData;
  35:Core/Src/devs/arduino.cpp **** 
  36:Core/Src/devs/arduino.cpp **** Arduino_Device::Arduino_Device(uint8_t id, uint8_t num_bytes)
  37:Core/Src/devs/arduino.cpp **** {
  38:Core/Src/devs/arduino.cpp ****         if (id > MAX_DEVICES) {
  39:Core/Src/devs/arduino.cpp ****                 _Error_Handler(__FILE__, __LINE__);
  40:Core/Src/devs/arduino.cpp ****         }
  41:Core/Src/devs/arduino.cpp **** 
  42:Core/Src/devs/arduino.cpp ****         id_ = id;
  43:Core/Src/devs/arduino.cpp ****         gBytes_Per_Device[id_] = num_bytes;
  44:Core/Src/devs/arduino.cpp **** }
  45:Core/Src/devs/arduino.cpp **** 
  46:Core/Src/devs/arduino.cpp **** bool Arduino_Device::initiated = false;
  47:Core/Src/devs/arduino.cpp **** int Arduino_Device::init()
  48:Core/Src/devs/arduino.cpp **** {
  49:Core/Src/devs/arduino.cpp ****         if (!initiated) {
  50:Core/Src/devs/arduino.cpp ****                 // __HAL_UART_FLUSH_DRREGISTER(&ARDUINO_UART);
  51:Core/Src/devs/arduino.cpp ****                 __HAL_UART_ENABLE_IT(&ARDUINO_UART, UART_IT_TC);
  52:Core/Src/devs/arduino.cpp ****                 HAL_UART_Receive_DMA(&ARDUINO_UART, &gRxData, 1);
  53:Core/Src/devs/arduino.cpp **** 
  54:Core/Src/devs/arduino.cpp ****                 initiated = true;
  55:Core/Src/devs/arduino.cpp ****         }
  56:Core/Src/devs/arduino.cpp **** 
  57:Core/Src/devs/arduino.cpp ****         return 0;
  58:Core/Src/devs/arduino.cpp **** }
  59:Core/Src/devs/arduino.cpp **** 
  60:Core/Src/devs/arduino.cpp **** float Arduino_Device::read()
  61:Core/Src/devs/arduino.cpp **** {
  62:Core/Src/devs/arduino.cpp ****         if (!rx_data_.is_Empty()) {
  63:Core/Src/devs/arduino.cpp ****                 return rx_data_.lookup();
  64:Core/Src/devs/arduino.cpp ****         }
  65:Core/Src/devs/arduino.cpp ****         return 0;
  66:Core/Src/devs/arduino.cpp **** }
  67:Core/Src/devs/arduino.cpp **** 
  68:Core/Src/devs/arduino.cpp **** bool Arduino_Device::available()
  69:Core/Src/devs/arduino.cpp **** {
  70:Core/Src/devs/arduino.cpp ****         return !(rx_data_.is_Empty());
  71:Core/Src/devs/arduino.cpp **** }
  72:Core/Src/devs/arduino.cpp **** 
  73:Core/Src/devs/arduino.cpp **** void Arduino_Device::denit()
  74:Core/Src/devs/arduino.cpp **** {
  75:Core/Src/devs/arduino.cpp **** 
  76:Core/Src/devs/arduino.cpp **** }
  77:Core/Src/devs/arduino.cpp **** 
  78:Core/Src/devs/arduino.cpp **** 
  79:Core/Src/devs/arduino.cpp **** uint8_t gTxBuffer[MAX_PACKET_LENGTH];
  80:Core/Src/devs/arduino.cpp **** bool gSending_Packet = false;
  81:Core/Src/devs/arduino.cpp **** 
  82:Core/Src/devs/arduino.cpp **** static void copy_Bytes(const uint8_t *src, uint8_t *dest, uint16_t len)
  83:Core/Src/devs/arduino.cpp **** {
  27              		.loc 1 83 0
  28              		.cfi_startproc
  29              		@ args = 0, pretend = 0, frame = 0
  30              		@ frame_needed = 0, uses_anonymous_args = 0
  31              		@ link register save eliminated.
  32              	.LVL0:
ARM GAS  C:\Users\073be\AppData\Local\Temp\cc7uQthu.s 			page 3


  33              	.LBB51:
  84:Core/Src/devs/arduino.cpp ****         for (uint16_t i = 0; i < len; ++i) {
  34              		.loc 1 84 0
  35 0000 0023     		movs	r3, #0
  36              	.LVL1:
  37 0002 9342     		cmp	r3, r2
  38 0004 09D2     		bcs	.L9
  39              	.LBE51:
  83:Core/Src/devs/arduino.cpp ****         for (uint16_t i = 0; i < len; ++i) {
  40              		.loc 1 83 0
  41 0006 10B4     		push	{r4}
  42              	.LCFI0:
  43              		.cfi_def_cfa_offset 4
  44              		.cfi_offset 4, -4
  45              	.L7:
  46              	.LBB52:
  85:Core/Src/devs/arduino.cpp ****                 dest[i] = src[i];
  47              		.loc 1 85 0 discriminator 2
  48 0008 C45C     		ldrb	r4, [r0, r3]	@ zero_extendqisi2
  49 000a CC54     		strb	r4, [r1, r3]
  84:Core/Src/devs/arduino.cpp ****         for (uint16_t i = 0; i < len; ++i) {
  50              		.loc 1 84 0 discriminator 2
  51 000c 0133     		adds	r3, r3, #1
  52              	.LVL2:
  53 000e 9BB2     		uxth	r3, r3
  54              	.LVL3:
  55 0010 9342     		cmp	r3, r2
  56 0012 F9D3     		bcc	.L7
  57              	.LBE52:
  86:Core/Src/devs/arduino.cpp ****         }
  87:Core/Src/devs/arduino.cpp **** }
  58              		.loc 1 87 0
  59 0014 5DF8044B 		ldr	r4, [sp], #4
  60              	.LCFI1:
  61              		.cfi_restore 4
  62              		.cfi_def_cfa_offset 0
  63 0018 7047     		bx	lr
  64              	.L9:
  65 001a 7047     		bx	lr
  66              		.cfi_endproc
  67              	.LFE146:
  69              		.section	.text._ZN5QueueI14Arduino_PacketLj8EED2Ev,"axG",%progbits,_ZN5QueueI14Arduino_PacketLj8EE
  70              		.align	1
  71              		.weak	_ZN5QueueI14Arduino_PacketLj8EED2Ev
  72              		.syntax unified
  73              		.thumb
  74              		.thumb_func
  75              		.fpu fpv4-sp-d16
  77              	_ZN5QueueI14Arduino_PacketLj8EED2Ev:
  78              	.LFB169:
  79              		.file 2 "Core/Inc/utils\\container/queue_custom.h"
   1:Core/Inc/utils\container/queue_custom.h **** /*
   2:Core/Inc/utils\container/queue_custom.h ****  * queue.h
   3:Core/Inc/utils\container/queue_custom.h ****  * 
   4:Core/Inc/utils\container/queue_custom.h ****  * Created : 11/16/2018
   5:Core/Inc/utils\container/queue_custom.h ****  *  Author : n-is
   6:Core/Inc/utils\container/queue_custom.h ****  *   email : 073bex422.nischal@pcampus.edu.np
ARM GAS  C:\Users\073be\AppData\Local\Temp\cc7uQthu.s 			page 4


   7:Core/Inc/utils\container/queue_custom.h ****  */
   8:Core/Inc/utils\container/queue_custom.h **** 
   9:Core/Inc/utils\container/queue_custom.h **** #ifndef _QUEUE_CUSTOM_H_
  10:Core/Inc/utils\container/queue_custom.h **** #define _QUEUE_CUSTOM_H_
  11:Core/Inc/utils\container/queue_custom.h **** 
  12:Core/Inc/utils\container/queue_custom.h **** #include "stm32f4xx_hal.h"
  13:Core/Inc/utils\container/queue_custom.h **** 
  14:Core/Inc/utils\container/queue_custom.h **** template <class T, size_t q_size>
  15:Core/Inc/utils\container/queue_custom.h **** class Queue
  16:Core/Inc/utils\container/queue_custom.h **** {
  17:Core/Inc/utils\container/queue_custom.h **** public:
  18:Core/Inc/utils\container/queue_custom.h ****         Queue():head_(0), tail_(0), curr_size_(0) { }
  19:Core/Inc/utils\container/queue_custom.h ****         Queue(Queue &&) = default;
  20:Core/Inc/utils\container/queue_custom.h ****         Queue(const Queue &) = default;
  21:Core/Inc/utils\container/queue_custom.h ****         Queue &operator=(Queue &&) = default;
  22:Core/Inc/utils\container/queue_custom.h ****         Queue &operator=(const Queue &) = default;
  23:Core/Inc/utils\container/queue_custom.h ****         ~Queue() {  }
  80              		.loc 2 23 0
  81              		.cfi_startproc
  82              		@ args = 0, pretend = 0, frame = 0
  83              		@ frame_needed = 0, uses_anonymous_args = 0
  84              		@ link register save eliminated.
  85              	.LVL4:
  86              		.loc 2 23 0
  87 0000 7047     		bx	lr
  88              		.cfi_endproc
  89              	.LFE169:
  91              		.weak	_ZN5QueueI14Arduino_PacketLj8EED1Ev
  92              		.thumb_set _ZN5QueueI14Arduino_PacketLj8EED1Ev,_ZN5QueueI14Arduino_PacketLj8EED2Ev
  93              		.section	.text._Z41__static_initialization_and_destruction_0ii,"ax",%progbits
  94              		.align	1
  95              		.syntax unified
  96              		.thumb
  97              		.thumb_func
  98              		.fpu fpv4-sp-d16
 100              	_Z41__static_initialization_and_destruction_0ii:
 101              	.LFB167:
  88:Core/Src/devs/arduino.cpp **** 
  89:Core/Src/devs/arduino.cpp **** int Arduino_Device::write(uint8_t *buf, uint16_t len)
  90:Core/Src/devs/arduino.cpp **** {
  91:Core/Src/devs/arduino.cpp ****         if (len > (MAX_PACKET_LENGTH - 2)) {
  92:Core/Src/devs/arduino.cpp ****                 _Error_Handler(__FILE__, __LINE__);
  93:Core/Src/devs/arduino.cpp ****                 return -1;
  94:Core/Src/devs/arduino.cpp ****         }
  95:Core/Src/devs/arduino.cpp **** 
  96:Core/Src/devs/arduino.cpp ****         Arduino_Packet pack;
  97:Core/Src/devs/arduino.cpp ****         pack.start_byte = 0xA5;
  98:Core/Src/devs/arduino.cpp ****         pack.dev_id = id_;
  99:Core/Src/devs/arduino.cpp ****         pack.buffer = buf;
 100:Core/Src/devs/arduino.cpp ****         pack.buf_len = len;
 101:Core/Src/devs/arduino.cpp **** 
 102:Core/Src/devs/arduino.cpp ****         if (!gSending_Packet) {
 103:Core/Src/devs/arduino.cpp ****                 // gSending_Packet = true;
 104:Core/Src/devs/arduino.cpp **** 
 105:Core/Src/devs/arduino.cpp ****                 gTxBuffer[0] = pack.start_byte;
 106:Core/Src/devs/arduino.cpp ****                 gTxBuffer[1] = pack.dev_id;
 107:Core/Src/devs/arduino.cpp ****                 copy_Bytes(pack.buffer, &gTxBuffer[2], pack.buf_len);
ARM GAS  C:\Users\073be\AppData\Local\Temp\cc7uQthu.s 			page 5


 108:Core/Src/devs/arduino.cpp ****                 // 2 bytes extra to hold start byte and device id
 109:Core/Src/devs/arduino.cpp ****                 uint16_t total_size = pack.buf_len + 2;
 110:Core/Src/devs/arduino.cpp **** 
 111:Core/Src/devs/arduino.cpp ****                 HAL_UART_Transmit_IT(&ARDUINO_UART, gTxBuffer, total_size);
 112:Core/Src/devs/arduino.cpp ****         }
 113:Core/Src/devs/arduino.cpp ****         else {
 114:Core/Src/devs/arduino.cpp ****                 gTxData.insert(pack);
 115:Core/Src/devs/arduino.cpp ****         }
 116:Core/Src/devs/arduino.cpp **** 
 117:Core/Src/devs/arduino.cpp ****         return len;
 118:Core/Src/devs/arduino.cpp **** }
 119:Core/Src/devs/arduino.cpp **** 
 120:Core/Src/devs/arduino.cpp **** void Arduino_Handle_TxCplt(void)
 121:Core/Src/devs/arduino.cpp **** {
 122:Core/Src/devs/arduino.cpp ****         if (!gTxData.is_Empty()) {
 123:Core/Src/devs/arduino.cpp ****                 Arduino_Packet pack = gTxData.lookup();
 124:Core/Src/devs/arduino.cpp ****                 gTxBuffer[0] = pack.start_byte;
 125:Core/Src/devs/arduino.cpp ****                 gTxBuffer[1] = pack.dev_id;
 126:Core/Src/devs/arduino.cpp ****                 copy_Bytes(pack.buffer, &gTxBuffer[2], pack.buf_len);
 127:Core/Src/devs/arduino.cpp ****                 // 2 bytes extra to hold start byte and device id
 128:Core/Src/devs/arduino.cpp ****                 uint16_t total_size = pack.buf_len + 2;
 129:Core/Src/devs/arduino.cpp **** 
 130:Core/Src/devs/arduino.cpp ****                 HAL_UART_Transmit_IT(&ARDUINO_UART, gTxBuffer, total_size);
 131:Core/Src/devs/arduino.cpp ****         }
 132:Core/Src/devs/arduino.cpp ****         else {
 133:Core/Src/devs/arduino.cpp ****                 gSending_Packet = false;
 134:Core/Src/devs/arduino.cpp ****         }
 135:Core/Src/devs/arduino.cpp **** }
 136:Core/Src/devs/arduino.cpp **** 
 137:Core/Src/devs/arduino.cpp **** 
 138:Core/Src/devs/arduino.cpp **** static bool gStart_Byte_Received = false;
 139:Core/Src/devs/arduino.cpp **** static uint16_t gReceived_Data_num = 0;
 140:Core/Src/devs/arduino.cpp **** static uint8_t gCurrent_Device_ID = 0;
 141:Core/Src/devs/arduino.cpp **** 
 142:Core/Src/devs/arduino.cpp **** void Arduino_Handle_RxCplt(void)
 143:Core/Src/devs/arduino.cpp **** {
 144:Core/Src/devs/arduino.cpp ****         __HAL_UART_FLUSH_DRREGISTER(&ARDUINO_UART);
 145:Core/Src/devs/arduino.cpp **** 
 146:Core/Src/devs/arduino.cpp ****         if (!gStart_Byte_Received) {
 147:Core/Src/devs/arduino.cpp ****                 if (gRxData == ARDUINO_START_BYTE) {
 148:Core/Src/devs/arduino.cpp ****                         ++gReceived_Data_num;
 149:Core/Src/devs/arduino.cpp ****                         gStart_Byte_Received = true;
 150:Core/Src/devs/arduino.cpp ****                 }
 151:Core/Src/devs/arduino.cpp ****         }
 152:Core/Src/devs/arduino.cpp ****         else {
 153:Core/Src/devs/arduino.cpp ****                 if (gReceived_Data_num == 1) {
 154:Core/Src/devs/arduino.cpp ****                         ++gReceived_Data_num;
 155:Core/Src/devs/arduino.cpp ****                         gCurrent_Device_ID = gRxData;
 156:Core/Src/devs/arduino.cpp ****                 }
 157:Core/Src/devs/arduino.cpp ****                 else {
 158:Core/Src/devs/arduino.cpp ****                         if (gReceived_Data_num < (gBytes_Per_Device[gCurrent_Device_ID] + 2)) {
 159:Core/Src/devs/arduino.cpp ****                                 gRxBuffer[gCurrent_Device_ID][gReceived_Data_num - 2] = gRxData;
 160:Core/Src/devs/arduino.cpp ****                                 ++gReceived_Data_num;
 161:Core/Src/devs/arduino.cpp **** 
 162:Core/Src/devs/arduino.cpp ****                                 // These devices expect only float values
 163:Core/Src/devs/arduino.cpp ****                                 if (gBytes_Per_Device[gCurrent_Device_ID] == 2 && gReceived_Data_nu
 164:Core/Src/devs/arduino.cpp ****                                         if (gCurrent_Device_ID == gXLidar_Dev.get_ID()) {
ARM GAS  C:\Users\073be\AppData\Local\Temp\cc7uQthu.s 			page 6


 165:Core/Src/devs/arduino.cpp ****                                                 int16_t val = (gRxBuffer[gCurrent_Device_ID][0]) <<
 166:Core/Src/devs/arduino.cpp ****                                                 val |= gRxBuffer[gCurrent_Device_ID][1];
 167:Core/Src/devs/arduino.cpp ****                                                 gXLidar_Dev.store((float)val);
 168:Core/Src/devs/arduino.cpp ****                                                 // printf("%d\n", val);
 169:Core/Src/devs/arduino.cpp ****                                         }
 170:Core/Src/devs/arduino.cpp ****                                 }
 171:Core/Src/devs/arduino.cpp ****                         }
 172:Core/Src/devs/arduino.cpp **** 
 173:Core/Src/devs/arduino.cpp ****                         if (gReceived_Data_num >= (gBytes_Per_Device[gCurrent_Device_ID] + 2)) {
 174:Core/Src/devs/arduino.cpp ****                                 gStart_Byte_Received = false;
 175:Core/Src/devs/arduino.cpp ****                                 gReceived_Data_num = 0;
 176:Core/Src/devs/arduino.cpp ****                                 gCurrent_Device_ID = 0x00;
 177:Core/Src/devs/arduino.cpp ****                         }
 178:Core/Src/devs/arduino.cpp ****                 }
 179:Core/Src/devs/arduino.cpp ****         }
 180:Core/Src/devs/arduino.cpp **** }
 102              		.loc 1 180 0
 103              		.cfi_startproc
 104              		@ args = 0, pretend = 0, frame = 0
 105              		@ frame_needed = 0, uses_anonymous_args = 0
 106              	.LVL5:
 107 0000 0128     		cmp	r0, #1
 108 0002 00D0     		beq	.L17
 109 0004 7047     		bx	lr
 110              	.L17:
 111              		.loc 1 180 0 is_stmt 0 discriminator 1
 112 0006 08B5     		push	{r3, lr}
 113              	.LCFI2:
 114              		.cfi_def_cfa_offset 8
 115              		.cfi_offset 3, -8
 116              		.cfi_offset 14, -4
 117              		.loc 1 180 0 is_stmt 1 discriminator 1
 118 0008 4FF6FF73 		movw	r3, #65535
 119 000c 9942     		cmp	r1, r3
 120 000e 00D0     		beq	.L18
 121              	.LVL6:
 122              	.L11:
 123              		.loc 1 180 0 is_stmt 0
 124 0010 08BD     		pop	{r3, pc}
 125              	.LVL7:
 126              	.L18:
 127              	.LBB53:
 128              	.LBB54:
 129              	.LBB55:
  18:Core/Inc/utils\container/queue_custom.h ****         Queue(Queue &&) = default;
 130              		.loc 2 18 0 is_stmt 1
 131 0012 0548     		ldr	r0, .L19
 132              	.LVL8:
 133 0014 0023     		movs	r3, #0
 134 0016 0360     		str	r3, [r0]
 135 0018 4360     		str	r3, [r0, #4]
 136 001a 8360     		str	r3, [r0, #8]
 137              	.LVL9:
 138              	.LBE55:
 139              	.LBE54:
 140              	.LBE53:
  33:Core/Src/devs/arduino.cpp **** static uint8_t gRxData;
ARM GAS  C:\Users\073be\AppData\Local\Temp\cc7uQthu.s 			page 7


 141              		.loc 1 33 0
 142 001c 034A     		ldr	r2, .L19+4
 143 001e 0449     		ldr	r1, .L19+8
 144              	.LVL10:
 145 0020 FFF7FEFF 		bl	__aeabi_atexit
 146              	.LVL11:
 147              		.loc 1 180 0
 148 0024 F4E7     		b	.L11
 149              	.L20:
 150 0026 00BF     		.align	2
 151              	.L19:
 152 0028 00000000 		.word	.LANCHOR0
 153 002c 00000000 		.word	__dso_handle
 154 0030 00000000 		.word	_ZN5QueueI14Arduino_PacketLj8EED1Ev
 155              		.cfi_endproc
 156              	.LFE167:
 158              		.section	.text._ZN14Arduino_DeviceC2Ehh,"ax",%progbits
 159              		.align	1
 160              		.global	_ZN14Arduino_DeviceC2Ehh
 161              		.syntax unified
 162              		.thumb
 163              		.thumb_func
 164              		.fpu fpv4-sp-d16
 166              	_ZN14Arduino_DeviceC2Ehh:
 167              	.LFB140:
  36:Core/Src/devs/arduino.cpp **** {
 168              		.loc 1 36 0
 169              		.cfi_startproc
 170              		@ args = 0, pretend = 0, frame = 0
 171              		@ frame_needed = 0, uses_anonymous_args = 0
 172              	.LVL12:
 173 0000 70B5     		push	{r4, r5, r6, lr}
 174              	.LCFI3:
 175              		.cfi_def_cfa_offset 16
 176              		.cfi_offset 4, -16
 177              		.cfi_offset 5, -12
 178              		.cfi_offset 6, -8
 179              		.cfi_offset 14, -4
 180 0002 0446     		mov	r4, r0
 181 0004 0D46     		mov	r5, r1
 182 0006 1646     		mov	r6, r2
 183              	.LVL13:
 184              	.LBB56:
 185              	.LBB57:
 186              	.LBB58:
  18:Core/Inc/utils\container/queue_custom.h ****         Queue(Queue &&) = default;
 187              		.loc 2 18 0
 188 0008 0023     		movs	r3, #0
 189 000a 0360     		str	r3, [r0]
 190 000c 4360     		str	r3, [r0, #4]
 191 000e 8360     		str	r3, [r0, #8]
 192              	.LVL14:
 193              	.LBE58:
 194              	.LBE57:
  38:Core/Src/devs/arduino.cpp ****                 _Error_Handler(__FILE__, __LINE__);
 195              		.loc 1 38 0
 196 0010 0329     		cmp	r1, #3
ARM GAS  C:\Users\073be\AppData\Local\Temp\cc7uQthu.s 			page 8


 197 0012 04D8     		bhi	.L24
 198              	.LVL15:
 199              	.L22:
  42:Core/Src/devs/arduino.cpp ****         gBytes_Per_Device[id_] = num_bytes;
 200              		.loc 1 42 0
 201 0014 2575     		strb	r5, [r4, #20]
  43:Core/Src/devs/arduino.cpp **** }
 202              		.loc 1 43 0
 203 0016 044B     		ldr	r3, .L25
 204 0018 5E55     		strb	r6, [r3, r5]
 205              	.LBE56:
  44:Core/Src/devs/arduino.cpp **** 
 206              		.loc 1 44 0
 207 001a 2046     		mov	r0, r4
 208 001c 70BD     		pop	{r4, r5, r6, pc}
 209              	.LVL16:
 210              	.L24:
 211              	.LBB59:
  39:Core/Src/devs/arduino.cpp ****         }
 212              		.loc 1 39 0
 213 001e 2721     		movs	r1, #39
 214              	.LVL17:
 215 0020 0248     		ldr	r0, .L25+4
 216              	.LVL18:
 217 0022 FFF7FEFF 		bl	_Error_Handler
 218              	.LVL19:
 219 0026 F5E7     		b	.L22
 220              	.L26:
 221              		.align	2
 222              	.L25:
 223 0028 00000000 		.word	.LANCHOR1
 224 002c 00000000 		.word	.LC0
 225              	.LBE59:
 226              		.cfi_endproc
 227              	.LFE140:
 229              		.global	_ZN14Arduino_DeviceC1Ehh
 230              		.thumb_set _ZN14Arduino_DeviceC1Ehh,_ZN14Arduino_DeviceC2Ehh
 231              		.section	.text._ZN14Arduino_Device4initEv,"ax",%progbits
 232              		.align	1
 233              		.global	_ZN14Arduino_Device4initEv
 234              		.syntax unified
 235              		.thumb
 236              		.thumb_func
 237              		.fpu fpv4-sp-d16
 239              	_ZN14Arduino_Device4initEv:
 240              	.LFB142:
  48:Core/Src/devs/arduino.cpp ****         if (!initiated) {
 241              		.loc 1 48 0
 242              		.cfi_startproc
 243              		@ args = 0, pretend = 0, frame = 0
 244              		@ frame_needed = 0, uses_anonymous_args = 0
 245 0000 08B5     		push	{r3, lr}
 246              	.LCFI4:
 247              		.cfi_def_cfa_offset 8
 248              		.cfi_offset 3, -8
 249              		.cfi_offset 14, -4
  49:Core/Src/devs/arduino.cpp ****                 // __HAL_UART_FLUSH_DRREGISTER(&ARDUINO_UART);
ARM GAS  C:\Users\073be\AppData\Local\Temp\cc7uQthu.s 			page 9


 250              		.loc 1 49 0
 251 0002 094B     		ldr	r3, .L31
 252 0004 1B78     		ldrb	r3, [r3]	@ zero_extendqisi2
 253 0006 0BB1     		cbz	r3, .L30
 254              	.L28:
  58:Core/Src/devs/arduino.cpp **** 
 255              		.loc 1 58 0
 256 0008 0020     		movs	r0, #0
 257 000a 08BD     		pop	{r3, pc}
 258              	.L30:
  51:Core/Src/devs/arduino.cpp ****                 HAL_UART_Receive_DMA(&ARDUINO_UART, &gRxData, 1);
 259              		.loc 1 51 0 discriminator 1
 260 000c 0748     		ldr	r0, .L31+4
 261 000e 0268     		ldr	r2, [r0]
 262 0010 D368     		ldr	r3, [r2, #12]
 263 0012 43F04003 		orr	r3, r3, #64
 264 0016 D360     		str	r3, [r2, #12]
  52:Core/Src/devs/arduino.cpp **** 
 265              		.loc 1 52 0 discriminator 1
 266 0018 0122     		movs	r2, #1
 267 001a 0549     		ldr	r1, .L31+8
 268 001c FFF7FEFF 		bl	HAL_UART_Receive_DMA
 269              	.LVL20:
  54:Core/Src/devs/arduino.cpp ****         }
 270              		.loc 1 54 0 discriminator 1
 271 0020 014B     		ldr	r3, .L31
 272 0022 0122     		movs	r2, #1
 273 0024 1A70     		strb	r2, [r3]
 274 0026 EFE7     		b	.L28
 275              	.L32:
 276              		.align	2
 277              	.L31:
 278 0028 00000000 		.word	.LANCHOR2
 279 002c 00000000 		.word	huart3
 280 0030 00000000 		.word	.LANCHOR3
 281              		.cfi_endproc
 282              	.LFE142:
 284              		.section	.text._ZN14Arduino_Device4readEv,"ax",%progbits
 285              		.align	1
 286              		.global	_ZN14Arduino_Device4readEv
 287              		.syntax unified
 288              		.thumb
 289              		.thumb_func
 290              		.fpu fpv4-sp-d16
 292              	_ZN14Arduino_Device4readEv:
 293              	.LFB143:
  61:Core/Src/devs/arduino.cpp ****         if (!rx_data_.is_Empty()) {
 294              		.loc 1 61 0
 295              		.cfi_startproc
 296              		@ args = 0, pretend = 0, frame = 0
 297              		@ frame_needed = 0, uses_anonymous_args = 0
 298              		@ link register save eliminated.
 299              	.LVL21:
 300              	.LBB60:
 301              	.LBB61:
 302              	.LBB62:
  24:Core/Inc/utils\container/queue_custom.h **** 
ARM GAS  C:\Users\073be\AppData\Local\Temp\cc7uQthu.s 			page 10


  25:Core/Inc/utils\container/queue_custom.h ****         void insert(T elem) {
  26:Core/Inc/utils\container/queue_custom.h ****                 ++curr_size_;
  27:Core/Inc/utils\container/queue_custom.h ****                 queue_[head_++] = elem;
  28:Core/Inc/utils\container/queue_custom.h ****                 head_ %= q_size;
  29:Core/Inc/utils\container/queue_custom.h ****         }
  30:Core/Inc/utils\container/queue_custom.h **** 
  31:Core/Inc/utils\container/queue_custom.h ****         T lookup() {
  32:Core/Inc/utils\container/queue_custom.h ****                 // if( curr_size_ ) {
  33:Core/Inc/utils\container/queue_custom.h ****                 --curr_size_;
  34:Core/Inc/utils\container/queue_custom.h ****                 T elem = queue_[tail_++];
  35:Core/Inc/utils\container/queue_custom.h ****                 tail_ %= q_size;
  36:Core/Inc/utils\container/queue_custom.h ****                 return elem;
  37:Core/Inc/utils\container/queue_custom.h ****                 // }
  38:Core/Inc/utils\container/queue_custom.h ****                 // return 0;
  39:Core/Inc/utils\container/queue_custom.h ****         }
  40:Core/Inc/utils\container/queue_custom.h **** 
  41:Core/Inc/utils\container/queue_custom.h ****         uint32_t length() const { return curr_size_; }
 303              		.loc 2 41 0
 304 0000 8368     		ldr	r3, [r0, #8]
 305              	.LVL22:
 306              	.LBE62:
 307              	.LBE61:
 308              	.LBE60:
  62:Core/Src/devs/arduino.cpp ****                 return rx_data_.lookup();
 309              		.loc 1 62 0
 310 0002 63B1     		cbz	r3, .L35
 311              	.LVL23:
 312              	.LBB63:
 313              	.LBB64:
  33:Core/Inc/utils\container/queue_custom.h ****                 T elem = queue_[tail_++];
 314              		.loc 2 33 0
 315 0004 013B     		subs	r3, r3, #1
 316 0006 8360     		str	r3, [r0, #8]
  34:Core/Inc/utils\container/queue_custom.h ****                 tail_ %= q_size;
 317              		.loc 2 34 0
 318 0008 4368     		ldr	r3, [r0, #4]
 319 000a 5A1C     		adds	r2, r3, #1
 320 000c 0233     		adds	r3, r3, #2
 321 000e 00EB8303 		add	r3, r0, r3, lsl #2
 322 0012 93ED010A 		vldr.32	s0, [r3, #4]
 323              	.LVL24:
  35:Core/Inc/utils\container/queue_custom.h ****                 return elem;
 324              		.loc 2 35 0
 325 0016 02F00102 		and	r2, r2, #1
 326 001a 4260     		str	r2, [r0, #4]
 327              	.LVL25:
 328              	.LBE64:
 329              	.LBE63:
  63:Core/Src/devs/arduino.cpp ****         }
 330              		.loc 1 63 0
 331 001c 7047     		bx	lr
 332              	.L35:
  65:Core/Src/devs/arduino.cpp **** }
 333              		.loc 1 65 0
 334 001e 9FED010A 		vldr.32	s0, .L36
  66:Core/Src/devs/arduino.cpp **** 
 335              		.loc 1 66 0
ARM GAS  C:\Users\073be\AppData\Local\Temp\cc7uQthu.s 			page 11


 336 0022 7047     		bx	lr
 337              	.L37:
 338              		.align	2
 339              	.L36:
 340 0024 00000000 		.word	0
 341              		.cfi_endproc
 342              	.LFE143:
 344              		.section	.text._ZN14Arduino_Device9availableEv,"ax",%progbits
 345              		.align	1
 346              		.global	_ZN14Arduino_Device9availableEv
 347              		.syntax unified
 348              		.thumb
 349              		.thumb_func
 350              		.fpu fpv4-sp-d16
 352              	_ZN14Arduino_Device9availableEv:
 353              	.LFB144:
  69:Core/Src/devs/arduino.cpp ****         return !(rx_data_.is_Empty());
 354              		.loc 1 69 0
 355              		.cfi_startproc
 356              		@ args = 0, pretend = 0, frame = 0
 357              		@ frame_needed = 0, uses_anonymous_args = 0
 358              		@ link register save eliminated.
 359              	.LVL26:
 360              	.LBB65:
 361              	.LBB66:
 362              	.LBB67:
 363              		.loc 2 41 0
 364 0000 8068     		ldr	r0, [r0, #8]
 365              	.LVL27:
 366              	.LBE67:
 367              	.LBE66:
 368              	.LBE65:
  71:Core/Src/devs/arduino.cpp **** 
 369              		.loc 1 71 0
 370 0002 0030     		adds	r0, r0, #0
 371 0004 18BF     		it	ne
 372 0006 0120     		movne	r0, #1
 373 0008 7047     		bx	lr
 374              		.cfi_endproc
 375              	.LFE144:
 377              		.section	.text._ZN14Arduino_Device5denitEv,"ax",%progbits
 378              		.align	1
 379              		.global	_ZN14Arduino_Device5denitEv
 380              		.syntax unified
 381              		.thumb
 382              		.thumb_func
 383              		.fpu fpv4-sp-d16
 385              	_ZN14Arduino_Device5denitEv:
 386              	.LFB145:
  74:Core/Src/devs/arduino.cpp **** 
 387              		.loc 1 74 0
 388              		.cfi_startproc
 389              		@ args = 0, pretend = 0, frame = 0
 390              		@ frame_needed = 0, uses_anonymous_args = 0
 391              		@ link register save eliminated.
 392              	.LVL28:
  76:Core/Src/devs/arduino.cpp **** 
ARM GAS  C:\Users\073be\AppData\Local\Temp\cc7uQthu.s 			page 12


 393              		.loc 1 76 0
 394 0000 7047     		bx	lr
 395              		.cfi_endproc
 396              	.LFE145:
 398              		.section	.text._ZN14Arduino_Device5writeEPht,"ax",%progbits
 399              		.align	1
 400              		.global	_ZN14Arduino_Device5writeEPht
 401              		.syntax unified
 402              		.thumb
 403              		.thumb_func
 404              		.fpu fpv4-sp-d16
 406              	_ZN14Arduino_Device5writeEPht:
 407              	.LFB147:
  90:Core/Src/devs/arduino.cpp ****         if (len > (MAX_PACKET_LENGTH - 2)) {
 408              		.loc 1 90 0
 409              		.cfi_startproc
 410              		@ args = 0, pretend = 0, frame = 24
 411              		@ frame_needed = 0, uses_anonymous_args = 0
 412              	.LVL29:
 413 0000 F0B5     		push	{r4, r5, r6, r7, lr}
 414              	.LCFI5:
 415              		.cfi_def_cfa_offset 20
 416              		.cfi_offset 4, -20
 417              		.cfi_offset 5, -16
 418              		.cfi_offset 6, -12
 419              		.cfi_offset 7, -8
 420              		.cfi_offset 14, -4
 421 0002 87B0     		sub	sp, sp, #28
 422              	.LCFI6:
 423              		.cfi_def_cfa_offset 48
  91:Core/Src/devs/arduino.cpp ****                 _Error_Handler(__FILE__, __LINE__);
 424              		.loc 1 91 0
 425 0004 1E2A     		cmp	r2, #30
 426 0006 28D8     		bhi	.L46
 427 0008 0B46     		mov	r3, r1
 428 000a 1446     		mov	r4, r2
  97:Core/Src/devs/arduino.cpp ****         pack.dev_id = id_;
 429              		.loc 1 97 0
 430 000c A522     		movs	r2, #165
 431              	.LVL30:
 432 000e 8DF80C20 		strb	r2, [sp, #12]
  98:Core/Src/devs/arduino.cpp ****         pack.buffer = buf;
 433              		.loc 1 98 0
 434 0012 027D     		ldrb	r2, [r0, #20]	@ zero_extendqisi2
 435 0014 8DF80D20 		strb	r2, [sp, #13]
  99:Core/Src/devs/arduino.cpp ****         pack.buf_len = len;
 436              		.loc 1 99 0
 437 0018 0491     		str	r1, [sp, #16]
 100:Core/Src/devs/arduino.cpp **** 
 438              		.loc 1 100 0
 439 001a ADF81440 		strh	r4, [sp, #20]	@ movhi
 440              	.LBB68:
 102:Core/Src/devs/arduino.cpp ****                 // gSending_Packet = true;
 441              		.loc 1 102 0
 442 001e 1A49     		ldr	r1, .L48
 443              	.LVL31:
 444 0020 0978     		ldrb	r1, [r1]	@ zero_extendqisi2
ARM GAS  C:\Users\073be\AppData\Local\Temp\cc7uQthu.s 			page 13


 445 0022 09B3     		cbz	r1, .L47
 446              	.LVL32:
 447 0024 6D46     		mov	r5, sp
 448 0026 06AB     		add	r3, sp, #24
 449              	.LVL33:
 450 0028 13E90700 		ldmdb	r3, {r0, r1, r2}
 451              	.LVL34:
 452 002c 85E80700 		stm	r5, {r0, r1, r2}
 453              	.LBB69:
 454              	.LBB70:
  26:Core/Inc/utils\container/queue_custom.h ****                 queue_[head_++] = elem;
 455              		.loc 2 26 0
 456 0030 164E     		ldr	r6, .L48+4
 457 0032 B368     		ldr	r3, [r6, #8]
 458 0034 0133     		adds	r3, r3, #1
 459 0036 B360     		str	r3, [r6, #8]
  27:Core/Inc/utils\container/queue_custom.h ****                 head_ %= q_size;
 460              		.loc 2 27 0
 461 0038 3268     		ldr	r2, [r6]
 462 003a 571C     		adds	r7, r2, #1
 463 003c 02EB4202 		add	r2, r2, r2, lsl #1
 464 0040 9300     		lsls	r3, r2, #2
 465 0042 3344     		add	r3, r3, r6
 466 0044 0C33     		adds	r3, r3, #12
 467 0046 95E80700 		ldm	r5, {r0, r1, r2}
 468 004a 83E80700 		stm	r3, {r0, r1, r2}
  28:Core/Inc/utils\container/queue_custom.h ****         }
 469              		.loc 2 28 0
 470 004e 07F00707 		and	r7, r7, #7
 471 0052 3760     		str	r7, [r6]
 472              	.LVL35:
 473              	.L44:
 474              	.LBE70:
 475              	.LBE69:
 476              	.LBE68:
 117:Core/Src/devs/arduino.cpp **** }
 477              		.loc 1 117 0
 478 0054 2046     		mov	r0, r4
 479              	.LVL36:
 480              	.L40:
 118:Core/Src/devs/arduino.cpp **** 
 481              		.loc 1 118 0
 482 0056 07B0     		add	sp, sp, #28
 483              	.LCFI7:
 484              		.cfi_remember_state
 485              		.cfi_def_cfa_offset 20
 486              		@ sp needed
 487 0058 F0BD     		pop	{r4, r5, r6, r7, pc}
 488              	.LVL37:
 489              	.L46:
 490              	.LCFI8:
 491              		.cfi_restore_state
  92:Core/Src/devs/arduino.cpp ****                 return -1;
 492              		.loc 1 92 0
 493 005a 5C21     		movs	r1, #92
 494              	.LVL38:
 495 005c 0C48     		ldr	r0, .L48+8
ARM GAS  C:\Users\073be\AppData\Local\Temp\cc7uQthu.s 			page 14


 496              	.LVL39:
 497 005e FFF7FEFF 		bl	_Error_Handler
 498              	.LVL40:
  93:Core/Src/devs/arduino.cpp ****         }
 499              		.loc 1 93 0
 500 0062 4FF0FF30 		mov	r0, #-1
 501 0066 F6E7     		b	.L40
 502              	.LVL41:
 503              	.L47:
 504              	.LBB72:
 505              	.LBB71:
 105:Core/Src/devs/arduino.cpp ****                 gTxBuffer[1] = pack.dev_id;
 506              		.loc 1 105 0
 507 0068 0A4D     		ldr	r5, .L48+12
 508 006a A521     		movs	r1, #165
 509 006c 2970     		strb	r1, [r5]
 106:Core/Src/devs/arduino.cpp ****                 copy_Bytes(pack.buffer, &gTxBuffer[2], pack.buf_len);
 510              		.loc 1 106 0
 511 006e 6A70     		strb	r2, [r5, #1]
 107:Core/Src/devs/arduino.cpp ****                 // 2 bytes extra to hold start byte and device id
 512              		.loc 1 107 0
 513 0070 2246     		mov	r2, r4
 514 0072 A91C     		adds	r1, r5, #2
 515 0074 1846     		mov	r0, r3
 516              	.LVL42:
 517 0076 FFF7FEFF 		bl	_ZL10copy_BytesPKhPht
 518              	.LVL43:
 109:Core/Src/devs/arduino.cpp **** 
 519              		.loc 1 109 0
 520 007a A21C     		adds	r2, r4, #2
 521              	.LVL44:
 111:Core/Src/devs/arduino.cpp ****         }
 522              		.loc 1 111 0
 523 007c 92B2     		uxth	r2, r2
 524 007e 2946     		mov	r1, r5
 525 0080 0548     		ldr	r0, .L48+16
 526 0082 FFF7FEFF 		bl	HAL_UART_Transmit_IT
 527              	.LVL45:
 528              	.LBE71:
 529 0086 E5E7     		b	.L44
 530              	.L49:
 531              		.align	2
 532              	.L48:
 533 0088 00000000 		.word	.LANCHOR4
 534 008c 00000000 		.word	.LANCHOR0
 535 0090 00000000 		.word	.LC0
 536 0094 00000000 		.word	.LANCHOR5
 537 0098 00000000 		.word	huart3
 538              	.LBE72:
 539              		.cfi_endproc
 540              	.LFE147:
 542              		.section	.text._Z21Arduino_Handle_TxCpltv,"ax",%progbits
 543              		.align	1
 544              		.global	_Z21Arduino_Handle_TxCpltv
 545              		.syntax unified
 546              		.thumb
 547              		.thumb_func
ARM GAS  C:\Users\073be\AppData\Local\Temp\cc7uQthu.s 			page 15


 548              		.fpu fpv4-sp-d16
 550              	_Z21Arduino_Handle_TxCpltv:
 551              	.LFB148:
 121:Core/Src/devs/arduino.cpp ****         if (!gTxData.is_Empty()) {
 552              		.loc 1 121 0
 553              		.cfi_startproc
 554              		@ args = 0, pretend = 0, frame = 16
 555              		@ frame_needed = 0, uses_anonymous_args = 0
 556              	.LVL46:
 557              	.LBB73:
 558              	.LBB74:
 559              	.LBB75:
 560              	.LBB76:
 561              		.loc 2 41 0
 562 0000 184B     		ldr	r3, .L58
 563 0002 9B68     		ldr	r3, [r3, #8]
 564              	.LVL47:
 565              	.LBE76:
 566              	.LBE75:
 567              	.LBE74:
 122:Core/Src/devs/arduino.cpp ****                 Arduino_Packet pack = gTxData.lookup();
 568              		.loc 1 122 0
 569 0004 1BB9     		cbnz	r3, .L57
 133:Core/Src/devs/arduino.cpp ****         }
 570              		.loc 1 133 0
 571 0006 184B     		ldr	r3, .L58+4
 572 0008 0022     		movs	r2, #0
 573 000a 1A70     		strb	r2, [r3]
 574 000c 7047     		bx	lr
 575              	.L57:
 576              	.LBE73:
 121:Core/Src/devs/arduino.cpp ****         if (!gTxData.is_Empty()) {
 577              		.loc 1 121 0
 578 000e 30B5     		push	{r4, r5, lr}
 579              	.LCFI9:
 580              		.cfi_def_cfa_offset 12
 581              		.cfi_offset 4, -12
 582              		.cfi_offset 5, -8
 583              		.cfi_offset 14, -4
 584 0010 85B0     		sub	sp, sp, #20
 585              	.LCFI10:
 586              		.cfi_def_cfa_offset 32
 587              	.LVL48:
 588              	.LBB80:
 589              	.LBB77:
 590              	.LBB78:
 591              	.LBB79:
  33:Core/Inc/utils\container/queue_custom.h ****                 T elem = queue_[tail_++];
 592              		.loc 2 33 0
 593 0012 144C     		ldr	r4, .L58
 594 0014 013B     		subs	r3, r3, #1
 595 0016 A360     		str	r3, [r4, #8]
  34:Core/Inc/utils\container/queue_custom.h ****                 tail_ %= q_size;
 596              		.loc 2 34 0
 597 0018 6268     		ldr	r2, [r4, #4]
 598 001a 551C     		adds	r5, r2, #1
 599 001c 02EB4202 		add	r2, r2, r2, lsl #1
ARM GAS  C:\Users\073be\AppData\Local\Temp\cc7uQthu.s 			page 16


 600 0020 9300     		lsls	r3, r2, #2
 601 0022 2344     		add	r3, r3, r4
 602 0024 0C33     		adds	r3, r3, #12
 603 0026 93E80700 		ldm	r3, {r0, r1, r2}
 604 002a 04AB     		add	r3, sp, #16
 605 002c 03E90700 		stmdb	r3, {r0, r1, r2}
  35:Core/Inc/utils\container/queue_custom.h ****                 return elem;
 606              		.loc 2 35 0
 607 0030 05F00705 		and	r5, r5, #7
 608 0034 6560     		str	r5, [r4, #4]
 609              	.LVL49:
 610              	.LBE79:
 611              	.LBE78:
 124:Core/Src/devs/arduino.cpp ****                 gTxBuffer[1] = pack.dev_id;
 612              		.loc 1 124 0
 613 0036 9DF80430 		ldrb	r3, [sp, #4]	@ zero_extendqisi2
 614 003a 0C4C     		ldr	r4, .L58+8
 615 003c 2370     		strb	r3, [r4]
 125:Core/Src/devs/arduino.cpp ****                 copy_Bytes(pack.buffer, &gTxBuffer[2], pack.buf_len);
 616              		.loc 1 125 0
 617 003e 9DF80530 		ldrb	r3, [sp, #5]	@ zero_extendqisi2
 618 0042 6370     		strb	r3, [r4, #1]
 126:Core/Src/devs/arduino.cpp ****                 // 2 bytes extra to hold start byte and device id
 619              		.loc 1 126 0
 620 0044 BDF80C50 		ldrh	r5, [sp, #12]
 621 0048 2A46     		mov	r2, r5
 622 004a A11C     		adds	r1, r4, #2
 623 004c 0298     		ldr	r0, [sp, #8]
 624 004e FFF7FEFF 		bl	_ZL10copy_BytesPKhPht
 625              	.LVL50:
 128:Core/Src/devs/arduino.cpp **** 
 626              		.loc 1 128 0
 627 0052 AA1C     		adds	r2, r5, #2
 628              	.LVL51:
 130:Core/Src/devs/arduino.cpp ****         }
 629              		.loc 1 130 0
 630 0054 92B2     		uxth	r2, r2
 631 0056 2146     		mov	r1, r4
 632 0058 0548     		ldr	r0, .L58+12
 633 005a FFF7FEFF 		bl	HAL_UART_Transmit_IT
 634              	.LVL52:
 635              	.LBE77:
 636              	.LBE80:
 135:Core/Src/devs/arduino.cpp **** 
 637              		.loc 1 135 0
 638 005e 05B0     		add	sp, sp, #20
 639              	.LCFI11:
 640              		.cfi_def_cfa_offset 12
 641              		@ sp needed
 642 0060 30BD     		pop	{r4, r5, pc}
 643              	.LVL53:
 644              	.L59:
 645 0062 00BF     		.align	2
 646              	.L58:
 647 0064 00000000 		.word	.LANCHOR0
 648 0068 00000000 		.word	.LANCHOR4
 649 006c 00000000 		.word	.LANCHOR5
ARM GAS  C:\Users\073be\AppData\Local\Temp\cc7uQthu.s 			page 17


 650 0070 00000000 		.word	huart3
 651              		.cfi_endproc
 652              	.LFE148:
 654              		.section	.text._Z21Arduino_Handle_RxCpltv,"ax",%progbits
 655              		.align	1
 656              		.global	_Z21Arduino_Handle_RxCpltv
 657              		.syntax unified
 658              		.thumb
 659              		.thumb_func
 660              		.fpu fpv4-sp-d16
 662              	_Z21Arduino_Handle_RxCpltv:
 663              	.LFB149:
 143:Core/Src/devs/arduino.cpp ****         __HAL_UART_FLUSH_DRREGISTER(&ARDUINO_UART);
 664              		.loc 1 143 0
 665              		.cfi_startproc
 666              		@ args = 0, pretend = 0, frame = 0
 667              		@ frame_needed = 0, uses_anonymous_args = 0
 668              		@ link register save eliminated.
 144:Core/Src/devs/arduino.cpp **** 
 669              		.loc 1 144 0
 670 0000 314B     		ldr	r3, .L71
 671 0002 1B68     		ldr	r3, [r3]
 672 0004 5B68     		ldr	r3, [r3, #4]
 673              	.LBB81:
 146:Core/Src/devs/arduino.cpp ****                 if (gRxData == ARDUINO_START_BYTE) {
 674              		.loc 1 146 0
 675 0006 314B     		ldr	r3, .L71+4
 676 0008 1B78     		ldrb	r3, [r3]	@ zero_extendqisi2
 677 000a 63B9     		cbnz	r3, .L61
 147:Core/Src/devs/arduino.cpp ****                         ++gReceived_Data_num;
 678              		.loc 1 147 0
 679 000c 304B     		ldr	r3, .L71+8
 680 000e 1B78     		ldrb	r3, [r3]	@ zero_extendqisi2
 681 0010 A52B     		cmp	r3, #165
 682 0012 00D0     		beq	.L68
 683 0014 7047     		bx	lr
 684              	.L68:
 148:Core/Src/devs/arduino.cpp ****                         gStart_Byte_Received = true;
 685              		.loc 1 148 0
 686 0016 2F4A     		ldr	r2, .L71+12
 687 0018 1388     		ldrh	r3, [r2]
 688 001a 0133     		adds	r3, r3, #1
 689 001c 1380     		strh	r3, [r2]	@ movhi
 149:Core/Src/devs/arduino.cpp ****                 }
 690              		.loc 1 149 0
 691 001e 2B4B     		ldr	r3, .L71+4
 692 0020 0122     		movs	r2, #1
 693 0022 1A70     		strb	r2, [r3]
 694 0024 7047     		bx	lr
 695              	.L61:
 696              	.LBB82:
 153:Core/Src/devs/arduino.cpp ****                         ++gReceived_Data_num;
 697              		.loc 1 153 0
 698 0026 2B4B     		ldr	r3, .L71+12
 699 0028 1B88     		ldrh	r3, [r3]
 700 002a 012B     		cmp	r3, #1
 701 002c 21D0     		beq	.L69
ARM GAS  C:\Users\073be\AppData\Local\Temp\cc7uQthu.s 			page 18


 702              	.LBE82:
 703              	.LBE81:
 143:Core/Src/devs/arduino.cpp ****         __HAL_UART_FLUSH_DRREGISTER(&ARDUINO_UART);
 704              		.loc 1 143 0
 705 002e 70B4     		push	{r4, r5, r6}
 706              	.LCFI12:
 707              		.cfi_def_cfa_offset 12
 708              		.cfi_offset 4, -12
 709              		.cfi_offset 5, -8
 710              		.cfi_offset 6, -4
 711              	.LBB100:
 712              	.LBB98:
 713              	.LBB83:
 714              	.LBB84:
 158:Core/Src/devs/arduino.cpp ****                                 gRxBuffer[gCurrent_Device_ID][gReceived_Data_num - 2] = gRxData;
 715              		.loc 1 158 0
 716 0030 294A     		ldr	r2, .L71+16
 717 0032 1178     		ldrb	r1, [r2]	@ zero_extendqisi2
 718 0034 294A     		ldr	r2, .L71+20
 719 0036 505C     		ldrb	r0, [r2, r1]	@ zero_extendqisi2
 720 0038 821C     		adds	r2, r0, #2
 721 003a 9342     		cmp	r3, r2
 722 003c 0CDA     		bge	.L64
 723              	.LBB85:
 159:Core/Src/devs/arduino.cpp ****                                 ++gReceived_Data_num;
 724              		.loc 1 159 0
 725 003e 9D1E     		subs	r5, r3, #2
 726 0040 274C     		ldr	r4, .L71+24
 727 0042 04EBC104 		add	r4, r4, r1, lsl #3
 728 0046 224E     		ldr	r6, .L71+8
 729 0048 3678     		ldrb	r6, [r6]	@ zero_extendqisi2
 730 004a 6655     		strb	r6, [r4, r5]
 160:Core/Src/devs/arduino.cpp **** 
 731              		.loc 1 160 0
 732 004c 0133     		adds	r3, r3, #1
 733 004e 9BB2     		uxth	r3, r3
 734 0050 204C     		ldr	r4, .L71+12
 735 0052 2380     		strh	r3, [r4]	@ movhi
 736              	.LBB86:
 163:Core/Src/devs/arduino.cpp ****                                         if (gCurrent_Device_ID == gXLidar_Dev.get_ID()) {
 737              		.loc 1 163 0
 738 0054 0228     		cmp	r0, #2
 739 0056 14D0     		beq	.L70
 740              	.L64:
 741              	.LBE86:
 742              	.LBE85:
 743              	.LBE84:
 173:Core/Src/devs/arduino.cpp ****                                 gStart_Byte_Received = false;
 744              		.loc 1 173 0
 745 0058 1E4B     		ldr	r3, .L71+12
 746 005a 1B88     		ldrh	r3, [r3]
 747 005c 9A42     		cmp	r2, r3
 748 005e 06DC     		bgt	.L60
 174:Core/Src/devs/arduino.cpp ****                                 gReceived_Data_num = 0;
 749              		.loc 1 174 0
 750 0060 0023     		movs	r3, #0
 751 0062 1A4A     		ldr	r2, .L71+4
ARM GAS  C:\Users\073be\AppData\Local\Temp\cc7uQthu.s 			page 19


 752 0064 1370     		strb	r3, [r2]
 175:Core/Src/devs/arduino.cpp ****                                 gCurrent_Device_ID = 0x00;
 753              		.loc 1 175 0
 754 0066 1B4A     		ldr	r2, .L71+12
 755 0068 1380     		strh	r3, [r2]	@ movhi
 176:Core/Src/devs/arduino.cpp ****                         }
 756              		.loc 1 176 0
 757 006a 1B4A     		ldr	r2, .L71+16
 758 006c 1370     		strb	r3, [r2]
 759              	.L60:
 760              	.LBE83:
 761              	.LBE98:
 762              	.LBE100:
 763              		.loc 1 180 0
 764 006e 70BC     		pop	{r4, r5, r6}
 765              	.LCFI13:
 766              		.cfi_restore 6
 767              		.cfi_restore 5
 768              		.cfi_restore 4
 769              		.cfi_def_cfa_offset 0
 770 0070 7047     		bx	lr
 771              	.L69:
 772              	.LBB101:
 773              	.LBB99:
 154:Core/Src/devs/arduino.cpp ****                         gCurrent_Device_ID = gRxData;
 774              		.loc 1 154 0
 775 0072 0133     		adds	r3, r3, #1
 776 0074 174A     		ldr	r2, .L71+12
 777 0076 1380     		strh	r3, [r2]	@ movhi
 155:Core/Src/devs/arduino.cpp ****                 }
 778              		.loc 1 155 0
 779 0078 154B     		ldr	r3, .L71+8
 780 007a 1A78     		ldrb	r2, [r3]	@ zero_extendqisi2
 781 007c 164B     		ldr	r3, .L71+16
 782 007e 1A70     		strb	r2, [r3]
 783 0080 7047     		bx	lr
 784              	.L70:
 785              	.LCFI14:
 786              		.cfi_def_cfa_offset 12
 787              		.cfi_offset 4, -12
 788              		.cfi_offset 5, -8
 789              		.cfi_offset 6, -4
 790              	.LBB97:
 791              	.LBB96:
 792              	.LBB95:
 793              	.LBB94:
 163:Core/Src/devs/arduino.cpp ****                                         if (gCurrent_Device_ID == gXLidar_Dev.get_ID()) {
 794              		.loc 1 163 0 discriminator 1
 795 0082 042B     		cmp	r3, #4
 796 0084 E8D1     		bne	.L64
 797              	.LVL54:
 798              	.LBB87:
 799              	.LBB88:
 800              	.LBB89:
 801              		.file 3 "Core/Inc/devs/arduino.h"
   1:Core/Inc/devs/arduino.h **** /*
   2:Core/Inc/devs/arduino.h ****  * arduino.h
ARM GAS  C:\Users\073be\AppData\Local\Temp\cc7uQthu.s 			page 20


   3:Core/Inc/devs/arduino.h ****  * 
   4:Core/Inc/devs/arduino.h ****  * Created : 1/5/2018
   5:Core/Inc/devs/arduino.h ****  *  Author : n-is
   6:Core/Inc/devs/arduino.h ****  *   email : 073bex422.nischal@pcampus.edu.np
   7:Core/Inc/devs/arduino.h ****  */
   8:Core/Inc/devs/arduino.h **** 
   9:Core/Inc/devs/arduino.h **** #ifndef _ARDUINO_H_
  10:Core/Inc/devs/arduino.h **** #define _ARDUINO_H_
  11:Core/Inc/devs/arduino.h **** 
  12:Core/Inc/devs/arduino.h **** #include "sensor.h"
  13:Core/Inc/devs/arduino.h **** #include "queue_custom.h"
  14:Core/Inc/devs/arduino.h **** 
  15:Core/Inc/devs/arduino.h **** 
  16:Core/Inc/devs/arduino.h **** class Arduino_Device
  17:Core/Inc/devs/arduino.h **** {
  18:Core/Inc/devs/arduino.h **** public:
  19:Core/Inc/devs/arduino.h ****         Arduino_Device(uint8_t id, uint8_t num_bytes);
  20:Core/Inc/devs/arduino.h ****         Arduino_Device(Arduino_Device &&) = default;
  21:Core/Inc/devs/arduino.h ****         Arduino_Device(const Arduino_Device &) = default;
  22:Core/Inc/devs/arduino.h ****         Arduino_Device &operator=(Arduino_Device &&) = default;
  23:Core/Inc/devs/arduino.h ****         Arduino_Device &operator=(const Arduino_Device &) = default;
  24:Core/Inc/devs/arduino.h ****         ~Arduino_Device() { }
  25:Core/Inc/devs/arduino.h ****         
  26:Core/Inc/devs/arduino.h ****         static int init();
  27:Core/Inc/devs/arduino.h ****         float read();
  28:Core/Inc/devs/arduino.h ****         bool available();
  29:Core/Inc/devs/arduino.h ****         void denit();
  30:Core/Inc/devs/arduino.h **** 
  31:Core/Inc/devs/arduino.h ****         int read(uint8_t *buf, uint16_t len);
  32:Core/Inc/devs/arduino.h ****         
  33:Core/Inc/devs/arduino.h ****         uint8_t get_ID() const { return id_; }
 802              		.loc 3 33 0
 803 0086 174B     		ldr	r3, .L71+28
 804 0088 1B7D     		ldrb	r3, [r3, #20]	@ zero_extendqisi2
 805              	.LVL55:
 806              	.LBE89:
 807              	.LBE88:
 164:Core/Src/devs/arduino.cpp ****                                                 int16_t val = (gRxBuffer[gCurrent_Device_ID][0]) <<
 808              		.loc 1 164 0
 809 008a 9942     		cmp	r1, r3
 810 008c E4D1     		bne	.L64
 811              	.LBB90:
 165:Core/Src/devs/arduino.cpp ****                                                 val |= gRxBuffer[gCurrent_Device_ID][1];
 812              		.loc 1 165 0
 813 008e 1448     		ldr	r0, .L71+24
 814 0090 10F83130 		ldrb	r3, [r0, r1, lsl #3]	@ zero_extendqisi2
 815 0094 1B02     		lsls	r3, r3, #8
 816 0096 1BB2     		sxth	r3, r3
 817              	.LVL56:
 166:Core/Src/devs/arduino.cpp ****                                                 gXLidar_Dev.store((float)val);
 818              		.loc 1 166 0
 819 0098 00EBC101 		add	r1, r0, r1, lsl #3
 820 009c 4978     		ldrb	r1, [r1, #1]	@ zero_extendqisi2
 821 009e 0B43     		orrs	r3, r3, r1
 822              	.LVL57:
 167:Core/Src/devs/arduino.cpp ****                                                 // printf("%d\n", val);
 823              		.loc 1 167 0
ARM GAS  C:\Users\073be\AppData\Local\Temp\cc7uQthu.s 			page 21


 824 00a0 07EE903A 		vmov	s15, r3	@ int
 825 00a4 F8EEE77A 		vcvt.f32.s32	s15, s15
 826              	.LVL58:
 827              	.LBB91:
 828              	.LBB92:
 829              	.LBB93:
  26:Core/Inc/utils\container/queue_custom.h ****                 queue_[head_++] = elem;
 830              		.loc 2 26 0
 831 00a8 0E49     		ldr	r1, .L71+28
 832 00aa 8B68     		ldr	r3, [r1, #8]
 833              	.LVL59:
 834 00ac 0133     		adds	r3, r3, #1
 835 00ae 8B60     		str	r3, [r1, #8]
  27:Core/Inc/utils\container/queue_custom.h ****                 head_ %= q_size;
 836              		.loc 2 27 0
 837 00b0 0B68     		ldr	r3, [r1]
 838 00b2 581C     		adds	r0, r3, #1
 839              	.LVL60:
 840 00b4 0233     		adds	r3, r3, #2
 841 00b6 01EB8303 		add	r3, r1, r3, lsl #2
 842 00ba C3ED017A 		vstr.32	s15, [r3, #4]
  28:Core/Inc/utils\container/queue_custom.h ****         }
 843              		.loc 2 28 0
 844 00be 00F00100 		and	r0, r0, #1
 845 00c2 0860     		str	r0, [r1]
 846              	.LVL61:
 847 00c4 C8E7     		b	.L64
 848              	.L72:
 849 00c6 00BF     		.align	2
 850              	.L71:
 851 00c8 00000000 		.word	huart3
 852 00cc 00000000 		.word	.LANCHOR6
 853 00d0 00000000 		.word	.LANCHOR3
 854 00d4 00000000 		.word	.LANCHOR7
 855 00d8 00000000 		.word	.LANCHOR8
 856 00dc 00000000 		.word	.LANCHOR1
 857 00e0 00000000 		.word	.LANCHOR9
 858 00e4 00000000 		.word	gXLidar_Dev
 859              	.LBE93:
 860              	.LBE92:
 861              	.LBE91:
 862              	.LBE90:
 863              	.LBE87:
 864              	.LBE94:
 865              	.LBE95:
 866              	.LBE96:
 867              	.LBE97:
 868              	.LBE99:
 869              	.LBE101:
 870              		.cfi_endproc
 871              	.LFE149:
 873              		.section	.text._GLOBAL__sub_I__ZN14Arduino_DeviceC2Ehh,"ax",%progbits
 874              		.align	1
 875              		.syntax unified
 876              		.thumb
 877              		.thumb_func
 878              		.fpu fpv4-sp-d16
ARM GAS  C:\Users\073be\AppData\Local\Temp\cc7uQthu.s 			page 22


 880              	_GLOBAL__sub_I__ZN14Arduino_DeviceC2Ehh:
 881              	.LFB171:
 882              		.loc 1 180 0
 883              		.cfi_startproc
 884              		@ args = 0, pretend = 0, frame = 0
 885              		@ frame_needed = 0, uses_anonymous_args = 0
 886 0000 08B5     		push	{r3, lr}
 887              	.LCFI15:
 888              		.cfi_def_cfa_offset 8
 889              		.cfi_offset 3, -8
 890              		.cfi_offset 14, -4
 891              		.loc 1 180 0
 892 0002 4FF6FF71 		movw	r1, #65535
 893 0006 0120     		movs	r0, #1
 894 0008 FFF7FEFF 		bl	_Z41__static_initialization_and_destruction_0ii
 895              	.LVL62:
 896 000c 08BD     		pop	{r3, pc}
 897              		.cfi_endproc
 898              	.LFE171:
 900              		.section	.init_array,"aw",%init_array
 901              		.align	2
 902 0000 00000000 		.word	_GLOBAL__sub_I__ZN14Arduino_DeviceC2Ehh(target1)
 903              		.global	gSending_Packet
 904              		.global	gTxBuffer
 905              		.global	_ZN14Arduino_Device9initiatedE
 906              		.section	.bss._ZL17gBytes_Per_Device,"aw",%nobits
 907              		.align	2
 908              		.set	.LANCHOR1,. + 0
 911              	_ZL17gBytes_Per_Device:
 912 0000 000000   		.space	3
 913              		.section	.bss._ZL18gCurrent_Device_ID,"aw",%nobits
 914              		.set	.LANCHOR8,. + 0
 917              	_ZL18gCurrent_Device_ID:
 918 0000 00       		.space	1
 919              		.section	.bss._ZL18gReceived_Data_num,"aw",%nobits
 920              		.align	1
 921              		.set	.LANCHOR7,. + 0
 924              	_ZL18gReceived_Data_num:
 925 0000 0000     		.space	2
 926              		.section	.bss._ZL20gStart_Byte_Received,"aw",%nobits
 927              		.set	.LANCHOR6,. + 0
 930              	_ZL20gStart_Byte_Received:
 931 0000 00       		.space	1
 932              		.section	.bss._ZL7gRxData,"aw",%nobits
 933              		.set	.LANCHOR3,. + 0
 936              	_ZL7gRxData:
 937 0000 00       		.space	1
 938              		.section	.bss._ZL7gTxData,"aw",%nobits
 939              		.align	2
 940              		.set	.LANCHOR0,. + 0
 943              	_ZL7gTxData:
 944 0000 00000000 		.space	108
 944      00000000 
 944      00000000 
 944      00000000 
 944      00000000 
 945              		.section	.bss._ZL9gRxBuffer,"aw",%nobits
ARM GAS  C:\Users\073be\AppData\Local\Temp\cc7uQthu.s 			page 23


 946              		.align	2
 947              		.set	.LANCHOR9,. + 0
 950              	_ZL9gRxBuffer:
 951 0000 00000000 		.space	24
 951      00000000 
 951      00000000 
 951      00000000 
 951      00000000 
 952              		.section	.bss._ZN14Arduino_Device9initiatedE,"aw",%nobits
 953              		.set	.LANCHOR2,. + 0
 956              	_ZN14Arduino_Device9initiatedE:
 957 0000 00       		.space	1
 958              		.section	.bss.gSending_Packet,"aw",%nobits
 959              		.set	.LANCHOR4,. + 0
 962              	gSending_Packet:
 963 0000 00       		.space	1
 964              		.section	.bss.gTxBuffer,"aw",%nobits
 965              		.align	2
 966              		.set	.LANCHOR5,. + 0
 969              	gTxBuffer:
 970 0000 00000000 		.space	32
 970      00000000 
 970      00000000 
 970      00000000 
 970      00000000 
 971              		.section	.rodata._ZN14Arduino_DeviceC2Ehh.str1.4,"aMS",%progbits,1
 972              		.align	2
 973              	.LC0:
 974 0000 436F7265 		.ascii	"Core/Src/devs/arduino.cpp\000"
 974      2F537263 
 974      2F646576 
 974      732F6172 
 974      6475696E 
 975              		.text
 976              	.Letext0:
 977              		.file 4 "c:\\program files (x86)\\gnu tools arm embedded\\7 2017-q4-major\\arm-none-eabi\\include\
 978              		.file 5 "c:\\program files (x86)\\gnu tools arm embedded\\7 2017-q4-major\\arm-none-eabi\\include\
 979              		.file 6 "C:/Users/n-is/STM32Cube/Repository/STM32Cube_FW_F4_V1.23.0/Drivers/CMSIS/Include/core_cm4
 980              		.file 7 "C:/Users/n-is/STM32Cube/Repository/STM32Cube_FW_F4_V1.23.0/Drivers/CMSIS/Device/ST/STM32F
 981              		.file 8 "C:/Users/n-is/STM32Cube/Repository/STM32Cube_FW_F4_V1.23.0/Drivers/CMSIS/Device/ST/STM32F
 982              		.file 9 "C:/Users/n-is/STM32Cube/Repository/STM32Cube_FW_F4_V1.23.0/Drivers/CMSIS/Device/ST/STM32F
 983              		.file 10 "c:\\program files (x86)\\gnu tools arm embedded\\7 2017-q4-major\\arm-none-eabi\\include
 984              		.file 11 "c:\\program files (x86)\\gnu tools arm embedded\\7 2017-q4-major\\arm-none-eabi\\include
 985              		.file 12 "c:\\program files (x86)\\gnu tools arm embedded\\7 2017-q4-major\\lib\\gcc\\arm-none-eab
 986              		.file 13 "c:\\program files (x86)\\gnu tools arm embedded\\7 2017-q4-major\\arm-none-eabi\\include
 987              		.file 14 "C:/Users/n-is/STM32Cube/Repository/STM32Cube_FW_F4_V1.23.0/Drivers/STM32F4xx_HAL_Driver/
 988              		.file 15 "C:/Users/n-is/STM32Cube/Repository/STM32Cube_FW_F4_V1.23.0/Drivers/STM32F4xx_HAL_Driver/
 989              		.file 16 "C:/Users/n-is/STM32Cube/Repository/STM32Cube_FW_F4_V1.23.0/Drivers/STM32F4xx_HAL_Driver/
 990              		.file 17 "C:/Users/n-is/STM32Cube/Repository/STM32Cube_FW_F4_V1.23.0/Drivers/STM32F4xx_HAL_Driver/
 991              		.file 18 "Core/Inc/periphs/usart.h"
 992              		.file 19 "Core/Inc/main.h"
ARM GAS  C:\Users\073be\AppData\Local\Temp\cc7uQthu.s 			page 24

