ARM GAS  C:\Users\073be\AppData\Local\Temp\ccWvmng2.s 			page 1


   1              		.cpu cortex-m4
   2              		.eabi_attribute 27, 1
   3              		.eabi_attribute 28, 1
   4              		.eabi_attribute 20, 1
   5              		.eabi_attribute 21, 1
   6              		.eabi_attribute 23, 3
   7              		.eabi_attribute 24, 1
   8              		.eabi_attribute 25, 1
   9              		.eabi_attribute 26, 1
  10              		.eabi_attribute 30, 1
  11              		.eabi_attribute 34, 1
  12              		.eabi_attribute 18, 4
  13              		.file	"error.cpp"
  14              		.text
  15              	.Ltext0:
  16              		.cfi_sections	.debug_frame
  17              		.section	.text._Z5error5Error,"ax",%progbits
  18              		.align	1
  19              		.global	_Z5error5Error
  20              		.syntax unified
  21              		.thumb
  22              		.thumb_func
  23              		.fpu fpv4-sp-d16
  25              	_Z5error5Error:
  26              	.LFB124:
  27              		.file 1 "Core/Src/sys/error.cpp"
   1:Core/Src/sys/error.cpp **** /*
   2:Core/Src/sys/error.cpp ****  * error.cpp
   3:Core/Src/sys/error.cpp ****  *
   4:Core/Src/sys/error.cpp ****  * Created : 1/10/2019
   5:Core/Src/sys/error.cpp ****  *  Author : n-is
   6:Core/Src/sys/error.cpp ****  *   email : 073bex422.nischal@pcampus.edu.np
   7:Core/Src/sys/error.cpp ****  */
   8:Core/Src/sys/error.cpp **** 
   9:Core/Src/sys/error.cpp **** #include "error.h"
  10:Core/Src/sys/error.cpp **** #include "gpio.h"
  11:Core/Src/sys/error.cpp **** 
  12:Core/Src/sys/error.cpp **** #define _USE_BOARD_LEDS_FOR_ERROR_
  13:Core/Src/sys/error.cpp **** // #define _USE_mikroBUS_LEDS_FOR_ERROR_
  14:Core/Src/sys/error.cpp **** 
  15:Core/Src/sys/error.cpp **** void error(Error err)
  16:Core/Src/sys/error.cpp **** {
  28              		.loc 1 16 0
  29              		.cfi_startproc
  30              		@ args = 0, pretend = 0, frame = 0
  31              		@ frame_needed = 0, uses_anonymous_args = 0
  32              	.LVL0:
  33 0000 10B5     		push	{r4, lr}
  34              	.LCFI0:
  35              		.cfi_def_cfa_offset 8
  36              		.cfi_offset 4, -8
  37              		.cfi_offset 14, -4
  38 0002 0446     		mov	r4, r0
  39              	.LVL1:
  17:Core/Src/sys/error.cpp ****         uint8_t err_no = (uint8_t)err;
  18:Core/Src/sys/error.cpp **** #ifdef _USE_BOARD_LEDS_FOR_ERROR_
  19:Core/Src/sys/error.cpp **** 
ARM GAS  C:\Users\073be\AppData\Local\Temp\ccWvmng2.s 			page 2


  20:Core/Src/sys/error.cpp ****         if (err_no & 0x01) {
  40              		.loc 1 20 0
  41 0004 10F0010F 		tst	r0, #1
  42 0008 09D1     		bne	.L7
  43              	.LVL2:
  44              	.L2:
  21:Core/Src/sys/error.cpp ****                 HAL_GPIO_WritePin(B_GreenLED_GPIO_Port, B_GreenLED_Pin, GPIO_PIN_SET);
  22:Core/Src/sys/error.cpp ****         }
  23:Core/Src/sys/error.cpp **** 
  24:Core/Src/sys/error.cpp ****         if (err_no & 0x02) {
  45              		.loc 1 24 0
  46 000a 14F0020F 		tst	r4, #2
  47 000e 0DD1     		bne	.L8
  48              	.L3:
  25:Core/Src/sys/error.cpp ****                 HAL_GPIO_WritePin(B_OrangeLED_GPIO_Port, B_OrangeLED_Pin, GPIO_PIN_SET);
  26:Core/Src/sys/error.cpp ****         }
  27:Core/Src/sys/error.cpp ****         
  28:Core/Src/sys/error.cpp ****         if (err_no & 0x04) {
  49              		.loc 1 28 0
  50 0010 14F0040F 		tst	r4, #4
  51 0014 11D1     		bne	.L9
  52              	.L4:
  29:Core/Src/sys/error.cpp ****                 HAL_GPIO_WritePin(B_RedLED_GPIO_Port, B_RedLED_Pin, GPIO_PIN_SET);
  30:Core/Src/sys/error.cpp ****         }
  31:Core/Src/sys/error.cpp **** 
  32:Core/Src/sys/error.cpp ****         if (err_no & 0x08) {
  53              		.loc 1 32 0
  54 0016 14F0080F 		tst	r4, #8
  55 001a 15D1     		bne	.L10
  56              	.L1:
  33:Core/Src/sys/error.cpp ****                 HAL_GPIO_WritePin(B_BlueLED_GPIO_Port, B_BlueLED_Pin, GPIO_PIN_SET);
  34:Core/Src/sys/error.cpp ****         }
  35:Core/Src/sys/error.cpp **** 
  36:Core/Src/sys/error.cpp **** #endif // _USE_BOARD_LEDS_FOR_ERROR_
  37:Core/Src/sys/error.cpp **** }
  57              		.loc 1 37 0
  58 001c 10BD     		pop	{r4, pc}
  59              	.LVL3:
  60              	.L7:
  21:Core/Src/sys/error.cpp ****         }
  61              		.loc 1 21 0
  62 001e 0122     		movs	r2, #1
  63 0020 4FF48051 		mov	r1, #4096
  64 0024 0C48     		ldr	r0, .L11
  65              	.LVL4:
  66 0026 FFF7FEFF 		bl	HAL_GPIO_WritePin
  67              	.LVL5:
  68 002a EEE7     		b	.L2
  69              	.L8:
  25:Core/Src/sys/error.cpp ****         }
  70              		.loc 1 25 0
  71 002c 0122     		movs	r2, #1
  72 002e 4FF40051 		mov	r1, #8192
  73 0032 0948     		ldr	r0, .L11
  74 0034 FFF7FEFF 		bl	HAL_GPIO_WritePin
  75              	.LVL6:
  76 0038 EAE7     		b	.L3
ARM GAS  C:\Users\073be\AppData\Local\Temp\ccWvmng2.s 			page 3


  77              	.L9:
  29:Core/Src/sys/error.cpp ****         }
  78              		.loc 1 29 0
  79 003a 0122     		movs	r2, #1
  80 003c 4FF48041 		mov	r1, #16384
  81 0040 0548     		ldr	r0, .L11
  82 0042 FFF7FEFF 		bl	HAL_GPIO_WritePin
  83              	.LVL7:
  84 0046 E6E7     		b	.L4
  85              	.L10:
  33:Core/Src/sys/error.cpp ****         }
  86              		.loc 1 33 0
  87 0048 0122     		movs	r2, #1
  88 004a 4FF40041 		mov	r1, #32768
  89 004e 0248     		ldr	r0, .L11
  90 0050 FFF7FEFF 		bl	HAL_GPIO_WritePin
  91              	.LVL8:
  92              		.loc 1 37 0
  93 0054 E2E7     		b	.L1
  94              	.L12:
  95 0056 00BF     		.align	2
  96              	.L11:
  97 0058 000C0240 		.word	1073875968
  98              		.cfi_endproc
  99              	.LFE124:
 101              		.section	.text._Z12clear_Errorsv,"ax",%progbits
 102              		.align	1
 103              		.global	_Z12clear_Errorsv
 104              		.syntax unified
 105              		.thumb
 106              		.thumb_func
 107              		.fpu fpv4-sp-d16
 109              	_Z12clear_Errorsv:
 110              	.LFB125:
  38:Core/Src/sys/error.cpp **** 
  39:Core/Src/sys/error.cpp **** void clear_Errors()
  40:Core/Src/sys/error.cpp **** {
 111              		.loc 1 40 0
 112              		.cfi_startproc
 113              		@ args = 0, pretend = 0, frame = 0
 114              		@ frame_needed = 0, uses_anonymous_args = 0
 115 0000 10B5     		push	{r4, lr}
 116              	.LCFI1:
 117              		.cfi_def_cfa_offset 8
 118              		.cfi_offset 4, -8
 119              		.cfi_offset 14, -4
  41:Core/Src/sys/error.cpp **** #ifdef _USE_BOARD_LEDS_FOR_ERROR_
  42:Core/Src/sys/error.cpp ****         HAL_GPIO_WritePin(B_GreenLED_GPIO_Port, B_GreenLED_Pin, GPIO_PIN_RESET);
 120              		.loc 1 42 0
 121 0002 0D4C     		ldr	r4, .L15
 122 0004 0022     		movs	r2, #0
 123 0006 4FF48051 		mov	r1, #4096
 124 000a 2046     		mov	r0, r4
 125 000c FFF7FEFF 		bl	HAL_GPIO_WritePin
 126              	.LVL9:
  43:Core/Src/sys/error.cpp ****         HAL_GPIO_WritePin(B_OrangeLED_GPIO_Port, B_OrangeLED_Pin, GPIO_PIN_RESET);
 127              		.loc 1 43 0
ARM GAS  C:\Users\073be\AppData\Local\Temp\ccWvmng2.s 			page 4


 128 0010 0022     		movs	r2, #0
 129 0012 4FF40051 		mov	r1, #8192
 130 0016 2046     		mov	r0, r4
 131 0018 FFF7FEFF 		bl	HAL_GPIO_WritePin
 132              	.LVL10:
  44:Core/Src/sys/error.cpp ****         HAL_GPIO_WritePin(B_RedLED_GPIO_Port, B_RedLED_Pin, GPIO_PIN_RESET);
 133              		.loc 1 44 0
 134 001c 0022     		movs	r2, #0
 135 001e 4FF48041 		mov	r1, #16384
 136 0022 2046     		mov	r0, r4
 137 0024 FFF7FEFF 		bl	HAL_GPIO_WritePin
 138              	.LVL11:
  45:Core/Src/sys/error.cpp ****         HAL_GPIO_WritePin(B_BlueLED_GPIO_Port, B_BlueLED_Pin, GPIO_PIN_RESET);
 139              		.loc 1 45 0
 140 0028 0022     		movs	r2, #0
 141 002a 4FF40041 		mov	r1, #32768
 142 002e 2046     		mov	r0, r4
 143 0030 FFF7FEFF 		bl	HAL_GPIO_WritePin
 144              	.LVL12:
  46:Core/Src/sys/error.cpp **** #endif // _USE_BOARD_LEDS_FOR_ERROR_
  47:Core/Src/sys/error.cpp **** }
 145              		.loc 1 47 0
 146 0034 10BD     		pop	{r4, pc}
 147              	.L16:
 148 0036 00BF     		.align	2
 149              	.L15:
 150 0038 000C0240 		.word	1073875968
 151              		.cfi_endproc
 152              	.LFE125:
 154              		.text
 155              	.Letext0:
 156              		.file 2 "c:\\program files (x86)\\gnu tools arm embedded\\7 2017-q4-major\\arm-none-eabi\\include\
 157              		.file 3 "c:\\program files (x86)\\gnu tools arm embedded\\7 2017-q4-major\\arm-none-eabi\\include\
 158              		.file 4 "C:/Users/n-is/STM32Cube/Repository/STM32Cube_FW_F4_V1.23.0/Drivers/CMSIS/Include/core_cm4
 159              		.file 5 "C:/Users/n-is/STM32Cube/Repository/STM32Cube_FW_F4_V1.23.0/Drivers/CMSIS/Device/ST/STM32F
 160              		.file 6 "C:/Users/n-is/STM32Cube/Repository/STM32Cube_FW_F4_V1.23.0/Drivers/CMSIS/Device/ST/STM32F
 161              		.file 7 "c:\\program files (x86)\\gnu tools arm embedded\\7 2017-q4-major\\arm-none-eabi\\include\
 162              		.file 8 "c:\\program files (x86)\\gnu tools arm embedded\\7 2017-q4-major\\arm-none-eabi\\include\
 163              		.file 9 "c:\\program files (x86)\\gnu tools arm embedded\\7 2017-q4-major\\lib\\gcc\\arm-none-eabi
 164              		.file 10 "c:\\program files (x86)\\gnu tools arm embedded\\7 2017-q4-major\\arm-none-eabi\\include
 165              		.file 11 "C:/Users/n-is/STM32Cube/Repository/STM32Cube_FW_F4_V1.23.0/Drivers/STM32F4xx_HAL_Driver/
 166              		.file 12 "Core/Inc/sys/error.h"
ARM GAS  C:\Users\073be\AppData\Local\Temp\ccWvmng2.s 			page 5

